
sodailte_awa.elf:     file format elf32-littlenios2
sodailte_awa.elf
architecture: nios2, flags 0x00000112:
EXEC_P, HAS_SYMS, D_PAGED
start address 0x0000018c

Program Header:
    LOAD off    0x00001020 vaddr 0x00000020 paddr 0x00000020 align 2**12
         filesz 0x00030758 memsz 0x00030758 flags r-x
    LOAD off    0x00031778 vaddr 0x00030778 paddr 0x0003230c align 2**12
         filesz 0x00001b94 memsz 0x00001b94 flags rw-
    LOAD off    0x00033ea0 vaddr 0x00033ea0 paddr 0x00033ea0 align 2**12
         filesz 0x00000000 memsz 0x00000310 flags rw-
    LOAD off    0x00034000 vaddr 0x0f000000 paddr 0x0f000000 align 2**12
         filesz 0x00000020 memsz 0x00000020 flags r-x

Sections:
Idx Name          Size      VMA       LMA       File off  Algn
  0 .entry        00000020  0f000000  0f000000  00034000  2**5
                  CONTENTS, ALLOC, LOAD, READONLY, CODE
  1 .exceptions   0000016c  00000020  00000020  00001020  2**2
                  CONTENTS, ALLOC, LOAD, READONLY, CODE
  2 .text         0000cef4  0000018c  0000018c  0000118c  2**2
                  CONTENTS, ALLOC, LOAD, READONLY, CODE
  3 .rodata       000236f8  0000d080  0000d080  0000e080  2**2
                  CONTENTS, ALLOC, LOAD, READONLY, DATA
  4 .rwdata       00001b94  00030778  0003230c  00031778  2**2
                  CONTENTS, ALLOC, LOAD, DATA, SMALL_DATA
  5 .bss          00000310  00033ea0  00033ea0  00033ea0  2**2
                  ALLOC, SMALL_DATA
  6 .comment      00000023  00000000  00000000  00034020  2**0
                  CONTENTS, READONLY
  7 .debug_aranges 00000f20  00000000  00000000  00034048  2**3
                  CONTENTS, READONLY, DEBUGGING
  8 .debug_info   0002aa0b  00000000  00000000  00034f68  2**0
                  CONTENTS, READONLY, DEBUGGING
  9 .debug_abbrev 0000aee4  00000000  00000000  0005f973  2**0
                  CONTENTS, READONLY, DEBUGGING
 10 .debug_line   0000c0b1  00000000  00000000  0006a857  2**0
                  CONTENTS, READONLY, DEBUGGING
 11 .debug_frame  00001b58  00000000  00000000  00076908  2**2
                  CONTENTS, READONLY, DEBUGGING
 12 .debug_str    00003da3  00000000  00000000  00078460  2**0
                  CONTENTS, READONLY, DEBUGGING
 13 .debug_loc    00014b47  00000000  00000000  0007c203  2**0
                  CONTENTS, READONLY, DEBUGGING
 14 .debug_alt_sim_info 00000030  00000000  00000000  00090d4c  2**2
                  CONTENTS, READONLY, DEBUGGING
 15 .debug_ranges 00000d78  00000000  00000000  00090d80  2**3
                  CONTENTS, READONLY, DEBUGGING
 16 .thread_model 00000003  00000000  00000000  000954c0  2**0
                  CONTENTS, READONLY
 17 .cpu          0000000c  00000000  00000000  000954c3  2**0
                  CONTENTS, READONLY
 18 .qsys         00000001  00000000  00000000  000954cf  2**0
                  CONTENTS, READONLY
 19 .simulation_enabled 00000001  00000000  00000000  000954d0  2**0
                  CONTENTS, READONLY
 20 .sysid_hash   00000004  00000000  00000000  000954d1  2**0
                  CONTENTS, READONLY
 21 .sysid_base   00000004  00000000  00000000  000954d5  2**0
                  CONTENTS, READONLY
 22 .sysid_time   00000004  00000000  00000000  000954d9  2**0
                  CONTENTS, READONLY
 23 .stderr_dev   00000009  00000000  00000000  000954dd  2**0
                  CONTENTS, READONLY
 24 .stdin_dev    00000009  00000000  00000000  000954e6  2**0
                  CONTENTS, READONLY
 25 .stdout_dev   00000009  00000000  00000000  000954ef  2**0
                  CONTENTS, READONLY
 26 .sopc_system_name 00000008  00000000  00000000  000954f8  2**0
                  CONTENTS, READONLY
 27 .sopcinfo     00078592  00000000  00000000  00095500  2**0
                  CONTENTS, READONLY
SYMBOL TABLE:
0f000000 l    d  .entry	00000000 .entry
00000020 l    d  .exceptions	00000000 .exceptions
0000018c l    d  .text	00000000 .text
0000d080 l    d  .rodata	00000000 .rodata
00030778 l    d  .rwdata	00000000 .rwdata
00033ea0 l    d  .bss	00000000 .bss
00000000 l    d  .comment	00000000 .comment
00000000 l    d  .debug_aranges	00000000 .debug_aranges
00000000 l    d  .debug_info	00000000 .debug_info
00000000 l    d  .debug_abbrev	00000000 .debug_abbrev
00000000 l    d  .debug_line	00000000 .debug_line
00000000 l    d  .debug_frame	00000000 .debug_frame
00000000 l    d  .debug_str	00000000 .debug_str
00000000 l    d  .debug_loc	00000000 .debug_loc
00000000 l    d  .debug_alt_sim_info	00000000 .debug_alt_sim_info
00000000 l    d  .debug_ranges	00000000 .debug_ranges
00000000 l    df *ABS*	00000000 ../sodalite_filetest_bsp//obj/HAL/src/crt0.o
000001d4 l       .text	00000000 alt_after_alt_main
00000000 l    df *ABS*	00000000 alt_irq_handler.c
00000000 l    df *ABS*	00000000 alt_instruction_exception_entry.c
00030738 l     O .rodata	00000040 CSWTCH.5
00000000 l    df *ABS*	00000000 awa.c
00000000 l    df *ABS*	00000000 fontx_k12x10.c
00000000 l    df *ABS*	00000000 fontx_k6x10.c
00000000 l    df *ABS*	00000000 nd_egl.c
00000400 l     F .text	00000098 nd_GsEglFontx_putkanji
00033ea0 l     O .bss	00000004 nd_color
00033ea4 l     O .bss	00000004 nd_bgcolor
00033ea8 l     O .bss	00000004 nd_pastel
00033eac l     O .bss	00000004 pFONTX_ascii_top
00033eb0 l     O .bss	00000004 pFONTX_kanji_top
00000000 l    df *ABS*	00000000 testuty.c
000301ea l     O .rodata	00000200 memcrc16table
00000000 l    df *ABS*	00000000 lib2-divmod.c
000015b0 l     F .text	00000074 udivmodsi4
00000000 l    df *ABS*	00000000 printf.c
00000000 l    df *ABS*	00000000 putchar.c
00000000 l    df *ABS*	00000000 puts.c
00000000 l    df *ABS*	00000000 rand.c
00000000 l    df *ABS*	00000000 strlen.c
00000000 l    df *ABS*	00000000 vfprintf.c
00001908 l     F .text	00000034 __sprint_r
0003042e l     O .rodata	00000010 blanks.3546
0003043e l     O .rodata	00000010 zeroes.3547
00000000 l    df *ABS*	00000000 wsetup.c
00000000 l    df *ABS*	00000000 dtoa.c
000038cc l     F .text	00000208 quorem
00000000 l    df *ABS*	00000000 fflush.c
00000000 l    df *ABS*	00000000 findfp.c
00005308 l     F .text	00000008 __fp_lock
00005310 l     F .text	00000008 __fp_unlock
00000000 l    df *ABS*	00000000 mallocr.c
00000000 l    df *ABS*	00000000 fvwrite.c
00000000 l    df *ABS*	00000000 fwalk.c
00000000 l    df *ABS*	00000000 impure.c
00030778 l     O .rwdata	00000400 impure_data
00000000 l    df *ABS*	00000000 locale.c
00030474 l     O .rodata	00000030 lconv
00000000 l    df *ABS*	00000000 makebuf.c
00000000 l    df *ABS*	00000000 mallocr.c
00000000 l    df *ABS*	00000000 memchr.c
00000000 l    df *ABS*	00000000 memcpy.c
00000000 l    df *ABS*	00000000 memmove.c
00000000 l    df *ABS*	00000000 memset.c
00000000 l    df *ABS*	00000000 mprec.c
000305bc l     O .rodata	0000000c p05.2466
00000000 l    df *ABS*	00000000 putc.c
00000000 l    df *ABS*	00000000 mallocr.c
00000000 l    df *ABS*	00000000 s_isinfd.c
00000000 l    df *ABS*	00000000 s_isnand.c
00000000 l    df *ABS*	00000000 sbrkr.c
00000000 l    df *ABS*	00000000 stdio.c
00000000 l    df *ABS*	00000000 strcmp.c
00000000 l    df *ABS*	00000000 wbuf.c
00000000 l    df *ABS*	00000000 writer.c
00000000 l    df *ABS*	00000000 mallocr.c
00000000 l    df *ABS*	00000000 closer.c
00000000 l    df *ABS*	00000000 fclose.c
00000000 l    df *ABS*	00000000 fstatr.c
00000000 l    df *ABS*	00000000 int_errno.c
00000000 l    df *ABS*	00000000 isattyr.c
00000000 l    df *ABS*	00000000 lseekr.c
00000000 l    df *ABS*	00000000 readr.c
00000000 l    df *ABS*	00000000 libgcc2.c
00000000 l    df *ABS*	00000000 libgcc2.c
00000000 l    df *ABS*	00000000 fp-bit.c
00009954 l     F .text	00000354 _fpadd_parts
00000000 l    df *ABS*	00000000 fp-bit.c
00000000 l    df *ABS*	00000000 fp-bit.c
00000000 l    df *ABS*	00000000 fp-bit.c
00000000 l    df *ABS*	00000000 fp-bit.c
00000000 l    df *ABS*	00000000 fp-bit.c
00000000 l    df *ABS*	00000000 fp-bit.c
00000000 l    df *ABS*	00000000 fp-bit.c
00000000 l    df *ABS*	00000000 fp-bit.c
00000000 l    df *ABS*	00000000 fp-bit.c
00000000 l    df *ABS*	00000000 fp-bit.c
00000000 l    df *ABS*	00000000 fp-bit.c
00000000 l    df *ABS*	00000000 libgcc2.c
00000000 l    df *ABS*	00000000 libgcc2.c
00000000 l    df *ABS*	00000000 fp-bit.c
00000000 l    df *ABS*	00000000 fp-bit.c
00000000 l    df *ABS*	00000000 fp-bit.c
00000000 l    df *ABS*	00000000 libgcc2.c
00000000 l    df *ABS*	00000000 libgcc2.c
00000000 l    df *ABS*	00000000 alt_close.c
00000000 l    df *ABS*	00000000 alt_dev.c
0000ac0c l     F .text	00000008 alt_dev_null_write
00000000 l    df *ABS*	00000000 alt_errno.c
00000000 l    df *ABS*	00000000 alt_fstat.c
00000000 l    df *ABS*	00000000 alt_isatty.c
00000000 l    df *ABS*	00000000 alt_load.c
00000000 l    df *ABS*	00000000 alt_lseek.c
00000000 l    df *ABS*	00000000 alt_main.c
00000000 l    df *ABS*	00000000 alt_malloc_lock.c
00000000 l    df *ABS*	00000000 alt_read.c
00000000 l    df *ABS*	00000000 alt_release_fd.c
00000000 l    df *ABS*	00000000 alt_sbrk.c
000322e4 l     O .rwdata	00000004 heap_end
00000000 l    df *ABS*	00000000 alt_uncached_malloc.c
00000000 l    df *ABS*	00000000 alt_write.c
00000000 l    df *ABS*	00000000 alt_sys_init.c
00031134 l     O .rwdata	00001060 jtag_uart
00032194 l     O .rwdata	00000028 modular_adc_0
000321bc l     O .rwdata	000000fc onchip_flash_0
00000000 l    df *ABS*	00000000 altera_avalon_jtag_uart_fd.c
00000000 l    df *ABS*	00000000 altera_avalon_jtag_uart_init.c
0000b288 l     F .text	0000005c altera_avalon_jtag_uart_timeout
0000b2e4 l     F .text	00000104 altera_avalon_jtag_uart_irq
00000000 l    df *ABS*	00000000 altera_avalon_jtag_uart_ioctl.c
00000000 l    df *ABS*	00000000 altera_avalon_jtag_uart_read.c
00000000 l    df *ABS*	00000000 altera_avalon_jtag_uart_write.c
00000000 l    df *ABS*	00000000 altera_avalon_timer_sc.c
0000b7c8 l     F .text	0000003c alt_avalon_timer_sc_irq
00000000 l    df *ABS*	00000000 altera_modular_adc.c
00000000 l    df *ABS*	00000000 altera_onchip_flash.c
00000000 l    df *ABS*	00000000 alt_alarm_start.c
00000000 l    df *ABS*	00000000 alt_dcache_flush.c
00000000 l    df *ABS*	00000000 alt_dcache_flush_all.c
00000000 l    df *ABS*	00000000 alt_dev_llist_insert.c
00000000 l    df *ABS*	00000000 alt_do_ctors.c
00000000 l    df *ABS*	00000000 alt_do_dtors.c
00000000 l    df *ABS*	00000000 alt_find_dev.c
00000000 l    df *ABS*	00000000 alt_flash_dev.c
00000000 l    df *ABS*	00000000 alt_icache_flush_all.c
00000000 l    df *ABS*	00000000 alt_iic.c
00000000 l    df *ABS*	00000000 alt_iic_isr_register.c
00000000 l    df *ABS*	00000000 alt_io_redirect.c
0000c5d4 l     F .text	00000070 alt_open_fd.constprop.0
00000000 l    df *ABS*	00000000 alt_irq_vars.c
00000000 l    df *ABS*	00000000 alt_open.c
00000000 l    df *ABS*	00000000 alt_tick.c
00000000 l    df *ABS*	00000000 altera_nios2_gen2_irq.c
00000000 l    df *ABS*	00000000 alt_find_file.c
00000000 l    df *ABS*	00000000 alt_get_fd.c
00000000 l    df *ABS*	00000000 alt_icache_flush.c
00000000 l    df *ABS*	00000000 atexit.c
00000000 l    df *ABS*	00000000 exit.c
00000000 l    df *ABS*	00000000 malign.c
00000000 l    df *ABS*	00000000 mallocr.c
00000000 l    df *ABS*	00000000 memcmp.c
00000000 l    df *ABS*	00000000 __atexit.c
00000000 l    df *ABS*	00000000 __call_atexit.c
00000000 l    df *ABS*	00000000 alt_exit.c
00000000 l    df *ABS*	00000000 
00033ef4 g     O .bss	00000004 alt_instruction_exception_handler
00001750 g     F .text	0000001c putchar
00007c60 g     F .text	00000074 _mprec_log10
00007d50 g     F .text	00000084 __any_on
00008cc4 g     F .text	00000064 _isatty_r
000304a4 g     O .rodata	00000028 __mprec_tinytens
0000aeb4 g     F .text	00000060 alt_main
0000aae8 g     F .text	00000044 __ashldi3
0000176c g     F .text	00000084 _puts_r
00033f20 g     O .bss	00000100 alt_irq
00008d28 g     F .text	0000006c _lseek_r
0003230c g       *ABS*	00000000 __flash_rwdata_start
0000a170 g     F .text	0000005c __eqdf2
000341b0 g       *ABS*	00000000 __alt_heap_start
00000544 g     F .text	0000001c nd_GsVgaSetBuffer
0000170c g     F .text	0000003c printf
00008720 g     F .text	0000005c __sseek
00005398 g     F .text	0000010c __sinit
00008828 g     F .text	0000013c __swbuf_r
00006030 g     F .text	0000009c _setlocale_r
00005324 g     F .text	00000064 __sfmoreglue
0000af18 g     F .text	00000004 __malloc_unlock
00001540 g     F .text	00000024 memdump
00006c28 g     F .text	00000128 memmove
00005388 g     F .text	00000010 _cleanup
00006e2c g     F .text	000000a8 _Balloc
00000610 g     F .text	00000040 nd_GsEglPage
0000a228 g     F .text	00000064 __gtdf2
0000c960 g     F .text	00000008 altera_nios2_gen2_irq_init
00000000  w      *UND*	00000000 __errno
0f000000 g     F .entry	0000001c __reset
00000020 g       *ABS*	00000000 __flash_exceptions_start
00008c5c g     F .text	00000068 _fstat_r
00033ed8 g     O .bss	00000004 errno
0000b854 g     F .text	00000008 altera_modular_adc_init
00033ee0 g     O .bss	00000004 alt_argv
0003a2b8 g       *ABS*	00000000 _gp
00000c34 g     F .text	00000134 nd_GsEglPutcharFont
000004f0 g     F .text	00000020 nd_GsVgaVsync_isrdisable
0000c17c g     F .text	00000034 alt_onchip_flash_poll_for_status_write_passed
0000103c g     F .text	00000050 nd_GsEglPuthex2
0000b078 g     F .text	0000005c alt_uncached_malloc
00030f8c g     O .rwdata	00000180 alt_fd_list
00001748 g     F .text	00000008 _putchar_r
0000c3d0 g     F .text	00000094 alt_find_dev
00006b30 g     F .text	000000f8 memcpy
0f100000 g       *ABS*	00000000 __alt_mem_onchip_flash_0_data
00005318 g     F .text	0000000c _cleanup_r
0000a34c g     F .text	000000d4 __floatsidf
0000c644 g     F .text	00000078 alt_io_redirect
0000a2f0 g     F .text	0000005c __ltdf2
0000d080 g       *ABS*	00000000 __DTOR_END__
000017f0 g     F .text	00000014 puts
0000cabc g     F .text	00000030 alt_exception_cause_generated_bad_addr
00007bbc g     F .text	000000a4 __ratio
0000b510 g     F .text	00000134 altera_avalon_jtag_uart_read
00000000  w      *UND*	00000000 malloc
000016e0 g     F .text	0000002c _printf_r
000016d0 g     F .text	00000008 __udivsi3
0000ac90 g     F .text	0000008c isatty
0000c148 g     F .text	00000034 alt_onchip_flash_poll_for_status_erase_passed
000304f4 g     O .rodata	000000c8 __mprec_tens
00001564 g     F .text	0000004c memcrc16
000060cc g     F .text	0000000c __locale_charset
0000ca6c g     F .text	00000050 alt_icache_flush
0000d080 g     O .rodata	0002216a fontx_k12x10_fnt
00033ed4 g     O .bss	00000004 __malloc_top_pad
000322f0 g     O .rwdata	00000008 altera_onchip_flash_list
000322c0 g     O .rwdata	00000004 __mb_cur_max
000060d8 g     F .text	0000000c _localeconv_r
0000722c g     F .text	0000003c __i2b
000059ec g     F .text	000004e4 __sfvwrite_r
000085e0 g     F .text	00000064 _sbrk_r
00033eb4 g     O .bss	00000004 nd_GsVgaVsyncCount
00008d94 g     F .text	0000006c _read_r
000322e8 g     O .rwdata	00000008 altera_modular_adc_list
0000b930 g     F .text	00000140 alt_onchip_flash_erase_block
0000c244 g     F .text	00000040 alt_dcache_flush
00030b78 g     O .rwdata	0000000c __lc_ctype
000322cc g     O .rwdata	00000004 alt_max_fd
0000a8d0 g     F .text	00000104 __unpack_d
00008b0c g     F .text	0000013c _fclose_r
000052d8 g     F .text	00000030 fflush
00033ed0 g     O .bss	00000004 __malloc_max_sbrked_mem
00009ca8 g     F .text	00000054 __adddf3
00000d68 g     F .text	000000cc nd_GsEglPutstrFont
00007930 g     F .text	00000148 __b2d
000093c8 g     F .text	0000058c __umoddi3
0000ae30 g     F .text	00000084 lseek
000322b8 g     O .rwdata	00000004 _global_impure_ptr
00007f80 g     F .text	000005fc _realloc_r
000341b0 g       *ABS*	00000000 __bss_end
0000c56c g     F .text	00000068 alt_iic_isr_register
0000c86c g     F .text	000000f4 alt_tick
00000f60 g     F .text	000000dc nd_GsEglPutdec
00008e00 g     F .text	000005c8 __udivdi3
000304cc g     O .rodata	00000028 __mprec_bigtens
00007010 g     F .text	00000104 __s2b
0000a4e4 g     F .text	0000011c __floatunsidf
000076d0 g     F .text	00000058 __mcmp
000055b0 g     F .text	00000018 __fp_lock_all
0000c554 g     F .text	00000018 alt_ic_irq_enabled
00000560 g     F .text	00000038 nd_GsVgaInit
00000e34 g     F .text	0000000c nd_GsEglSetFont
0000c838 g     F .text	00000034 alt_alarm_stop
00033eb8 g     O .bss	00000004 nd_GsEglDrawBuffer
00033ee8 g     O .bss	00000004 alt_irq_active
000000fc g     F .exceptions	00000064 alt_irq_handler
0003110c g     O .rwdata	00000028 alt_dev_null
00000650 g     F .text	00000010 nd_GsEglColor
0000c284 g     F .text	00000018 alt_dcache_flush_all
00007114 g     F .text	00000068 __hi0bits
00000528 g     F .text	0000001c nd_GsVgaScanOff
0000a420 g     F .text	000000c4 __fixdfsi
0003230c g       *ABS*	00000000 __ram_rwdata_end
000322d0 g     O .rwdata	00000008 alt_dev_list
0000b0d4 g     F .text	000000e8 write
00007dd4 g     F .text	000000bc _putc_r
00030778 g       *ABS*	00000000 __ram_rodata_end
0000ac14 g     F .text	0000007c fstat
0000aaa4 g     F .text	00000044 __lshrdi3
00000510 g     F .text	00000018 nd_GsVgaScanOn
00007448 g     F .text	0000012c __pow5mult
00033ec8 g     O .bss	00000004 __nlocale_changed
000016d8 g     F .text	00000008 __umodsi3
000341b0 g       *ABS*	00000000 end
0000b3e8 g     F .text	00000080 altera_avalon_jtag_uart_init
00000160 g     F .exceptions	0000002c alt_instruction_exception_entry
0000d080 g       *ABS*	00000000 __CTOR_LIST__
02000000 g       *ABS*	00000000 __alt_stack_pointer
0000b804 g     F .text	00000050 alt_avalon_timer_sc_init
0000a600 g     F .text	000000ac __clzsi2
0000b644 g     F .text	00000184 altera_avalon_jtag_uart_write
000055a0 g     F .text	00000004 __sfp_lock_acquire
00006a38 g     F .text	000000f8 memchr
0000193c g     F .text	00001df8 ___vfprintf_internal_r
0000b8e8 g     F .text	00000048 alt_onchip_flash_get_info
0000571c g     F .text	000002d0 _free_r
0000cecc g     F .text	000001a0 __call_exitprocs
00033ec4 g     O .bss	00000004 __mlocale_changed
000322c4 g     O .rwdata	00000004 __malloc_sbrk_base
0000018c g     F .text	0000004c _start
00033ef0 g     O .bss	00000004 _alt_tick_rate
0000181c g     F .text	00000060 rand
00000498 g     F .text	00000038 nd_GsVgaVsync_isr
00007574 g     F .text	0000015c __lshift
00033eec g     O .bss	00000004 _alt_nticks
0000af1c g     F .text	000000ec read
0000b1dc g     F .text	00000070 alt_sys_init
0000cd9c g     F .text	00000130 __register_exitproc
0000108c g     F .text	00000070 nd_GsEglPuthex8
00007268 g     F .text	000001e0 __multiply
0000b468 g     F .text	00000034 altera_avalon_jtag_uart_close
00030778 g       *ABS*	00000000 __ram_rwdata_start
0000d080 g       *ABS*	00000000 __ram_rodata_start
00033ef8 g     O .bss	00000028 __malloc_current_mallinfo
00007a78 g     F .text	00000144 __d2b
0002fc00 g     O .rodata	00000400 nd_GsEglRomFont
0000b24c g     F .text	00000010 altera_avalon_jtag_uart_read_fd
0000ca14 g     F .text	00000058 alt_get_fd
0000a9d4 g     F .text	000000d0 __fpcmp_parts_d
00008aa8 g     F .text	00000064 _close_r
00001398 g     F .text	000000d4 memdump_word
00000f04 g     F .text	0000005c nd_GsEglPutstr
0000cd20 g     F .text	0000007c memcmp
0000b26c g     F .text	00000010 altera_avalon_jtag_uart_close_fd
000341b0 g       *ABS*	00000000 __alt_stack_base
0000b27c g     F .text	0000000c altera_avalon_jtag_uart_ioctl_fd
000012c8 g     F .text	000000d0 memdump_byte
00003758 g     F .text	00000174 __swsetup_r
00009fbc g     F .text	000001b4 __divdf3
0000b864 g     F .text	00000084 alt_onchip_flash_read
000054a4 g     F .text	000000fc __sfp
00007cd4 g     F .text	0000007c __copybits
00030b84 g     O .rwdata	00000408 __malloc_av_
000055ac g     F .text	00000004 __sinit_lock_release
00009d5c g     F .text	00000260 __muldf3
00008644 g     F .text	00000054 __sread
0000c968 g     F .text	000000ac alt_find_file
0000c29c g     F .text	0000006c alt_dev_llist_insert
0000af14 g     F .text	00000004 __malloc_lock
0000b02c g     F .text	0000004c sbrk
000050f0 g     F .text	000001e8 _fflush_r
000089ec g     F .text	000000bc _calloc_r
000322f8 g     O .rwdata	00000008 alt_flash_dev_list
00033ea0 g       *ABS*	00000000 __bss_start
00006d50 g     F .text	000000dc memset
000003e0 g     F .text	00000020 main
00033edc g     O .bss	00000004 alt_envp
00033ecc g     O .bss	00000004 __malloc_max_total_mem
0000b25c g     F .text	00000010 altera_avalon_jtag_uart_write_fd
00008964 g     F .text	0000001c __swbuf
00001804 g     F .text	00000018 srand
0000877c g     F .text	00000008 __sclose
02000000 g       *ABS*	00000000 __alt_heap_limit
00008c48 g     F .text	00000014 fclose
00034020 g     O .bss	00000190 _atexit0
00003ad4 g     F .text	0000161c _dtoa_r
000062b4 g     F .text	00000784 _malloc_r
000322e0 g     O .rwdata	00000004 alt_errno
0000c114 g     F .text	00000034 alt_onchip_flash_poll_for_status_to_go_idle
00005ed0 g     F .text	000000a8 _fwalk
00007e90 g     F .text	000000f0 putc
00001624 g     F .text	00000050 __divsi3
000305c8 g     O .rodata	00000014 __thenan_df
000055e0 g     F .text	0000013c _malloc_trim_r
0000d080 g       *ABS*	00000000 __CTOR_END__
0000be54 g     F .text	000002c0 altera_onchip_flash_init
00008784 g     F .text	000000a4 strcmp
000008a8 g     F .text	000001a0 nd_GsEglCircle
0000d080 g       *ABS*	00000000 __flash_rodata_start
0000d080 g       *ABS*	00000000 __DTOR_LIST__
00000e40 g     F .text	000000c4 nd_GsEglPutchar
0000a1cc g     F .text	0000005c __nedf2
000004d0 g     F .text	00000020 nd_GsVgaVsync_isrenable
0000b1bc g     F .text	00000020 alt_irq_init
0000b008 g     F .text	00000024 alt_release_fd
0000cb38 g     F .text	0000001c memalign
000305dc g     O .rodata	00000100 __clz_tab
00033ec0 g     O .bss	00000004 _PathLocale
0000caec g     F .text	00000014 atexit
00008980 g     F .text	0000006c _write_r
000060e4 g     F .text	0000001c setlocale
0002f1ec g     O .rodata	00000a11 fontx_k6x10_fnt
0000146c g     F .text	000000d4 memdump_dword
000322bc g     O .rwdata	00000004 _impure_ptr
00033ee4 g     O .bss	00000004 alt_argc
0000c36c g     F .text	00000064 _do_dtors
000005b8 g     F .text	0000002c nd_GsVgaVsync_getcount
00000020 g       .exceptions	00000000 alt_irq_entry
000078d0 g     F .text	00000060 __ulp
0000857c g     F .text	00000038 __isinfd
000055c8 g     F .text	00000018 __fp_unlock_all
000322d8 g     O .rwdata	00000008 alt_fs_list
0000ba70 g     F .text	00000210 alt_onchip_flash_write_block
00000020 g       *ABS*	00000000 __ram_exceptions_start
00006100 g     F .text	0000000c localeconv
00000a48 g     F .text	00000160 nd_GsEglLine
0000c4d0 g     F .text	00000004 alt_ic_isr_register
0003230c g       *ABS*	00000000 _edata
0000bc80 g     F .text	000001d4 alt_onchip_flash_write
000341b0 g       *ABS*	00000000 _end
0000c464 g     F .text	0000004c alt_flash_open_dev
0000018c g       *ABS*	00000000 __ram_exceptions_end
0000b49c g     F .text	00000074 altera_avalon_jtag_uart_ioctl
0000c514 g     F .text	00000040 alt_ic_irq_disable
000010fc g     F .text	000001cc systeminit
00008698 g     F .text	00000088 __swrite
000322c8 g     O .rwdata	00000004 __malloc_trim_threshold
0000cb00 g     F .text	00000038 exit
00005f78 g     F .text	000000b8 _fwalk_reent
00007728 g     F .text	000001a8 __mdiff
0000c4b0 g     F .text	00000014 alt_flash_close_dev
000005e4 g     F .text	0000002c nd_GsVgaVsync_setcount
00000660 g     F .text	000000cc nd_GsEglPset
00001674 g     F .text	0000005c __modsi3
0000cb54 g     F .text	000001cc _memalign_r
02000000 g       *ABS*	00000000 __alt_data_end
00000020 g     F .exceptions	00000000 alt_exception
000055a4 g     F .text	00000004 __sfp_lock_release
00000000 g       *ABS*	00000000 __alt_mem_sdram
0000b85c g     F .text	00000008 altera_modular_adc_open
0000d06c g     F .text	00000014 _exit
000085b4 g     F .text	0000002c __isnand
0000c1b0 g     F .text	00000094 alt_alarm_start
0f000000 g       *ABS*	00000000 __alt_mem_ipl_memory
0000610c g     F .text	000001a8 __smakebuf_r
0000187c g     F .text	0000008c strlen
0000c6bc g     F .text	0000017c open
0000a28c g     F .text	00000064 __gedf2
000001d8 g     F .text	00000208 awa
0000c4c4 g     F .text	0000000c alt_icache_flush_all
00032300 g     O .rwdata	00000004 alt_priority_mask
00000ba8 g     F .text	0000008c nd_GsEglBox
0000c4d4 g     F .text	00000040 alt_ic_irq_enable
00003734 g     F .text	00000024 __vfprintf_internal
00000598 g     F .text	00000020 nd_GsVgaWaitVsync
00009cfc g     F .text	00000060 __subdf3
0000717c g     F .text	000000b0 __lo0bits
0000072c g     F .text	0000017c nd_GsEglBoxfill
00032304 g     O .rwdata	00000008 alt_alarm_list
0000c308 g     F .text	00000064 _do_ctors
00033ebc g     O .bss	00000004 nd_GsVgaVsyncFlag
0000ab2c g     F .text	000000e0 close
0000ad1c g     F .text	00000114 alt_load
0000a6ac g     F .text	00000224 __pack_d
00000000  w      *UND*	00000000 free
000055a8 g     F .text	00000004 __sinit_lock_acquire
00006efc g     F .text	00000114 __multadd
00006ed4 g     F .text	00000028 _Bfree



Disassembly of section .entry:

0f000000 <__reset>:
 f000000:	00880014 	movui	r2,8192
 f000004:	1001483a 	initi	r2
 f000008:	10bff804 	addi	r2,r2,-32
 f00000c:	00bffd16 	blt	zero,r2,f000004 <__alt_mem_onchip_flash_0_data+0xfff00004>
 f000010:	00400034 	movhi	at,0
 f000014:	08406314 	ori	at,at,396
 f000018:	0800683a 	jmp	at
 f00001c:	00000000 	call	0 <__alt_mem_sdram>

Disassembly of section .exceptions:

00000020 <alt_exception>:
  20:	deffed04 	addi	sp,sp,-76
  24:	dfc00015 	stw	ra,0(sp)
  28:	d8400215 	stw	at,8(sp)
  2c:	d8800315 	stw	r2,12(sp)
  30:	d8c00415 	stw	r3,16(sp)
  34:	d9000515 	stw	r4,20(sp)
  38:	d9400615 	stw	r5,24(sp)
  3c:	d9800715 	stw	r6,28(sp)
  40:	d9c00815 	stw	r7,32(sp)
  44:	000b307a 	rdctl	r5,estatus
  48:	da000915 	stw	r8,36(sp)
  4c:	da400a15 	stw	r9,40(sp)
  50:	da800b15 	stw	r10,44(sp)
  54:	dac00c15 	stw	r11,48(sp)
  58:	db000d15 	stw	r12,52(sp)
  5c:	db400e15 	stw	r13,56(sp)
  60:	db800f15 	stw	r14,60(sp)
  64:	dbc01015 	stw	r15,64(sp)
  68:	d9401115 	stw	r5,68(sp)
  6c:	ebffff04 	addi	r15,ea,-4
  70:	dbc01215 	stw	r15,72(sp)
  74:	0009313a 	rdctl	r4,ipending
  78:	2880004c 	andi	r2,r5,1
  7c:	10000326 	beq	r2,zero,8c <alt_exception+0x6c>
  80:	20000226 	beq	r4,zero,8c <alt_exception+0x6c>
  84:	00000fc0 	call	fc <alt_irq_handler>
  88:	00000706 	br	a8 <alt_exception+0x88>
  8c:	df401215 	stw	ea,72(sp)
  90:	e8bfff17 	ldw	r2,-4(ea)
  94:	e93fff04 	addi	r4,ea,-4
  98:	00001600 	call	160 <alt_instruction_exception_entry>
  9c:	1000021e 	bne	r2,zero,a8 <alt_exception+0x88>
  a0:	ebffff04 	addi	r15,ea,-4
  a4:	dbc01215 	stw	r15,72(sp)
  a8:	d9401117 	ldw	r5,68(sp)
  ac:	df401217 	ldw	ea,72(sp)
  b0:	dfc00017 	ldw	ra,0(sp)
  b4:	2801707a 	wrctl	estatus,r5
  b8:	d8400217 	ldw	at,8(sp)
  bc:	d8800317 	ldw	r2,12(sp)
  c0:	d8c00417 	ldw	r3,16(sp)
  c4:	d9000517 	ldw	r4,20(sp)
  c8:	d9400617 	ldw	r5,24(sp)
  cc:	d9800717 	ldw	r6,28(sp)
  d0:	d9c00817 	ldw	r7,32(sp)
  d4:	da000917 	ldw	r8,36(sp)
  d8:	da400a17 	ldw	r9,40(sp)
  dc:	da800b17 	ldw	r10,44(sp)
  e0:	dac00c17 	ldw	r11,48(sp)
  e4:	db000d17 	ldw	r12,52(sp)
  e8:	db400e17 	ldw	r13,56(sp)
  ec:	db800f17 	ldw	r14,60(sp)
  f0:	dbc01017 	ldw	r15,64(sp)
  f4:	dec01304 	addi	sp,sp,76
  f8:	ef80083a 	eret

000000fc <alt_irq_handler>:
  fc:	defffe04 	addi	sp,sp,-8
 100:	dfc00115 	stw	ra,4(sp)
 104:	dc000015 	stw	r16,0(sp)
 108:	000b313a 	rdctl	r5,ipending
 10c:	040000f4 	movhi	r16,3
 110:	840fc804 	addi	r16,r16,16160
 114:	2880004c 	andi	r2,r5,1
 118:	0007883a 	mov	r3,zero
 11c:	1000051e 	bne	r2,zero,134 <alt_irq_handler+0x38>
 120:	00800044 	movi	r2,1
 124:	1085883a 	add	r2,r2,r2
 128:	2888703a 	and	r4,r5,r2
 12c:	18c00044 	addi	r3,r3,1
 130:	203ffc26 	beq	r4,zero,124 <__alt_mem_onchip_flash_0_data+0xf0f00124>
 134:	180690fa 	slli	r3,r3,3
 138:	80c7883a 	add	r3,r16,r3
 13c:	18800017 	ldw	r2,0(r3)
 140:	19000117 	ldw	r4,4(r3)
 144:	103ee83a 	callr	r2
 148:	000b313a 	rdctl	r5,ipending
 14c:	283ff11e 	bne	r5,zero,114 <__alt_mem_onchip_flash_0_data+0xf0f00114>
 150:	dfc00117 	ldw	ra,4(sp)
 154:	dc000017 	ldw	r16,0(sp)
 158:	dec00204 	addi	sp,sp,8
 15c:	f800283a 	ret

00000160 <alt_instruction_exception_entry>:
 160:	200b883a 	mov	r5,r4
 164:	000931fa 	rdctl	r4,exception
 168:	000d333a 	rdctl	r6,badaddr
 16c:	d0a70f17 	ldw	r2,-25540(gp)
 170:	10000326 	beq	r2,zero,180 <alt_instruction_exception_entry+0x20>
 174:	21001f0c 	andi	r4,r4,124
 178:	2008d0ba 	srli	r4,r4,2
 17c:	1000683a 	jmp	r2
 180:	003da03a 	break	0
 184:	0005883a 	mov	r2,zero
 188:	f800283a 	ret

Disassembly of section .text:

0000018c <_start>:
     18c:	00880014 	movui	r2,8192
     190:	10000033 	initd	0(r2)
     194:	10bff804 	addi	r2,r2,-32
     198:	00bffd16 	blt	zero,r2,190 <__alt_mem_onchip_flash_0_data+0xf0f00190>
     19c:	06c08034 	movhi	sp,512
     1a0:	dec00014 	ori	sp,sp,0
     1a4:	068000f4 	movhi	gp,3
     1a8:	d6a8ae14 	ori	gp,gp,41656
     1ac:	008000f4 	movhi	r2,3
     1b0:	108fa814 	ori	r2,r2,16032
     1b4:	00c000f4 	movhi	r3,3
     1b8:	18d06c14 	ori	r3,r3,16816
     1bc:	10c00326 	beq	r2,r3,1cc <_start+0x40>
     1c0:	10000015 	stw	zero,0(r2)
     1c4:	10800104 	addi	r2,r2,4
     1c8:	10fffd36 	bltu	r2,r3,1c0 <__alt_mem_onchip_flash_0_data+0xf0f001c0>
     1cc:	000ad1c0 	call	ad1c <alt_load>
     1d0:	000aeb40 	call	aeb4 <alt_main>

000001d4 <alt_after_alt_main>:
     1d4:	003fff06 	br	1d4 <__alt_mem_onchip_flash_0_data+0xf0f001d4>

000001d8 <awa>:
     1d8:	defd0804 	addi	sp,sp,-3040
     1dc:	dfc2f715 	stw	ra,3036(sp)
     1e0:	ddc2f515 	stw	r23,3028(sp)
     1e4:	dd82f415 	stw	r22,3024(sp)
     1e8:	dc02ee15 	stw	r16,3000(sp)
     1ec:	df02f615 	stw	fp,3032(sp)
     1f0:	2021883a 	mov	r16,r4
     1f4:	dd42f315 	stw	r21,3020(sp)
     1f8:	dd02f215 	stw	r20,3016(sp)
     1fc:	dcc2f115 	stw	r19,3012(sp)
     200:	dc82f015 	stw	r18,3008(sp)
     204:	dc42ef15 	stw	r17,3004(sp)
     208:	00005440 	call	544 <nd_GsVgaSetBuffer>
     20c:	8009883a 	mov	r4,r16
     210:	800b883a 	mov	r5,r16
     214:	000d883a 	mov	r6,zero
     218:	00006100 	call	610 <nd_GsEglPage>
     21c:	00005100 	call	510 <nd_GsVgaScanOn>
     220:	01108404 	movi	r4,16912
     224:	000b883a 	mov	r5,zero
     228:	01804004 	movi	r6,256
     22c:	00006500 	call	650 <nd_GsEglColor>
     230:	01c077c4 	movi	r7,479
     234:	0009883a 	mov	r4,zero
     238:	000b883a 	mov	r5,zero
     23c:	01809fc4 	movi	r6,639
     240:	000072c0 	call	72c <nd_GsEglBoxfill>
     244:	011fffc4 	movi	r4,32767
     248:	000b883a 	mov	r5,zero
     24c:	01804004 	movi	r6,256
     250:	00006500 	call	650 <nd_GsEglColor>
     254:	01c077c4 	movi	r7,479
     258:	0009883a 	mov	r4,zero
     25c:	000b883a 	mov	r5,zero
     260:	000d883a 	mov	r6,zero
     264:	0000a480 	call	a48 <nd_GsEglLine>
     268:	011f0004 	movi	r4,31744
     26c:	000b883a 	mov	r5,zero
     270:	01804004 	movi	r6,256
     274:	00006500 	call	650 <nd_GsEglColor>
     278:	01009fc4 	movi	r4,639
     27c:	200d883a 	mov	r6,r4
     280:	01c077c4 	movi	r7,479
     284:	000b883a 	mov	r5,zero
     288:	0000a480 	call	a48 <nd_GsEglLine>
     28c:	0100f804 	movi	r4,992
     290:	000b883a 	mov	r5,zero
     294:	01804004 	movi	r6,256
     298:	00006500 	call	650 <nd_GsEglColor>
     29c:	000f883a 	mov	r7,zero
     2a0:	0009883a 	mov	r4,zero
     2a4:	000b883a 	mov	r5,zero
     2a8:	01809fc4 	movi	r6,639
     2ac:	0000a480 	call	a48 <nd_GsEglLine>
     2b0:	010007c4 	movi	r4,31
     2b4:	000b883a 	mov	r5,zero
     2b8:	01804004 	movi	r6,256
     2bc:	00006500 	call	650 <nd_GsEglColor>
     2c0:	014077c4 	movi	r5,479
     2c4:	0009883a 	mov	r4,zero
     2c8:	01809fc4 	movi	r6,639
     2cc:	280f883a 	mov	r7,r5
     2d0:	0000a480 	call	a48 <nd_GsEglLine>
     2d4:	d82f883a 	mov	r23,sp
     2d8:	dd82f104 	addi	r22,sp,3012
     2dc:	d8800304 	addi	r2,sp,12
     2e0:	10000015 	stw	zero,0(r2)
     2e4:	10800504 	addi	r2,r2,20
     2e8:	15bffd1e 	bne	r2,r22,2e0 <__alt_mem_onchip_flash_0_data+0xf0f002e0>
     2ec:	05000044 	movi	r20,1
     2f0:	df000104 	addi	fp,sp,4
     2f4:	dc800404 	addi	r18,sp,16
     2f8:	dc400204 	addi	r17,sp,8
     2fc:	b827883a 	mov	r19,r23
     300:	dc000304 	addi	r16,sp,12
     304:	00000906 	br	32c <awa+0x154>
     308:	88c00017 	ldw	r3,0(r17)
     30c:	18802716 	blt	r3,r2,3ac <awa+0x1d4>
     310:	80000015 	stw	zero,0(r16)
     314:	84000504 	addi	r16,r16,20
     318:	9cc00504 	addi	r19,r19,20
     31c:	e7000504 	addi	fp,fp,20
     320:	94800504 	addi	r18,r18,20
     324:	8c400504 	addi	r17,r17,20
     328:	85801926 	beq	r16,r22,390 <awa+0x1b8>
     32c:	80800017 	ldw	r2,0(r16)
     330:	103ff51e 	bne	r2,zero,308 <__alt_mem_onchip_flash_0_data+0xf0f00308>
     334:	000181c0 	call	181c <rand>
     338:	1009883a 	mov	r4,r2
     33c:	0140a004 	movi	r5,640
     340:	00016740 	call	1674 <__modsi3>
     344:	98800015 	stw	r2,0(r19)
     348:	000181c0 	call	181c <rand>
     34c:	1009883a 	mov	r4,r2
     350:	01407804 	movi	r5,480
     354:	00016740 	call	1674 <__modsi3>
     358:	e0800015 	stw	r2,0(fp)
     35c:	000181c0 	call	181c <rand>
     360:	90800015 	stw	r2,0(r18)
     364:	000181c0 	call	181c <rand>
     368:	1080190c 	andi	r2,r2,100
     36c:	10800284 	addi	r2,r2,10
     370:	80800015 	stw	r2,0(r16)
     374:	8d000015 	stw	r20,0(r17)
     378:	84000504 	addi	r16,r16,20
     37c:	9cc00504 	addi	r19,r19,20
     380:	e7000504 	addi	fp,fp,20
     384:	94800504 	addi	r18,r18,20
     388:	8c400504 	addi	r17,r17,20
     38c:	85bfe71e 	bne	r16,r22,32c <__alt_mem_onchip_flash_0_data+0xf0f0032c>
     390:	ad400044 	addi	r21,r21,1
     394:	a805d0fa 	srai	r2,r21,3
     398:	00e40034 	movhi	r3,36864
     39c:	18c01804 	addi	r3,r3,96
     3a0:	1080004c 	andi	r2,r2,1
     3a4:	18800015 	stw	r2,0(r3)
     3a8:	003fd106 	br	2f0 <__alt_mem_onchip_flash_0_data+0xf0f002f0>
     3ac:	91000017 	ldw	r4,0(r18)
     3b0:	000b883a 	mov	r5,zero
     3b4:	01804004 	movi	r6,256
     3b8:	20800044 	addi	r2,r4,1
     3bc:	90800015 	stw	r2,0(r18)
     3c0:	00006500 	call	650 <nd_GsEglColor>
     3c4:	89800017 	ldw	r6,0(r17)
     3c8:	99000017 	ldw	r4,0(r19)
     3cc:	e1400017 	ldw	r5,0(fp)
     3d0:	30800044 	addi	r2,r6,1
     3d4:	88800015 	stw	r2,0(r17)
     3d8:	00008a80 	call	8a8 <nd_GsEglCircle>
     3dc:	003fcd06 	br	314 <__alt_mem_onchip_flash_0_data+0xf0f00314>

000003e0 <main>:
     3e0:	deffff04 	addi	sp,sp,-4
     3e4:	dfc00015 	stw	ra,0(sp)
     3e8:	00010fc0 	call	10fc <systeminit>
     3ec:	00005600 	call	560 <nd_GsVgaInit>
     3f0:	010003f4 	movhi	r4,15
     3f4:	000b0780 	call	b078 <alt_uncached_malloc>
     3f8:	1009883a 	mov	r4,r2
     3fc:	00001d80 	call	1d8 <awa>

00000400 <nd_GsEglFontx_putkanji>:
     400:	2b000383 	ldbu	r12,14(r5)
     404:	2ac00443 	ldbu	r11,17(r5)
     408:	28c003c3 	ldbu	r3,15(r5)
     40c:	630001c4 	addi	r12,r12,7
     410:	6019d0fa 	srai	r12,r12,3
     414:	5ac5883a 	add	r2,r11,r11
     418:	1085883a 	add	r2,r2,r2
     41c:	10800484 	addi	r2,r2,18
     420:	60d9383a 	mul	r12,r12,r3
     424:	2885883a 	add	r2,r5,r2
     428:	58001526 	beq	r11,zero,480 <nd_GsEglFontx_putkanji+0x80>
     42c:	000d883a 	mov	r6,zero
     430:	30c00104 	addi	r3,r6,4
     434:	18c7883a 	add	r3,r3,r3
     438:	18c7883a 	add	r3,r3,r3
     43c:	28c7883a 	add	r3,r5,r3
     440:	1a8000c3 	ldbu	r10,3(r3)
     444:	19c00143 	ldbu	r7,5(r3)
     448:	1a000103 	ldbu	r8,4(r3)
     44c:	1a400083 	ldbu	r9,2(r3)
     450:	5014923a 	slli	r10,r10,8
     454:	380e923a 	slli	r7,r7,8
     458:	31800044 	addi	r6,r6,1
     45c:	5246b03a 	or	r3,r10,r9
     460:	3a0eb03a 	or	r7,r7,r8
     464:	38d1c83a 	sub	r8,r7,r3
     468:	42000044 	addi	r8,r8,1
     46c:	4311383a 	mul	r8,r8,r12
     470:	20c00116 	blt	r4,r3,478 <nd_GsEglFontx_putkanji+0x78>
     474:	3900040e 	bge	r7,r4,488 <nd_GsEglFontx_putkanji+0x88>
     478:	1205883a 	add	r2,r2,r8
     47c:	32ffec16 	blt	r6,r11,430 <__alt_mem_onchip_flash_0_data+0xf0f00430>
     480:	0005883a 	mov	r2,zero
     484:	f800283a 	ret
     488:	20c7c83a 	sub	r3,r4,r3
     48c:	1b19383a 	mul	r12,r3,r12
     490:	1305883a 	add	r2,r2,r12
     494:	f800283a 	ret

00000498 <nd_GsVgaVsync_isr>:
     498:	00a40034 	movhi	r2,36864
     49c:	10840004 	addi	r2,r2,4096
     4a0:	11000017 	ldw	r4,0(r2)
     4a4:	00efffc4 	movi	r3,-16385
     4a8:	20c6703a 	and	r3,r4,r3
     4ac:	10c00015 	stw	r3,0(r2)
     4b0:	d0a6ff17 	ldw	r2,-25604(gp)
     4b4:	10000326 	beq	r2,zero,4c4 <nd_GsVgaVsync_isr+0x2c>
     4b8:	d0a6ff17 	ldw	r2,-25604(gp)
     4bc:	10bfffc4 	addi	r2,r2,-1
     4c0:	d0a6ff15 	stw	r2,-25604(gp)
     4c4:	00800044 	movi	r2,1
     4c8:	d0a70115 	stw	r2,-25596(gp)
     4cc:	f800283a 	ret

000004d0 <nd_GsVgaVsync_isrenable>:
     4d0:	00a40034 	movhi	r2,36864
     4d4:	10840004 	addi	r2,r2,4096
     4d8:	11000017 	ldw	r4,0(r2)
     4dc:	00efffc4 	movi	r3,-16385
     4e0:	20c6703a 	and	r3,r4,r3
     4e4:	18e00014 	ori	r3,r3,32768
     4e8:	10c00015 	stw	r3,0(r2)
     4ec:	f800283a 	ret

000004f0 <nd_GsVgaVsync_isrdisable>:
     4f0:	00a40034 	movhi	r2,36864
     4f4:	10840004 	addi	r2,r2,4096
     4f8:	11000017 	ldw	r4,0(r2)
     4fc:	00fffff4 	movhi	r3,65535
     500:	18dfffc4 	addi	r3,r3,32767
     504:	20c6703a 	and	r3,r4,r3
     508:	10c00015 	stw	r3,0(r2)
     50c:	f800283a 	ret

00000510 <nd_GsVgaScanOn>:
     510:	00a40034 	movhi	r2,36864
     514:	10840004 	addi	r2,r2,4096
     518:	10c00017 	ldw	r3,0(r2)
     51c:	18c00054 	ori	r3,r3,1
     520:	10c00015 	stw	r3,0(r2)
     524:	f800283a 	ret

00000528 <nd_GsVgaScanOff>:
     528:	00a40034 	movhi	r2,36864
     52c:	10840004 	addi	r2,r2,4096
     530:	11000017 	ldw	r4,0(r2)
     534:	00ffff84 	movi	r3,-2
     538:	20c6703a 	and	r3,r4,r3
     53c:	10c00015 	stw	r3,0(r2)
     540:	f800283a 	ret

00000544 <nd_GsVgaSetBuffer>:
     544:	00a00034 	movhi	r2,32768
     548:	10bfffc4 	addi	r2,r2,-1
     54c:	2088703a 	and	r4,r4,r2
     550:	00e40034 	movhi	r3,36864
     554:	18c40104 	addi	r3,r3,4100
     558:	19000015 	stw	r4,0(r3)
     55c:	f800283a 	ret

00000560 <nd_GsVgaInit>:
     560:	00a40034 	movhi	r2,36864
     564:	10840004 	addi	r2,r2,4096
     568:	11000017 	ldw	r4,0(r2)
     56c:	00fffff4 	movhi	r3,65535
     570:	18dfffc4 	addi	r3,r3,32767
     574:	20c6703a 	and	r3,r4,r3
     578:	10c00015 	stw	r3,0(r2)
     57c:	11000017 	ldw	r4,0(r2)
     580:	00ffff84 	movi	r3,-2
     584:	20c6703a 	and	r3,r4,r3
     588:	10c00015 	stw	r3,0(r2)
     58c:	d026ff15 	stw	zero,-25604(gp)
     590:	d0270115 	stw	zero,-25596(gp)
     594:	f800283a 	ret

00000598 <nd_GsVgaWaitVsync>:
     598:	01240034 	movhi	r4,36864
     59c:	21040004 	addi	r4,r4,4096
     5a0:	20c00017 	ldw	r3,0(r4)
     5a4:	18c8000c 	andi	r3,r3,8192
     5a8:	20800017 	ldw	r2,0(r4)
     5ac:	1088000c 	andi	r2,r2,8192
     5b0:	10fffd26 	beq	r2,r3,5a8 <__alt_mem_onchip_flash_0_data+0xf0f005a8>
     5b4:	f800283a 	ret

000005b8 <nd_GsVgaVsync_getcount>:
     5b8:	00a40034 	movhi	r2,36864
     5bc:	10840004 	addi	r2,r2,4096
     5c0:	10800017 	ldw	r2,0(r2)
     5c4:	10a0000c 	andi	r2,r2,32768
     5c8:	1000041e 	bne	r2,zero,5dc <nd_GsVgaVsync_getcount+0x24>
     5cc:	00a40034 	movhi	r2,36864
     5d0:	10840204 	addi	r2,r2,4104
     5d4:	10800017 	ldw	r2,0(r2)
     5d8:	f800283a 	ret
     5dc:	d0a6ff17 	ldw	r2,-25604(gp)
     5e0:	f800283a 	ret

000005e4 <nd_GsVgaVsync_setcount>:
     5e4:	00a40034 	movhi	r2,36864
     5e8:	10840004 	addi	r2,r2,4096
     5ec:	10800017 	ldw	r2,0(r2)
     5f0:	10a0000c 	andi	r2,r2,32768
     5f4:	1000041e 	bne	r2,zero,608 <nd_GsVgaVsync_setcount+0x24>
     5f8:	00a40034 	movhi	r2,36864
     5fc:	10840204 	addi	r2,r2,4104
     600:	11000015 	stw	r4,0(r2)
     604:	f800283a 	ret
     608:	d126ff15 	stw	r4,-25604(gp)
     60c:	f800283a 	ret

00000610 <nd_GsEglPage>:
     610:	30000726 	beq	r6,zero,630 <nd_GsEglPage+0x20>
     614:	01a40034 	movhi	r6,36864
     618:	31840004 	addi	r6,r6,4096
     61c:	30c00017 	ldw	r3,0(r6)
     620:	18c8000c 	andi	r3,r3,8192
     624:	30800017 	ldw	r2,0(r6)
     628:	1088000c 	andi	r2,r2,8192
     62c:	18bffd26 	beq	r3,r2,624 <__alt_mem_onchip_flash_0_data+0xf0f00624>
     630:	00a00034 	movhi	r2,32768
     634:	10bfffc4 	addi	r2,r2,-1
     638:	2088703a 	and	r4,r4,r2
     63c:	00a40034 	movhi	r2,36864
     640:	10840104 	addi	r2,r2,4100
     644:	11000015 	stw	r4,0(r2)
     648:	d1670015 	stw	r5,-25600(gp)
     64c:	f800283a 	ret

00000650 <nd_GsEglColor>:
     650:	d126fa15 	stw	r4,-25624(gp)
     654:	d166fb15 	stw	r5,-25620(gp)
     658:	d1a6fc15 	stw	r6,-25616(gp)
     65c:	f800283a 	ret

00000660 <nd_GsEglPset>:
     660:	d0e70017 	ldw	r3,-25600(gp)
     664:	18003026 	beq	r3,zero,728 <nd_GsEglPset+0xc8>
     668:	d0a6fc17 	ldw	r2,-25616(gp)
     66c:	10002e26 	beq	r2,zero,728 <nd_GsEglPset+0xc8>
     670:	01809fc4 	movi	r6,639
     674:	31002c36 	bltu	r6,r4,728 <nd_GsEglPset+0xc8>
     678:	28002b16 	blt	r5,zero,728 <nd_GsEglPset+0xc8>
     67c:	018077c4 	movi	r6,479
     680:	31402916 	blt	r6,r5,728 <nd_GsEglPset+0xc8>
     684:	280a92fa 	slli	r5,r5,11
     688:	2109883a 	add	r4,r4,r4
     68c:	20c7883a 	add	r3,r4,r3
     690:	01003fc4 	movi	r4,255
     694:	1947883a 	add	r3,r3,r5
     698:	d1a6fa17 	ldw	r6,-25624(gp)
     69c:	20802136 	bltu	r4,r2,724 <nd_GsEglPset+0xc4>
     6a0:	1900000b 	ldhu	r4,0(r3)
     6a4:	3280f80c 	andi	r10,r6,992
     6a8:	321f000c 	andi	r8,r6,31744
     6ac:	215f000c 	andi	r5,r4,31744
     6b0:	21c0f80c 	andi	r7,r4,992
     6b4:	280bd1fa 	srai	r5,r5,7
     6b8:	380fd0ba 	srai	r7,r7,2
     6bc:	301290fa 	slli	r9,r6,3
     6c0:	200890fa 	slli	r4,r4,3
     6c4:	5015d0ba 	srai	r10,r10,2
     6c8:	4011d1fa 	srai	r8,r8,7
     6cc:	21003e0c 	andi	r4,r4,248
     6d0:	51cdc83a 	sub	r6,r10,r7
     6d4:	4151c83a 	sub	r8,r8,r5
     6d8:	4a403e0c 	andi	r9,r9,248
     6dc:	308d383a 	mul	r6,r6,r2
     6e0:	4091383a 	mul	r8,r8,r2
     6e4:	4913c83a 	sub	r9,r9,r4
     6e8:	380e923a 	slli	r7,r7,8
     6ec:	280a923a 	slli	r5,r5,8
     6f0:	2008923a 	slli	r4,r4,8
     6f4:	4885383a 	mul	r2,r9,r2
     6f8:	31cd883a 	add	r6,r6,r7
     6fc:	414b883a 	add	r5,r8,r5
     700:	1105883a 	add	r2,r2,r4
     704:	300cd1ba 	srli	r6,r6,6
     708:	280ad07a 	srli	r5,r5,1
     70c:	1004d2fa 	srli	r2,r2,11
     710:	3180f80c 	andi	r6,r6,992
     714:	291f000c 	andi	r4,r5,31744
     718:	310cb03a 	or	r6,r6,r4
     71c:	108007cc 	andi	r2,r2,31
     720:	308cb03a 	or	r6,r6,r2
     724:	1980000d 	sth	r6,0(r3)
     728:	f800283a 	ret

0000072c <nd_GsEglBoxfill>:
     72c:	d0a70017 	ldw	r2,-25600(gp)
     730:	defffb04 	addi	sp,sp,-20
     734:	dd000415 	stw	r20,16(sp)
     738:	dcc00315 	stw	r19,12(sp)
     73c:	dc800215 	stw	r18,8(sp)
     740:	dc400115 	stw	r17,4(sp)
     744:	dc000015 	stw	r16,0(sp)
     748:	10004326 	beq	r2,zero,858 <nd_GsEglBoxfill+0x12c>
     74c:	d226fc17 	ldw	r8,-25616(gp)
     750:	40004126 	beq	r8,zero,858 <nd_GsEglBoxfill+0x12c>
     754:	3100030e 	bge	r6,r4,764 <nd_GsEglBoxfill+0x38>
     758:	2007883a 	mov	r3,r4
     75c:	3009883a 	mov	r4,r6
     760:	180d883a 	mov	r6,r3
     764:	3940030e 	bge	r7,r5,774 <nd_GsEglBoxfill+0x48>
     768:	2807883a 	mov	r3,r5
     76c:	380b883a 	mov	r5,r7
     770:	180f883a 	mov	r7,r3
     774:	20004616 	blt	r4,zero,890 <nd_GsEglBoxfill+0x164>
     778:	00c09fc4 	movi	r3,639
     77c:	19803d16 	blt	r3,r6,874 <nd_GsEglBoxfill+0x148>
     780:	31003516 	blt	r6,r4,858 <nd_GsEglBoxfill+0x12c>
     784:	28004616 	blt	r5,zero,8a0 <nd_GsEglBoxfill+0x174>
     788:	00c077c4 	movi	r3,479
     78c:	19c03e16 	blt	r3,r7,888 <nd_GsEglBoxfill+0x15c>
     790:	39403116 	blt	r7,r5,858 <nd_GsEglBoxfill+0x12c>
     794:	d3a6fa17 	ldw	r14,-25624(gp)
     798:	2123883a 	add	r17,r4,r4
     79c:	88a3883a 	add	r17,r17,r2
     7a0:	741f000c 	andi	r16,r14,31744
     7a4:	73c0f80c 	andi	r15,r14,992
     7a8:	701a90fa 	slli	r13,r14,3
     7ac:	8021d1fa 	srai	r16,r16,7
     7b0:	781fd0ba 	srai	r15,r15,2
     7b4:	6b403e0c 	andi	r13,r13,248
     7b8:	39c00044 	addi	r7,r7,1
     7bc:	31800044 	addi	r6,r6,1
     7c0:	03003fc4 	movi	r12,255
     7c4:	280492fa 	slli	r2,r5,11
     7c8:	2007883a 	mov	r3,r4
     7cc:	1445883a 	add	r2,r2,r17
     7d0:	62002b36 	bltu	r12,r8,880 <nd_GsEglBoxfill+0x154>
     7d4:	1240000b 	ldhu	r9,0(r2)
     7d8:	4a9f000c 	andi	r10,r9,31744
     7dc:	4ac0f80c 	andi	r11,r9,992
     7e0:	5015d1fa 	srai	r10,r10,7
     7e4:	5817d0ba 	srai	r11,r11,2
     7e8:	481290fa 	slli	r9,r9,3
     7ec:	82a5c83a 	sub	r18,r16,r10
     7f0:	7ae9c83a 	sub	r20,r15,r11
     7f4:	4a403e0c 	andi	r9,r9,248
     7f8:	5026923a 	slli	r19,r10,8
     7fc:	a229383a 	mul	r20,r20,r8
     800:	6a55c83a 	sub	r10,r13,r9
     804:	5816923a 	slli	r11,r11,8
     808:	9225383a 	mul	r18,r18,r8
     80c:	4812923a 	slli	r9,r9,8
     810:	5215383a 	mul	r10,r10,r8
     814:	a2d7883a 	add	r11,r20,r11
     818:	94e5883a 	add	r18,r18,r19
     81c:	5255883a 	add	r10,r10,r9
     820:	5816d1ba 	srli	r11,r11,6
     824:	9024d07a 	srli	r18,r18,1
     828:	5014d2fa 	srli	r10,r10,11
     82c:	5ac0f80c 	andi	r11,r11,992
     830:	925f000c 	andi	r9,r18,31744
     834:	5a52b03a 	or	r9,r11,r9
     838:	528007cc 	andi	r10,r10,31
     83c:	4a92b03a 	or	r9,r9,r10
     840:	1240000d 	sth	r9,0(r2)
     844:	18c00044 	addi	r3,r3,1
     848:	10800084 	addi	r2,r2,2
     84c:	19bfe01e 	bne	r3,r6,7d0 <__alt_mem_onchip_flash_0_data+0xf0f007d0>
     850:	29400044 	addi	r5,r5,1
     854:	29ffdb1e 	bne	r5,r7,7c4 <__alt_mem_onchip_flash_0_data+0xf0f007c4>
     858:	dd000417 	ldw	r20,16(sp)
     85c:	dcc00317 	ldw	r19,12(sp)
     860:	dc800217 	ldw	r18,8(sp)
     864:	dc400117 	ldw	r17,4(sp)
     868:	dc000017 	ldw	r16,0(sp)
     86c:	dec00504 	addi	sp,sp,20
     870:	f800283a 	ret
     874:	180d883a 	mov	r6,r3
     878:	313fc20e 	bge	r6,r4,784 <__alt_mem_onchip_flash_0_data+0xf0f00784>
     87c:	003ff606 	br	858 <__alt_mem_onchip_flash_0_data+0xf0f00858>
     880:	7013883a 	mov	r9,r14
     884:	003fee06 	br	840 <__alt_mem_onchip_flash_0_data+0xf0f00840>
     888:	180f883a 	mov	r7,r3
     88c:	003fc006 	br	790 <__alt_mem_onchip_flash_0_data+0xf0f00790>
     890:	00c09fc4 	movi	r3,639
     894:	0009883a 	mov	r4,zero
     898:	19bfb90e 	bge	r3,r6,780 <__alt_mem_onchip_flash_0_data+0xf0f00780>
     89c:	003ff506 	br	874 <__alt_mem_onchip_flash_0_data+0xf0f00874>
     8a0:	000b883a 	mov	r5,zero
     8a4:	003fb806 	br	788 <__alt_mem_onchip_flash_0_data+0xf0f00788>

000008a8 <nd_GsEglCircle>:
     8a8:	defff704 	addi	sp,sp,-36
     8ac:	dd000415 	stw	r20,16(sp)
     8b0:	dcc00315 	stw	r19,12(sp)
     8b4:	dc800215 	stw	r18,8(sp)
     8b8:	dc400115 	stw	r17,4(sp)
     8bc:	dc000015 	stw	r16,0(sp)
     8c0:	3185883a 	add	r2,r6,r6
     8c4:	050000c4 	movi	r20,3
     8c8:	dfc00815 	stw	ra,32(sp)
     8cc:	ddc00715 	stw	r23,28(sp)
     8d0:	dd800615 	stw	r22,24(sp)
     8d4:	dd400515 	stw	r21,20(sp)
     8d8:	2027883a 	mov	r19,r4
     8dc:	2825883a 	mov	r18,r5
     8e0:	a0a9c83a 	sub	r20,r20,r2
     8e4:	3023883a 	mov	r17,r6
     8e8:	0021883a 	mov	r16,zero
     8ec:	01800516 	blt	zero,r6,904 <nd_GsEglCircle+0x5c>
     8f0:	00002f06 	br	9b0 <nd_GsEglCircle+0x108>
     8f4:	8c7fffc4 	addi	r17,r17,-1
     8f8:	84000044 	addi	r16,r16,1
     8fc:	15000284 	addi	r20,r2,10
     900:	84402b0e 	bge	r16,r17,9b0 <nd_GsEglCircle+0x108>
     904:	84ef883a 	add	r23,r16,r19
     908:	946b883a 	add	r21,r18,r17
     90c:	b809883a 	mov	r4,r23
     910:	a80b883a 	mov	r5,r21
     914:	00006600 	call	660 <nd_GsEglPset>
     918:	9c2dc83a 	sub	r22,r19,r16
     91c:	b009883a 	mov	r4,r22
     920:	a80b883a 	mov	r5,r21
     924:	00006600 	call	660 <nd_GsEglPset>
     928:	946bc83a 	sub	r21,r18,r17
     92c:	b809883a 	mov	r4,r23
     930:	a80b883a 	mov	r5,r21
     934:	00006600 	call	660 <nd_GsEglPset>
     938:	b009883a 	mov	r4,r22
     93c:	a80b883a 	mov	r5,r21
     940:	00006600 	call	660 <nd_GsEglPset>
     944:	84ab883a 	add	r21,r16,r18
     948:	9c6f883a 	add	r23,r19,r17
     94c:	a80b883a 	mov	r5,r21
     950:	b809883a 	mov	r4,r23
     954:	00006600 	call	660 <nd_GsEglPset>
     958:	9c6dc83a 	sub	r22,r19,r17
     95c:	a80b883a 	mov	r5,r21
     960:	b009883a 	mov	r4,r22
     964:	00006600 	call	660 <nd_GsEglPset>
     968:	942bc83a 	sub	r21,r18,r16
     96c:	b809883a 	mov	r4,r23
     970:	a80b883a 	mov	r5,r21
     974:	00006600 	call	660 <nd_GsEglPset>
     978:	b009883a 	mov	r4,r22
     97c:	a80b883a 	mov	r5,r21
     980:	00006600 	call	660 <nd_GsEglPset>
     984:	8445c83a 	sub	r2,r16,r17
     988:	1085883a 	add	r2,r2,r2
     98c:	1085883a 	add	r2,r2,r2
     990:	1505883a 	add	r2,r2,r20
     994:	a03fd70e 	bge	r20,zero,8f4 <__alt_mem_onchip_flash_0_data+0xf0f008f4>
     998:	8405883a 	add	r2,r16,r16
     99c:	1085883a 	add	r2,r2,r2
     9a0:	1529883a 	add	r20,r2,r20
     9a4:	84000044 	addi	r16,r16,1
     9a8:	a5000184 	addi	r20,r20,6
     9ac:	847fd516 	blt	r16,r17,904 <__alt_mem_onchip_flash_0_data+0xf0f00904>
     9b0:	84400b26 	beq	r16,r17,9e0 <nd_GsEglCircle+0x138>
     9b4:	dfc00817 	ldw	ra,32(sp)
     9b8:	ddc00717 	ldw	r23,28(sp)
     9bc:	dd800617 	ldw	r22,24(sp)
     9c0:	dd400517 	ldw	r21,20(sp)
     9c4:	dd000417 	ldw	r20,16(sp)
     9c8:	dcc00317 	ldw	r19,12(sp)
     9cc:	dc800217 	ldw	r18,8(sp)
     9d0:	dc400117 	ldw	r17,4(sp)
     9d4:	dc000017 	ldw	r16,0(sp)
     9d8:	dec00904 	addi	sp,sp,36
     9dc:	f800283a 	ret
     9e0:	9c23883a 	add	r17,r19,r16
     9e4:	9429883a 	add	r20,r18,r16
     9e8:	8809883a 	mov	r4,r17
     9ec:	a00b883a 	mov	r5,r20
     9f0:	00006600 	call	660 <nd_GsEglPset>
     9f4:	9c27c83a 	sub	r19,r19,r16
     9f8:	9809883a 	mov	r4,r19
     9fc:	a00b883a 	mov	r5,r20
     a00:	00006600 	call	660 <nd_GsEglPset>
     a04:	9421c83a 	sub	r16,r18,r16
     a08:	8809883a 	mov	r4,r17
     a0c:	800b883a 	mov	r5,r16
     a10:	00006600 	call	660 <nd_GsEglPset>
     a14:	9809883a 	mov	r4,r19
     a18:	800b883a 	mov	r5,r16
     a1c:	dfc00817 	ldw	ra,32(sp)
     a20:	ddc00717 	ldw	r23,28(sp)
     a24:	dd800617 	ldw	r22,24(sp)
     a28:	dd400517 	ldw	r21,20(sp)
     a2c:	dd000417 	ldw	r20,16(sp)
     a30:	dcc00317 	ldw	r19,12(sp)
     a34:	dc800217 	ldw	r18,8(sp)
     a38:	dc400117 	ldw	r17,4(sp)
     a3c:	dc000017 	ldw	r16,0(sp)
     a40:	dec00904 	addi	sp,sp,36
     a44:	00006601 	jmpi	660 <nd_GsEglPset>

00000a48 <nd_GsEglLine>:
     a48:	defff804 	addi	sp,sp,-32
     a4c:	dc800215 	stw	r18,8(sp)
     a50:	3125c83a 	sub	r18,r6,r4
     a54:	91c5883a 	add	r2,r18,r7
     a58:	dd000415 	stw	r20,16(sp)
     a5c:	dcc00315 	stw	r19,12(sp)
     a60:	dc400115 	stw	r17,4(sp)
     a64:	dc000015 	stw	r16,0(sp)
     a68:	dfc00715 	stw	ra,28(sp)
     a6c:	dd800615 	stw	r22,24(sp)
     a70:	dd400515 	stw	r21,20(sp)
     a74:	1145c83a 	sub	r2,r2,r5
     a78:	2023883a 	mov	r17,r4
     a7c:	3029883a 	mov	r20,r6
     a80:	3827883a 	mov	r19,r7
     a84:	2821883a 	mov	r16,r5
     a88:	00803b0e 	bge	zero,r2,b78 <nd_GsEglLine+0x130>
     a8c:	8809883a 	mov	r4,r17
     a90:	800b883a 	mov	r5,r16
     a94:	00006600 	call	660 <nd_GsEglPset>
     a98:	9007883a 	mov	r3,r18
     a9c:	90004016 	blt	r18,zero,ba0 <nd_GsEglLine+0x158>
     aa0:	9c05c83a 	sub	r2,r19,r16
     aa4:	10003016 	blt	r2,zero,b68 <nd_GsEglLine+0x120>
     aa8:	10c0190e 	bge	r2,r3,b10 <nd_GsEglLine+0xc8>
     aac:	10ab883a 	add	r21,r2,r2
     ab0:	a8e5c83a 	sub	r18,r21,r3
     ab4:	90edc83a 	sub	r22,r18,r3
     ab8:	84c02916 	blt	r16,r19,b60 <nd_GsEglLine+0x118>
     abc:	04ffffc4 	movi	r19,-1
     ac0:	8c400044 	addi	r17,r17,1
     ac4:	a4400816 	blt	r20,r17,ae8 <nd_GsEglLine+0xa0>
     ac8:	0480290e 	bge	zero,r18,b70 <nd_GsEglLine+0x128>
     acc:	95a5883a 	add	r18,r18,r22
     ad0:	84e1883a 	add	r16,r16,r19
     ad4:	8809883a 	mov	r4,r17
     ad8:	800b883a 	mov	r5,r16
     adc:	8c400044 	addi	r17,r17,1
     ae0:	00006600 	call	660 <nd_GsEglPset>
     ae4:	a47ff80e 	bge	r20,r17,ac8 <__alt_mem_onchip_flash_0_data+0xf0f00ac8>
     ae8:	dfc00717 	ldw	ra,28(sp)
     aec:	dd800617 	ldw	r22,24(sp)
     af0:	dd400517 	ldw	r21,20(sp)
     af4:	dd000417 	ldw	r20,16(sp)
     af8:	dcc00317 	ldw	r19,12(sp)
     afc:	dc800217 	ldw	r18,8(sp)
     b00:	dc400117 	ldw	r17,4(sp)
     b04:	dc000017 	ldw	r16,0(sp)
     b08:	dec00804 	addi	sp,sp,32
     b0c:	f800283a 	ret
     b10:	18eb883a 	add	r21,r3,r3
     b14:	a8a5c83a 	sub	r18,r21,r2
     b18:	90adc83a 	sub	r22,r18,r2
     b1c:	8d000e16 	blt	r17,r20,b58 <nd_GsEglLine+0x110>
     b20:	053fffc4 	movi	r20,-1
     b24:	84000044 	addi	r16,r16,1
     b28:	9c3fef16 	blt	r19,r16,ae8 <__alt_mem_onchip_flash_0_data+0xf0f00ae8>
     b2c:	0480080e 	bge	zero,r18,b50 <nd_GsEglLine+0x108>
     b30:	95a5883a 	add	r18,r18,r22
     b34:	8d23883a 	add	r17,r17,r20
     b38:	800b883a 	mov	r5,r16
     b3c:	8809883a 	mov	r4,r17
     b40:	84000044 	addi	r16,r16,1
     b44:	00006600 	call	660 <nd_GsEglPset>
     b48:	9c3fe716 	blt	r19,r16,ae8 <__alt_mem_onchip_flash_0_data+0xf0f00ae8>
     b4c:	04bff816 	blt	zero,r18,b30 <__alt_mem_onchip_flash_0_data+0xf0f00b30>
     b50:	9565883a 	add	r18,r18,r21
     b54:	003ff806 	br	b38 <__alt_mem_onchip_flash_0_data+0xf0f00b38>
     b58:	05000044 	movi	r20,1
     b5c:	003ff106 	br	b24 <__alt_mem_onchip_flash_0_data+0xf0f00b24>
     b60:	04c00044 	movi	r19,1
     b64:	003fd606 	br	ac0 <__alt_mem_onchip_flash_0_data+0xf0f00ac0>
     b68:	0085c83a 	sub	r2,zero,r2
     b6c:	003fce06 	br	aa8 <__alt_mem_onchip_flash_0_data+0xf0f00aa8>
     b70:	9565883a 	add	r18,r18,r21
     b74:	003fd706 	br	ad4 <__alt_mem_onchip_flash_0_data+0xf0f00ad4>
     b78:	3821883a 	mov	r16,r7
     b7c:	3023883a 	mov	r17,r6
     b80:	21a5c83a 	sub	r18,r4,r6
     b84:	2827883a 	mov	r19,r5
     b88:	2029883a 	mov	r20,r4
     b8c:	800b883a 	mov	r5,r16
     b90:	8809883a 	mov	r4,r17
     b94:	00006600 	call	660 <nd_GsEglPset>
     b98:	9007883a 	mov	r3,r18
     b9c:	903fc00e 	bge	r18,zero,aa0 <__alt_mem_onchip_flash_0_data+0xf0f00aa0>
     ba0:	0487c83a 	sub	r3,zero,r18
     ba4:	003fbe06 	br	aa0 <__alt_mem_onchip_flash_0_data+0xf0f00aa0>

00000ba8 <nd_GsEglBox>:
     ba8:	defffb04 	addi	sp,sp,-20
     bac:	dc000015 	stw	r16,0(sp)
     bb0:	3821883a 	mov	r16,r7
     bb4:	280f883a 	mov	r7,r5
     bb8:	dfc00415 	stw	ra,16(sp)
     bbc:	dcc00315 	stw	r19,12(sp)
     bc0:	dc800215 	stw	r18,8(sp)
     bc4:	dc400115 	stw	r17,4(sp)
     bc8:	3025883a 	mov	r18,r6
     bcc:	2023883a 	mov	r17,r4
     bd0:	2827883a 	mov	r19,r5
     bd4:	0000a480 	call	a48 <nd_GsEglLine>
     bd8:	8809883a 	mov	r4,r17
     bdc:	800b883a 	mov	r5,r16
     be0:	900d883a 	mov	r6,r18
     be4:	800f883a 	mov	r7,r16
     be8:	0000a480 	call	a48 <nd_GsEglLine>
     bec:	9cc00044 	addi	r19,r19,1
     bf0:	843fffc4 	addi	r16,r16,-1
     bf4:	9009883a 	mov	r4,r18
     bf8:	980b883a 	mov	r5,r19
     bfc:	900d883a 	mov	r6,r18
     c00:	800f883a 	mov	r7,r16
     c04:	0000a480 	call	a48 <nd_GsEglLine>
     c08:	8809883a 	mov	r4,r17
     c0c:	980b883a 	mov	r5,r19
     c10:	880d883a 	mov	r6,r17
     c14:	800f883a 	mov	r7,r16
     c18:	dfc00417 	ldw	ra,16(sp)
     c1c:	dcc00317 	ldw	r19,12(sp)
     c20:	dc800217 	ldw	r18,8(sp)
     c24:	dc400117 	ldw	r17,4(sp)
     c28:	dc000017 	ldw	r16,0(sp)
     c2c:	dec00504 	addi	sp,sp,20
     c30:	0000a481 	jmpi	a48 <nd_GsEglLine>

00000c34 <nd_GsEglPutcharFont>:
     c34:	defff804 	addi	sp,sp,-32
     c38:	dd400515 	stw	r21,20(sp)
     c3c:	dd000415 	stw	r20,16(sp)
     c40:	dfc00715 	stw	ra,28(sp)
     c44:	dd800615 	stw	r22,24(sp)
     c48:	dcc00315 	stw	r19,12(sp)
     c4c:	dc800215 	stw	r18,8(sp)
     c50:	dc400115 	stw	r17,4(sp)
     c54:	dc000015 	stw	r16,0(sp)
     c58:	31bfffcc 	andi	r6,r6,65535
     c5c:	00803fc4 	movi	r2,255
     c60:	202b883a 	mov	r21,r4
     c64:	2829883a 	mov	r20,r5
     c68:	11802e36 	bltu	r2,r6,d24 <nd_GsEglPutcharFont+0xf0>
     c6c:	d0a6fd17 	ldw	r2,-25612(gp)
     c70:	10003626 	beq	r2,zero,d4c <nd_GsEglPutcharFont+0x118>
     c74:	14c00383 	ldbu	r19,14(r2)
     c78:	158003c3 	ldbu	r22,15(r2)
     c7c:	10800444 	addi	r2,r2,17
     c80:	98c001c4 	addi	r3,r19,7
     c84:	1807d0fa 	srai	r3,r3,3
     c88:	1d87383a 	mul	r3,r3,r22
     c8c:	30cd383a 	mul	r6,r6,r3
     c90:	11a5883a 	add	r18,r2,r6
     c94:	b0001826 	beq	r22,zero,cf8 <nd_GsEglPutcharFont+0xc4>
     c98:	b52d883a 	add	r22,r22,r20
     c9c:	0021883a 	mov	r16,zero
     ca0:	0023883a 	mov	r17,zero
     ca4:	9800041e 	bne	r19,zero,cb8 <nd_GsEglPutcharFont+0x84>
     ca8:	00001106 	br	cf0 <nd_GsEglPutcharFont+0xbc>
     cac:	8c400044 	addi	r17,r17,1
     cb0:	8421883a 	add	r16,r16,r16
     cb4:	8cc00e26 	beq	r17,r19,cf0 <nd_GsEglPutcharFont+0xbc>
     cb8:	88c001cc 	andi	r3,r17,7
     cbc:	1800021e 	bne	r3,zero,cc8 <nd_GsEglPutcharFont+0x94>
     cc0:	94000003 	ldbu	r16,0(r18)
     cc4:	94800044 	addi	r18,r18,1
     cc8:	80c03fcc 	andi	r3,r16,255
     ccc:	18c0201c 	xori	r3,r3,128
     cd0:	18ffe004 	addi	r3,r3,-128
     cd4:	183ff50e 	bge	r3,zero,cac <__alt_mem_onchip_flash_0_data+0xf0f00cac>
     cd8:	8d49883a 	add	r4,r17,r21
     cdc:	a00b883a 	mov	r5,r20
     ce0:	8c400044 	addi	r17,r17,1
     ce4:	00006600 	call	660 <nd_GsEglPset>
     ce8:	8421883a 	add	r16,r16,r16
     cec:	8cfff21e 	bne	r17,r19,cb8 <__alt_mem_onchip_flash_0_data+0xf0f00cb8>
     cf0:	a5000044 	addi	r20,r20,1
     cf4:	a5bfea1e 	bne	r20,r22,ca0 <__alt_mem_onchip_flash_0_data+0xf0f00ca0>
     cf8:	9805883a 	mov	r2,r19
     cfc:	dfc00717 	ldw	ra,28(sp)
     d00:	dd800617 	ldw	r22,24(sp)
     d04:	dd400517 	ldw	r21,20(sp)
     d08:	dd000417 	ldw	r20,16(sp)
     d0c:	dcc00317 	ldw	r19,12(sp)
     d10:	dc800217 	ldw	r18,8(sp)
     d14:	dc400117 	ldw	r17,4(sp)
     d18:	dc000017 	ldw	r16,0(sp)
     d1c:	dec00804 	addi	sp,sp,32
     d20:	f800283a 	ret
     d24:	d426fe17 	ldw	r16,-25608(gp)
     d28:	80000826 	beq	r16,zero,d4c <nd_GsEglPutcharFont+0x118>
     d2c:	3009883a 	mov	r4,r6
     d30:	800b883a 	mov	r5,r16
     d34:	00004000 	call	400 <nd_GsEglFontx_putkanji>
     d38:	1025883a 	mov	r18,r2
     d3c:	10000526 	beq	r2,zero,d54 <nd_GsEglPutcharFont+0x120>
     d40:	84c00383 	ldbu	r19,14(r16)
     d44:	858003c3 	ldbu	r22,15(r16)
     d48:	003fd206 	br	c94 <__alt_mem_onchip_flash_0_data+0xf0f00c94>
     d4c:	0027883a 	mov	r19,zero
     d50:	003fe906 	br	cf8 <__alt_mem_onchip_flash_0_data+0xf0f00cf8>
     d54:	01206814 	movui	r4,33184
     d58:	800b883a 	mov	r5,r16
     d5c:	00004000 	call	400 <nd_GsEglFontx_putkanji>
     d60:	1025883a 	mov	r18,r2
     d64:	003ff606 	br	d40 <__alt_mem_onchip_flash_0_data+0xf0f00d40>

00000d68 <nd_GsEglPutstrFont>:
     d68:	defff904 	addi	sp,sp,-28
     d6c:	dd400515 	stw	r21,20(sp)
     d70:	dd000415 	stw	r20,16(sp)
     d74:	dcc00315 	stw	r19,12(sp)
     d78:	dc800215 	stw	r18,8(sp)
     d7c:	dc400115 	stw	r17,4(sp)
     d80:	dc000015 	stw	r16,0(sp)
     d84:	dfc00615 	stw	ra,24(sp)
     d88:	2021883a 	mov	r16,r4
     d8c:	2829883a 	mov	r20,r5
     d90:	3023883a 	mov	r17,r6
     d94:	04c00784 	movi	r19,30
     d98:	054007c4 	movi	r21,31
     d9c:	04809fc4 	movi	r18,639
     da0:	00000806 	br	dc4 <nd_GsEglPutstrFont+0x5c>
     da4:	a900112e 	bgeu	r21,r4,dec <nd_GsEglPutstrFont+0x84>
     da8:	8009883a 	mov	r4,r16
     dac:	a00b883a 	mov	r5,r20
     db0:	19bfffcc 	andi	r6,r3,65535
     db4:	0000c340 	call	c34 <nd_GsEglPutcharFont>
     db8:	80a1883a 	add	r16,r16,r2
     dbc:	8c400044 	addi	r17,r17,1
     dc0:	94001316 	blt	r18,r16,e10 <nd_GsEglPutstrFont+0xa8>
     dc4:	88800003 	ldbu	r2,0(r17)
     dc8:	10c03fcc 	andi	r3,r2,255
     dcc:	197fdfc4 	addi	r5,r3,-129
     dd0:	193fc804 	addi	r4,r3,-224
     dd4:	10803fcc 	andi	r2,r2,255
     dd8:	100c923a 	slli	r6,r2,8
     ddc:	297fffcc 	andi	r5,r5,65535
     de0:	213fffcc 	andi	r4,r4,65535
     de4:	10000a26 	beq	r2,zero,e10 <nd_GsEglPutstrFont+0xa8>
     de8:	997fee36 	bltu	r19,r5,da4 <__alt_mem_onchip_flash_0_data+0xf0f00da4>
     dec:	88c00043 	ldbu	r3,1(r17)
     df0:	8009883a 	mov	r4,r16
     df4:	a00b883a 	mov	r5,r20
     df8:	30c6b03a 	or	r3,r6,r3
     dfc:	19bfffcc 	andi	r6,r3,65535
     e00:	0000c340 	call	c34 <nd_GsEglPutcharFont>
     e04:	80a1883a 	add	r16,r16,r2
     e08:	8c400084 	addi	r17,r17,2
     e0c:	943fed0e 	bge	r18,r16,dc4 <__alt_mem_onchip_flash_0_data+0xf0f00dc4>
     e10:	dfc00617 	ldw	ra,24(sp)
     e14:	dd400517 	ldw	r21,20(sp)
     e18:	dd000417 	ldw	r20,16(sp)
     e1c:	dcc00317 	ldw	r19,12(sp)
     e20:	dc800217 	ldw	r18,8(sp)
     e24:	dc400117 	ldw	r17,4(sp)
     e28:	dc000017 	ldw	r16,0(sp)
     e2c:	dec00704 	addi	sp,sp,28
     e30:	f800283a 	ret

00000e34 <nd_GsEglSetFont>:
     e34:	d126fd15 	stw	r4,-25612(gp)
     e38:	d166fe15 	stw	r5,-25608(gp)
     e3c:	f800283a 	ret

00000e40 <nd_GsEglPutchar>:
     e40:	31801fcc 	andi	r6,r6,127
     e44:	defff704 	addi	sp,sp,-36
     e48:	300490fa 	slli	r2,r6,3
     e4c:	dcc00315 	stw	r19,12(sp)
     e50:	04c000f4 	movhi	r19,3
     e54:	9cff0004 	addi	r19,r19,-1024
     e58:	2ccbc83a 	sub	r5,r5,r19
     e5c:	ddc00715 	stw	r23,28(sp)
     e60:	9dc00204 	addi	r23,r19,8
     e64:	dd800615 	stw	r22,24(sp)
     e68:	dd400515 	stw	r21,20(sp)
     e6c:	dc800215 	stw	r18,8(sp)
     e70:	dfc00815 	stw	ra,32(sp)
     e74:	dd000415 	stw	r20,16(sp)
     e78:	dc400115 	stw	r17,4(sp)
     e7c:	dc000015 	stw	r16,0(sp)
     e80:	202b883a 	mov	r21,r4
     e84:	14e7883a 	add	r19,r2,r19
     e88:	15ef883a 	add	r23,r2,r23
     e8c:	28adc83a 	sub	r22,r5,r2
     e90:	04800204 	movi	r18,8
     e94:	9c000003 	ldbu	r16,0(r19)
     e98:	0023883a 	mov	r17,zero
     e9c:	b4e9883a 	add	r20,r22,r19
     ea0:	00000306 	br	eb0 <nd_GsEglPutchar+0x70>
     ea4:	8c400044 	addi	r17,r17,1
     ea8:	8421883a 	add	r16,r16,r16
     eac:	8c800826 	beq	r17,r18,ed0 <nd_GsEglPutchar+0x90>
     eb0:	8080200c 	andi	r2,r16,128
     eb4:	103ffb26 	beq	r2,zero,ea4 <__alt_mem_onchip_flash_0_data+0xf0f00ea4>
     eb8:	8d49883a 	add	r4,r17,r21
     ebc:	a00b883a 	mov	r5,r20
     ec0:	8c400044 	addi	r17,r17,1
     ec4:	00006600 	call	660 <nd_GsEglPset>
     ec8:	8421883a 	add	r16,r16,r16
     ecc:	8cbff81e 	bne	r17,r18,eb0 <__alt_mem_onchip_flash_0_data+0xf0f00eb0>
     ed0:	9cc00044 	addi	r19,r19,1
     ed4:	9dffef1e 	bne	r19,r23,e94 <__alt_mem_onchip_flash_0_data+0xf0f00e94>
     ed8:	dfc00817 	ldw	ra,32(sp)
     edc:	ddc00717 	ldw	r23,28(sp)
     ee0:	dd800617 	ldw	r22,24(sp)
     ee4:	dd400517 	ldw	r21,20(sp)
     ee8:	dd000417 	ldw	r20,16(sp)
     eec:	dcc00317 	ldw	r19,12(sp)
     ef0:	dc800217 	ldw	r18,8(sp)
     ef4:	dc400117 	ldw	r17,4(sp)
     ef8:	dc000017 	ldw	r16,0(sp)
     efc:	dec00904 	addi	sp,sp,36
     f00:	f800283a 	ret

00000f04 <nd_GsEglPutstr>:
     f04:	defffc04 	addi	sp,sp,-16
     f08:	dc800215 	stw	r18,8(sp)
     f0c:	dc400115 	stw	r17,4(sp)
     f10:	dc000015 	stw	r16,0(sp)
     f14:	dfc00315 	stw	ra,12(sp)
     f18:	3021883a 	mov	r16,r6
     f1c:	31800007 	ldb	r6,0(r6)
     f20:	2023883a 	mov	r17,r4
     f24:	2825883a 	mov	r18,r5
     f28:	30000726 	beq	r6,zero,f48 <nd_GsEglPutstr+0x44>
     f2c:	8809883a 	mov	r4,r17
     f30:	900b883a 	mov	r5,r18
     f34:	84000044 	addi	r16,r16,1
     f38:	0000e400 	call	e40 <nd_GsEglPutchar>
     f3c:	81800007 	ldb	r6,0(r16)
     f40:	8c400204 	addi	r17,r17,8
     f44:	303ff91e 	bne	r6,zero,f2c <__alt_mem_onchip_flash_0_data+0xf0f00f2c>
     f48:	dfc00317 	ldw	ra,12(sp)
     f4c:	dc800217 	ldw	r18,8(sp)
     f50:	dc400117 	ldw	r17,4(sp)
     f54:	dc000017 	ldw	r16,0(sp)
     f58:	dec00404 	addi	sp,sp,16
     f5c:	f800283a 	ret

00000f60 <nd_GsEglPutdec>:
     f60:	defff504 	addi	sp,sp,-44
     f64:	dd400915 	stw	r21,36(sp)
     f68:	dd000815 	stw	r20,32(sp)
     f6c:	dcc00715 	stw	r19,28(sp)
     f70:	dc000415 	stw	r16,16(sp)
     f74:	dfc00a15 	stw	ra,40(sp)
     f78:	dc800615 	stw	r18,24(sp)
     f7c:	dc400515 	stw	r17,20(sp)
     f80:	3027883a 	mov	r19,r6
     f84:	2029883a 	mov	r20,r4
     f88:	282b883a 	mov	r21,r5
     f8c:	3021883a 	mov	r16,r6
     f90:	30001f16 	blt	r6,zero,1010 <nd_GsEglPutdec+0xb0>
     f94:	00800c04 	movi	r2,48
     f98:	d8800305 	stb	r2,12(sp)
     f9c:	d8000345 	stb	zero,13(sp)
     fa0:	80002326 	beq	r16,zero,1030 <nd_GsEglPutdec+0xd0>
     fa4:	04400304 	movi	r17,12
     fa8:	8009883a 	mov	r4,r16
     fac:	01400284 	movi	r5,10
     fb0:	00016740 	call	1674 <__modsi3>
     fb4:	8009883a 	mov	r4,r16
     fb8:	01400284 	movi	r5,10
     fbc:	1025883a 	mov	r18,r2
     fc0:	00016240 	call	1624 <__divsi3>
     fc4:	dc4d883a 	add	r6,sp,r17
     fc8:	94800c14 	ori	r18,r18,48
     fcc:	34800005 	stb	r18,0(r6)
     fd0:	1021883a 	mov	r16,r2
     fd4:	8c7fffc4 	addi	r17,r17,-1
     fd8:	103ff31e 	bne	r2,zero,fa8 <__alt_mem_onchip_flash_0_data+0xf0f00fa8>
     fdc:	98000f16 	blt	r19,zero,101c <nd_GsEglPutdec+0xbc>
     fe0:	a009883a 	mov	r4,r20
     fe4:	a80b883a 	mov	r5,r21
     fe8:	0000f040 	call	f04 <nd_GsEglPutstr>
     fec:	dfc00a17 	ldw	ra,40(sp)
     ff0:	dd400917 	ldw	r21,36(sp)
     ff4:	dd000817 	ldw	r20,32(sp)
     ff8:	dcc00717 	ldw	r19,28(sp)
     ffc:	dc800617 	ldw	r18,24(sp)
    1000:	dc400517 	ldw	r17,20(sp)
    1004:	dc000417 	ldw	r16,16(sp)
    1008:	dec00b04 	addi	sp,sp,44
    100c:	f800283a 	ret
    1010:	01a1c83a 	sub	r16,zero,r6
    1014:	003fdf06 	br	f94 <__alt_mem_onchip_flash_0_data+0xf0f00f94>
    1018:	04400304 	movi	r17,12
    101c:	dc47883a 	add	r3,sp,r17
    1020:	00800b44 	movi	r2,45
    1024:	18800005 	stb	r2,0(r3)
    1028:	180d883a 	mov	r6,r3
    102c:	003fec06 	br	fe0 <__alt_mem_onchip_flash_0_data+0xf0f00fe0>
    1030:	983ff916 	blt	r19,zero,1018 <__alt_mem_onchip_flash_0_data+0xf0f01018>
    1034:	d9800304 	addi	r6,sp,12
    1038:	003fe906 	br	fe0 <__alt_mem_onchip_flash_0_data+0xf0f00fe0>

0000103c <nd_GsEglPuthex2>:
    103c:	defffc04 	addi	sp,sp,-16
    1040:	dc000015 	stw	r16,0(sp)
    1044:	3021883a 	mov	r16,r6
    1048:	300cd13a 	srli	r6,r6,4
    104c:	dc800215 	stw	r18,8(sp)
    1050:	dc400115 	stw	r17,4(sp)
    1054:	318003cc 	andi	r6,r6,15
    1058:	2025883a 	mov	r18,r4
    105c:	2823883a 	mov	r17,r5
    1060:	dfc00315 	stw	ra,12(sp)
    1064:	0000e400 	call	e40 <nd_GsEglPutchar>
    1068:	91000204 	addi	r4,r18,8
    106c:	880b883a 	mov	r5,r17
    1070:	818003cc 	andi	r6,r16,15
    1074:	dfc00317 	ldw	ra,12(sp)
    1078:	dc800217 	ldw	r18,8(sp)
    107c:	dc400117 	ldw	r17,4(sp)
    1080:	dc000017 	ldw	r16,0(sp)
    1084:	dec00404 	addi	sp,sp,16
    1088:	0000e401 	jmpi	e40 <nd_GsEglPutchar>

0000108c <nd_GsEglPuthex8>:
    108c:	defffa04 	addi	sp,sp,-24
    1090:	dd000415 	stw	r20,16(sp)
    1094:	dcc00315 	stw	r19,12(sp)
    1098:	dc800215 	stw	r18,8(sp)
    109c:	dc400115 	stw	r17,4(sp)
    10a0:	dc000015 	stw	r16,0(sp)
    10a4:	dfc00515 	stw	ra,20(sp)
    10a8:	2029883a 	mov	r20,r4
    10ac:	2827883a 	mov	r19,r5
    10b0:	3023883a 	mov	r17,r6
    10b4:	040001c4 	movi	r16,7
    10b8:	04bfffc4 	movi	r18,-1
    10bc:	800890fa 	slli	r4,r16,3
    10c0:	898003cc 	andi	r6,r17,15
    10c4:	980b883a 	mov	r5,r19
    10c8:	2509883a 	add	r4,r4,r20
    10cc:	843fffc4 	addi	r16,r16,-1
    10d0:	0000e400 	call	e40 <nd_GsEglPutchar>
    10d4:	8822d13a 	srli	r17,r17,4
    10d8:	84bff81e 	bne	r16,r18,10bc <__alt_mem_onchip_flash_0_data+0xf0f010bc>
    10dc:	dfc00517 	ldw	ra,20(sp)
    10e0:	dd000417 	ldw	r20,16(sp)
    10e4:	dcc00317 	ldw	r19,12(sp)
    10e8:	dc800217 	ldw	r18,8(sp)
    10ec:	dc400117 	ldw	r17,4(sp)
    10f0:	dc000017 	ldw	r16,0(sp)
    10f4:	dec00604 	addi	sp,sp,24
    10f8:	f800283a 	ret

000010fc <systeminit>:
    10fc:	defffc04 	addi	sp,sp,-16
    1100:	010000f4 	movhi	r4,3
    1104:	21000004 	addi	r4,r4,0
    1108:	dfc00315 	stw	ra,12(sp)
    110c:	dc000015 	stw	r16,0(sp)
    1110:	dc800215 	stw	r18,8(sp)
    1114:	dc400115 	stw	r17,4(sp)
    1118:	00017f00 	call	17f0 <puts>
    111c:	010000f4 	movhi	r4,3
    1120:	21000804 	addi	r4,r4,32
    1124:	00017f00 	call	17f0 <puts>
    1128:	000f883a 	mov	r7,zero
    112c:	01801904 	movi	r6,100
    1130:	010000f4 	movhi	r4,3
    1134:	21000e04 	addi	r4,r4,56
    1138:	014000f4 	movhi	r5,3
    113c:	29401404 	addi	r5,r5,80
    1140:	000170c0 	call	170c <printf>
    1144:	04000204 	movi	r16,8
    1148:	800b883a 	mov	r5,r16
    114c:	010000f4 	movhi	r4,3
    1150:	21001604 	addi	r4,r4,88
    1154:	000170c0 	call	170c <printf>
    1158:	800b883a 	mov	r5,r16
    115c:	010000f4 	movhi	r4,3
    1160:	21001b04 	addi	r4,r4,108
    1164:	000170c0 	call	170c <printf>
    1168:	010000f4 	movhi	r4,3
    116c:	21002004 	addi	r4,r4,128
    1170:	01400804 	movi	r5,32
    1174:	000170c0 	call	170c <printf>
    1178:	010000f4 	movhi	r4,3
    117c:	21002704 	addi	r4,r4,156
    1180:	0143c034 	movhi	r5,3840
    1184:	000170c0 	call	170c <printf>
    1188:	010000f4 	movhi	r4,3
    118c:	21002e04 	addi	r4,r4,184
    1190:	0143fff4 	movhi	r5,4095
    1194:	29420804 	addi	r5,r5,2080
    1198:	000170c0 	call	170c <printf>
    119c:	010000f4 	movhi	r4,3
    11a0:	21003504 	addi	r4,r4,212
    11a4:	000b883a 	mov	r5,zero
    11a8:	01808034 	movhi	r6,512
    11ac:	31bfffc4 	addi	r6,r6,-1
    11b0:	000170c0 	call	170c <printf>
    11b4:	00840034 	movhi	r2,4096
    11b8:	11400037 	ldwio	r5,0(r2)
    11bc:	10800104 	addi	r2,r2,4
    11c0:	11800037 	ldwio	r6,0(r2)
    11c4:	010000f4 	movhi	r4,3
    11c8:	21003c04 	addi	r4,r4,240
    11cc:	000170c0 	call	170c <printf>
    11d0:	010000f4 	movhi	r4,3
    11d4:	21004204 	addi	r4,r4,264
    11d8:	014000f4 	movhi	r5,3
    11dc:	29404904 	addi	r5,r5,292
    11e0:	018000f4 	movhi	r6,3
    11e4:	31804c04 	addi	r6,r6,304
    11e8:	000170c0 	call	170c <printf>
    11ec:	01602014 	movui	r5,32896
    11f0:	00bfffd4 	movui	r2,65535
    11f4:	114bc032 	custom	0,r5,r2,r5
    11f8:	010000f4 	movhi	r4,3
    11fc:	21004f04 	addi	r4,r4,316
    1200:	000170c0 	call	170c <printf>
    1204:	04000434 	movhi	r16,16
    1208:	84080c04 	addi	r16,r16,8240
    120c:	01402074 	movhi	r5,129
    1210:	29642804 	addi	r5,r5,-28512
    1214:	2c0bc072 	custom	1,r5,r5,r16
    1218:	010000f4 	movhi	r4,3
    121c:	21005404 	addi	r4,r4,336
    1220:	000170c0 	call	170c <printf>
    1224:	0440fa34 	movhi	r17,1000
    1228:	8c5fffc4 	addi	r17,r17,32767
    122c:	0025883a 	mov	r18,zero
    1230:	8c8bc0b2 	custom	2,r5,r17,r18
    1234:	010000f4 	movhi	r4,3
    1238:	21005904 	addi	r4,r4,356
    123c:	000170c0 	call	170c <printf>
    1240:	8c8bc0f2 	custom	3,r5,r17,r18
    1244:	010000f4 	movhi	r4,3
    1248:	21005e04 	addi	r4,r4,376
    124c:	000170c0 	call	170c <printf>
    1250:	017fe074 	movhi	r5,65409
    1254:	29642804 	addi	r5,r5,-28512
    1258:	2c0bc132 	custom	4,r5,r5,r16
    125c:	010000f4 	movhi	r4,3
    1260:	21006304 	addi	r4,r4,396
    1264:	000170c0 	call	170c <printf>
    1268:	041fe074 	movhi	r16,32641
    126c:	84206084 	addi	r16,r16,-32382
    1270:	015fa034 	movhi	r5,32384
    1274:	29602044 	addi	r5,r5,-32639
    1278:	814bc1b2 	custom	6,r5,r16,r5
    127c:	010000f4 	movhi	r4,3
    1280:	21006804 	addi	r4,r4,416
    1284:	000170c0 	call	170c <printf>
    1288:	01602074 	movhi	r5,32897
    128c:	29602004 	addi	r5,r5,-32640
    1290:	814bc1f2 	custom	7,r5,r16,r5
    1294:	010000f4 	movhi	r4,3
    1298:	21006d04 	addi	r4,r4,436
    129c:	000170c0 	call	170c <printf>
    12a0:	010000f4 	movhi	r4,3
    12a4:	21003b04 	addi	r4,r4,236
    12a8:	00017f00 	call	17f0 <puts>
    12ac:	0005883a 	mov	r2,zero
    12b0:	dfc00317 	ldw	ra,12(sp)
    12b4:	dc800217 	ldw	r18,8(sp)
    12b8:	dc400117 	ldw	r17,4(sp)
    12bc:	dc000017 	ldw	r16,0(sp)
    12c0:	dec00404 	addi	sp,sp,16
    12c4:	f800283a 	ret

000012c8 <memdump_byte>:
    12c8:	defff504 	addi	sp,sp,-44
    12cc:	dd400915 	stw	r21,36(sp)
    12d0:	dd000815 	stw	r20,32(sp)
    12d4:	dc800615 	stw	r18,24(sp)
    12d8:	dc400515 	stw	r17,20(sp)
    12dc:	dc000415 	stw	r16,16(sp)
    12e0:	dfc00a15 	stw	ra,40(sp)
    12e4:	dcc00715 	stw	r19,28(sp)
    12e8:	2021883a 	mov	r16,r4
    12ec:	d925c83a 	sub	r18,sp,r4
    12f0:	25404004 	addi	r21,r4,256
    12f4:	dd000404 	addi	r20,sp,16
    12f8:	04401fc4 	movi	r17,127
    12fc:	010000f4 	movhi	r4,3
    1300:	21007204 	addi	r4,r4,456
    1304:	800b883a 	mov	r5,r16
    1308:	000170c0 	call	170c <printf>
    130c:	84c00404 	addi	r19,r16,16
    1310:	80800023 	ldbuio	r2,0(r16)
    1314:	010000f4 	movhi	r4,3
    1318:	21007404 	addi	r4,r4,464
    131c:	9407883a 	add	r3,r18,r16
    1320:	11403fcc 	andi	r5,r2,255
    1324:	84000044 	addi	r16,r16,1
    1328:	18800005 	stb	r2,0(r3)
    132c:	000170c0 	call	170c <printf>
    1330:	9c3ff71e 	bne	r19,r16,1310 <__alt_mem_onchip_flash_0_data+0xf0f01310>
    1334:	010000f4 	movhi	r4,3
    1338:	21007604 	addi	r4,r4,472
    133c:	000170c0 	call	170c <printf>
    1340:	d821883a 	mov	r16,sp
    1344:	80800007 	ldb	r2,0(r16)
    1348:	01000b84 	movi	r4,46
    134c:	84000044 	addi	r16,r16,1
    1350:	1440011e 	bne	r2,r17,1358 <memdump_byte+0x90>
    1354:	8809883a 	mov	r4,r17
    1358:	00017500 	call	1750 <putchar>
    135c:	853ff91e 	bne	r16,r20,1344 <__alt_mem_onchip_flash_0_data+0xf0f01344>
    1360:	01000284 	movi	r4,10
    1364:	9821883a 	mov	r16,r19
    1368:	00017500 	call	1750 <putchar>
    136c:	94bffc04 	addi	r18,r18,-16
    1370:	9d7fe21e 	bne	r19,r21,12fc <__alt_mem_onchip_flash_0_data+0xf0f012fc>
    1374:	dfc00a17 	ldw	ra,40(sp)
    1378:	dd400917 	ldw	r21,36(sp)
    137c:	dd000817 	ldw	r20,32(sp)
    1380:	dcc00717 	ldw	r19,28(sp)
    1384:	dc800617 	ldw	r18,24(sp)
    1388:	dc400517 	ldw	r17,20(sp)
    138c:	dc000417 	ldw	r16,16(sp)
    1390:	dec00b04 	addi	sp,sp,44
    1394:	f800283a 	ret

00001398 <memdump_word>:
    1398:	defff504 	addi	sp,sp,-44
    139c:	dc000415 	stw	r16,16(sp)
    13a0:	043fff84 	movi	r16,-2
    13a4:	2420703a 	and	r16,r4,r16
    13a8:	dd400915 	stw	r21,36(sp)
    13ac:	dcc00715 	stw	r19,28(sp)
    13b0:	dc800615 	stw	r18,24(sp)
    13b4:	dc400515 	stw	r17,20(sp)
    13b8:	dfc00a15 	stw	ra,40(sp)
    13bc:	dd000815 	stw	r20,32(sp)
    13c0:	dc27c83a 	sub	r19,sp,r16
    13c4:	85404004 	addi	r21,r16,256
    13c8:	dc800404 	addi	r18,sp,16
    13cc:	04401fc4 	movi	r17,127
    13d0:	010000f4 	movhi	r4,3
    13d4:	21007204 	addi	r4,r4,456
    13d8:	800b883a 	mov	r5,r16
    13dc:	000170c0 	call	170c <printf>
    13e0:	85000404 	addi	r20,r16,16
    13e4:	8080002b 	ldhuio	r2,0(r16)
    13e8:	010000f4 	movhi	r4,3
    13ec:	21007704 	addi	r4,r4,476
    13f0:	9c07883a 	add	r3,r19,r16
    13f4:	117fffcc 	andi	r5,r2,65535
    13f8:	84000084 	addi	r16,r16,2
    13fc:	1880000d 	sth	r2,0(r3)
    1400:	000170c0 	call	170c <printf>
    1404:	a43ff71e 	bne	r20,r16,13e4 <__alt_mem_onchip_flash_0_data+0xf0f013e4>
    1408:	010000f4 	movhi	r4,3
    140c:	21007604 	addi	r4,r4,472
    1410:	000170c0 	call	170c <printf>
    1414:	d821883a 	mov	r16,sp
    1418:	80800007 	ldb	r2,0(r16)
    141c:	01000b84 	movi	r4,46
    1420:	84000044 	addi	r16,r16,1
    1424:	1440011e 	bne	r2,r17,142c <memdump_word+0x94>
    1428:	8809883a 	mov	r4,r17
    142c:	00017500 	call	1750 <putchar>
    1430:	84bff91e 	bne	r16,r18,1418 <__alt_mem_onchip_flash_0_data+0xf0f01418>
    1434:	01000284 	movi	r4,10
    1438:	a021883a 	mov	r16,r20
    143c:	00017500 	call	1750 <putchar>
    1440:	9cfffc04 	addi	r19,r19,-16
    1444:	a57fe21e 	bne	r20,r21,13d0 <__alt_mem_onchip_flash_0_data+0xf0f013d0>
    1448:	dfc00a17 	ldw	ra,40(sp)
    144c:	dd400917 	ldw	r21,36(sp)
    1450:	dd000817 	ldw	r20,32(sp)
    1454:	dcc00717 	ldw	r19,28(sp)
    1458:	dc800617 	ldw	r18,24(sp)
    145c:	dc400517 	ldw	r17,20(sp)
    1460:	dc000417 	ldw	r16,16(sp)
    1464:	dec00b04 	addi	sp,sp,44
    1468:	f800283a 	ret

0000146c <memdump_dword>:
    146c:	defff504 	addi	sp,sp,-44
    1470:	dc000415 	stw	r16,16(sp)
    1474:	043fff04 	movi	r16,-4
    1478:	2420703a 	and	r16,r4,r16
    147c:	dd400915 	stw	r21,36(sp)
    1480:	dcc00715 	stw	r19,28(sp)
    1484:	dc800615 	stw	r18,24(sp)
    1488:	dc400515 	stw	r17,20(sp)
    148c:	dfc00a15 	stw	ra,40(sp)
    1490:	dd000815 	stw	r20,32(sp)
    1494:	dc27c83a 	sub	r19,sp,r16
    1498:	85404004 	addi	r21,r16,256
    149c:	dc800404 	addi	r18,sp,16
    14a0:	04401fc4 	movi	r17,127
    14a4:	010000f4 	movhi	r4,3
    14a8:	21007204 	addi	r4,r4,456
    14ac:	800b883a 	mov	r5,r16
    14b0:	000170c0 	call	170c <printf>
    14b4:	85000404 	addi	r20,r16,16
    14b8:	80800037 	ldwio	r2,0(r16)
    14bc:	010000f4 	movhi	r4,3
    14c0:	21007904 	addi	r4,r4,484
    14c4:	9c07883a 	add	r3,r19,r16
    14c8:	100b883a 	mov	r5,r2
    14cc:	84000104 	addi	r16,r16,4
    14d0:	18800015 	stw	r2,0(r3)
    14d4:	000170c0 	call	170c <printf>
    14d8:	a43ff71e 	bne	r20,r16,14b8 <__alt_mem_onchip_flash_0_data+0xf0f014b8>
    14dc:	010000f4 	movhi	r4,3
    14e0:	21007604 	addi	r4,r4,472
    14e4:	000170c0 	call	170c <printf>
    14e8:	d821883a 	mov	r16,sp
    14ec:	80800007 	ldb	r2,0(r16)
    14f0:	01000b84 	movi	r4,46
    14f4:	84000044 	addi	r16,r16,1
    14f8:	1440011e 	bne	r2,r17,1500 <memdump_dword+0x94>
    14fc:	8809883a 	mov	r4,r17
    1500:	00017500 	call	1750 <putchar>
    1504:	84bff91e 	bne	r16,r18,14ec <__alt_mem_onchip_flash_0_data+0xf0f014ec>
    1508:	01000284 	movi	r4,10
    150c:	a021883a 	mov	r16,r20
    1510:	00017500 	call	1750 <putchar>
    1514:	9cfffc04 	addi	r19,r19,-16
    1518:	a57fe21e 	bne	r20,r21,14a4 <__alt_mem_onchip_flash_0_data+0xf0f014a4>
    151c:	dfc00a17 	ldw	ra,40(sp)
    1520:	dd400917 	ldw	r21,36(sp)
    1524:	dd000817 	ldw	r20,32(sp)
    1528:	dcc00717 	ldw	r19,28(sp)
    152c:	dc800617 	ldw	r18,24(sp)
    1530:	dc400517 	ldw	r17,20(sp)
    1534:	dc000417 	ldw	r16,16(sp)
    1538:	dec00b04 	addi	sp,sp,44
    153c:	f800283a 	ret

00001540 <memdump>:
    1540:	00800044 	movi	r2,1
    1544:	28800626 	beq	r5,r2,1560 <memdump+0x20>
    1548:	00800084 	movi	r2,2
    154c:	28800326 	beq	r5,r2,155c <memdump+0x1c>
    1550:	2800011e 	bne	r5,zero,1558 <memdump+0x18>
    1554:	00012c81 	jmpi	12c8 <memdump_byte>
    1558:	f800283a 	ret
    155c:	000146c1 	jmpi	146c <memdump_dword>
    1560:	00013981 	jmpi	1398 <memdump_word>

00001564 <memcrc16>:
    1564:	28001026 	beq	r5,zero,15a8 <memcrc16+0x44>
    1568:	214b883a 	add	r5,r4,r5
    156c:	0005883a 	mov	r2,zero
    1570:	01c000f4 	movhi	r7,3
    1574:	39c07a84 	addi	r7,r7,490
    1578:	10bfffcc 	andi	r2,r2,65535
    157c:	21800003 	ldbu	r6,0(r4)
    1580:	1006d23a 	srli	r3,r2,8
    1584:	1004923a 	slli	r2,r2,8
    1588:	21000044 	addi	r4,r4,1
    158c:	30c6f03a 	xor	r3,r6,r3
    1590:	18c7883a 	add	r3,r3,r3
    1594:	38c7883a 	add	r3,r7,r3
    1598:	18c0000b 	ldhu	r3,0(r3)
    159c:	10c4f03a 	xor	r2,r2,r3
    15a0:	217ff51e 	bne	r4,r5,1578 <__alt_mem_onchip_flash_0_data+0xf0f01578>
    15a4:	f800283a 	ret
    15a8:	0005883a 	mov	r2,zero
    15ac:	f800283a 	ret

000015b0 <udivmodsi4>:
    15b0:	2005883a 	mov	r2,r4
    15b4:	2900182e 	bgeu	r5,r4,1618 <udivmodsi4+0x68>
    15b8:	28001716 	blt	r5,zero,1618 <udivmodsi4+0x68>
    15bc:	01000804 	movi	r4,32
    15c0:	00c00044 	movi	r3,1
    15c4:	00000206 	br	15d0 <udivmodsi4+0x20>
    15c8:	20001126 	beq	r4,zero,1610 <udivmodsi4+0x60>
    15cc:	28000516 	blt	r5,zero,15e4 <udivmodsi4+0x34>
    15d0:	294b883a 	add	r5,r5,r5
    15d4:	213fffc4 	addi	r4,r4,-1
    15d8:	18c7883a 	add	r3,r3,r3
    15dc:	28bffa36 	bltu	r5,r2,15c8 <__alt_mem_onchip_flash_0_data+0xf0f015c8>
    15e0:	18000b26 	beq	r3,zero,1610 <udivmodsi4+0x60>
    15e4:	0009883a 	mov	r4,zero
    15e8:	11400236 	bltu	r2,r5,15f4 <udivmodsi4+0x44>
    15ec:	1145c83a 	sub	r2,r2,r5
    15f0:	20c8b03a 	or	r4,r4,r3
    15f4:	1806d07a 	srli	r3,r3,1
    15f8:	280ad07a 	srli	r5,r5,1
    15fc:	183ffa1e 	bne	r3,zero,15e8 <__alt_mem_onchip_flash_0_data+0xf0f015e8>
    1600:	3000021e 	bne	r6,zero,160c <udivmodsi4+0x5c>
    1604:	2005883a 	mov	r2,r4
    1608:	f800283a 	ret
    160c:	f800283a 	ret
    1610:	0009883a 	mov	r4,zero
    1614:	003ffa06 	br	1600 <__alt_mem_onchip_flash_0_data+0xf0f01600>
    1618:	00c00044 	movi	r3,1
    161c:	0009883a 	mov	r4,zero
    1620:	003ff106 	br	15e8 <__alt_mem_onchip_flash_0_data+0xf0f015e8>

00001624 <__divsi3>:
    1624:	defffe04 	addi	sp,sp,-8
    1628:	dfc00115 	stw	ra,4(sp)
    162c:	dc000015 	stw	r16,0(sp)
    1630:	20000a16 	blt	r4,zero,165c <__divsi3+0x38>
    1634:	0021883a 	mov	r16,zero
    1638:	28000b16 	blt	r5,zero,1668 <__divsi3+0x44>
    163c:	000d883a 	mov	r6,zero
    1640:	00015b00 	call	15b0 <udivmodsi4>
    1644:	80000126 	beq	r16,zero,164c <__divsi3+0x28>
    1648:	0085c83a 	sub	r2,zero,r2
    164c:	dfc00117 	ldw	ra,4(sp)
    1650:	dc000017 	ldw	r16,0(sp)
    1654:	dec00204 	addi	sp,sp,8
    1658:	f800283a 	ret
    165c:	0109c83a 	sub	r4,zero,r4
    1660:	04000044 	movi	r16,1
    1664:	283ff50e 	bge	r5,zero,163c <__alt_mem_onchip_flash_0_data+0xf0f0163c>
    1668:	014bc83a 	sub	r5,zero,r5
    166c:	8400005c 	xori	r16,r16,1
    1670:	003ff206 	br	163c <__alt_mem_onchip_flash_0_data+0xf0f0163c>

00001674 <__modsi3>:
    1674:	deffff04 	addi	sp,sp,-4
    1678:	dfc00015 	stw	ra,0(sp)
    167c:	20000516 	blt	r4,zero,1694 <__modsi3+0x20>
    1680:	28000c16 	blt	r5,zero,16b4 <__modsi3+0x40>
    1684:	01800044 	movi	r6,1
    1688:	dfc00017 	ldw	ra,0(sp)
    168c:	dec00104 	addi	sp,sp,4
    1690:	00015b01 	jmpi	15b0 <udivmodsi4>
    1694:	0109c83a 	sub	r4,zero,r4
    1698:	28000b16 	blt	r5,zero,16c8 <__modsi3+0x54>
    169c:	01800044 	movi	r6,1
    16a0:	00015b00 	call	15b0 <udivmodsi4>
    16a4:	0085c83a 	sub	r2,zero,r2
    16a8:	dfc00017 	ldw	ra,0(sp)
    16ac:	dec00104 	addi	sp,sp,4
    16b0:	f800283a 	ret
    16b4:	014bc83a 	sub	r5,zero,r5
    16b8:	01800044 	movi	r6,1
    16bc:	dfc00017 	ldw	ra,0(sp)
    16c0:	dec00104 	addi	sp,sp,4
    16c4:	00015b01 	jmpi	15b0 <udivmodsi4>
    16c8:	014bc83a 	sub	r5,zero,r5
    16cc:	003ff306 	br	169c <__alt_mem_onchip_flash_0_data+0xf0f0169c>

000016d0 <__udivsi3>:
    16d0:	000d883a 	mov	r6,zero
    16d4:	00015b01 	jmpi	15b0 <udivmodsi4>

000016d8 <__umodsi3>:
    16d8:	01800044 	movi	r6,1
    16dc:	00015b01 	jmpi	15b0 <udivmodsi4>

000016e0 <_printf_r>:
    16e0:	defffd04 	addi	sp,sp,-12
    16e4:	dfc00015 	stw	ra,0(sp)
    16e8:	d9800115 	stw	r6,4(sp)
    16ec:	d9c00215 	stw	r7,8(sp)
    16f0:	280d883a 	mov	r6,r5
    16f4:	21400217 	ldw	r5,8(r4)
    16f8:	d9c00104 	addi	r7,sp,4
    16fc:	000193c0 	call	193c <___vfprintf_internal_r>
    1700:	dfc00017 	ldw	ra,0(sp)
    1704:	dec00304 	addi	sp,sp,12
    1708:	f800283a 	ret

0000170c <printf>:
    170c:	defffc04 	addi	sp,sp,-16
    1710:	dfc00015 	stw	ra,0(sp)
    1714:	d9400115 	stw	r5,4(sp)
    1718:	d9800215 	stw	r6,8(sp)
    171c:	d9c00315 	stw	r7,12(sp)
    1720:	008000f4 	movhi	r2,3
    1724:	1088af04 	addi	r2,r2,8892
    1728:	10800017 	ldw	r2,0(r2)
    172c:	200b883a 	mov	r5,r4
    1730:	d9800104 	addi	r6,sp,4
    1734:	11000217 	ldw	r4,8(r2)
    1738:	00037340 	call	3734 <__vfprintf_internal>
    173c:	dfc00017 	ldw	ra,0(sp)
    1740:	dec00404 	addi	sp,sp,16
    1744:	f800283a 	ret

00001748 <_putchar_r>:
    1748:	21800217 	ldw	r6,8(r4)
    174c:	0007dd41 	jmpi	7dd4 <_putc_r>

00001750 <putchar>:
    1750:	008000f4 	movhi	r2,3
    1754:	1088af04 	addi	r2,r2,8892
    1758:	10800017 	ldw	r2,0(r2)
    175c:	200b883a 	mov	r5,r4
    1760:	11800217 	ldw	r6,8(r2)
    1764:	1009883a 	mov	r4,r2
    1768:	0007dd41 	jmpi	7dd4 <_putc_r>

0000176c <_puts_r>:
    176c:	defff604 	addi	sp,sp,-40
    1770:	dc400815 	stw	r17,32(sp)
    1774:	2023883a 	mov	r17,r4
    1778:	2809883a 	mov	r4,r5
    177c:	dc000715 	stw	r16,28(sp)
    1780:	dfc00915 	stw	ra,36(sp)
    1784:	2821883a 	mov	r16,r5
    1788:	000187c0 	call	187c <strlen>
    178c:	10c00044 	addi	r3,r2,1
    1790:	d8800115 	stw	r2,4(sp)
    1794:	89400217 	ldw	r5,8(r17)
    1798:	008000f4 	movhi	r2,3
    179c:	10803b04 	addi	r2,r2,236
    17a0:	d8800215 	stw	r2,8(sp)
    17a4:	00800044 	movi	r2,1
    17a8:	d8800315 	stw	r2,12(sp)
    17ac:	8809883a 	mov	r4,r17
    17b0:	00800084 	movi	r2,2
    17b4:	d9800404 	addi	r6,sp,16
    17b8:	dc000015 	stw	r16,0(sp)
    17bc:	d8c00615 	stw	r3,24(sp)
    17c0:	dec00415 	stw	sp,16(sp)
    17c4:	d8800515 	stw	r2,20(sp)
    17c8:	00059ec0 	call	59ec <__sfvwrite_r>
    17cc:	1000061e 	bne	r2,zero,17e8 <_puts_r+0x7c>
    17d0:	00800284 	movi	r2,10
    17d4:	dfc00917 	ldw	ra,36(sp)
    17d8:	dc400817 	ldw	r17,32(sp)
    17dc:	dc000717 	ldw	r16,28(sp)
    17e0:	dec00a04 	addi	sp,sp,40
    17e4:	f800283a 	ret
    17e8:	00bfffc4 	movi	r2,-1
    17ec:	003ff906 	br	17d4 <__alt_mem_onchip_flash_0_data+0xf0f017d4>

000017f0 <puts>:
    17f0:	008000f4 	movhi	r2,3
    17f4:	1088af04 	addi	r2,r2,8892
    17f8:	200b883a 	mov	r5,r4
    17fc:	11000017 	ldw	r4,0(r2)
    1800:	000176c1 	jmpi	176c <_puts_r>

00001804 <srand>:
    1804:	008000f4 	movhi	r2,3
    1808:	1088af04 	addi	r2,r2,8892
    180c:	10800017 	ldw	r2,0(r2)
    1810:	11002915 	stw	r4,164(r2)
    1814:	10002a15 	stw	zero,168(r2)
    1818:	f800283a 	ret

0000181c <rand>:
    181c:	008000f4 	movhi	r2,3
    1820:	1088af04 	addi	r2,r2,8892
    1824:	10c00017 	ldw	r3,0(r2)
    1828:	01d614b4 	movhi	r7,22610
    182c:	39fd0b44 	addi	r7,r7,-3027
    1830:	00932574 	movhi	r2,19605
    1834:	109fcb44 	addi	r2,r2,32557
    1838:	19002917 	ldw	r4,164(r3)
    183c:	1a002a17 	ldw	r8,168(r3)
    1840:	208d383a 	mul	r6,r4,r2
    1844:	21cf383a 	mul	r7,r4,r7
    1848:	4091383a 	mul	r8,r8,r2
    184c:	2088383a 	mulxuu	r4,r4,r2
    1850:	31400044 	addi	r5,r6,1
    1854:	41c5883a 	add	r2,r8,r7
    1858:	1105883a 	add	r2,r2,r4
    185c:	298d803a 	cmpltu	r6,r5,r6
    1860:	3085883a 	add	r2,r6,r2
    1864:	18802a15 	stw	r2,168(r3)
    1868:	19402915 	stw	r5,164(r3)
    186c:	00e00034 	movhi	r3,32768
    1870:	18ffffc4 	addi	r3,r3,-1
    1874:	10c4703a 	and	r2,r2,r3
    1878:	f800283a 	ret

0000187c <strlen>:
    187c:	208000cc 	andi	r2,r4,3
    1880:	10001f1e 	bne	r2,zero,1900 <strlen+0x84>
    1884:	20800017 	ldw	r2,0(r4)
    1888:	01ffbff4 	movhi	r7,65279
    188c:	39ffbfc4 	addi	r7,r7,-257
    1890:	01a02074 	movhi	r6,32897
    1894:	31a02004 	addi	r6,r6,-32640
    1898:	11c7883a 	add	r3,r2,r7
    189c:	0084303a 	nor	r2,zero,r2
    18a0:	1886703a 	and	r3,r3,r2
    18a4:	1986703a 	and	r3,r3,r6
    18a8:	2005883a 	mov	r2,r4
    18ac:	1800101e 	bne	r3,zero,18f0 <strlen+0x74>
    18b0:	10800104 	addi	r2,r2,4
    18b4:	10c00017 	ldw	r3,0(r2)
    18b8:	19cb883a 	add	r5,r3,r7
    18bc:	00c6303a 	nor	r3,zero,r3
    18c0:	28c6703a 	and	r3,r5,r3
    18c4:	1986703a 	and	r3,r3,r6
    18c8:	1800091e 	bne	r3,zero,18f0 <strlen+0x74>
    18cc:	10800104 	addi	r2,r2,4
    18d0:	10c00017 	ldw	r3,0(r2)
    18d4:	19cb883a 	add	r5,r3,r7
    18d8:	00c6303a 	nor	r3,zero,r3
    18dc:	28c6703a 	and	r3,r5,r3
    18e0:	1986703a 	and	r3,r3,r6
    18e4:	183ff226 	beq	r3,zero,18b0 <__alt_mem_onchip_flash_0_data+0xf0f018b0>
    18e8:	00000106 	br	18f0 <strlen+0x74>
    18ec:	10800044 	addi	r2,r2,1
    18f0:	10c00007 	ldb	r3,0(r2)
    18f4:	183ffd1e 	bne	r3,zero,18ec <__alt_mem_onchip_flash_0_data+0xf0f018ec>
    18f8:	1105c83a 	sub	r2,r2,r4
    18fc:	f800283a 	ret
    1900:	2005883a 	mov	r2,r4
    1904:	003ffa06 	br	18f0 <__alt_mem_onchip_flash_0_data+0xf0f018f0>

00001908 <__sprint_r>:
    1908:	30800217 	ldw	r2,8(r6)
    190c:	defffe04 	addi	sp,sp,-8
    1910:	dc000015 	stw	r16,0(sp)
    1914:	dfc00115 	stw	ra,4(sp)
    1918:	3021883a 	mov	r16,r6
    191c:	10000226 	beq	r2,zero,1928 <__sprint_r+0x20>
    1920:	00059ec0 	call	59ec <__sfvwrite_r>
    1924:	80000215 	stw	zero,8(r16)
    1928:	80000115 	stw	zero,4(r16)
    192c:	dfc00117 	ldw	ra,4(sp)
    1930:	dc000017 	ldw	r16,0(sp)
    1934:	dec00204 	addi	sp,sp,8
    1938:	f800283a 	ret

0000193c <___vfprintf_internal_r>:
    193c:	defeb904 	addi	sp,sp,-1308
    1940:	dc013d15 	stw	r16,1268(sp)
    1944:	d9013015 	stw	r4,1216(sp)
    1948:	dfc14615 	stw	ra,1304(sp)
    194c:	df014515 	stw	fp,1300(sp)
    1950:	ddc14415 	stw	r23,1296(sp)
    1954:	dd814315 	stw	r22,1292(sp)
    1958:	dd414215 	stw	r21,1288(sp)
    195c:	dd014115 	stw	r20,1284(sp)
    1960:	dcc14015 	stw	r19,1280(sp)
    1964:	dc813f15 	stw	r18,1276(sp)
    1968:	dc413e15 	stw	r17,1272(sp)
    196c:	d9412915 	stw	r5,1188(sp)
    1970:	3021883a 	mov	r16,r6
    1974:	d9c12d15 	stw	r7,1204(sp)
    1978:	00060d80 	call	60d8 <_localeconv_r>
    197c:	10800017 	ldw	r2,0(r2)
    1980:	d9013017 	ldw	r4,1216(sp)
    1984:	d8013315 	stw	zero,1228(sp)
    1988:	d8813715 	stw	r2,1244(sp)
    198c:	d8013415 	stw	zero,1232(sp)
    1990:	20000226 	beq	r4,zero,199c <___vfprintf_internal_r+0x60>
    1994:	20800e17 	ldw	r2,56(r4)
    1998:	10019826 	beq	r2,zero,1ffc <___vfprintf_internal_r+0x6c0>
    199c:	da012917 	ldw	r8,1188(sp)
    19a0:	4080030b 	ldhu	r2,12(r8)
    19a4:	10c0020c 	andi	r3,r2,8
    19a8:	18ffffcc 	andi	r3,r3,65535
    19ac:	18e0001c 	xori	r3,r3,32768
    19b0:	18e00004 	addi	r3,r3,-32768
    19b4:	18013a26 	beq	r3,zero,1ea0 <___vfprintf_internal_r+0x564>
    19b8:	40c00417 	ldw	r3,16(r8)
    19bc:	18013826 	beq	r3,zero,1ea0 <___vfprintf_internal_r+0x564>
    19c0:	1100068c 	andi	r4,r2,26
    19c4:	00c00284 	movi	r3,10
    19c8:	20c13e26 	beq	r4,r3,1ec4 <___vfprintf_internal_r+0x588>
    19cc:	da010dc4 	addi	r8,sp,1079
    19d0:	d8800404 	addi	r2,sp,16
    19d4:	da012615 	stw	r8,1176(sp)
    19d8:	d8811b15 	stw	r2,1132(sp)
    19dc:	1013883a 	mov	r9,r2
    19e0:	d8812617 	ldw	r2,1176(sp)
    19e4:	da010e04 	addi	r8,sp,1080
    19e8:	dc413017 	ldw	r17,1216(sp)
    19ec:	da012715 	stw	r8,1180(sp)
    19f0:	4091c83a 	sub	r8,r8,r2
    19f4:	d8011d15 	stw	zero,1140(sp)
    19f8:	d8011c15 	stw	zero,1136(sp)
    19fc:	802b883a 	mov	r21,r16
    1a00:	d8013215 	stw	zero,1224(sp)
    1a04:	d8013615 	stw	zero,1240(sp)
    1a08:	d8013515 	stw	zero,1236(sp)
    1a0c:	d8012c15 	stw	zero,1200(sp)
    1a10:	da013915 	stw	r8,1252(sp)
    1a14:	a8800007 	ldb	r2,0(r21)
    1a18:	1002ec26 	beq	r2,zero,25cc <___vfprintf_internal_r+0xc90>
    1a1c:	00c00944 	movi	r3,37
    1a20:	a825883a 	mov	r18,r21
    1a24:	10c0021e 	bne	r2,r3,1a30 <___vfprintf_internal_r+0xf4>
    1a28:	00001406 	br	1a7c <___vfprintf_internal_r+0x140>
    1a2c:	10c00326 	beq	r2,r3,1a3c <___vfprintf_internal_r+0x100>
    1a30:	94800044 	addi	r18,r18,1
    1a34:	90800007 	ldb	r2,0(r18)
    1a38:	103ffc1e 	bne	r2,zero,1a2c <__alt_mem_onchip_flash_0_data+0xf0f01a2c>
    1a3c:	9561c83a 	sub	r16,r18,r21
    1a40:	80000e26 	beq	r16,zero,1a7c <___vfprintf_internal_r+0x140>
    1a44:	da011d17 	ldw	r8,1140(sp)
    1a48:	d8c11c17 	ldw	r3,1136(sp)
    1a4c:	4d400015 	stw	r21,0(r9)
    1a50:	4c000115 	stw	r16,4(r9)
    1a54:	4411883a 	add	r8,r8,r16
    1a58:	18c00044 	addi	r3,r3,1
    1a5c:	da011d15 	stw	r8,1140(sp)
    1a60:	d8c11c15 	stw	r3,1136(sp)
    1a64:	008001c4 	movi	r2,7
    1a68:	10c15d16 	blt	r2,r3,1fe0 <___vfprintf_internal_r+0x6a4>
    1a6c:	4a400204 	addi	r9,r9,8
    1a70:	d8812c17 	ldw	r2,1200(sp)
    1a74:	1405883a 	add	r2,r2,r16
    1a78:	d8812c15 	stw	r2,1200(sp)
    1a7c:	90800007 	ldb	r2,0(r18)
    1a80:	10013b26 	beq	r2,zero,1f70 <___vfprintf_internal_r+0x634>
    1a84:	95400044 	addi	r21,r18,1
    1a88:	94800047 	ldb	r18,1(r18)
    1a8c:	d8012585 	stb	zero,1174(sp)
    1a90:	073fffc4 	movi	fp,-1
    1a94:	d8012e15 	stw	zero,1208(sp)
    1a98:	0021883a 	mov	r16,zero
    1a9c:	00c01604 	movi	r3,88
    1aa0:	01400244 	movi	r5,9
    1aa4:	02800a84 	movi	r10,42
    1aa8:	01c01b04 	movi	r7,108
    1aac:	01800ac4 	movi	r6,43
    1ab0:	02c00804 	movi	r11,32
    1ab4:	ad400044 	addi	r21,r21,1
    1ab8:	90bff804 	addi	r2,r18,-32
    1abc:	1880092e 	bgeu	r3,r2,1ae4 <___vfprintf_internal_r+0x1a8>
    1ac0:	90012b26 	beq	r18,zero,1f70 <___vfprintf_internal_r+0x634>
    1ac4:	00c00044 	movi	r3,1
    1ac8:	d8c12815 	stw	r3,1184(sp)
    1acc:	dc810405 	stb	r18,1040(sp)
    1ad0:	d8012585 	stb	zero,1174(sp)
    1ad4:	d8c12b15 	stw	r3,1196(sp)
    1ad8:	dcc10404 	addi	r19,sp,1040
    1adc:	d8013115 	stw	zero,1220(sp)
    1ae0:	00008806 	br	1d04 <___vfprintf_internal_r+0x3c8>
    1ae4:	1085883a 	add	r2,r2,r2
    1ae8:	1085883a 	add	r2,r2,r2
    1aec:	01000034 	movhi	r4,0
    1af0:	2106c004 	addi	r4,r4,6912
    1af4:	1105883a 	add	r2,r2,r4
    1af8:	10800017 	ldw	r2,0(r2)
    1afc:	1000683a 	jmp	r2
    1b00:	000020b4 	movhi	zero,130
    1b04:	00001ac0 	call	1ac <_start+0x20>
    1b08:	00001ac0 	call	1ac <_start+0x20>
    1b0c:	000020c8 	cmpgei	zero,zero,131
    1b10:	00001ac0 	call	1ac <_start+0x20>
    1b14:	00001ac0 	call	1ac <_start+0x20>
    1b18:	00001ac0 	call	1ac <_start+0x20>
    1b1c:	00001ac0 	call	1ac <_start+0x20>
    1b20:	00001ac0 	call	1ac <_start+0x20>
    1b24:	00001ac0 	call	1ac <_start+0x20>
    1b28:	000021b0 	cmpltui	zero,zero,134
    1b2c:	0000206c 	andhi	zero,zero,129
    1b30:	00001ac0 	call	1ac <_start+0x20>
    1b34:	00001e94 	movui	zero,122
    1b38:	00002078 	rdprs	zero,zero,129
    1b3c:	00001ac0 	call	1ac <_start+0x20>
    1b40:	000020d4 	movui	zero,131
    1b44:	000021d4 	movui	zero,135
    1b48:	000021d4 	movui	zero,135
    1b4c:	000021d4 	movui	zero,135
    1b50:	000021d4 	movui	zero,135
    1b54:	000021d4 	movui	zero,135
    1b58:	000021d4 	movui	zero,135
    1b5c:	000021d4 	movui	zero,135
    1b60:	000021d4 	movui	zero,135
    1b64:	000021d4 	movui	zero,135
    1b68:	00001ac0 	call	1ac <_start+0x20>
    1b6c:	00001ac0 	call	1ac <_start+0x20>
    1b70:	00001ac0 	call	1ac <_start+0x20>
    1b74:	00001ac0 	call	1ac <_start+0x20>
    1b78:	00001ac0 	call	1ac <_start+0x20>
    1b7c:	00001ac0 	call	1ac <_start+0x20>
    1b80:	00001ac0 	call	1ac <_start+0x20>
    1b84:	00001ac0 	call	1ac <_start+0x20>
    1b88:	00001ac0 	call	1ac <_start+0x20>
    1b8c:	00001ac0 	call	1ac <_start+0x20>
    1b90:	00001e30 	cmpltui	zero,zero,120
    1b94:	000021fc 	xorhi	zero,zero,135
    1b98:	00001ac0 	call	1ac <_start+0x20>
    1b9c:	000021fc 	xorhi	zero,zero,135
    1ba0:	00001ac0 	call	1ac <_start+0x20>
    1ba4:	00001ac0 	call	1ac <_start+0x20>
    1ba8:	00001ac0 	call	1ac <_start+0x20>
    1bac:	00001ac0 	call	1ac <_start+0x20>
    1bb0:	0000236c 	andhi	zero,zero,141
    1bb4:	00001ac0 	call	1ac <_start+0x20>
    1bb8:	00001ac0 	call	1ac <_start+0x20>
    1bbc:	00001df8 	rdprs	zero,zero,119
    1bc0:	00001ac0 	call	1ac <_start+0x20>
    1bc4:	00001ac0 	call	1ac <_start+0x20>
    1bc8:	00001ac0 	call	1ac <_start+0x20>
    1bcc:	00001ac0 	call	1ac <_start+0x20>
    1bd0:	00001ac0 	call	1ac <_start+0x20>
    1bd4:	00001c64 	muli	zero,zero,113
    1bd8:	00001ac0 	call	1ac <_start+0x20>
    1bdc:	00001ac0 	call	1ac <_start+0x20>
    1be0:	000020e0 	cmpeqi	zero,zero,131
    1be4:	00001ac0 	call	1ac <_start+0x20>
    1be8:	00001ac0 	call	1ac <_start+0x20>
    1bec:	00001ac0 	call	1ac <_start+0x20>
    1bf0:	00001ac0 	call	1ac <_start+0x20>
    1bf4:	00001ac0 	call	1ac <_start+0x20>
    1bf8:	00001ac0 	call	1ac <_start+0x20>
    1bfc:	00001ac0 	call	1ac <_start+0x20>
    1c00:	00001ac0 	call	1ac <_start+0x20>
    1c04:	00001ac0 	call	1ac <_start+0x20>
    1c08:	00001ac0 	call	1ac <_start+0x20>
    1c0c:	00002154 	movui	zero,133
    1c10:	00001e34 	movhi	zero,120
    1c14:	000021fc 	xorhi	zero,zero,135
    1c18:	000021fc 	xorhi	zero,zero,135
    1c1c:	000021fc 	xorhi	zero,zero,135
    1c20:	00002134 	movhi	zero,132
    1c24:	00001e34 	movhi	zero,120
    1c28:	00001ac0 	call	1ac <_start+0x20>
    1c2c:	00001ac0 	call	1ac <_start+0x20>
    1c30:	00002140 	call	214 <awa+0x3c>
    1c34:	00001ac0 	call	1ac <_start+0x20>
    1c38:	00002184 	movi	zero,134
    1c3c:	00001dfc 	xorhi	zero,zero,119
    1c40:	00002284 	movi	zero,138
    1c44:	000022d0 	cmplti	zero,zero,139
    1c48:	00001ac0 	call	1ac <_start+0x20>
    1c4c:	000022dc 	xori	zero,zero,139
    1c50:	00001ac0 	call	1ac <_start+0x20>
    1c54:	00001c68 	cmpgeui	zero,zero,113
    1c58:	00001ac0 	call	1ac <_start+0x20>
    1c5c:	00001ac0 	call	1ac <_start+0x20>
    1c60:	00002338 	rdprs	zero,zero,140
    1c64:	84000414 	ori	r16,r16,16
    1c68:	8080080c 	andi	r2,r16,32
    1c6c:	1000f51e 	bne	r2,zero,2044 <___vfprintf_internal_r+0x708>
    1c70:	8080040c 	andi	r2,r16,16
    1c74:	10042c26 	beq	r2,zero,2d28 <___vfprintf_internal_r+0x13ec>
    1c78:	da012d17 	ldw	r8,1204(sp)
    1c7c:	002d883a 	mov	r22,zero
    1c80:	00c00044 	movi	r3,1
    1c84:	45c00017 	ldw	r23,0(r8)
    1c88:	42000104 	addi	r8,r8,4
    1c8c:	da012d15 	stw	r8,1204(sp)
    1c90:	b805883a 	mov	r2,r23
    1c94:	d8012585 	stb	zero,1174(sp)
    1c98:	e0000216 	blt	fp,zero,1ca4 <___vfprintf_internal_r+0x368>
    1c9c:	013fdfc4 	movi	r4,-129
    1ca0:	8120703a 	and	r16,r16,r4
    1ca4:	1002671e 	bne	r2,zero,2644 <___vfprintf_internal_r+0xd08>
    1ca8:	e002661e 	bne	fp,zero,2644 <___vfprintf_internal_r+0xd08>
    1cac:	18c03fcc 	andi	r3,r3,255
    1cb0:	1803561e 	bne	r3,zero,2a0c <___vfprintf_internal_r+0x10d0>
    1cb4:	8080004c 	andi	r2,r16,1
    1cb8:	10035426 	beq	r2,zero,2a0c <___vfprintf_internal_r+0x10d0>
    1cbc:	da013917 	ldw	r8,1252(sp)
    1cc0:	00800c04 	movi	r2,48
    1cc4:	d8810dc5 	stb	r2,1079(sp)
    1cc8:	da012b15 	stw	r8,1196(sp)
    1ccc:	dcc10dc4 	addi	r19,sp,1079
    1cd0:	d8812b17 	ldw	r2,1196(sp)
    1cd4:	d8812815 	stw	r2,1184(sp)
    1cd8:	1700010e 	bge	r2,fp,1ce0 <___vfprintf_internal_r+0x3a4>
    1cdc:	df012815 	stw	fp,1184(sp)
    1ce0:	d8812583 	ldbu	r2,1174(sp)
    1ce4:	df013115 	stw	fp,1220(sp)
    1ce8:	10803fcc 	andi	r2,r2,255
    1cec:	1080201c 	xori	r2,r2,128
    1cf0:	10bfe004 	addi	r2,r2,-128
    1cf4:	10000326 	beq	r2,zero,1d04 <___vfprintf_internal_r+0x3c8>
    1cf8:	da012817 	ldw	r8,1184(sp)
    1cfc:	42000044 	addi	r8,r8,1
    1d00:	da012815 	stw	r8,1184(sp)
    1d04:	80c0008c 	andi	r3,r16,2
    1d08:	d8c12a15 	stw	r3,1192(sp)
    1d0c:	18000326 	beq	r3,zero,1d1c <___vfprintf_internal_r+0x3e0>
    1d10:	da012817 	ldw	r8,1184(sp)
    1d14:	42000084 	addi	r8,r8,2
    1d18:	da012815 	stw	r8,1184(sp)
    1d1c:	80c0210c 	andi	r3,r16,132
    1d20:	d8c12f15 	stw	r3,1212(sp)
    1d24:	1801941e 	bne	r3,zero,2378 <___vfprintf_internal_r+0xa3c>
    1d28:	da012e17 	ldw	r8,1208(sp)
    1d2c:	d8c12817 	ldw	r3,1184(sp)
    1d30:	40edc83a 	sub	r22,r8,r3
    1d34:	0581900e 	bge	zero,r22,2378 <___vfprintf_internal_r+0xa3c>
    1d38:	02800404 	movi	r10,16
    1d3c:	da011d17 	ldw	r8,1140(sp)
    1d40:	d8c11c17 	ldw	r3,1136(sp)
    1d44:	05c000f4 	movhi	r23,3
    1d48:	bdc10b84 	addi	r23,r23,1070
    1d4c:	5580200e 	bge	r10,r22,1dd0 <___vfprintf_internal_r+0x494>
    1d50:	dc813815 	stw	r18,1248(sp)
    1d54:	5039883a 	mov	fp,r10
    1d58:	b825883a 	mov	r18,r23
    1d5c:	050001c4 	movi	r20,7
    1d60:	b02f883a 	mov	r23,r22
    1d64:	802d883a 	mov	r22,r16
    1d68:	dc012917 	ldw	r16,1188(sp)
    1d6c:	00000306 	br	1d7c <___vfprintf_internal_r+0x440>
    1d70:	bdfffc04 	addi	r23,r23,-16
    1d74:	4a400204 	addi	r9,r9,8
    1d78:	e5c0110e 	bge	fp,r23,1dc0 <___vfprintf_internal_r+0x484>
    1d7c:	4c800015 	stw	r18,0(r9)
    1d80:	4f000115 	stw	fp,4(r9)
    1d84:	42000404 	addi	r8,r8,16
    1d88:	18c00044 	addi	r3,r3,1
    1d8c:	da011d15 	stw	r8,1140(sp)
    1d90:	d8c11c15 	stw	r3,1136(sp)
    1d94:	a0fff60e 	bge	r20,r3,1d70 <__alt_mem_onchip_flash_0_data+0xf0f01d70>
    1d98:	8809883a 	mov	r4,r17
    1d9c:	800b883a 	mov	r5,r16
    1da0:	d9811b04 	addi	r6,sp,1132
    1da4:	00019080 	call	1908 <__sprint_r>
    1da8:	1000771e 	bne	r2,zero,1f88 <___vfprintf_internal_r+0x64c>
    1dac:	bdfffc04 	addi	r23,r23,-16
    1db0:	da011d17 	ldw	r8,1140(sp)
    1db4:	d8c11c17 	ldw	r3,1136(sp)
    1db8:	da400404 	addi	r9,sp,16
    1dbc:	e5ffef16 	blt	fp,r23,1d7c <__alt_mem_onchip_flash_0_data+0xf0f01d7c>
    1dc0:	b021883a 	mov	r16,r22
    1dc4:	b82d883a 	mov	r22,r23
    1dc8:	902f883a 	mov	r23,r18
    1dcc:	dc813817 	ldw	r18,1248(sp)
    1dd0:	4dc00015 	stw	r23,0(r9)
    1dd4:	4d800115 	stw	r22,4(r9)
    1dd8:	4591883a 	add	r8,r8,r22
    1ddc:	18c00044 	addi	r3,r3,1
    1de0:	da011d15 	stw	r8,1140(sp)
    1de4:	d8c11c15 	stw	r3,1136(sp)
    1de8:	008001c4 	movi	r2,7
    1dec:	10c36d16 	blt	r2,r3,2ba4 <___vfprintf_internal_r+0x1268>
    1df0:	4a400204 	addi	r9,r9,8
    1df4:	00016206 	br	2380 <___vfprintf_internal_r+0xa44>
    1df8:	84000414 	ori	r16,r16,16
    1dfc:	8080080c 	andi	r2,r16,32
    1e00:	1000801e 	bne	r2,zero,2004 <___vfprintf_internal_r+0x6c8>
    1e04:	8080040c 	andi	r2,r16,16
    1e08:	1003da26 	beq	r2,zero,2d74 <___vfprintf_internal_r+0x1438>
    1e0c:	d8c12d17 	ldw	r3,1204(sp)
    1e10:	002d883a 	mov	r22,zero
    1e14:	1dc00017 	ldw	r23,0(r3)
    1e18:	18c00104 	addi	r3,r3,4
    1e1c:	d8c12d15 	stw	r3,1204(sp)
    1e20:	b805883a 	mov	r2,r23
    1e24:	0007883a 	mov	r3,zero
    1e28:	d8012585 	stb	zero,1174(sp)
    1e2c:	003f9a06 	br	1c98 <__alt_mem_onchip_flash_0_data+0xf0f01c98>
    1e30:	84000414 	ori	r16,r16,16
    1e34:	8080080c 	andi	r2,r16,32
    1e38:	10007b1e 	bne	r2,zero,2028 <___vfprintf_internal_r+0x6ec>
    1e3c:	8080040c 	andi	r2,r16,16
    1e40:	1003ed26 	beq	r2,zero,2df8 <___vfprintf_internal_r+0x14bc>
    1e44:	d9012d17 	ldw	r4,1204(sp)
    1e48:	25c00017 	ldw	r23,0(r4)
    1e4c:	21000104 	addi	r4,r4,4
    1e50:	d9012d15 	stw	r4,1204(sp)
    1e54:	b82dd7fa 	srai	r22,r23,31
    1e58:	b005883a 	mov	r2,r22
    1e5c:	1003230e 	bge	r2,zero,2aec <___vfprintf_internal_r+0x11b0>
    1e60:	05efc83a 	sub	r23,zero,r23
    1e64:	b804c03a 	cmpne	r2,r23,zero
    1e68:	05adc83a 	sub	r22,zero,r22
    1e6c:	b0adc83a 	sub	r22,r22,r2
    1e70:	00800b44 	movi	r2,45
    1e74:	d8812585 	stb	r2,1174(sp)
    1e78:	00c00044 	movi	r3,1
    1e7c:	bd84b03a 	or	r2,r23,r22
    1e80:	003f8506 	br	1c98 <__alt_mem_onchip_flash_0_data+0xf0f01c98>
    1e84:	da012e17 	ldw	r8,1208(sp)
    1e88:	d8812d15 	stw	r2,1204(sp)
    1e8c:	0211c83a 	sub	r8,zero,r8
    1e90:	da012e15 	stw	r8,1208(sp)
    1e94:	84000114 	ori	r16,r16,4
    1e98:	ac800007 	ldb	r18,0(r21)
    1e9c:	003f0506 	br	1ab4 <__alt_mem_onchip_flash_0_data+0xf0f01ab4>
    1ea0:	d9013017 	ldw	r4,1216(sp)
    1ea4:	d9412917 	ldw	r5,1188(sp)
    1ea8:	00037580 	call	3758 <__swsetup_r>
    1eac:	10003d1e 	bne	r2,zero,1fa4 <___vfprintf_internal_r+0x668>
    1eb0:	d8c12917 	ldw	r3,1188(sp)
    1eb4:	1880030b 	ldhu	r2,12(r3)
    1eb8:	00c00284 	movi	r3,10
    1ebc:	1100068c 	andi	r4,r2,26
    1ec0:	20fec21e 	bne	r4,r3,19cc <__alt_mem_onchip_flash_0_data+0xf0f019cc>
    1ec4:	d9012917 	ldw	r4,1188(sp)
    1ec8:	20c0038b 	ldhu	r3,14(r4)
    1ecc:	193fffcc 	andi	r4,r3,65535
    1ed0:	2120001c 	xori	r4,r4,32768
    1ed4:	21200004 	addi	r4,r4,-32768
    1ed8:	203ebc16 	blt	r4,zero,19cc <__alt_mem_onchip_flash_0_data+0xf0f019cc>
    1edc:	da012917 	ldw	r8,1188(sp)
    1ee0:	d9013017 	ldw	r4,1216(sp)
    1ee4:	d9c12d17 	ldw	r7,1204(sp)
    1ee8:	42800717 	ldw	r10,28(r8)
    1eec:	42400917 	ldw	r9,36(r8)
    1ef0:	10bfff4c 	andi	r2,r2,65533
    1ef4:	02010004 	movi	r8,1024
    1ef8:	d881070d 	sth	r2,1052(sp)
    1efc:	d9410404 	addi	r5,sp,1040
    1f00:	d8800404 	addi	r2,sp,16
    1f04:	800d883a 	mov	r6,r16
    1f08:	d8c1078d 	sth	r3,1054(sp)
    1f0c:	da810b15 	stw	r10,1068(sp)
    1f10:	da410d15 	stw	r9,1076(sp)
    1f14:	d8810415 	stw	r2,1040(sp)
    1f18:	d8810815 	stw	r2,1056(sp)
    1f1c:	da010615 	stw	r8,1048(sp)
    1f20:	da010915 	stw	r8,1060(sp)
    1f24:	d8010a15 	stw	zero,1064(sp)
    1f28:	000193c0 	call	193c <___vfprintf_internal_r>
    1f2c:	d8812c15 	stw	r2,1200(sp)
    1f30:	10000416 	blt	r2,zero,1f44 <___vfprintf_internal_r+0x608>
    1f34:	d9013017 	ldw	r4,1216(sp)
    1f38:	d9410404 	addi	r5,sp,1040
    1f3c:	00050f00 	call	50f0 <_fflush_r>
    1f40:	1005d81e 	bne	r2,zero,36a4 <___vfprintf_internal_r+0x1d68>
    1f44:	d881070b 	ldhu	r2,1052(sp)
    1f48:	1080100c 	andi	r2,r2,64
    1f4c:	10bfffcc 	andi	r2,r2,65535
    1f50:	10a0001c 	xori	r2,r2,32768
    1f54:	10a00004 	addi	r2,r2,-32768
    1f58:	10001426 	beq	r2,zero,1fac <___vfprintf_internal_r+0x670>
    1f5c:	d8c12917 	ldw	r3,1188(sp)
    1f60:	1880030b 	ldhu	r2,12(r3)
    1f64:	10801014 	ori	r2,r2,64
    1f68:	1880030d 	sth	r2,12(r3)
    1f6c:	00000f06 	br	1fac <___vfprintf_internal_r+0x670>
    1f70:	d8811d17 	ldw	r2,1140(sp)
    1f74:	10000426 	beq	r2,zero,1f88 <___vfprintf_internal_r+0x64c>
    1f78:	d9013017 	ldw	r4,1216(sp)
    1f7c:	d9412917 	ldw	r5,1188(sp)
    1f80:	d9811b04 	addi	r6,sp,1132
    1f84:	00019080 	call	1908 <__sprint_r>
    1f88:	d8c12917 	ldw	r3,1188(sp)
    1f8c:	1880030b 	ldhu	r2,12(r3)
    1f90:	1080100c 	andi	r2,r2,64
    1f94:	10bfffcc 	andi	r2,r2,65535
    1f98:	10a0001c 	xori	r2,r2,32768
    1f9c:	10a00004 	addi	r2,r2,-32768
    1fa0:	10000226 	beq	r2,zero,1fac <___vfprintf_internal_r+0x670>
    1fa4:	00bfffc4 	movi	r2,-1
    1fa8:	d8812c15 	stw	r2,1200(sp)
    1fac:	d8812c17 	ldw	r2,1200(sp)
    1fb0:	dfc14617 	ldw	ra,1304(sp)
    1fb4:	df014517 	ldw	fp,1300(sp)
    1fb8:	ddc14417 	ldw	r23,1296(sp)
    1fbc:	dd814317 	ldw	r22,1292(sp)
    1fc0:	dd414217 	ldw	r21,1288(sp)
    1fc4:	dd014117 	ldw	r20,1284(sp)
    1fc8:	dcc14017 	ldw	r19,1280(sp)
    1fcc:	dc813f17 	ldw	r18,1276(sp)
    1fd0:	dc413e17 	ldw	r17,1272(sp)
    1fd4:	dc013d17 	ldw	r16,1268(sp)
    1fd8:	dec14704 	addi	sp,sp,1308
    1fdc:	f800283a 	ret
    1fe0:	d9412917 	ldw	r5,1188(sp)
    1fe4:	8809883a 	mov	r4,r17
    1fe8:	d9811b04 	addi	r6,sp,1132
    1fec:	00019080 	call	1908 <__sprint_r>
    1ff0:	103fe51e 	bne	r2,zero,1f88 <__alt_mem_onchip_flash_0_data+0xf0f01f88>
    1ff4:	da400404 	addi	r9,sp,16
    1ff8:	003e9d06 	br	1a70 <__alt_mem_onchip_flash_0_data+0xf0f01a70>
    1ffc:	00053980 	call	5398 <__sinit>
    2000:	003e6606 	br	199c <__alt_mem_onchip_flash_0_data+0xf0f0199c>
    2004:	d8812d17 	ldw	r2,1204(sp)
    2008:	0007883a 	mov	r3,zero
    200c:	15c00017 	ldw	r23,0(r2)
    2010:	15800117 	ldw	r22,4(r2)
    2014:	10800204 	addi	r2,r2,8
    2018:	d8812d15 	stw	r2,1204(sp)
    201c:	d8012585 	stb	zero,1174(sp)
    2020:	bd84b03a 	or	r2,r23,r22
    2024:	003f1c06 	br	1c98 <__alt_mem_onchip_flash_0_data+0xf0f01c98>
    2028:	d8c12d17 	ldw	r3,1204(sp)
    202c:	18800117 	ldw	r2,4(r3)
    2030:	1dc00017 	ldw	r23,0(r3)
    2034:	18c00204 	addi	r3,r3,8
    2038:	d8c12d15 	stw	r3,1204(sp)
    203c:	102d883a 	mov	r22,r2
    2040:	003f8606 	br	1e5c <__alt_mem_onchip_flash_0_data+0xf0f01e5c>
    2044:	d8c12d17 	ldw	r3,1204(sp)
    2048:	d9012d17 	ldw	r4,1204(sp)
    204c:	1dc00017 	ldw	r23,0(r3)
    2050:	1d800117 	ldw	r22,4(r3)
    2054:	21000204 	addi	r4,r4,8
    2058:	00c00044 	movi	r3,1
    205c:	d9012d15 	stw	r4,1204(sp)
    2060:	bd84b03a 	or	r2,r23,r22
    2064:	d8012585 	stb	zero,1174(sp)
    2068:	003f0b06 	br	1c98 <__alt_mem_onchip_flash_0_data+0xf0f01c98>
    206c:	d9812585 	stb	r6,1174(sp)
    2070:	ac800007 	ldb	r18,0(r21)
    2074:	003e8f06 	br	1ab4 <__alt_mem_onchip_flash_0_data+0xf0f01ab4>
    2078:	ac800007 	ldb	r18,0(r21)
    207c:	a9000044 	addi	r4,r21,1
    2080:	92857d26 	beq	r18,r10,3678 <___vfprintf_internal_r+0x1d3c>
    2084:	90bff404 	addi	r2,r18,-48
    2088:	0039883a 	mov	fp,zero
    208c:	28800736 	bltu	r5,r2,20ac <___vfprintf_internal_r+0x770>
    2090:	24800007 	ldb	r18,0(r4)
    2094:	e70002a4 	muli	fp,fp,10
    2098:	21000044 	addi	r4,r4,1
    209c:	1739883a 	add	fp,r2,fp
    20a0:	90bff404 	addi	r2,r18,-48
    20a4:	28bffa2e 	bgeu	r5,r2,2090 <__alt_mem_onchip_flash_0_data+0xf0f02090>
    20a8:	e0044216 	blt	fp,zero,31b4 <___vfprintf_internal_r+0x1878>
    20ac:	202b883a 	mov	r21,r4
    20b0:	003e8106 	br	1ab8 <__alt_mem_onchip_flash_0_data+0xf0f01ab8>
    20b4:	d8812587 	ldb	r2,1174(sp)
    20b8:	1003581e 	bne	r2,zero,2e1c <___vfprintf_internal_r+0x14e0>
    20bc:	dac12585 	stb	r11,1174(sp)
    20c0:	ac800007 	ldb	r18,0(r21)
    20c4:	003e7b06 	br	1ab4 <__alt_mem_onchip_flash_0_data+0xf0f01ab4>
    20c8:	84000054 	ori	r16,r16,1
    20cc:	ac800007 	ldb	r18,0(r21)
    20d0:	003e7806 	br	1ab4 <__alt_mem_onchip_flash_0_data+0xf0f01ab4>
    20d4:	84002014 	ori	r16,r16,128
    20d8:	ac800007 	ldb	r18,0(r21)
    20dc:	003e7506 	br	1ab4 <__alt_mem_onchip_flash_0_data+0xf0f01ab4>
    20e0:	020000f4 	movhi	r8,3
    20e4:	4200ff04 	addi	r8,r8,1020
    20e8:	da013615 	stw	r8,1240(sp)
    20ec:	8080080c 	andi	r2,r16,32
    20f0:	10009626 	beq	r2,zero,234c <___vfprintf_internal_r+0xa10>
    20f4:	d8812d17 	ldw	r2,1204(sp)
    20f8:	15c00017 	ldw	r23,0(r2)
    20fc:	15800117 	ldw	r22,4(r2)
    2100:	10800204 	addi	r2,r2,8
    2104:	d8812d15 	stw	r2,1204(sp)
    2108:	8080004c 	andi	r2,r16,1
    210c:	1002ae26 	beq	r2,zero,2bc8 <___vfprintf_internal_r+0x128c>
    2110:	bd84b03a 	or	r2,r23,r22
    2114:	10032a26 	beq	r2,zero,2dc0 <___vfprintf_internal_r+0x1484>
    2118:	00c00c04 	movi	r3,48
    211c:	d8c12505 	stb	r3,1172(sp)
    2120:	dc812545 	stb	r18,1173(sp)
    2124:	84000094 	ori	r16,r16,2
    2128:	00c00084 	movi	r3,2
    212c:	d8012585 	stb	zero,1174(sp)
    2130:	003ed906 	br	1c98 <__alt_mem_onchip_flash_0_data+0xf0f01c98>
    2134:	84001014 	ori	r16,r16,64
    2138:	ac800007 	ldb	r18,0(r21)
    213c:	003e5d06 	br	1ab4 <__alt_mem_onchip_flash_0_data+0xf0f01ab4>
    2140:	ac800007 	ldb	r18,0(r21)
    2144:	a805883a 	mov	r2,r21
    2148:	91c43226 	beq	r18,r7,3214 <___vfprintf_internal_r+0x18d8>
    214c:	84000414 	ori	r16,r16,16
    2150:	003e5806 	br	1ab4 <__alt_mem_onchip_flash_0_data+0xf0f01ab4>
    2154:	d8c12d17 	ldw	r3,1204(sp)
    2158:	02000044 	movi	r8,1
    215c:	da012815 	stw	r8,1184(sp)
    2160:	18800017 	ldw	r2,0(r3)
    2164:	18c00104 	addi	r3,r3,4
    2168:	d8012585 	stb	zero,1174(sp)
    216c:	d8810405 	stb	r2,1040(sp)
    2170:	d8c12d15 	stw	r3,1204(sp)
    2174:	da012b15 	stw	r8,1196(sp)
    2178:	dcc10404 	addi	r19,sp,1040
    217c:	d8013115 	stw	zero,1220(sp)
    2180:	003ee006 	br	1d04 <__alt_mem_onchip_flash_0_data+0xf0f01d04>
    2184:	8080080c 	andi	r2,r16,32
    2188:	10031026 	beq	r2,zero,2dcc <___vfprintf_internal_r+0x1490>
    218c:	d9012d17 	ldw	r4,1204(sp)
    2190:	da012c17 	ldw	r8,1200(sp)
    2194:	20800017 	ldw	r2,0(r4)
    2198:	4007d7fa 	srai	r3,r8,31
    219c:	21000104 	addi	r4,r4,4
    21a0:	d9012d15 	stw	r4,1204(sp)
    21a4:	12000015 	stw	r8,0(r2)
    21a8:	10c00115 	stw	r3,4(r2)
    21ac:	003e1906 	br	1a14 <__alt_mem_onchip_flash_0_data+0xf0f01a14>
    21b0:	da012d17 	ldw	r8,1204(sp)
    21b4:	d9012d17 	ldw	r4,1204(sp)
    21b8:	42000017 	ldw	r8,0(r8)
    21bc:	20800104 	addi	r2,r4,4
    21c0:	da012e15 	stw	r8,1208(sp)
    21c4:	403f2f16 	blt	r8,zero,1e84 <__alt_mem_onchip_flash_0_data+0xf0f01e84>
    21c8:	d8812d15 	stw	r2,1204(sp)
    21cc:	ac800007 	ldb	r18,0(r21)
    21d0:	003e3806 	br	1ab4 <__alt_mem_onchip_flash_0_data+0xf0f01ab4>
    21d4:	0009883a 	mov	r4,zero
    21d8:	90bff404 	addi	r2,r18,-48
    21dc:	ac800007 	ldb	r18,0(r21)
    21e0:	210002a4 	muli	r4,r4,10
    21e4:	ad400044 	addi	r21,r21,1
    21e8:	2089883a 	add	r4,r4,r2
    21ec:	90bff404 	addi	r2,r18,-48
    21f0:	28bffa2e 	bgeu	r5,r2,21dc <__alt_mem_onchip_flash_0_data+0xf0f021dc>
    21f4:	d9012e15 	stw	r4,1208(sp)
    21f8:	003e2f06 	br	1ab8 <__alt_mem_onchip_flash_0_data+0xf0f01ab8>
    21fc:	8080020c 	andi	r2,r16,8
    2200:	1002d426 	beq	r2,zero,2d54 <___vfprintf_internal_r+0x1418>
    2204:	d8c12d17 	ldw	r3,1204(sp)
    2208:	1d800017 	ldw	r22,0(r3)
    220c:	1d000117 	ldw	r20,4(r3)
    2210:	18c00204 	addi	r3,r3,8
    2214:	d8c12d15 	stw	r3,1204(sp)
    2218:	dd813315 	stw	r22,1228(sp)
    221c:	dd013415 	stw	r20,1232(sp)
    2220:	b009883a 	mov	r4,r22
    2224:	a00b883a 	mov	r5,r20
    2228:	da413c15 	stw	r9,1264(sp)
    222c:	000857c0 	call	857c <__isinfd>
    2230:	da413c17 	ldw	r9,1264(sp)
    2234:	b009883a 	mov	r4,r22
    2238:	a00b883a 	mov	r5,r20
    223c:	10035726 	beq	r2,zero,2f9c <___vfprintf_internal_r+0x1660>
    2240:	000d883a 	mov	r6,zero
    2244:	000f883a 	mov	r7,zero
    2248:	000a2f00 	call	a2f0 <__ltdf2>
    224c:	da413c17 	ldw	r9,1264(sp)
    2250:	10041b16 	blt	r2,zero,32c0 <___vfprintf_internal_r+0x1984>
    2254:	d8812583 	ldbu	r2,1174(sp)
    2258:	00c011c4 	movi	r3,71
    225c:	1c830b16 	blt	r3,r18,2e8c <___vfprintf_internal_r+0x1550>
    2260:	04c000f4 	movhi	r19,3
    2264:	9cc0fb04 	addi	r19,r19,1004
    2268:	020000c4 	movi	r8,3
    226c:	00ffdfc4 	movi	r3,-129
    2270:	da012815 	stw	r8,1184(sp)
    2274:	80e0703a 	and	r16,r16,r3
    2278:	da012b15 	stw	r8,1196(sp)
    227c:	d8013115 	stw	zero,1220(sp)
    2280:	003e9906 	br	1ce8 <__alt_mem_onchip_flash_0_data+0xf0f01ce8>
    2284:	d8812d17 	ldw	r2,1204(sp)
    2288:	d8c12d17 	ldw	r3,1204(sp)
    228c:	020000f4 	movhi	r8,3
    2290:	42010404 	addi	r8,r8,1040
    2294:	15c00017 	ldw	r23,0(r2)
    2298:	00800c04 	movi	r2,48
    229c:	18c00104 	addi	r3,r3,4
    22a0:	d8812505 	stb	r2,1172(sp)
    22a4:	00801e04 	movi	r2,120
    22a8:	d8812545 	stb	r2,1173(sp)
    22ac:	d8c12d15 	stw	r3,1204(sp)
    22b0:	002d883a 	mov	r22,zero
    22b4:	84000094 	ori	r16,r16,2
    22b8:	da013615 	stw	r8,1240(sp)
    22bc:	00c00084 	movi	r3,2
    22c0:	04801e04 	movi	r18,120
    22c4:	b805883a 	mov	r2,r23
    22c8:	d8012585 	stb	zero,1174(sp)
    22cc:	003e7206 	br	1c98 <__alt_mem_onchip_flash_0_data+0xf0f01c98>
    22d0:	84000814 	ori	r16,r16,32
    22d4:	ac800007 	ldb	r18,0(r21)
    22d8:	003df606 	br	1ab4 <__alt_mem_onchip_flash_0_data+0xf0f01ab4>
    22dc:	d8812d17 	ldw	r2,1204(sp)
    22e0:	d8012585 	stb	zero,1174(sp)
    22e4:	14c00017 	ldw	r19,0(r2)
    22e8:	15c00104 	addi	r23,r2,4
    22ec:	98040126 	beq	r19,zero,32f4 <___vfprintf_internal_r+0x19b8>
    22f0:	9809883a 	mov	r4,r19
    22f4:	e003dd16 	blt	fp,zero,326c <___vfprintf_internal_r+0x1930>
    22f8:	000b883a 	mov	r5,zero
    22fc:	e00d883a 	mov	r6,fp
    2300:	da413c15 	stw	r9,1264(sp)
    2304:	0006a380 	call	6a38 <memchr>
    2308:	da413c17 	ldw	r9,1264(sp)
    230c:	10042e26 	beq	r2,zero,33c8 <___vfprintf_internal_r+0x1a8c>
    2310:	14c5c83a 	sub	r2,r2,r19
    2314:	d8812b15 	stw	r2,1196(sp)
    2318:	e083790e 	bge	fp,r2,3100 <___vfprintf_internal_r+0x17c4>
    231c:	df012815 	stw	fp,1184(sp)
    2320:	e0049516 	blt	fp,zero,3578 <___vfprintf_internal_r+0x1c3c>
    2324:	d8812583 	ldbu	r2,1174(sp)
    2328:	df012b15 	stw	fp,1196(sp)
    232c:	ddc12d15 	stw	r23,1204(sp)
    2330:	d8013115 	stw	zero,1220(sp)
    2334:	003e6c06 	br	1ce8 <__alt_mem_onchip_flash_0_data+0xf0f01ce8>
    2338:	020000f4 	movhi	r8,3
    233c:	42010404 	addi	r8,r8,1040
    2340:	da013615 	stw	r8,1240(sp)
    2344:	8080080c 	andi	r2,r16,32
    2348:	103f6a1e 	bne	r2,zero,20f4 <__alt_mem_onchip_flash_0_data+0xf0f020f4>
    234c:	8080040c 	andi	r2,r16,16
    2350:	10029326 	beq	r2,zero,2da0 <___vfprintf_internal_r+0x1464>
    2354:	d8c12d17 	ldw	r3,1204(sp)
    2358:	002d883a 	mov	r22,zero
    235c:	1dc00017 	ldw	r23,0(r3)
    2360:	18c00104 	addi	r3,r3,4
    2364:	d8c12d15 	stw	r3,1204(sp)
    2368:	003f6706 	br	2108 <__alt_mem_onchip_flash_0_data+0xf0f02108>
    236c:	84000214 	ori	r16,r16,8
    2370:	ac800007 	ldb	r18,0(r21)
    2374:	003dcf06 	br	1ab4 <__alt_mem_onchip_flash_0_data+0xf0f01ab4>
    2378:	da011d17 	ldw	r8,1140(sp)
    237c:	d8c11c17 	ldw	r3,1136(sp)
    2380:	d8812587 	ldb	r2,1174(sp)
    2384:	10000b26 	beq	r2,zero,23b4 <___vfprintf_internal_r+0xa78>
    2388:	d8812584 	addi	r2,sp,1174
    238c:	48800015 	stw	r2,0(r9)
    2390:	00800044 	movi	r2,1
    2394:	48800115 	stw	r2,4(r9)
    2398:	4091883a 	add	r8,r8,r2
    239c:	1887883a 	add	r3,r3,r2
    23a0:	da011d15 	stw	r8,1140(sp)
    23a4:	d8c11c15 	stw	r3,1136(sp)
    23a8:	008001c4 	movi	r2,7
    23ac:	10c18516 	blt	r2,r3,29c4 <___vfprintf_internal_r+0x1088>
    23b0:	4a400204 	addi	r9,r9,8
    23b4:	d9012a17 	ldw	r4,1192(sp)
    23b8:	20000b26 	beq	r4,zero,23e8 <___vfprintf_internal_r+0xaac>
    23bc:	d8812504 	addi	r2,sp,1172
    23c0:	48800015 	stw	r2,0(r9)
    23c4:	00800084 	movi	r2,2
    23c8:	48800115 	stw	r2,4(r9)
    23cc:	4091883a 	add	r8,r8,r2
    23d0:	18c00044 	addi	r3,r3,1
    23d4:	da011d15 	stw	r8,1140(sp)
    23d8:	d8c11c15 	stw	r3,1136(sp)
    23dc:	008001c4 	movi	r2,7
    23e0:	10c18116 	blt	r2,r3,29e8 <___vfprintf_internal_r+0x10ac>
    23e4:	4a400204 	addi	r9,r9,8
    23e8:	d9012f17 	ldw	r4,1212(sp)
    23ec:	00802004 	movi	r2,128
    23f0:	2080fc26 	beq	r4,r2,27e4 <___vfprintf_internal_r+0xea8>
    23f4:	d8813117 	ldw	r2,1220(sp)
    23f8:	d9012b17 	ldw	r4,1196(sp)
    23fc:	112fc83a 	sub	r23,r2,r4
    2400:	05c02a0e 	bge	zero,r23,24ac <___vfprintf_internal_r+0xb70>
    2404:	07000404 	movi	fp,16
    2408:	050000f4 	movhi	r20,3
    240c:	a5010f84 	addi	r20,r20,1086
    2410:	e5c01d0e 	bge	fp,r23,2488 <___vfprintf_internal_r+0xb4c>
    2414:	dc812a15 	stw	r18,1192(sp)
    2418:	058001c4 	movi	r22,7
    241c:	a025883a 	mov	r18,r20
    2420:	8029883a 	mov	r20,r16
    2424:	dc012917 	ldw	r16,1188(sp)
    2428:	00000306 	br	2438 <___vfprintf_internal_r+0xafc>
    242c:	bdfffc04 	addi	r23,r23,-16
    2430:	4a400204 	addi	r9,r9,8
    2434:	e5c0110e 	bge	fp,r23,247c <___vfprintf_internal_r+0xb40>
    2438:	4c800015 	stw	r18,0(r9)
    243c:	4f000115 	stw	fp,4(r9)
    2440:	42000404 	addi	r8,r8,16
    2444:	18c00044 	addi	r3,r3,1
    2448:	da011d15 	stw	r8,1140(sp)
    244c:	d8c11c15 	stw	r3,1136(sp)
    2450:	b0fff60e 	bge	r22,r3,242c <__alt_mem_onchip_flash_0_data+0xf0f0242c>
    2454:	8809883a 	mov	r4,r17
    2458:	800b883a 	mov	r5,r16
    245c:	d9811b04 	addi	r6,sp,1132
    2460:	00019080 	call	1908 <__sprint_r>
    2464:	103ec81e 	bne	r2,zero,1f88 <__alt_mem_onchip_flash_0_data+0xf0f01f88>
    2468:	bdfffc04 	addi	r23,r23,-16
    246c:	da011d17 	ldw	r8,1140(sp)
    2470:	d8c11c17 	ldw	r3,1136(sp)
    2474:	da400404 	addi	r9,sp,16
    2478:	e5ffef16 	blt	fp,r23,2438 <__alt_mem_onchip_flash_0_data+0xf0f02438>
    247c:	a021883a 	mov	r16,r20
    2480:	9029883a 	mov	r20,r18
    2484:	dc812a17 	ldw	r18,1192(sp)
    2488:	4d000015 	stw	r20,0(r9)
    248c:	4dc00115 	stw	r23,4(r9)
    2490:	45d1883a 	add	r8,r8,r23
    2494:	18c00044 	addi	r3,r3,1
    2498:	da011d15 	stw	r8,1140(sp)
    249c:	d8c11c15 	stw	r3,1136(sp)
    24a0:	008001c4 	movi	r2,7
    24a4:	10c13e16 	blt	r2,r3,29a0 <___vfprintf_internal_r+0x1064>
    24a8:	4a400204 	addi	r9,r9,8
    24ac:	8080400c 	andi	r2,r16,256
    24b0:	1000831e 	bne	r2,zero,26c0 <___vfprintf_internal_r+0xd84>
    24b4:	d8812b17 	ldw	r2,1196(sp)
    24b8:	4cc00015 	stw	r19,0(r9)
    24bc:	48800115 	stw	r2,4(r9)
    24c0:	4091883a 	add	r8,r8,r2
    24c4:	18c00044 	addi	r3,r3,1
    24c8:	da011d15 	stw	r8,1140(sp)
    24cc:	d8c11c15 	stw	r3,1136(sp)
    24d0:	008001c4 	movi	r2,7
    24d4:	10c05316 	blt	r2,r3,2624 <___vfprintf_internal_r+0xce8>
    24d8:	4a400204 	addi	r9,r9,8
    24dc:	8400010c 	andi	r16,r16,4
    24e0:	80002e26 	beq	r16,zero,259c <___vfprintf_internal_r+0xc60>
    24e4:	d8812e17 	ldw	r2,1208(sp)
    24e8:	d8c12817 	ldw	r3,1184(sp)
    24ec:	10e1c83a 	sub	r16,r2,r3
    24f0:	04002a0e 	bge	zero,r16,259c <___vfprintf_internal_r+0xc60>
    24f4:	04800404 	movi	r18,16
    24f8:	d8c11c17 	ldw	r3,1136(sp)
    24fc:	05c000f4 	movhi	r23,3
    2500:	bdc10b84 	addi	r23,r23,1070
    2504:	9400170e 	bge	r18,r16,2564 <___vfprintf_internal_r+0xc28>
    2508:	04c001c4 	movi	r19,7
    250c:	dd012917 	ldw	r20,1188(sp)
    2510:	00000306 	br	2520 <___vfprintf_internal_r+0xbe4>
    2514:	843ffc04 	addi	r16,r16,-16
    2518:	4a400204 	addi	r9,r9,8
    251c:	9400110e 	bge	r18,r16,2564 <___vfprintf_internal_r+0xc28>
    2520:	4dc00015 	stw	r23,0(r9)
    2524:	4c800115 	stw	r18,4(r9)
    2528:	42000404 	addi	r8,r8,16
    252c:	18c00044 	addi	r3,r3,1
    2530:	da011d15 	stw	r8,1140(sp)
    2534:	d8c11c15 	stw	r3,1136(sp)
    2538:	98fff60e 	bge	r19,r3,2514 <__alt_mem_onchip_flash_0_data+0xf0f02514>
    253c:	8809883a 	mov	r4,r17
    2540:	a00b883a 	mov	r5,r20
    2544:	d9811b04 	addi	r6,sp,1132
    2548:	00019080 	call	1908 <__sprint_r>
    254c:	103e8e1e 	bne	r2,zero,1f88 <__alt_mem_onchip_flash_0_data+0xf0f01f88>
    2550:	843ffc04 	addi	r16,r16,-16
    2554:	da011d17 	ldw	r8,1140(sp)
    2558:	d8c11c17 	ldw	r3,1136(sp)
    255c:	da400404 	addi	r9,sp,16
    2560:	943fef16 	blt	r18,r16,2520 <__alt_mem_onchip_flash_0_data+0xf0f02520>
    2564:	4dc00015 	stw	r23,0(r9)
    2568:	4c000115 	stw	r16,4(r9)
    256c:	8211883a 	add	r8,r16,r8
    2570:	18c00044 	addi	r3,r3,1
    2574:	da011d15 	stw	r8,1140(sp)
    2578:	d8c11c15 	stw	r3,1136(sp)
    257c:	008001c4 	movi	r2,7
    2580:	10c0060e 	bge	r2,r3,259c <___vfprintf_internal_r+0xc60>
    2584:	d9412917 	ldw	r5,1188(sp)
    2588:	8809883a 	mov	r4,r17
    258c:	d9811b04 	addi	r6,sp,1132
    2590:	00019080 	call	1908 <__sprint_r>
    2594:	103e7c1e 	bne	r2,zero,1f88 <__alt_mem_onchip_flash_0_data+0xf0f01f88>
    2598:	da011d17 	ldw	r8,1140(sp)
    259c:	dd012817 	ldw	r20,1184(sp)
    25a0:	d9012e17 	ldw	r4,1208(sp)
    25a4:	a100010e 	bge	r20,r4,25ac <___vfprintf_internal_r+0xc70>
    25a8:	2029883a 	mov	r20,r4
    25ac:	d8812c17 	ldw	r2,1200(sp)
    25b0:	1505883a 	add	r2,r2,r20
    25b4:	d8812c15 	stw	r2,1200(sp)
    25b8:	4000b91e 	bne	r8,zero,28a0 <___vfprintf_internal_r+0xf64>
    25bc:	d8011c15 	stw	zero,1136(sp)
    25c0:	a8800007 	ldb	r2,0(r21)
    25c4:	da400404 	addi	r9,sp,16
    25c8:	103d141e 	bne	r2,zero,1a1c <__alt_mem_onchip_flash_0_data+0xf0f01a1c>
    25cc:	a825883a 	mov	r18,r21
    25d0:	003d2a06 	br	1a7c <__alt_mem_onchip_flash_0_data+0xf0f01a7c>
    25d4:	d9412917 	ldw	r5,1188(sp)
    25d8:	8809883a 	mov	r4,r17
    25dc:	d9811b04 	addi	r6,sp,1132
    25e0:	00019080 	call	1908 <__sprint_r>
    25e4:	103e681e 	bne	r2,zero,1f88 <__alt_mem_onchip_flash_0_data+0xf0f01f88>
    25e8:	da011d17 	ldw	r8,1140(sp)
    25ec:	da400404 	addi	r9,sp,16
    25f0:	8080004c 	andi	r2,r16,1
    25f4:	103fb926 	beq	r2,zero,24dc <__alt_mem_onchip_flash_0_data+0xf0f024dc>
    25f8:	d8c11c17 	ldw	r3,1136(sp)
    25fc:	d9013717 	ldw	r4,1244(sp)
    2600:	00800044 	movi	r2,1
    2604:	48800115 	stw	r2,4(r9)
    2608:	49000015 	stw	r4,0(r9)
    260c:	4091883a 	add	r8,r8,r2
    2610:	1887883a 	add	r3,r3,r2
    2614:	da011d15 	stw	r8,1140(sp)
    2618:	d8c11c15 	stw	r3,1136(sp)
    261c:	008001c4 	movi	r2,7
    2620:	10ffad0e 	bge	r2,r3,24d8 <__alt_mem_onchip_flash_0_data+0xf0f024d8>
    2624:	d9412917 	ldw	r5,1188(sp)
    2628:	8809883a 	mov	r4,r17
    262c:	d9811b04 	addi	r6,sp,1132
    2630:	00019080 	call	1908 <__sprint_r>
    2634:	103e541e 	bne	r2,zero,1f88 <__alt_mem_onchip_flash_0_data+0xf0f01f88>
    2638:	da400404 	addi	r9,sp,16
    263c:	da011d17 	ldw	r8,1140(sp)
    2640:	003fa606 	br	24dc <__alt_mem_onchip_flash_0_data+0xf0f024dc>
    2644:	18803fcc 	andi	r2,r3,255
    2648:	00c00044 	movi	r3,1
    264c:	10c10126 	beq	r2,r3,2a54 <___vfprintf_internal_r+0x1118>
    2650:	00c00084 	movi	r3,2
    2654:	10c0f026 	beq	r2,r3,2a18 <___vfprintf_internal_r+0x10dc>
    2658:	d8c10dc4 	addi	r3,sp,1079
    265c:	b808d0fa 	srli	r4,r23,3
    2660:	b00a977a 	slli	r5,r22,29
    2664:	b02cd0fa 	srli	r22,r22,3
    2668:	bdc001cc 	andi	r23,r23,7
    266c:	b8800c04 	addi	r2,r23,48
    2670:	292eb03a 	or	r23,r5,r4
    2674:	18800005 	stb	r2,0(r3)
    2678:	bd88b03a 	or	r4,r23,r22
    267c:	1827883a 	mov	r19,r3
    2680:	18ffffc4 	addi	r3,r3,-1
    2684:	203ff51e 	bne	r4,zero,265c <__alt_mem_onchip_flash_0_data+0xf0f0265c>
    2688:	8100004c 	andi	r4,r16,1
    268c:	980b883a 	mov	r5,r19
    2690:	20000726 	beq	r4,zero,26b0 <___vfprintf_internal_r+0xd74>
    2694:	10803fcc 	andi	r2,r2,255
    2698:	1080201c 	xori	r2,r2,128
    269c:	10bfe004 	addi	r2,r2,-128
    26a0:	01000c04 	movi	r4,48
    26a4:	11000226 	beq	r2,r4,26b0 <___vfprintf_internal_r+0xd74>
    26a8:	1827883a 	mov	r19,r3
    26ac:	293fffc5 	stb	r4,-1(r5)
    26b0:	d8812717 	ldw	r2,1180(sp)
    26b4:	14c5c83a 	sub	r2,r2,r19
    26b8:	d8812b15 	stw	r2,1196(sp)
    26bc:	003d8406 	br	1cd0 <__alt_mem_onchip_flash_0_data+0xf0f01cd0>
    26c0:	00801944 	movi	r2,101
    26c4:	14807c0e 	bge	r2,r18,28b8 <___vfprintf_internal_r+0xf7c>
    26c8:	d9013317 	ldw	r4,1228(sp)
    26cc:	d9413417 	ldw	r5,1232(sp)
    26d0:	000d883a 	mov	r6,zero
    26d4:	000f883a 	mov	r7,zero
    26d8:	d8c13b15 	stw	r3,1260(sp)
    26dc:	da013a15 	stw	r8,1256(sp)
    26e0:	da413c15 	stw	r9,1264(sp)
    26e4:	000a1cc0 	call	a1cc <__nedf2>
    26e8:	d8c13b17 	ldw	r3,1260(sp)
    26ec:	da013a17 	ldw	r8,1256(sp)
    26f0:	da413c17 	ldw	r9,1264(sp)
    26f4:	1001001e 	bne	r2,zero,2af8 <___vfprintf_internal_r+0x11bc>
    26f8:	008000f4 	movhi	r2,3
    26fc:	10810b04 	addi	r2,r2,1068
    2700:	48800015 	stw	r2,0(r9)
    2704:	00800044 	movi	r2,1
    2708:	48800115 	stw	r2,4(r9)
    270c:	4091883a 	add	r8,r8,r2
    2710:	1887883a 	add	r3,r3,r2
    2714:	da011d15 	stw	r8,1140(sp)
    2718:	d8c11c15 	stw	r3,1136(sp)
    271c:	008001c4 	movi	r2,7
    2720:	10c1dd16 	blt	r2,r3,2e98 <___vfprintf_internal_r+0x155c>
    2724:	4a400204 	addi	r9,r9,8
    2728:	d8812417 	ldw	r2,1168(sp)
    272c:	d8c13217 	ldw	r3,1224(sp)
    2730:	10c00216 	blt	r2,r3,273c <___vfprintf_internal_r+0xe00>
    2734:	8080004c 	andi	r2,r16,1
    2738:	103f6826 	beq	r2,zero,24dc <__alt_mem_onchip_flash_0_data+0xf0f024dc>
    273c:	d8c11c17 	ldw	r3,1136(sp)
    2740:	d9013717 	ldw	r4,1244(sp)
    2744:	00800044 	movi	r2,1
    2748:	48800115 	stw	r2,4(r9)
    274c:	49000015 	stw	r4,0(r9)
    2750:	4091883a 	add	r8,r8,r2
    2754:	1887883a 	add	r3,r3,r2
    2758:	da011d15 	stw	r8,1140(sp)
    275c:	d8c11c15 	stw	r3,1136(sp)
    2760:	008001c4 	movi	r2,7
    2764:	10c2af16 	blt	r2,r3,3224 <___vfprintf_internal_r+0x18e8>
    2768:	4a400204 	addi	r9,r9,8
    276c:	d8813217 	ldw	r2,1224(sp)
    2770:	14bfffc4 	addi	r18,r2,-1
    2774:	04bf590e 	bge	zero,r18,24dc <__alt_mem_onchip_flash_0_data+0xf0f024dc>
    2778:	04c00404 	movi	r19,16
    277c:	d8c11c17 	ldw	r3,1136(sp)
    2780:	050000f4 	movhi	r20,3
    2784:	a5010f84 	addi	r20,r20,1086
    2788:	9c81630e 	bge	r19,r18,2d18 <___vfprintf_internal_r+0x13dc>
    278c:	058001c4 	movi	r22,7
    2790:	ddc12917 	ldw	r23,1188(sp)
    2794:	00000306 	br	27a4 <___vfprintf_internal_r+0xe68>
    2798:	4a400204 	addi	r9,r9,8
    279c:	94bffc04 	addi	r18,r18,-16
    27a0:	9c815d0e 	bge	r19,r18,2d18 <___vfprintf_internal_r+0x13dc>
    27a4:	4d000015 	stw	r20,0(r9)
    27a8:	4cc00115 	stw	r19,4(r9)
    27ac:	42000404 	addi	r8,r8,16
    27b0:	18c00044 	addi	r3,r3,1
    27b4:	da011d15 	stw	r8,1140(sp)
    27b8:	d8c11c15 	stw	r3,1136(sp)
    27bc:	b0fff60e 	bge	r22,r3,2798 <__alt_mem_onchip_flash_0_data+0xf0f02798>
    27c0:	8809883a 	mov	r4,r17
    27c4:	b80b883a 	mov	r5,r23
    27c8:	d9811b04 	addi	r6,sp,1132
    27cc:	00019080 	call	1908 <__sprint_r>
    27d0:	103ded1e 	bne	r2,zero,1f88 <__alt_mem_onchip_flash_0_data+0xf0f01f88>
    27d4:	da011d17 	ldw	r8,1140(sp)
    27d8:	d8c11c17 	ldw	r3,1136(sp)
    27dc:	da400404 	addi	r9,sp,16
    27e0:	003fee06 	br	279c <__alt_mem_onchip_flash_0_data+0xf0f0279c>
    27e4:	d8812e17 	ldw	r2,1208(sp)
    27e8:	d9012817 	ldw	r4,1184(sp)
    27ec:	112fc83a 	sub	r23,r2,r4
    27f0:	05ff000e 	bge	zero,r23,23f4 <__alt_mem_onchip_flash_0_data+0xf0f023f4>
    27f4:	07000404 	movi	fp,16
    27f8:	050000f4 	movhi	r20,3
    27fc:	a5010f84 	addi	r20,r20,1086
    2800:	e5c01d0e 	bge	fp,r23,2878 <___vfprintf_internal_r+0xf3c>
    2804:	dc812a15 	stw	r18,1192(sp)
    2808:	058001c4 	movi	r22,7
    280c:	a025883a 	mov	r18,r20
    2810:	8029883a 	mov	r20,r16
    2814:	dc012917 	ldw	r16,1188(sp)
    2818:	00000306 	br	2828 <___vfprintf_internal_r+0xeec>
    281c:	bdfffc04 	addi	r23,r23,-16
    2820:	4a400204 	addi	r9,r9,8
    2824:	e5c0110e 	bge	fp,r23,286c <___vfprintf_internal_r+0xf30>
    2828:	4c800015 	stw	r18,0(r9)
    282c:	4f000115 	stw	fp,4(r9)
    2830:	42000404 	addi	r8,r8,16
    2834:	18c00044 	addi	r3,r3,1
    2838:	da011d15 	stw	r8,1140(sp)
    283c:	d8c11c15 	stw	r3,1136(sp)
    2840:	b0fff60e 	bge	r22,r3,281c <__alt_mem_onchip_flash_0_data+0xf0f0281c>
    2844:	8809883a 	mov	r4,r17
    2848:	800b883a 	mov	r5,r16
    284c:	d9811b04 	addi	r6,sp,1132
    2850:	00019080 	call	1908 <__sprint_r>
    2854:	103dcc1e 	bne	r2,zero,1f88 <__alt_mem_onchip_flash_0_data+0xf0f01f88>
    2858:	bdfffc04 	addi	r23,r23,-16
    285c:	da011d17 	ldw	r8,1140(sp)
    2860:	d8c11c17 	ldw	r3,1136(sp)
    2864:	da400404 	addi	r9,sp,16
    2868:	e5ffef16 	blt	fp,r23,2828 <__alt_mem_onchip_flash_0_data+0xf0f02828>
    286c:	a021883a 	mov	r16,r20
    2870:	9029883a 	mov	r20,r18
    2874:	dc812a17 	ldw	r18,1192(sp)
    2878:	4d000015 	stw	r20,0(r9)
    287c:	4dc00115 	stw	r23,4(r9)
    2880:	45d1883a 	add	r8,r8,r23
    2884:	18c00044 	addi	r3,r3,1
    2888:	da011d15 	stw	r8,1140(sp)
    288c:	d8c11c15 	stw	r3,1136(sp)
    2890:	008001c4 	movi	r2,7
    2894:	10c11716 	blt	r2,r3,2cf4 <___vfprintf_internal_r+0x13b8>
    2898:	4a400204 	addi	r9,r9,8
    289c:	003ed506 	br	23f4 <__alt_mem_onchip_flash_0_data+0xf0f023f4>
    28a0:	d9412917 	ldw	r5,1188(sp)
    28a4:	8809883a 	mov	r4,r17
    28a8:	d9811b04 	addi	r6,sp,1132
    28ac:	00019080 	call	1908 <__sprint_r>
    28b0:	103f4226 	beq	r2,zero,25bc <__alt_mem_onchip_flash_0_data+0xf0f025bc>
    28b4:	003db406 	br	1f88 <__alt_mem_onchip_flash_0_data+0xf0f01f88>
    28b8:	d9013217 	ldw	r4,1224(sp)
    28bc:	00800044 	movi	r2,1
    28c0:	4cc00015 	stw	r19,0(r9)
    28c4:	1100e10e 	bge	r2,r4,2c4c <___vfprintf_internal_r+0x1310>
    28c8:	00800044 	movi	r2,1
    28cc:	48800115 	stw	r2,4(r9)
    28d0:	4091883a 	add	r8,r8,r2
    28d4:	1887883a 	add	r3,r3,r2
    28d8:	da011d15 	stw	r8,1140(sp)
    28dc:	d8c11c15 	stw	r3,1136(sp)
    28e0:	008001c4 	movi	r2,7
    28e4:	10c0ed16 	blt	r2,r3,2c9c <___vfprintf_internal_r+0x1360>
    28e8:	4a400204 	addi	r9,r9,8
    28ec:	d8813717 	ldw	r2,1244(sp)
    28f0:	48800015 	stw	r2,0(r9)
    28f4:	00800044 	movi	r2,1
    28f8:	48800115 	stw	r2,4(r9)
    28fc:	4091883a 	add	r8,r8,r2
    2900:	1887883a 	add	r3,r3,r2
    2904:	da011d15 	stw	r8,1140(sp)
    2908:	d8c11c15 	stw	r3,1136(sp)
    290c:	008001c4 	movi	r2,7
    2910:	10c0eb16 	blt	r2,r3,2cc0 <___vfprintf_internal_r+0x1384>
    2914:	4c800204 	addi	r18,r9,8
    2918:	d9013317 	ldw	r4,1228(sp)
    291c:	d9413417 	ldw	r5,1232(sp)
    2920:	000d883a 	mov	r6,zero
    2924:	000f883a 	mov	r7,zero
    2928:	d8c13b15 	stw	r3,1260(sp)
    292c:	da013a15 	stw	r8,1256(sp)
    2930:	000a1700 	call	a170 <__eqdf2>
    2934:	d8c13b17 	ldw	r3,1260(sp)
    2938:	da013a17 	ldw	r8,1256(sp)
    293c:	1000a626 	beq	r2,zero,2bd8 <___vfprintf_internal_r+0x129c>
    2940:	d9013217 	ldw	r4,1224(sp)
    2944:	9cc00044 	addi	r19,r19,1
    2948:	94c00015 	stw	r19,0(r18)
    294c:	20bfffc4 	addi	r2,r4,-1
    2950:	90800115 	stw	r2,4(r18)
    2954:	4091883a 	add	r8,r8,r2
    2958:	18c00044 	addi	r3,r3,1
    295c:	da011d15 	stw	r8,1140(sp)
    2960:	d8c11c15 	stw	r3,1136(sp)
    2964:	008001c4 	movi	r2,7
    2968:	10c0c316 	blt	r2,r3,2c78 <___vfprintf_internal_r+0x133c>
    296c:	94800204 	addi	r18,r18,8
    2970:	d9013517 	ldw	r4,1236(sp)
    2974:	d8811fc4 	addi	r2,sp,1151
    2978:	90800015 	stw	r2,0(r18)
    297c:	91000115 	stw	r4,4(r18)
    2980:	4111883a 	add	r8,r8,r4
    2984:	18c00044 	addi	r3,r3,1
    2988:	da011d15 	stw	r8,1140(sp)
    298c:	d8c11c15 	stw	r3,1136(sp)
    2990:	008001c4 	movi	r2,7
    2994:	10ff2316 	blt	r2,r3,2624 <__alt_mem_onchip_flash_0_data+0xf0f02624>
    2998:	92400204 	addi	r9,r18,8
    299c:	003ecf06 	br	24dc <__alt_mem_onchip_flash_0_data+0xf0f024dc>
    29a0:	d9412917 	ldw	r5,1188(sp)
    29a4:	8809883a 	mov	r4,r17
    29a8:	d9811b04 	addi	r6,sp,1132
    29ac:	00019080 	call	1908 <__sprint_r>
    29b0:	103d751e 	bne	r2,zero,1f88 <__alt_mem_onchip_flash_0_data+0xf0f01f88>
    29b4:	da011d17 	ldw	r8,1140(sp)
    29b8:	d8c11c17 	ldw	r3,1136(sp)
    29bc:	da400404 	addi	r9,sp,16
    29c0:	003eba06 	br	24ac <__alt_mem_onchip_flash_0_data+0xf0f024ac>
    29c4:	d9412917 	ldw	r5,1188(sp)
    29c8:	8809883a 	mov	r4,r17
    29cc:	d9811b04 	addi	r6,sp,1132
    29d0:	00019080 	call	1908 <__sprint_r>
    29d4:	103d6c1e 	bne	r2,zero,1f88 <__alt_mem_onchip_flash_0_data+0xf0f01f88>
    29d8:	da011d17 	ldw	r8,1140(sp)
    29dc:	d8c11c17 	ldw	r3,1136(sp)
    29e0:	da400404 	addi	r9,sp,16
    29e4:	003e7306 	br	23b4 <__alt_mem_onchip_flash_0_data+0xf0f023b4>
    29e8:	d9412917 	ldw	r5,1188(sp)
    29ec:	8809883a 	mov	r4,r17
    29f0:	d9811b04 	addi	r6,sp,1132
    29f4:	00019080 	call	1908 <__sprint_r>
    29f8:	103d631e 	bne	r2,zero,1f88 <__alt_mem_onchip_flash_0_data+0xf0f01f88>
    29fc:	da011d17 	ldw	r8,1140(sp)
    2a00:	d8c11c17 	ldw	r3,1136(sp)
    2a04:	da400404 	addi	r9,sp,16
    2a08:	003e7706 	br	23e8 <__alt_mem_onchip_flash_0_data+0xf0f023e8>
    2a0c:	d8012b15 	stw	zero,1196(sp)
    2a10:	dcc10e04 	addi	r19,sp,1080
    2a14:	003cae06 	br	1cd0 <__alt_mem_onchip_flash_0_data+0xf0f01cd0>
    2a18:	d9413617 	ldw	r5,1240(sp)
    2a1c:	d8810dc4 	addi	r2,sp,1079
    2a20:	b8c003cc 	andi	r3,r23,15
    2a24:	b008973a 	slli	r4,r22,28
    2a28:	28c7883a 	add	r3,r5,r3
    2a2c:	b82ed13a 	srli	r23,r23,4
    2a30:	18c00003 	ldbu	r3,0(r3)
    2a34:	b02cd13a 	srli	r22,r22,4
    2a38:	25eeb03a 	or	r23,r4,r23
    2a3c:	10c00005 	stb	r3,0(r2)
    2a40:	bd86b03a 	or	r3,r23,r22
    2a44:	1027883a 	mov	r19,r2
    2a48:	10bfffc4 	addi	r2,r2,-1
    2a4c:	183ff41e 	bne	r3,zero,2a20 <__alt_mem_onchip_flash_0_data+0xf0f02a20>
    2a50:	003f1706 	br	26b0 <__alt_mem_onchip_flash_0_data+0xf0f026b0>
    2a54:	b0025826 	beq	r22,zero,33b8 <___vfprintf_internal_r+0x1a7c>
    2a58:	b807883a 	mov	r3,r23
    2a5c:	d8810dc4 	addi	r2,sp,1079
    2a60:	882f883a 	mov	r23,r17
    2a64:	04c00244 	movi	r19,9
    2a68:	8023883a 	mov	r17,r16
    2a6c:	da412815 	stw	r9,1184(sp)
    2a70:	1821883a 	mov	r16,r3
    2a74:	8009883a 	mov	r4,r16
    2a78:	b00b883a 	mov	r5,r22
    2a7c:	01800284 	movi	r6,10
    2a80:	000f883a 	mov	r7,zero
    2a84:	1029883a 	mov	r20,r2
    2a88:	00093c80 	call	93c8 <__umoddi3>
    2a8c:	10800c04 	addi	r2,r2,48
    2a90:	8009883a 	mov	r4,r16
    2a94:	b00b883a 	mov	r5,r22
    2a98:	a0800005 	stb	r2,0(r20)
    2a9c:	01800284 	movi	r6,10
    2aa0:	000f883a 	mov	r7,zero
    2aa4:	0008e000 	call	8e00 <__udivdi3>
    2aa8:	1021883a 	mov	r16,r2
    2aac:	182d883a 	mov	r22,r3
    2ab0:	a0bfffc4 	addi	r2,r20,-1
    2ab4:	183fef1e 	bne	r3,zero,2a74 <__alt_mem_onchip_flash_0_data+0xf0f02a74>
    2ab8:	9c3fee36 	bltu	r19,r16,2a74 <__alt_mem_onchip_flash_0_data+0xf0f02a74>
    2abc:	da412817 	ldw	r9,1184(sp)
    2ac0:	8005883a 	mov	r2,r16
    2ac4:	8821883a 	mov	r16,r17
    2ac8:	b823883a 	mov	r17,r23
    2acc:	102f883a 	mov	r23,r2
    2ad0:	d8812717 	ldw	r2,1180(sp)
    2ad4:	a4ffffc4 	addi	r19,r20,-1
    2ad8:	bdc00c04 	addi	r23,r23,48
    2adc:	14c5c83a 	sub	r2,r2,r19
    2ae0:	a5ffffc5 	stb	r23,-1(r20)
    2ae4:	d8812b15 	stw	r2,1196(sp)
    2ae8:	003c7906 	br	1cd0 <__alt_mem_onchip_flash_0_data+0xf0f01cd0>
    2aec:	00c00044 	movi	r3,1
    2af0:	bd84b03a 	or	r2,r23,r22
    2af4:	003c6806 	br	1c98 <__alt_mem_onchip_flash_0_data+0xf0f01c98>
    2af8:	dc812417 	ldw	r18,1168(sp)
    2afc:	0480ee0e 	bge	zero,r18,2eb8 <___vfprintf_internal_r+0x157c>
    2b00:	d9013217 	ldw	r4,1224(sp)
    2b04:	4cc00015 	stw	r19,0(r9)
    2b08:	9100c616 	blt	r18,r4,2e24 <___vfprintf_internal_r+0x14e8>
    2b0c:	49000115 	stw	r4,4(r9)
    2b10:	4111883a 	add	r8,r8,r4
    2b14:	18c00044 	addi	r3,r3,1
    2b18:	da011d15 	stw	r8,1140(sp)
    2b1c:	d8c11c15 	stw	r3,1136(sp)
    2b20:	008001c4 	movi	r2,7
    2b24:	10c20916 	blt	r2,r3,334c <___vfprintf_internal_r+0x1a10>
    2b28:	4a400204 	addi	r9,r9,8
    2b2c:	d8813217 	ldw	r2,1224(sp)
    2b30:	90a5c83a 	sub	r18,r18,r2
    2b34:	04beae0e 	bge	zero,r18,25f0 <__alt_mem_onchip_flash_0_data+0xf0f025f0>
    2b38:	04c00404 	movi	r19,16
    2b3c:	d8c11c17 	ldw	r3,1136(sp)
    2b40:	050000f4 	movhi	r20,3
    2b44:	a5010f84 	addi	r20,r20,1086
    2b48:	9c81be0e 	bge	r19,r18,3244 <___vfprintf_internal_r+0x1908>
    2b4c:	058001c4 	movi	r22,7
    2b50:	ddc12917 	ldw	r23,1188(sp)
    2b54:	00000306 	br	2b64 <___vfprintf_internal_r+0x1228>
    2b58:	4a400204 	addi	r9,r9,8
    2b5c:	94bffc04 	addi	r18,r18,-16
    2b60:	9c81b80e 	bge	r19,r18,3244 <___vfprintf_internal_r+0x1908>
    2b64:	4d000015 	stw	r20,0(r9)
    2b68:	4cc00115 	stw	r19,4(r9)
    2b6c:	42000404 	addi	r8,r8,16
    2b70:	18c00044 	addi	r3,r3,1
    2b74:	da011d15 	stw	r8,1140(sp)
    2b78:	d8c11c15 	stw	r3,1136(sp)
    2b7c:	b0fff60e 	bge	r22,r3,2b58 <__alt_mem_onchip_flash_0_data+0xf0f02b58>
    2b80:	8809883a 	mov	r4,r17
    2b84:	b80b883a 	mov	r5,r23
    2b88:	d9811b04 	addi	r6,sp,1132
    2b8c:	00019080 	call	1908 <__sprint_r>
    2b90:	103cfd1e 	bne	r2,zero,1f88 <__alt_mem_onchip_flash_0_data+0xf0f01f88>
    2b94:	da011d17 	ldw	r8,1140(sp)
    2b98:	d8c11c17 	ldw	r3,1136(sp)
    2b9c:	da400404 	addi	r9,sp,16
    2ba0:	003fee06 	br	2b5c <__alt_mem_onchip_flash_0_data+0xf0f02b5c>
    2ba4:	d9412917 	ldw	r5,1188(sp)
    2ba8:	8809883a 	mov	r4,r17
    2bac:	d9811b04 	addi	r6,sp,1132
    2bb0:	00019080 	call	1908 <__sprint_r>
    2bb4:	103cf41e 	bne	r2,zero,1f88 <__alt_mem_onchip_flash_0_data+0xf0f01f88>
    2bb8:	da011d17 	ldw	r8,1140(sp)
    2bbc:	d8c11c17 	ldw	r3,1136(sp)
    2bc0:	da400404 	addi	r9,sp,16
    2bc4:	003dee06 	br	2380 <__alt_mem_onchip_flash_0_data+0xf0f02380>
    2bc8:	00c00084 	movi	r3,2
    2bcc:	bd84b03a 	or	r2,r23,r22
    2bd0:	d8012585 	stb	zero,1174(sp)
    2bd4:	003c3006 	br	1c98 <__alt_mem_onchip_flash_0_data+0xf0f01c98>
    2bd8:	d8813217 	ldw	r2,1224(sp)
    2bdc:	14ffffc4 	addi	r19,r2,-1
    2be0:	04ff630e 	bge	zero,r19,2970 <__alt_mem_onchip_flash_0_data+0xf0f02970>
    2be4:	05800404 	movi	r22,16
    2be8:	050000f4 	movhi	r20,3
    2bec:	a5010f84 	addi	r20,r20,1086
    2bf0:	b4c03c0e 	bge	r22,r19,2ce4 <___vfprintf_internal_r+0x13a8>
    2bf4:	05c001c4 	movi	r23,7
    2bf8:	df012917 	ldw	fp,1188(sp)
    2bfc:	00000306 	br	2c0c <___vfprintf_internal_r+0x12d0>
    2c00:	94800204 	addi	r18,r18,8
    2c04:	9cfffc04 	addi	r19,r19,-16
    2c08:	b4c0360e 	bge	r22,r19,2ce4 <___vfprintf_internal_r+0x13a8>
    2c0c:	95000015 	stw	r20,0(r18)
    2c10:	95800115 	stw	r22,4(r18)
    2c14:	42000404 	addi	r8,r8,16
    2c18:	18c00044 	addi	r3,r3,1
    2c1c:	da011d15 	stw	r8,1140(sp)
    2c20:	d8c11c15 	stw	r3,1136(sp)
    2c24:	b8fff60e 	bge	r23,r3,2c00 <__alt_mem_onchip_flash_0_data+0xf0f02c00>
    2c28:	8809883a 	mov	r4,r17
    2c2c:	e00b883a 	mov	r5,fp
    2c30:	d9811b04 	addi	r6,sp,1132
    2c34:	00019080 	call	1908 <__sprint_r>
    2c38:	103cd31e 	bne	r2,zero,1f88 <__alt_mem_onchip_flash_0_data+0xf0f01f88>
    2c3c:	da011d17 	ldw	r8,1140(sp)
    2c40:	d8c11c17 	ldw	r3,1136(sp)
    2c44:	dc800404 	addi	r18,sp,16
    2c48:	003fee06 	br	2c04 <__alt_mem_onchip_flash_0_data+0xf0f02c04>
    2c4c:	8088703a 	and	r4,r16,r2
    2c50:	203f1d1e 	bne	r4,zero,28c8 <__alt_mem_onchip_flash_0_data+0xf0f028c8>
    2c54:	48800115 	stw	r2,4(r9)
    2c58:	42000044 	addi	r8,r8,1
    2c5c:	18c00044 	addi	r3,r3,1
    2c60:	da011d15 	stw	r8,1140(sp)
    2c64:	d8c11c15 	stw	r3,1136(sp)
    2c68:	008001c4 	movi	r2,7
    2c6c:	10c00216 	blt	r2,r3,2c78 <___vfprintf_internal_r+0x133c>
    2c70:	4c800204 	addi	r18,r9,8
    2c74:	003f3e06 	br	2970 <__alt_mem_onchip_flash_0_data+0xf0f02970>
    2c78:	d9412917 	ldw	r5,1188(sp)
    2c7c:	8809883a 	mov	r4,r17
    2c80:	d9811b04 	addi	r6,sp,1132
    2c84:	00019080 	call	1908 <__sprint_r>
    2c88:	103cbf1e 	bne	r2,zero,1f88 <__alt_mem_onchip_flash_0_data+0xf0f01f88>
    2c8c:	dc800404 	addi	r18,sp,16
    2c90:	da011d17 	ldw	r8,1140(sp)
    2c94:	d8c11c17 	ldw	r3,1136(sp)
    2c98:	003f3506 	br	2970 <__alt_mem_onchip_flash_0_data+0xf0f02970>
    2c9c:	d9412917 	ldw	r5,1188(sp)
    2ca0:	8809883a 	mov	r4,r17
    2ca4:	d9811b04 	addi	r6,sp,1132
    2ca8:	00019080 	call	1908 <__sprint_r>
    2cac:	103cb61e 	bne	r2,zero,1f88 <__alt_mem_onchip_flash_0_data+0xf0f01f88>
    2cb0:	da011d17 	ldw	r8,1140(sp)
    2cb4:	d8c11c17 	ldw	r3,1136(sp)
    2cb8:	da400404 	addi	r9,sp,16
    2cbc:	003f0b06 	br	28ec <__alt_mem_onchip_flash_0_data+0xf0f028ec>
    2cc0:	d9412917 	ldw	r5,1188(sp)
    2cc4:	8809883a 	mov	r4,r17
    2cc8:	d9811b04 	addi	r6,sp,1132
    2ccc:	00019080 	call	1908 <__sprint_r>
    2cd0:	103cad1e 	bne	r2,zero,1f88 <__alt_mem_onchip_flash_0_data+0xf0f01f88>
    2cd4:	da011d17 	ldw	r8,1140(sp)
    2cd8:	d8c11c17 	ldw	r3,1136(sp)
    2cdc:	dc800404 	addi	r18,sp,16
    2ce0:	003f0d06 	br	2918 <__alt_mem_onchip_flash_0_data+0xf0f02918>
    2ce4:	95000015 	stw	r20,0(r18)
    2ce8:	94c00115 	stw	r19,4(r18)
    2cec:	44d1883a 	add	r8,r8,r19
    2cf0:	003f1906 	br	2958 <__alt_mem_onchip_flash_0_data+0xf0f02958>
    2cf4:	d9412917 	ldw	r5,1188(sp)
    2cf8:	8809883a 	mov	r4,r17
    2cfc:	d9811b04 	addi	r6,sp,1132
    2d00:	00019080 	call	1908 <__sprint_r>
    2d04:	103ca01e 	bne	r2,zero,1f88 <__alt_mem_onchip_flash_0_data+0xf0f01f88>
    2d08:	da011d17 	ldw	r8,1140(sp)
    2d0c:	d8c11c17 	ldw	r3,1136(sp)
    2d10:	da400404 	addi	r9,sp,16
    2d14:	003db706 	br	23f4 <__alt_mem_onchip_flash_0_data+0xf0f023f4>
    2d18:	4d000015 	stw	r20,0(r9)
    2d1c:	4c800115 	stw	r18,4(r9)
    2d20:	4491883a 	add	r8,r8,r18
    2d24:	003de706 	br	24c4 <__alt_mem_onchip_flash_0_data+0xf0f024c4>
    2d28:	8080100c 	andi	r2,r16,64
    2d2c:	10010226 	beq	r2,zero,3138 <___vfprintf_internal_r+0x17fc>
    2d30:	d8812d17 	ldw	r2,1204(sp)
    2d34:	002d883a 	mov	r22,zero
    2d38:	00c00044 	movi	r3,1
    2d3c:	15c0000b 	ldhu	r23,0(r2)
    2d40:	10800104 	addi	r2,r2,4
    2d44:	d8812d15 	stw	r2,1204(sp)
    2d48:	d8012585 	stb	zero,1174(sp)
    2d4c:	b805883a 	mov	r2,r23
    2d50:	003bd106 	br	1c98 <__alt_mem_onchip_flash_0_data+0xf0f01c98>
    2d54:	d9012d17 	ldw	r4,1204(sp)
    2d58:	25800017 	ldw	r22,0(r4)
    2d5c:	25000117 	ldw	r20,4(r4)
    2d60:	21000204 	addi	r4,r4,8
    2d64:	d9012d15 	stw	r4,1204(sp)
    2d68:	dd813315 	stw	r22,1228(sp)
    2d6c:	dd013415 	stw	r20,1232(sp)
    2d70:	003d2b06 	br	2220 <__alt_mem_onchip_flash_0_data+0xf0f02220>
    2d74:	8080100c 	andi	r2,r16,64
    2d78:	1000fe26 	beq	r2,zero,3174 <___vfprintf_internal_r+0x1838>
    2d7c:	d9012d17 	ldw	r4,1204(sp)
    2d80:	002d883a 	mov	r22,zero
    2d84:	0007883a 	mov	r3,zero
    2d88:	25c0000b 	ldhu	r23,0(r4)
    2d8c:	21000104 	addi	r4,r4,4
    2d90:	d9012d15 	stw	r4,1204(sp)
    2d94:	b805883a 	mov	r2,r23
    2d98:	d8012585 	stb	zero,1174(sp)
    2d9c:	003bbe06 	br	1c98 <__alt_mem_onchip_flash_0_data+0xf0f01c98>
    2da0:	8080100c 	andi	r2,r16,64
    2da4:	1000ed26 	beq	r2,zero,315c <___vfprintf_internal_r+0x1820>
    2da8:	d9012d17 	ldw	r4,1204(sp)
    2dac:	002d883a 	mov	r22,zero
    2db0:	25c0000b 	ldhu	r23,0(r4)
    2db4:	21000104 	addi	r4,r4,4
    2db8:	d9012d15 	stw	r4,1204(sp)
    2dbc:	003cd206 	br	2108 <__alt_mem_onchip_flash_0_data+0xf0f02108>
    2dc0:	00c00084 	movi	r3,2
    2dc4:	d8012585 	stb	zero,1174(sp)
    2dc8:	003bb306 	br	1c98 <__alt_mem_onchip_flash_0_data+0xf0f01c98>
    2dcc:	8080040c 	andi	r2,r16,16
    2dd0:	1000f11e 	bne	r2,zero,3198 <___vfprintf_internal_r+0x185c>
    2dd4:	8400100c 	andi	r16,r16,64
    2dd8:	80015526 	beq	r16,zero,3330 <___vfprintf_internal_r+0x19f4>
    2ddc:	da012d17 	ldw	r8,1204(sp)
    2de0:	d8c12c17 	ldw	r3,1200(sp)
    2de4:	40800017 	ldw	r2,0(r8)
    2de8:	42000104 	addi	r8,r8,4
    2dec:	da012d15 	stw	r8,1204(sp)
    2df0:	10c0000d 	sth	r3,0(r2)
    2df4:	003b0706 	br	1a14 <__alt_mem_onchip_flash_0_data+0xf0f01a14>
    2df8:	8080100c 	andi	r2,r16,64
    2dfc:	1000c726 	beq	r2,zero,311c <___vfprintf_internal_r+0x17e0>
    2e00:	da012d17 	ldw	r8,1204(sp)
    2e04:	45c0000f 	ldh	r23,0(r8)
    2e08:	42000104 	addi	r8,r8,4
    2e0c:	da012d15 	stw	r8,1204(sp)
    2e10:	b82dd7fa 	srai	r22,r23,31
    2e14:	b005883a 	mov	r2,r22
    2e18:	003c1006 	br	1e5c <__alt_mem_onchip_flash_0_data+0xf0f01e5c>
    2e1c:	ac800007 	ldb	r18,0(r21)
    2e20:	003b2406 	br	1ab4 <__alt_mem_onchip_flash_0_data+0xf0f01ab4>
    2e24:	4c800115 	stw	r18,4(r9)
    2e28:	9211883a 	add	r8,r18,r8
    2e2c:	18c00044 	addi	r3,r3,1
    2e30:	da011d15 	stw	r8,1140(sp)
    2e34:	d8c11c15 	stw	r3,1136(sp)
    2e38:	008001c4 	movi	r2,7
    2e3c:	10c15416 	blt	r2,r3,3390 <___vfprintf_internal_r+0x1a54>
    2e40:	4a400204 	addi	r9,r9,8
    2e44:	d8813717 	ldw	r2,1244(sp)
    2e48:	9ca7883a 	add	r19,r19,r18
    2e4c:	48800015 	stw	r2,0(r9)
    2e50:	00800044 	movi	r2,1
    2e54:	48800115 	stw	r2,4(r9)
    2e58:	4091883a 	add	r8,r8,r2
    2e5c:	1887883a 	add	r3,r3,r2
    2e60:	da011d15 	stw	r8,1140(sp)
    2e64:	d8c11c15 	stw	r3,1136(sp)
    2e68:	008001c4 	movi	r2,7
    2e6c:	10c14016 	blt	r2,r3,3370 <___vfprintf_internal_r+0x1a34>
    2e70:	4a400204 	addi	r9,r9,8
    2e74:	d9013217 	ldw	r4,1224(sp)
    2e78:	da011d17 	ldw	r8,1140(sp)
    2e7c:	d8c11c17 	ldw	r3,1136(sp)
    2e80:	24a5c83a 	sub	r18,r4,r18
    2e84:	4cc00015 	stw	r19,0(r9)
    2e88:	003fa406 	br	2d1c <__alt_mem_onchip_flash_0_data+0xf0f02d1c>
    2e8c:	04c000f4 	movhi	r19,3
    2e90:	9cc0fc04 	addi	r19,r19,1008
    2e94:	003cf406 	br	2268 <__alt_mem_onchip_flash_0_data+0xf0f02268>
    2e98:	d9412917 	ldw	r5,1188(sp)
    2e9c:	8809883a 	mov	r4,r17
    2ea0:	d9811b04 	addi	r6,sp,1132
    2ea4:	00019080 	call	1908 <__sprint_r>
    2ea8:	103c371e 	bne	r2,zero,1f88 <__alt_mem_onchip_flash_0_data+0xf0f01f88>
    2eac:	da011d17 	ldw	r8,1140(sp)
    2eb0:	da400404 	addi	r9,sp,16
    2eb4:	003e1c06 	br	2728 <__alt_mem_onchip_flash_0_data+0xf0f02728>
    2eb8:	008000f4 	movhi	r2,3
    2ebc:	10810b04 	addi	r2,r2,1068
    2ec0:	48800015 	stw	r2,0(r9)
    2ec4:	00800044 	movi	r2,1
    2ec8:	48800115 	stw	r2,4(r9)
    2ecc:	4091883a 	add	r8,r8,r2
    2ed0:	1887883a 	add	r3,r3,r2
    2ed4:	da011d15 	stw	r8,1140(sp)
    2ed8:	d8c11c15 	stw	r3,1136(sp)
    2edc:	008001c4 	movi	r2,7
    2ee0:	10c0c316 	blt	r2,r3,31f0 <___vfprintf_internal_r+0x18b4>
    2ee4:	4a400204 	addi	r9,r9,8
    2ee8:	9000041e 	bne	r18,zero,2efc <___vfprintf_internal_r+0x15c0>
    2eec:	d8c13217 	ldw	r3,1224(sp)
    2ef0:	1800021e 	bne	r3,zero,2efc <___vfprintf_internal_r+0x15c0>
    2ef4:	8080004c 	andi	r2,r16,1
    2ef8:	103d7826 	beq	r2,zero,24dc <__alt_mem_onchip_flash_0_data+0xf0f024dc>
    2efc:	d8c11c17 	ldw	r3,1136(sp)
    2f00:	d9013717 	ldw	r4,1244(sp)
    2f04:	00800044 	movi	r2,1
    2f08:	48800115 	stw	r2,4(r9)
    2f0c:	49000015 	stw	r4,0(r9)
    2f10:	4091883a 	add	r8,r8,r2
    2f14:	1887883a 	add	r3,r3,r2
    2f18:	da011d15 	stw	r8,1140(sp)
    2f1c:	d8c11c15 	stw	r3,1136(sp)
    2f20:	008001c4 	movi	r2,7
    2f24:	10c12e16 	blt	r2,r3,33e0 <___vfprintf_internal_r+0x1aa4>
    2f28:	4a400204 	addi	r9,r9,8
    2f2c:	04a5c83a 	sub	r18,zero,r18
    2f30:	0480de0e 	bge	zero,r18,32ac <___vfprintf_internal_r+0x1970>
    2f34:	05800404 	movi	r22,16
    2f38:	050000f4 	movhi	r20,3
    2f3c:	a5010f84 	addi	r20,r20,1086
    2f40:	b480e20e 	bge	r22,r18,32cc <___vfprintf_internal_r+0x1990>
    2f44:	05c001c4 	movi	r23,7
    2f48:	df012917 	ldw	fp,1188(sp)
    2f4c:	00000306 	br	2f5c <___vfprintf_internal_r+0x1620>
    2f50:	4a400204 	addi	r9,r9,8
    2f54:	94bffc04 	addi	r18,r18,-16
    2f58:	b480dc0e 	bge	r22,r18,32cc <___vfprintf_internal_r+0x1990>
    2f5c:	4d000015 	stw	r20,0(r9)
    2f60:	4d800115 	stw	r22,4(r9)
    2f64:	42000404 	addi	r8,r8,16
    2f68:	18c00044 	addi	r3,r3,1
    2f6c:	da011d15 	stw	r8,1140(sp)
    2f70:	d8c11c15 	stw	r3,1136(sp)
    2f74:	b8fff60e 	bge	r23,r3,2f50 <__alt_mem_onchip_flash_0_data+0xf0f02f50>
    2f78:	8809883a 	mov	r4,r17
    2f7c:	e00b883a 	mov	r5,fp
    2f80:	d9811b04 	addi	r6,sp,1132
    2f84:	00019080 	call	1908 <__sprint_r>
    2f88:	103bff1e 	bne	r2,zero,1f88 <__alt_mem_onchip_flash_0_data+0xf0f01f88>
    2f8c:	da011d17 	ldw	r8,1140(sp)
    2f90:	d8c11c17 	ldw	r3,1136(sp)
    2f94:	da400404 	addi	r9,sp,16
    2f98:	003fee06 	br	2f54 <__alt_mem_onchip_flash_0_data+0xf0f02f54>
    2f9c:	da413c15 	stw	r9,1264(sp)
    2fa0:	00085b40 	call	85b4 <__isnand>
    2fa4:	da413c17 	ldw	r9,1264(sp)
    2fa8:	1000851e 	bne	r2,zero,31c0 <___vfprintf_internal_r+0x1884>
    2fac:	00bfffc4 	movi	r2,-1
    2fb0:	e0817626 	beq	fp,r2,358c <___vfprintf_internal_r+0x1c50>
    2fb4:	008019c4 	movi	r2,103
    2fb8:	90817126 	beq	r18,r2,3580 <___vfprintf_internal_r+0x1c44>
    2fbc:	008011c4 	movi	r2,71
    2fc0:	90816f26 	beq	r18,r2,3580 <___vfprintf_internal_r+0x1c44>
    2fc4:	82004014 	ori	r8,r16,256
    2fc8:	da012a15 	stw	r8,1192(sp)
    2fcc:	a0017116 	blt	r20,zero,3594 <___vfprintf_internal_r+0x1c58>
    2fd0:	d8012f05 	stb	zero,1212(sp)
    2fd4:	00801984 	movi	r2,102
    2fd8:	90811226 	beq	r18,r2,3424 <___vfprintf_internal_r+0x1ae8>
    2fdc:	00801184 	movi	r2,70
    2fe0:	90811026 	beq	r18,r2,3424 <___vfprintf_internal_r+0x1ae8>
    2fe4:	00801944 	movi	r2,101
    2fe8:	90819b26 	beq	r18,r2,3658 <___vfprintf_internal_r+0x1d1c>
    2fec:	00801144 	movi	r2,69
    2ff0:	90819926 	beq	r18,r2,3658 <___vfprintf_internal_r+0x1d1c>
    2ff4:	e02f883a 	mov	r23,fp
    2ff8:	d8812404 	addi	r2,sp,1168
    2ffc:	d8800115 	stw	r2,4(sp)
    3000:	d8812304 	addi	r2,sp,1164
    3004:	d8800215 	stw	r2,8(sp)
    3008:	d8812204 	addi	r2,sp,1160
    300c:	ddc00015 	stw	r23,0(sp)
    3010:	d8800315 	stw	r2,12(sp)
    3014:	8809883a 	mov	r4,r17
    3018:	b00b883a 	mov	r5,r22
    301c:	a00d883a 	mov	r6,r20
    3020:	01c00084 	movi	r7,2
    3024:	da413c15 	stw	r9,1264(sp)
    3028:	0003ad40 	call	3ad4 <_dtoa_r>
    302c:	1027883a 	mov	r19,r2
    3030:	008019c4 	movi	r2,103
    3034:	da413c17 	ldw	r9,1264(sp)
    3038:	90818c1e 	bne	r18,r2,366c <___vfprintf_internal_r+0x1d30>
    303c:	8080004c 	andi	r2,r16,1
    3040:	10017926 	beq	r2,zero,3628 <___vfprintf_internal_r+0x1cec>
    3044:	00801184 	movi	r2,70
    3048:	9dc7883a 	add	r3,r19,r23
    304c:	90810626 	beq	r18,r2,3468 <___vfprintf_internal_r+0x1b2c>
    3050:	b009883a 	mov	r4,r22
    3054:	a00b883a 	mov	r5,r20
    3058:	000d883a 	mov	r6,zero
    305c:	000f883a 	mov	r7,zero
    3060:	d8c13b15 	stw	r3,1260(sp)
    3064:	da413c15 	stw	r9,1264(sp)
    3068:	000a1700 	call	a170 <__eqdf2>
    306c:	d8c13b17 	ldw	r3,1260(sp)
    3070:	da413c17 	ldw	r9,1264(sp)
    3074:	10000726 	beq	r2,zero,3094 <___vfprintf_internal_r+0x1758>
    3078:	d8812217 	ldw	r2,1160(sp)
    307c:	10c1962e 	bgeu	r2,r3,36d8 <___vfprintf_internal_r+0x1d9c>
    3080:	01000c04 	movi	r4,48
    3084:	11000005 	stb	r4,0(r2)
    3088:	10800044 	addi	r2,r2,1
    308c:	d8812215 	stw	r2,1160(sp)
    3090:	10fffc1e 	bne	r2,r3,3084 <__alt_mem_onchip_flash_0_data+0xf0f03084>
    3094:	1cc7c83a 	sub	r3,r3,r19
    3098:	d8c13215 	stw	r3,1224(sp)
    309c:	008019c4 	movi	r2,103
    30a0:	90810626 	beq	r18,r2,34bc <___vfprintf_internal_r+0x1b80>
    30a4:	008011c4 	movi	r2,71
    30a8:	90810426 	beq	r18,r2,34bc <___vfprintf_internal_r+0x1b80>
    30ac:	00801984 	movi	r2,102
    30b0:	90819a1e 	bne	r18,r2,371c <___vfprintf_internal_r+0x1de0>
    30b4:	d8812417 	ldw	r2,1168(sp)
    30b8:	d8812b15 	stw	r2,1196(sp)
    30bc:	0081880e 	bge	zero,r2,36e0 <___vfprintf_internal_r+0x1da4>
    30c0:	e000021e 	bne	fp,zero,30cc <___vfprintf_internal_r+0x1790>
    30c4:	8400004c 	andi	r16,r16,1
    30c8:	80000426 	beq	r16,zero,30dc <___vfprintf_internal_r+0x17a0>
    30cc:	d8812b17 	ldw	r2,1196(sp)
    30d0:	e2000044 	addi	r8,fp,1
    30d4:	1205883a 	add	r2,r2,r8
    30d8:	d8812b15 	stw	r2,1196(sp)
    30dc:	d8812815 	stw	r2,1184(sp)
    30e0:	10011716 	blt	r2,zero,3540 <___vfprintf_internal_r+0x1c04>
    30e4:	ddc12f07 	ldb	r23,1212(sp)
    30e8:	b800ca26 	beq	r23,zero,3414 <___vfprintf_internal_r+0x1ad8>
    30ec:	00800b44 	movi	r2,45
    30f0:	d8812585 	stb	r2,1174(sp)
    30f4:	dc012a17 	ldw	r16,1192(sp)
    30f8:	d8013115 	stw	zero,1220(sp)
    30fc:	003afe06 	br	1cf8 <__alt_mem_onchip_flash_0_data+0xf0f01cf8>
    3100:	d8812b17 	ldw	r2,1196(sp)
    3104:	d8812815 	stw	r2,1184(sp)
    3108:	10005e16 	blt	r2,zero,3284 <___vfprintf_internal_r+0x1948>
    310c:	d8812583 	ldbu	r2,1174(sp)
    3110:	ddc12d15 	stw	r23,1204(sp)
    3114:	d8013115 	stw	zero,1220(sp)
    3118:	003af306 	br	1ce8 <__alt_mem_onchip_flash_0_data+0xf0f01ce8>
    311c:	d8812d17 	ldw	r2,1204(sp)
    3120:	15c00017 	ldw	r23,0(r2)
    3124:	10800104 	addi	r2,r2,4
    3128:	d8812d15 	stw	r2,1204(sp)
    312c:	b82dd7fa 	srai	r22,r23,31
    3130:	b005883a 	mov	r2,r22
    3134:	003b4906 	br	1e5c <__alt_mem_onchip_flash_0_data+0xf0f01e5c>
    3138:	d8c12d17 	ldw	r3,1204(sp)
    313c:	002d883a 	mov	r22,zero
    3140:	1dc00017 	ldw	r23,0(r3)
    3144:	18c00104 	addi	r3,r3,4
    3148:	d8c12d15 	stw	r3,1204(sp)
    314c:	b805883a 	mov	r2,r23
    3150:	00c00044 	movi	r3,1
    3154:	d8012585 	stb	zero,1174(sp)
    3158:	003acf06 	br	1c98 <__alt_mem_onchip_flash_0_data+0xf0f01c98>
    315c:	da012d17 	ldw	r8,1204(sp)
    3160:	002d883a 	mov	r22,zero
    3164:	45c00017 	ldw	r23,0(r8)
    3168:	42000104 	addi	r8,r8,4
    316c:	da012d15 	stw	r8,1204(sp)
    3170:	003be506 	br	2108 <__alt_mem_onchip_flash_0_data+0xf0f02108>
    3174:	da012d17 	ldw	r8,1204(sp)
    3178:	002d883a 	mov	r22,zero
    317c:	0007883a 	mov	r3,zero
    3180:	45c00017 	ldw	r23,0(r8)
    3184:	42000104 	addi	r8,r8,4
    3188:	da012d15 	stw	r8,1204(sp)
    318c:	b805883a 	mov	r2,r23
    3190:	d8012585 	stb	zero,1174(sp)
    3194:	003ac006 	br	1c98 <__alt_mem_onchip_flash_0_data+0xf0f01c98>
    3198:	d8c12d17 	ldw	r3,1204(sp)
    319c:	d9012c17 	ldw	r4,1200(sp)
    31a0:	18800017 	ldw	r2,0(r3)
    31a4:	18c00104 	addi	r3,r3,4
    31a8:	d8c12d15 	stw	r3,1204(sp)
    31ac:	11000015 	stw	r4,0(r2)
    31b0:	003a1806 	br	1a14 <__alt_mem_onchip_flash_0_data+0xf0f01a14>
    31b4:	073fffc4 	movi	fp,-1
    31b8:	202b883a 	mov	r21,r4
    31bc:	003a3e06 	br	1ab8 <__alt_mem_onchip_flash_0_data+0xf0f01ab8>
    31c0:	008011c4 	movi	r2,71
    31c4:	14809016 	blt	r2,r18,3408 <___vfprintf_internal_r+0x1acc>
    31c8:	04c000f4 	movhi	r19,3
    31cc:	9cc0fd04 	addi	r19,r19,1012
    31d0:	00c000c4 	movi	r3,3
    31d4:	00bfdfc4 	movi	r2,-129
    31d8:	80a0703a 	and	r16,r16,r2
    31dc:	d8c12815 	stw	r3,1184(sp)
    31e0:	d8812583 	ldbu	r2,1174(sp)
    31e4:	d8c12b15 	stw	r3,1196(sp)
    31e8:	d8013115 	stw	zero,1220(sp)
    31ec:	003abe06 	br	1ce8 <__alt_mem_onchip_flash_0_data+0xf0f01ce8>
    31f0:	d9412917 	ldw	r5,1188(sp)
    31f4:	8809883a 	mov	r4,r17
    31f8:	d9811b04 	addi	r6,sp,1132
    31fc:	00019080 	call	1908 <__sprint_r>
    3200:	103b611e 	bne	r2,zero,1f88 <__alt_mem_onchip_flash_0_data+0xf0f01f88>
    3204:	dc812417 	ldw	r18,1168(sp)
    3208:	da011d17 	ldw	r8,1140(sp)
    320c:	da400404 	addi	r9,sp,16
    3210:	003f3506 	br	2ee8 <__alt_mem_onchip_flash_0_data+0xf0f02ee8>
    3214:	ad400044 	addi	r21,r21,1
    3218:	84000814 	ori	r16,r16,32
    321c:	14800047 	ldb	r18,1(r2)
    3220:	003a2406 	br	1ab4 <__alt_mem_onchip_flash_0_data+0xf0f01ab4>
    3224:	d9412917 	ldw	r5,1188(sp)
    3228:	8809883a 	mov	r4,r17
    322c:	d9811b04 	addi	r6,sp,1132
    3230:	00019080 	call	1908 <__sprint_r>
    3234:	103b541e 	bne	r2,zero,1f88 <__alt_mem_onchip_flash_0_data+0xf0f01f88>
    3238:	da011d17 	ldw	r8,1140(sp)
    323c:	da400404 	addi	r9,sp,16
    3240:	003d4a06 	br	276c <__alt_mem_onchip_flash_0_data+0xf0f0276c>
    3244:	4d000015 	stw	r20,0(r9)
    3248:	4c800115 	stw	r18,4(r9)
    324c:	4491883a 	add	r8,r8,r18
    3250:	18c00044 	addi	r3,r3,1
    3254:	da011d15 	stw	r8,1140(sp)
    3258:	d8c11c15 	stw	r3,1136(sp)
    325c:	008001c4 	movi	r2,7
    3260:	10fcdc16 	blt	r2,r3,25d4 <__alt_mem_onchip_flash_0_data+0xf0f025d4>
    3264:	4a400204 	addi	r9,r9,8
    3268:	003ce106 	br	25f0 <__alt_mem_onchip_flash_0_data+0xf0f025f0>
    326c:	da413c15 	stw	r9,1264(sp)
    3270:	000187c0 	call	187c <strlen>
    3274:	d8812b15 	stw	r2,1196(sp)
    3278:	d8812815 	stw	r2,1184(sp)
    327c:	da413c17 	ldw	r9,1264(sp)
    3280:	103fa20e 	bge	r2,zero,310c <__alt_mem_onchip_flash_0_data+0xf0f0310c>
    3284:	d8012815 	stw	zero,1184(sp)
    3288:	003fa006 	br	310c <__alt_mem_onchip_flash_0_data+0xf0f0310c>
    328c:	d9412917 	ldw	r5,1188(sp)
    3290:	8809883a 	mov	r4,r17
    3294:	d9811b04 	addi	r6,sp,1132
    3298:	00019080 	call	1908 <__sprint_r>
    329c:	103b3a1e 	bne	r2,zero,1f88 <__alt_mem_onchip_flash_0_data+0xf0f01f88>
    32a0:	da011d17 	ldw	r8,1140(sp)
    32a4:	d8c11c17 	ldw	r3,1136(sp)
    32a8:	da400404 	addi	r9,sp,16
    32ac:	d8813217 	ldw	r2,1224(sp)
    32b0:	4cc00015 	stw	r19,0(r9)
    32b4:	48800115 	stw	r2,4(r9)
    32b8:	4091883a 	add	r8,r8,r2
    32bc:	003c8106 	br	24c4 <__alt_mem_onchip_flash_0_data+0xf0f024c4>
    32c0:	00800b44 	movi	r2,45
    32c4:	d8812585 	stb	r2,1174(sp)
    32c8:	003be306 	br	2258 <__alt_mem_onchip_flash_0_data+0xf0f02258>
    32cc:	4d000015 	stw	r20,0(r9)
    32d0:	4c800115 	stw	r18,4(r9)
    32d4:	4491883a 	add	r8,r8,r18
    32d8:	18c00044 	addi	r3,r3,1
    32dc:	da011d15 	stw	r8,1140(sp)
    32e0:	d8c11c15 	stw	r3,1136(sp)
    32e4:	008001c4 	movi	r2,7
    32e8:	10ffe816 	blt	r2,r3,328c <__alt_mem_onchip_flash_0_data+0xf0f0328c>
    32ec:	4a400204 	addi	r9,r9,8
    32f0:	003fee06 	br	32ac <__alt_mem_onchip_flash_0_data+0xf0f032ac>
    32f4:	df012b15 	stw	fp,1196(sp)
    32f8:	00800184 	movi	r2,6
    32fc:	1700072e 	bgeu	r2,fp,331c <___vfprintf_internal_r+0x19e0>
    3300:	d8812b15 	stw	r2,1196(sp)
    3304:	d8812815 	stw	r2,1184(sp)
    3308:	ddc12d15 	stw	r23,1204(sp)
    330c:	04c000f4 	movhi	r19,3
    3310:	9cc10904 	addi	r19,r19,1060
    3314:	d8013115 	stw	zero,1220(sp)
    3318:	003a7a06 	br	1d04 <__alt_mem_onchip_flash_0_data+0xf0f01d04>
    331c:	d8812b17 	ldw	r2,1196(sp)
    3320:	d8812815 	stw	r2,1184(sp)
    3324:	103ff80e 	bge	r2,zero,3308 <__alt_mem_onchip_flash_0_data+0xf0f03308>
    3328:	d8012815 	stw	zero,1184(sp)
    332c:	003ff606 	br	3308 <__alt_mem_onchip_flash_0_data+0xf0f03308>
    3330:	d9012d17 	ldw	r4,1204(sp)
    3334:	da012c17 	ldw	r8,1200(sp)
    3338:	20800017 	ldw	r2,0(r4)
    333c:	21000104 	addi	r4,r4,4
    3340:	d9012d15 	stw	r4,1204(sp)
    3344:	12000015 	stw	r8,0(r2)
    3348:	0039b206 	br	1a14 <__alt_mem_onchip_flash_0_data+0xf0f01a14>
    334c:	d9412917 	ldw	r5,1188(sp)
    3350:	8809883a 	mov	r4,r17
    3354:	d9811b04 	addi	r6,sp,1132
    3358:	00019080 	call	1908 <__sprint_r>
    335c:	103b0a1e 	bne	r2,zero,1f88 <__alt_mem_onchip_flash_0_data+0xf0f01f88>
    3360:	dc812417 	ldw	r18,1168(sp)
    3364:	da011d17 	ldw	r8,1140(sp)
    3368:	da400404 	addi	r9,sp,16
    336c:	003def06 	br	2b2c <__alt_mem_onchip_flash_0_data+0xf0f02b2c>
    3370:	d9412917 	ldw	r5,1188(sp)
    3374:	8809883a 	mov	r4,r17
    3378:	d9811b04 	addi	r6,sp,1132
    337c:	00019080 	call	1908 <__sprint_r>
    3380:	103b011e 	bne	r2,zero,1f88 <__alt_mem_onchip_flash_0_data+0xf0f01f88>
    3384:	dc812417 	ldw	r18,1168(sp)
    3388:	da400404 	addi	r9,sp,16
    338c:	003eb906 	br	2e74 <__alt_mem_onchip_flash_0_data+0xf0f02e74>
    3390:	d9412917 	ldw	r5,1188(sp)
    3394:	8809883a 	mov	r4,r17
    3398:	d9811b04 	addi	r6,sp,1132
    339c:	00019080 	call	1908 <__sprint_r>
    33a0:	103af91e 	bne	r2,zero,1f88 <__alt_mem_onchip_flash_0_data+0xf0f01f88>
    33a4:	dc812417 	ldw	r18,1168(sp)
    33a8:	da011d17 	ldw	r8,1140(sp)
    33ac:	d8c11c17 	ldw	r3,1136(sp)
    33b0:	da400404 	addi	r9,sp,16
    33b4:	003ea306 	br	2e44 <__alt_mem_onchip_flash_0_data+0xf0f02e44>
    33b8:	00800244 	movi	r2,9
    33bc:	15fda636 	bltu	r2,r23,2a58 <__alt_mem_onchip_flash_0_data+0xf0f02a58>
    33c0:	dd010e04 	addi	r20,sp,1080
    33c4:	003dc206 	br	2ad0 <__alt_mem_onchip_flash_0_data+0xf0f02ad0>
    33c8:	df012815 	stw	fp,1184(sp)
    33cc:	d8812583 	ldbu	r2,1174(sp)
    33d0:	df012b15 	stw	fp,1196(sp)
    33d4:	ddc12d15 	stw	r23,1204(sp)
    33d8:	d8013115 	stw	zero,1220(sp)
    33dc:	003a4206 	br	1ce8 <__alt_mem_onchip_flash_0_data+0xf0f01ce8>
    33e0:	d9412917 	ldw	r5,1188(sp)
    33e4:	8809883a 	mov	r4,r17
    33e8:	d9811b04 	addi	r6,sp,1132
    33ec:	00019080 	call	1908 <__sprint_r>
    33f0:	103ae51e 	bne	r2,zero,1f88 <__alt_mem_onchip_flash_0_data+0xf0f01f88>
    33f4:	dc812417 	ldw	r18,1168(sp)
    33f8:	da011d17 	ldw	r8,1140(sp)
    33fc:	d8c11c17 	ldw	r3,1136(sp)
    3400:	da400404 	addi	r9,sp,16
    3404:	003ec906 	br	2f2c <__alt_mem_onchip_flash_0_data+0xf0f02f2c>
    3408:	04c000f4 	movhi	r19,3
    340c:	9cc0fe04 	addi	r19,r19,1016
    3410:	003f6f06 	br	31d0 <__alt_mem_onchip_flash_0_data+0xf0f031d0>
    3414:	d8812583 	ldbu	r2,1174(sp)
    3418:	dc012a17 	ldw	r16,1192(sp)
    341c:	d8013115 	stw	zero,1220(sp)
    3420:	003a3106 	br	1ce8 <__alt_mem_onchip_flash_0_data+0xf0f01ce8>
    3424:	d8812404 	addi	r2,sp,1168
    3428:	d8800115 	stw	r2,4(sp)
    342c:	d8812304 	addi	r2,sp,1164
    3430:	d8800215 	stw	r2,8(sp)
    3434:	d8812204 	addi	r2,sp,1160
    3438:	df000015 	stw	fp,0(sp)
    343c:	d8800315 	stw	r2,12(sp)
    3440:	8809883a 	mov	r4,r17
    3444:	b00b883a 	mov	r5,r22
    3448:	a00d883a 	mov	r6,r20
    344c:	01c000c4 	movi	r7,3
    3450:	da413c15 	stw	r9,1264(sp)
    3454:	0003ad40 	call	3ad4 <_dtoa_r>
    3458:	da413c17 	ldw	r9,1264(sp)
    345c:	1027883a 	mov	r19,r2
    3460:	1707883a 	add	r3,r2,fp
    3464:	e02f883a 	mov	r23,fp
    3468:	99000007 	ldb	r4,0(r19)
    346c:	00800c04 	movi	r2,48
    3470:	20800326 	beq	r4,r2,3480 <___vfprintf_internal_r+0x1b44>
    3474:	da812417 	ldw	r10,1168(sp)
    3478:	1a87883a 	add	r3,r3,r10
    347c:	003ef406 	br	3050 <__alt_mem_onchip_flash_0_data+0xf0f03050>
    3480:	b009883a 	mov	r4,r22
    3484:	a00b883a 	mov	r5,r20
    3488:	000d883a 	mov	r6,zero
    348c:	000f883a 	mov	r7,zero
    3490:	d8c13b15 	stw	r3,1260(sp)
    3494:	da413c15 	stw	r9,1264(sp)
    3498:	000a1cc0 	call	a1cc <__nedf2>
    349c:	d8c13b17 	ldw	r3,1260(sp)
    34a0:	da413c17 	ldw	r9,1264(sp)
    34a4:	103ff326 	beq	r2,zero,3474 <__alt_mem_onchip_flash_0_data+0xf0f03474>
    34a8:	00800044 	movi	r2,1
    34ac:	15d5c83a 	sub	r10,r2,r23
    34b0:	da812415 	stw	r10,1168(sp)
    34b4:	1a87883a 	add	r3,r3,r10
    34b8:	003ee506 	br	3050 <__alt_mem_onchip_flash_0_data+0xf0f03050>
    34bc:	d8812417 	ldw	r2,1168(sp)
    34c0:	d8812b15 	stw	r2,1196(sp)
    34c4:	1029883a 	mov	r20,r2
    34c8:	00bfff44 	movi	r2,-3
    34cc:	a0800116 	blt	r20,r2,34d4 <___vfprintf_internal_r+0x1b98>
    34d0:	e5001d0e 	bge	fp,r20,3548 <___vfprintf_internal_r+0x1c0c>
    34d4:	94bfff84 	addi	r18,r18,-2
    34d8:	a53fffc4 	addi	r20,r20,-1
    34dc:	dd012415 	stw	r20,1168(sp)
    34e0:	dc811fc5 	stb	r18,1151(sp)
    34e4:	a0007816 	blt	r20,zero,36c8 <___vfprintf_internal_r+0x1d8c>
    34e8:	00800ac4 	movi	r2,43
    34ec:	d8812005 	stb	r2,1152(sp)
    34f0:	00800244 	movi	r2,9
    34f4:	15002b16 	blt	r2,r20,35a4 <___vfprintf_internal_r+0x1c68>
    34f8:	00800c04 	movi	r2,48
    34fc:	a5000c04 	addi	r20,r20,48
    3500:	d8812045 	stb	r2,1153(sp)
    3504:	dd012085 	stb	r20,1154(sp)
    3508:	d8c120c4 	addi	r3,sp,1155
    350c:	d8811fc4 	addi	r2,sp,1151
    3510:	da013217 	ldw	r8,1224(sp)
    3514:	1885c83a 	sub	r2,r3,r2
    3518:	d8813515 	stw	r2,1236(sp)
    351c:	4085883a 	add	r2,r8,r2
    3520:	d8812b15 	stw	r2,1196(sp)
    3524:	00800044 	movi	r2,1
    3528:	1200610e 	bge	r2,r8,36b0 <___vfprintf_internal_r+0x1d74>
    352c:	d8812b17 	ldw	r2,1196(sp)
    3530:	10800044 	addi	r2,r2,1
    3534:	d8812b15 	stw	r2,1196(sp)
    3538:	d8812815 	stw	r2,1184(sp)
    353c:	103ee90e 	bge	r2,zero,30e4 <__alt_mem_onchip_flash_0_data+0xf0f030e4>
    3540:	d8012815 	stw	zero,1184(sp)
    3544:	003ee706 	br	30e4 <__alt_mem_onchip_flash_0_data+0xf0f030e4>
    3548:	d8812b17 	ldw	r2,1196(sp)
    354c:	da013217 	ldw	r8,1224(sp)
    3550:	12003716 	blt	r2,r8,3630 <___vfprintf_internal_r+0x1cf4>
    3554:	8400004c 	andi	r16,r16,1
    3558:	80000326 	beq	r16,zero,3568 <___vfprintf_internal_r+0x1c2c>
    355c:	d8812b17 	ldw	r2,1196(sp)
    3560:	10800044 	addi	r2,r2,1
    3564:	d8812b15 	stw	r2,1196(sp)
    3568:	d8812815 	stw	r2,1184(sp)
    356c:	10003716 	blt	r2,zero,364c <___vfprintf_internal_r+0x1d10>
    3570:	048019c4 	movi	r18,103
    3574:	003edb06 	br	30e4 <__alt_mem_onchip_flash_0_data+0xf0f030e4>
    3578:	d8012815 	stw	zero,1184(sp)
    357c:	003b6906 	br	2324 <__alt_mem_onchip_flash_0_data+0xf0f02324>
    3580:	e03e901e 	bne	fp,zero,2fc4 <__alt_mem_onchip_flash_0_data+0xf0f02fc4>
    3584:	07000044 	movi	fp,1
    3588:	003e8e06 	br	2fc4 <__alt_mem_onchip_flash_0_data+0xf0f02fc4>
    358c:	07000184 	movi	fp,6
    3590:	003e8c06 	br	2fc4 <__alt_mem_onchip_flash_0_data+0xf0f02fc4>
    3594:	00c00b44 	movi	r3,45
    3598:	a520003c 	xorhi	r20,r20,32768
    359c:	d8c12f05 	stb	r3,1212(sp)
    35a0:	003e8c06 	br	2fd4 <__alt_mem_onchip_flash_0_data+0xf0f02fd4>
    35a4:	d8c11f84 	addi	r3,sp,1150
    35a8:	102f883a 	mov	r23,r2
    35ac:	4839883a 	mov	fp,r9
    35b0:	a009883a 	mov	r4,r20
    35b4:	01400284 	movi	r5,10
    35b8:	182d883a 	mov	r22,r3
    35bc:	00016740 	call	1674 <__modsi3>
    35c0:	10800c04 	addi	r2,r2,48
    35c4:	a009883a 	mov	r4,r20
    35c8:	b0800005 	stb	r2,0(r22)
    35cc:	01400284 	movi	r5,10
    35d0:	00016240 	call	1624 <__divsi3>
    35d4:	1029883a 	mov	r20,r2
    35d8:	b0ffffc4 	addi	r3,r22,-1
    35dc:	b8bff416 	blt	r23,r2,35b0 <__alt_mem_onchip_flash_0_data+0xf0f035b0>
    35e0:	11400c04 	addi	r5,r2,48
    35e4:	b17fffc5 	stb	r5,-1(r22)
    35e8:	d8811fc4 	addi	r2,sp,1151
    35ec:	e013883a 	mov	r9,fp
    35f0:	1880482e 	bgeu	r3,r2,3714 <___vfprintf_internal_r+0x1dd8>
    35f4:	b007883a 	mov	r3,r22
    35f8:	d9012044 	addi	r4,sp,1153
    35fc:	00000206 	br	3608 <___vfprintf_internal_r+0x1ccc>
    3600:	19400003 	ldbu	r5,0(r3)
    3604:	18c00044 	addi	r3,r3,1
    3608:	21400005 	stb	r5,0(r4)
    360c:	21000044 	addi	r4,r4,1
    3610:	10fffb1e 	bne	r2,r3,3600 <__alt_mem_onchip_flash_0_data+0xf0f03600>
    3614:	d8c12004 	addi	r3,sp,1152
    3618:	1d87c83a 	sub	r3,r3,r22
    361c:	d9012044 	addi	r4,sp,1153
    3620:	20c7883a 	add	r3,r4,r3
    3624:	003fba06 	br	3510 <__alt_mem_onchip_flash_0_data+0xf0f03510>
    3628:	d8c12217 	ldw	r3,1160(sp)
    362c:	003e9906 	br	3094 <__alt_mem_onchip_flash_0_data+0xf0f03094>
    3630:	05000b0e 	bge	zero,r20,3660 <___vfprintf_internal_r+0x1d24>
    3634:	05000044 	movi	r20,1
    3638:	da013217 	ldw	r8,1224(sp)
    363c:	a229883a 	add	r20,r20,r8
    3640:	dd012b15 	stw	r20,1196(sp)
    3644:	dd012815 	stw	r20,1184(sp)
    3648:	a03fc90e 	bge	r20,zero,3570 <__alt_mem_onchip_flash_0_data+0xf0f03570>
    364c:	d8012815 	stw	zero,1184(sp)
    3650:	048019c4 	movi	r18,103
    3654:	003ea306 	br	30e4 <__alt_mem_onchip_flash_0_data+0xf0f030e4>
    3658:	e5c00044 	addi	r23,fp,1
    365c:	003e6606 	br	2ff8 <__alt_mem_onchip_flash_0_data+0xf0f02ff8>
    3660:	00800084 	movi	r2,2
    3664:	1529c83a 	sub	r20,r2,r20
    3668:	003ff306 	br	3638 <__alt_mem_onchip_flash_0_data+0xf0f03638>
    366c:	008011c4 	movi	r2,71
    3670:	90be7226 	beq	r18,r2,303c <__alt_mem_onchip_flash_0_data+0xf0f0303c>
    3674:	003e7306 	br	3044 <__alt_mem_onchip_flash_0_data+0xf0f03044>
    3678:	d8812d17 	ldw	r2,1204(sp)
    367c:	ac800043 	ldbu	r18,1(r21)
    3680:	202b883a 	mov	r21,r4
    3684:	17000017 	ldw	fp,0(r2)
    3688:	10800104 	addi	r2,r2,4
    368c:	d8812d15 	stw	r2,1204(sp)
    3690:	e0001b16 	blt	fp,zero,3700 <___vfprintf_internal_r+0x1dc4>
    3694:	94803fcc 	andi	r18,r18,255
    3698:	9480201c 	xori	r18,r18,128
    369c:	94bfe004 	addi	r18,r18,-128
    36a0:	00390406 	br	1ab4 <__alt_mem_onchip_flash_0_data+0xf0f01ab4>
    36a4:	00bfffc4 	movi	r2,-1
    36a8:	d8812c15 	stw	r2,1200(sp)
    36ac:	003a2506 	br	1f44 <__alt_mem_onchip_flash_0_data+0xf0f01f44>
    36b0:	80a0703a 	and	r16,r16,r2
    36b4:	803f9d1e 	bne	r16,zero,352c <__alt_mem_onchip_flash_0_data+0xf0f0352c>
    36b8:	d8812b17 	ldw	r2,1196(sp)
    36bc:	d8812815 	stw	r2,1184(sp)
    36c0:	103e880e 	bge	r2,zero,30e4 <__alt_mem_onchip_flash_0_data+0xf0f030e4>
    36c4:	003f9e06 	br	3540 <__alt_mem_onchip_flash_0_data+0xf0f03540>
    36c8:	00800b44 	movi	r2,45
    36cc:	0529c83a 	sub	r20,zero,r20
    36d0:	d8812005 	stb	r2,1152(sp)
    36d4:	003f8606 	br	34f0 <__alt_mem_onchip_flash_0_data+0xf0f034f0>
    36d8:	1007883a 	mov	r3,r2
    36dc:	003e6d06 	br	3094 <__alt_mem_onchip_flash_0_data+0xf0f03094>
    36e0:	e000021e 	bne	fp,zero,36ec <___vfprintf_internal_r+0x1db0>
    36e4:	8400004c 	andi	r16,r16,1
    36e8:	80000e26 	beq	r16,zero,3724 <___vfprintf_internal_r+0x1de8>
    36ec:	e7000084 	addi	fp,fp,2
    36f0:	df012b15 	stw	fp,1196(sp)
    36f4:	df012815 	stw	fp,1184(sp)
    36f8:	e03e7a0e 	bge	fp,zero,30e4 <__alt_mem_onchip_flash_0_data+0xf0f030e4>
    36fc:	003f9006 	br	3540 <__alt_mem_onchip_flash_0_data+0xf0f03540>
    3700:	94803fcc 	andi	r18,r18,255
    3704:	9480201c 	xori	r18,r18,128
    3708:	073fffc4 	movi	fp,-1
    370c:	94bfe004 	addi	r18,r18,-128
    3710:	0038e806 	br	1ab4 <__alt_mem_onchip_flash_0_data+0xf0f01ab4>
    3714:	d8c12044 	addi	r3,sp,1153
    3718:	003f7d06 	br	3510 <__alt_mem_onchip_flash_0_data+0xf0f03510>
    371c:	dd012417 	ldw	r20,1168(sp)
    3720:	003f6d06 	br	34d8 <__alt_mem_onchip_flash_0_data+0xf0f034d8>
    3724:	00c00044 	movi	r3,1
    3728:	d8c12815 	stw	r3,1184(sp)
    372c:	d8c12b15 	stw	r3,1196(sp)
    3730:	003e6c06 	br	30e4 <__alt_mem_onchip_flash_0_data+0xf0f030e4>

00003734 <__vfprintf_internal>:
    3734:	008000f4 	movhi	r2,3
    3738:	1088af04 	addi	r2,r2,8892
    373c:	2007883a 	mov	r3,r4
    3740:	11000017 	ldw	r4,0(r2)
    3744:	2805883a 	mov	r2,r5
    3748:	300f883a 	mov	r7,r6
    374c:	180b883a 	mov	r5,r3
    3750:	100d883a 	mov	r6,r2
    3754:	000193c1 	jmpi	193c <___vfprintf_internal_r>

00003758 <__swsetup_r>:
    3758:	008000f4 	movhi	r2,3
    375c:	1088af04 	addi	r2,r2,8892
    3760:	10800017 	ldw	r2,0(r2)
    3764:	defffd04 	addi	sp,sp,-12
    3768:	dc400115 	stw	r17,4(sp)
    376c:	dc000015 	stw	r16,0(sp)
    3770:	dfc00215 	stw	ra,8(sp)
    3774:	2023883a 	mov	r17,r4
    3778:	2821883a 	mov	r16,r5
    377c:	10000226 	beq	r2,zero,3788 <__swsetup_r+0x30>
    3780:	10c00e17 	ldw	r3,56(r2)
    3784:	18003d26 	beq	r3,zero,387c <__swsetup_r+0x124>
    3788:	8080030b 	ldhu	r2,12(r16)
    378c:	10c0020c 	andi	r3,r2,8
    3790:	18ffffcc 	andi	r3,r3,65535
    3794:	18e0001c 	xori	r3,r3,32768
    3798:	18e00004 	addi	r3,r3,-32768
    379c:	18001226 	beq	r3,zero,37e8 <__swsetup_r+0x90>
    37a0:	80c00417 	ldw	r3,16(r16)
    37a4:	18001f26 	beq	r3,zero,3824 <__swsetup_r+0xcc>
    37a8:	1100004c 	andi	r4,r2,1
    37ac:	2000261e 	bne	r4,zero,3848 <__swsetup_r+0xf0>
    37b0:	1080008c 	andi	r2,r2,2
    37b4:	10bfffcc 	andi	r2,r2,65535
    37b8:	10a0001c 	xori	r2,r2,32768
    37bc:	10a00004 	addi	r2,r2,-32768
    37c0:	1000311e 	bne	r2,zero,3888 <__swsetup_r+0x130>
    37c4:	80800517 	ldw	r2,20(r16)
    37c8:	80800215 	stw	r2,8(r16)
    37cc:	18002326 	beq	r3,zero,385c <__swsetup_r+0x104>
    37d0:	0005883a 	mov	r2,zero
    37d4:	dfc00217 	ldw	ra,8(sp)
    37d8:	dc400117 	ldw	r17,4(sp)
    37dc:	dc000017 	ldw	r16,0(sp)
    37e0:	dec00304 	addi	sp,sp,12
    37e4:	f800283a 	ret
    37e8:	10c0040c 	andi	r3,r2,16
    37ec:	18ffffcc 	andi	r3,r3,65535
    37f0:	18e0001c 	xori	r3,r3,32768
    37f4:	18e00004 	addi	r3,r3,-32768
    37f8:	18001e26 	beq	r3,zero,3874 <__swsetup_r+0x11c>
    37fc:	10c0010c 	andi	r3,r2,4
    3800:	18ffffcc 	andi	r3,r3,65535
    3804:	18e0001c 	xori	r3,r3,32768
    3808:	18e00004 	addi	r3,r3,-32768
    380c:	1800211e 	bne	r3,zero,3894 <__swsetup_r+0x13c>
    3810:	80c00417 	ldw	r3,16(r16)
    3814:	11400214 	ori	r5,r2,8
    3818:	8140030d 	sth	r5,12(r16)
    381c:	2805883a 	mov	r2,r5
    3820:	183fe11e 	bne	r3,zero,37a8 <__alt_mem_onchip_flash_0_data+0xf0f037a8>
    3824:	1140a00c 	andi	r5,r2,640
    3828:	01008004 	movi	r4,512
    382c:	293fde26 	beq	r5,r4,37a8 <__alt_mem_onchip_flash_0_data+0xf0f037a8>
    3830:	8809883a 	mov	r4,r17
    3834:	800b883a 	mov	r5,r16
    3838:	000610c0 	call	610c <__smakebuf_r>
    383c:	8080030b 	ldhu	r2,12(r16)
    3840:	80c00417 	ldw	r3,16(r16)
    3844:	003fd806 	br	37a8 <__alt_mem_onchip_flash_0_data+0xf0f037a8>
    3848:	80800517 	ldw	r2,20(r16)
    384c:	80000215 	stw	zero,8(r16)
    3850:	0085c83a 	sub	r2,zero,r2
    3854:	80800615 	stw	r2,24(r16)
    3858:	183fdd1e 	bne	r3,zero,37d0 <__alt_mem_onchip_flash_0_data+0xf0f037d0>
    385c:	8080030b 	ldhu	r2,12(r16)
    3860:	1080200c 	andi	r2,r2,128
    3864:	10bfffcc 	andi	r2,r2,65535
    3868:	10a0001c 	xori	r2,r2,32768
    386c:	10a00004 	addi	r2,r2,-32768
    3870:	103fd826 	beq	r2,zero,37d4 <__alt_mem_onchip_flash_0_data+0xf0f037d4>
    3874:	00bfffc4 	movi	r2,-1
    3878:	003fd606 	br	37d4 <__alt_mem_onchip_flash_0_data+0xf0f037d4>
    387c:	1009883a 	mov	r4,r2
    3880:	00053980 	call	5398 <__sinit>
    3884:	003fc006 	br	3788 <__alt_mem_onchip_flash_0_data+0xf0f03788>
    3888:	0005883a 	mov	r2,zero
    388c:	80800215 	stw	r2,8(r16)
    3890:	003fce06 	br	37cc <__alt_mem_onchip_flash_0_data+0xf0f037cc>
    3894:	81400c17 	ldw	r5,48(r16)
    3898:	28000626 	beq	r5,zero,38b4 <__swsetup_r+0x15c>
    389c:	80c01004 	addi	r3,r16,64
    38a0:	28c00326 	beq	r5,r3,38b0 <__swsetup_r+0x158>
    38a4:	8809883a 	mov	r4,r17
    38a8:	000571c0 	call	571c <_free_r>
    38ac:	8080030b 	ldhu	r2,12(r16)
    38b0:	80000c15 	stw	zero,48(r16)
    38b4:	80c00417 	ldw	r3,16(r16)
    38b8:	013ff6c4 	movi	r4,-37
    38bc:	2084703a 	and	r2,r4,r2
    38c0:	80000115 	stw	zero,4(r16)
    38c4:	80c00015 	stw	r3,0(r16)
    38c8:	003fd206 	br	3814 <__alt_mem_onchip_flash_0_data+0xf0f03814>

000038cc <quorem>:
    38cc:	defff704 	addi	sp,sp,-36
    38d0:	dc400115 	stw	r17,4(sp)
    38d4:	20800417 	ldw	r2,16(r4)
    38d8:	2c400417 	ldw	r17,16(r5)
    38dc:	dd800615 	stw	r22,24(sp)
    38e0:	dd400515 	stw	r21,20(sp)
    38e4:	dfc00815 	stw	ra,32(sp)
    38e8:	ddc00715 	stw	r23,28(sp)
    38ec:	dd000415 	stw	r20,16(sp)
    38f0:	dcc00315 	stw	r19,12(sp)
    38f4:	dc800215 	stw	r18,8(sp)
    38f8:	dc000015 	stw	r16,0(sp)
    38fc:	202b883a 	mov	r21,r4
    3900:	282d883a 	mov	r22,r5
    3904:	14407116 	blt	r2,r17,3acc <quorem+0x200>
    3908:	88800104 	addi	r2,r17,4
    390c:	1085883a 	add	r2,r2,r2
    3910:	1085883a 	add	r2,r2,r2
    3914:	28a7883a 	add	r19,r5,r2
    3918:	2085883a 	add	r2,r4,r2
    391c:	15c00017 	ldw	r23,0(r2)
    3920:	99400017 	ldw	r5,0(r19)
    3924:	8c7fffc4 	addi	r17,r17,-1
    3928:	b809883a 	mov	r4,r23
    392c:	29400044 	addi	r5,r5,1
    3930:	00016d00 	call	16d0 <__udivsi3>
    3934:	1025883a 	mov	r18,r2
    3938:	b4000504 	addi	r16,r22,20
    393c:	ad000504 	addi	r20,r21,20
    3940:	10002d26 	beq	r2,zero,39f8 <quorem+0x12c>
    3944:	800d883a 	mov	r6,r16
    3948:	a007883a 	mov	r3,r20
    394c:	000f883a 	mov	r7,zero
    3950:	0005883a 	mov	r2,zero
    3954:	32c00017 	ldw	r11,0(r6)
    3958:	1a400017 	ldw	r9,0(r3)
    395c:	31800104 	addi	r6,r6,4
    3960:	5abfffcc 	andi	r10,r11,65535
    3964:	5495383a 	mul	r10,r10,r18
    3968:	5816d43a 	srli	r11,r11,16
    396c:	4a3fffcc 	andi	r8,r9,65535
    3970:	3a95883a 	add	r10,r7,r10
    3974:	500ed43a 	srli	r7,r10,16
    3978:	5c97383a 	mul	r11,r11,r18
    397c:	4085883a 	add	r2,r8,r2
    3980:	52bfffcc 	andi	r10,r10,65535
    3984:	1291c83a 	sub	r8,r2,r10
    3988:	4804d43a 	srli	r2,r9,16
    398c:	3acf883a 	add	r7,r7,r11
    3990:	4015d43a 	srai	r10,r8,16
    3994:	393fffcc 	andi	r4,r7,65535
    3998:	1105c83a 	sub	r2,r2,r4
    399c:	1285883a 	add	r2,r2,r10
    39a0:	1880008d 	sth	r2,2(r3)
    39a4:	1a00000d 	sth	r8,0(r3)
    39a8:	380ed43a 	srli	r7,r7,16
    39ac:	1005d43a 	srai	r2,r2,16
    39b0:	18c00104 	addi	r3,r3,4
    39b4:	99bfe72e 	bgeu	r19,r6,3954 <__alt_mem_onchip_flash_0_data+0xf0f03954>
    39b8:	b8000f1e 	bne	r23,zero,39f8 <quorem+0x12c>
    39bc:	88800144 	addi	r2,r17,5
    39c0:	1085883a 	add	r2,r2,r2
    39c4:	1085883a 	add	r2,r2,r2
    39c8:	a887883a 	add	r3,r21,r2
    39cc:	18bfff04 	addi	r2,r3,-4
    39d0:	a080082e 	bgeu	r20,r2,39f4 <quorem+0x128>
    39d4:	18ffff17 	ldw	r3,-4(r3)
    39d8:	18000326 	beq	r3,zero,39e8 <quorem+0x11c>
    39dc:	00000506 	br	39f4 <quorem+0x128>
    39e0:	10c00017 	ldw	r3,0(r2)
    39e4:	1800031e 	bne	r3,zero,39f4 <quorem+0x128>
    39e8:	10bfff04 	addi	r2,r2,-4
    39ec:	8c7fffc4 	addi	r17,r17,-1
    39f0:	a0bffb36 	bltu	r20,r2,39e0 <__alt_mem_onchip_flash_0_data+0xf0f039e0>
    39f4:	ac400415 	stw	r17,16(r21)
    39f8:	a809883a 	mov	r4,r21
    39fc:	b00b883a 	mov	r5,r22
    3a00:	00076d00 	call	76d0 <__mcmp>
    3a04:	10002516 	blt	r2,zero,3a9c <quorem+0x1d0>
    3a08:	94800044 	addi	r18,r18,1
    3a0c:	a007883a 	mov	r3,r20
    3a10:	000b883a 	mov	r5,zero
    3a14:	1a000017 	ldw	r8,0(r3)
    3a18:	81c00017 	ldw	r7,0(r16)
    3a1c:	84000104 	addi	r16,r16,4
    3a20:	41bfffcc 	andi	r6,r8,65535
    3a24:	38bfffcc 	andi	r2,r7,65535
    3a28:	314b883a 	add	r5,r6,r5
    3a2c:	288dc83a 	sub	r6,r5,r2
    3a30:	380ed43a 	srli	r7,r7,16
    3a34:	400ad43a 	srli	r5,r8,16
    3a38:	3005d43a 	srai	r2,r6,16
    3a3c:	1980000d 	sth	r6,0(r3)
    3a40:	29cbc83a 	sub	r5,r5,r7
    3a44:	288b883a 	add	r5,r5,r2
    3a48:	1940008d 	sth	r5,2(r3)
    3a4c:	280bd43a 	srai	r5,r5,16
    3a50:	18c00104 	addi	r3,r3,4
    3a54:	9c3fef2e 	bgeu	r19,r16,3a14 <__alt_mem_onchip_flash_0_data+0xf0f03a14>
    3a58:	88800144 	addi	r2,r17,5
    3a5c:	1085883a 	add	r2,r2,r2
    3a60:	1085883a 	add	r2,r2,r2
    3a64:	a885883a 	add	r2,r21,r2
    3a68:	10c00017 	ldw	r3,0(r2)
    3a6c:	18000b1e 	bne	r3,zero,3a9c <quorem+0x1d0>
    3a70:	10ffff04 	addi	r3,r2,-4
    3a74:	a0c0082e 	bgeu	r20,r3,3a98 <quorem+0x1cc>
    3a78:	10bfff17 	ldw	r2,-4(r2)
    3a7c:	10000326 	beq	r2,zero,3a8c <quorem+0x1c0>
    3a80:	00000506 	br	3a98 <quorem+0x1cc>
    3a84:	18800017 	ldw	r2,0(r3)
    3a88:	1000031e 	bne	r2,zero,3a98 <quorem+0x1cc>
    3a8c:	18ffff04 	addi	r3,r3,-4
    3a90:	8c7fffc4 	addi	r17,r17,-1
    3a94:	a0fffb36 	bltu	r20,r3,3a84 <__alt_mem_onchip_flash_0_data+0xf0f03a84>
    3a98:	ac400415 	stw	r17,16(r21)
    3a9c:	9005883a 	mov	r2,r18
    3aa0:	dfc00817 	ldw	ra,32(sp)
    3aa4:	ddc00717 	ldw	r23,28(sp)
    3aa8:	dd800617 	ldw	r22,24(sp)
    3aac:	dd400517 	ldw	r21,20(sp)
    3ab0:	dd000417 	ldw	r20,16(sp)
    3ab4:	dcc00317 	ldw	r19,12(sp)
    3ab8:	dc800217 	ldw	r18,8(sp)
    3abc:	dc400117 	ldw	r17,4(sp)
    3ac0:	dc000017 	ldw	r16,0(sp)
    3ac4:	dec00904 	addi	sp,sp,36
    3ac8:	f800283a 	ret
    3acc:	0005883a 	mov	r2,zero
    3ad0:	003ff306 	br	3aa0 <__alt_mem_onchip_flash_0_data+0xf0f03aa0>

00003ad4 <_dtoa_r>:
    3ad4:	20801017 	ldw	r2,64(r4)
    3ad8:	deffdf04 	addi	sp,sp,-132
    3adc:	dcc01a15 	stw	r19,104(sp)
    3ae0:	dc801915 	stw	r18,100(sp)
    3ae4:	dc401815 	stw	r17,96(sp)
    3ae8:	dc001715 	stw	r16,92(sp)
    3aec:	dfc02015 	stw	ra,128(sp)
    3af0:	df001f15 	stw	fp,124(sp)
    3af4:	ddc01e15 	stw	r23,120(sp)
    3af8:	dd801d15 	stw	r22,116(sp)
    3afc:	dd401c15 	stw	r21,112(sp)
    3b00:	dd001b15 	stw	r20,108(sp)
    3b04:	d9400315 	stw	r5,12(sp)
    3b08:	d9c00415 	stw	r7,16(sp)
    3b0c:	2021883a 	mov	r16,r4
    3b10:	3025883a 	mov	r18,r6
    3b14:	dcc02317 	ldw	r19,140(sp)
    3b18:	3023883a 	mov	r17,r6
    3b1c:	10000826 	beq	r2,zero,3b40 <_dtoa_r+0x6c>
    3b20:	20c01117 	ldw	r3,68(r4)
    3b24:	01800044 	movi	r6,1
    3b28:	100b883a 	mov	r5,r2
    3b2c:	30cc983a 	sll	r6,r6,r3
    3b30:	10c00115 	stw	r3,4(r2)
    3b34:	11800215 	stw	r6,8(r2)
    3b38:	0006ed40 	call	6ed4 <_Bfree>
    3b3c:	80001015 	stw	zero,64(r16)
    3b40:	90002f16 	blt	r18,zero,3c00 <_dtoa_r+0x12c>
    3b44:	98000015 	stw	zero,0(r19)
    3b48:	90dffc2c 	andhi	r3,r18,32752
    3b4c:	009ffc34 	movhi	r2,32752
    3b50:	18801c26 	beq	r3,r2,3bc4 <_dtoa_r+0xf0>
    3b54:	d9000317 	ldw	r4,12(sp)
    3b58:	880b883a 	mov	r5,r17
    3b5c:	000d883a 	mov	r6,zero
    3b60:	000f883a 	mov	r7,zero
    3b64:	000a1cc0 	call	a1cc <__nedf2>
    3b68:	10002c1e 	bne	r2,zero,3c1c <_dtoa_r+0x148>
    3b6c:	d9002217 	ldw	r4,136(sp)
    3b70:	d9c02417 	ldw	r7,144(sp)
    3b74:	00800044 	movi	r2,1
    3b78:	20800015 	stw	r2,0(r4)
    3b7c:	38019426 	beq	r7,zero,41d0 <_dtoa_r+0x6fc>
    3b80:	008000f4 	movhi	r2,3
    3b84:	10810b44 	addi	r2,r2,1069
    3b88:	38800015 	stw	r2,0(r7)
    3b8c:	15ffffc4 	addi	r23,r2,-1
    3b90:	b805883a 	mov	r2,r23
    3b94:	dfc02017 	ldw	ra,128(sp)
    3b98:	df001f17 	ldw	fp,124(sp)
    3b9c:	ddc01e17 	ldw	r23,120(sp)
    3ba0:	dd801d17 	ldw	r22,116(sp)
    3ba4:	dd401c17 	ldw	r21,112(sp)
    3ba8:	dd001b17 	ldw	r20,108(sp)
    3bac:	dcc01a17 	ldw	r19,104(sp)
    3bb0:	dc801917 	ldw	r18,100(sp)
    3bb4:	dc401817 	ldw	r17,96(sp)
    3bb8:	dc001717 	ldw	r16,92(sp)
    3bbc:	dec02104 	addi	sp,sp,132
    3bc0:	f800283a 	ret
    3bc4:	d8c02217 	ldw	r3,136(sp)
    3bc8:	d9000317 	ldw	r4,12(sp)
    3bcc:	0089c3c4 	movi	r2,9999
    3bd0:	18800015 	stw	r2,0(r3)
    3bd4:	20016c26 	beq	r4,zero,4188 <_dtoa_r+0x6b4>
    3bd8:	05c000f4 	movhi	r23,3
    3bdc:	bdc11704 	addi	r23,r23,1116
    3be0:	d9c02417 	ldw	r7,144(sp)
    3be4:	383fea26 	beq	r7,zero,3b90 <__alt_mem_onchip_flash_0_data+0xf0f03b90>
    3be8:	b88000c7 	ldb	r2,3(r23)
    3bec:	10016d1e 	bne	r2,zero,41a4 <_dtoa_r+0x6d0>
    3bf0:	b88000c4 	addi	r2,r23,3
    3bf4:	d8c02417 	ldw	r3,144(sp)
    3bf8:	18800015 	stw	r2,0(r3)
    3bfc:	003fe406 	br	3b90 <__alt_mem_onchip_flash_0_data+0xf0f03b90>
    3c00:	04600034 	movhi	r17,32768
    3c04:	8c7fffc4 	addi	r17,r17,-1
    3c08:	9462703a 	and	r17,r18,r17
    3c0c:	00800044 	movi	r2,1
    3c10:	98800015 	stw	r2,0(r19)
    3c14:	8825883a 	mov	r18,r17
    3c18:	003fcb06 	br	3b48 <__alt_mem_onchip_flash_0_data+0xf0f03b48>
    3c1c:	d9400317 	ldw	r5,12(sp)
    3c20:	9028d53a 	srli	r20,r18,20
    3c24:	d8800204 	addi	r2,sp,8
    3c28:	d8800015 	stw	r2,0(sp)
    3c2c:	8009883a 	mov	r4,r16
    3c30:	880d883a 	mov	r6,r17
    3c34:	d9c00104 	addi	r7,sp,4
    3c38:	0007a780 	call	7a78 <__d2b>
    3c3c:	a501ffcc 	andi	r20,r20,2047
    3c40:	1039883a 	mov	fp,r2
    3c44:	a001591e 	bne	r20,zero,41ac <_dtoa_r+0x6d8>
    3c48:	dd400217 	ldw	r21,8(sp)
    3c4c:	dd000117 	ldw	r20,4(sp)
    3c50:	00befbc4 	movi	r2,-1041
    3c54:	ad29883a 	add	r20,r21,r20
    3c58:	a082d216 	blt	r20,r2,47a4 <_dtoa_r+0xcd0>
    3c5c:	d8c00317 	ldw	r3,12(sp)
    3c60:	013f0384 	movi	r4,-1010
    3c64:	2509c83a 	sub	r4,r4,r20
    3c68:	a0810484 	addi	r2,r20,1042
    3c6c:	9124983a 	sll	r18,r18,r4
    3c70:	1884d83a 	srl	r2,r3,r2
    3c74:	9088b03a 	or	r4,r18,r2
    3c78:	000a4e40 	call	a4e4 <__floatunsidf>
    3c7c:	1009883a 	mov	r4,r2
    3c80:	017f8434 	movhi	r5,65040
    3c84:	00800044 	movi	r2,1
    3c88:	194b883a 	add	r5,r3,r5
    3c8c:	a53fffc4 	addi	r20,r20,-1
    3c90:	d8800f15 	stw	r2,60(sp)
    3c94:	000d883a 	mov	r6,zero
    3c98:	01cffe34 	movhi	r7,16376
    3c9c:	0009cfc0 	call	9cfc <__subdf3>
    3ca0:	1009883a 	mov	r4,r2
    3ca4:	180b883a 	mov	r5,r3
    3ca8:	0198dbf4 	movhi	r6,25455
    3cac:	3190d844 	addi	r6,r6,17249
    3cb0:	01cff4f4 	movhi	r7,16339
    3cb4:	39e1e9c4 	addi	r7,r7,-30809
    3cb8:	0009d5c0 	call	9d5c <__muldf3>
    3cbc:	180b883a 	mov	r5,r3
    3cc0:	01a2d874 	movhi	r6,35681
    3cc4:	31b22cc4 	addi	r6,r6,-14157
    3cc8:	01cff1f4 	movhi	r7,16327
    3ccc:	39e28a04 	addi	r7,r7,-30168
    3cd0:	1009883a 	mov	r4,r2
    3cd4:	0009ca80 	call	9ca8 <__adddf3>
    3cd8:	a009883a 	mov	r4,r20
    3cdc:	1027883a 	mov	r19,r2
    3ce0:	1825883a 	mov	r18,r3
    3ce4:	000a34c0 	call	a34c <__floatsidf>
    3ce8:	1009883a 	mov	r4,r2
    3cec:	180b883a 	mov	r5,r3
    3cf0:	019427f4 	movhi	r6,20639
    3cf4:	319e7ec4 	addi	r6,r6,31227
    3cf8:	01cff4f4 	movhi	r7,16339
    3cfc:	39d104c4 	addi	r7,r7,17427
    3d00:	0009d5c0 	call	9d5c <__muldf3>
    3d04:	9809883a 	mov	r4,r19
    3d08:	900b883a 	mov	r5,r18
    3d0c:	100d883a 	mov	r6,r2
    3d10:	180f883a 	mov	r7,r3
    3d14:	0009ca80 	call	9ca8 <__adddf3>
    3d18:	1009883a 	mov	r4,r2
    3d1c:	180b883a 	mov	r5,r3
    3d20:	1027883a 	mov	r19,r2
    3d24:	1825883a 	mov	r18,r3
    3d28:	000a4200 	call	a420 <__fixdfsi>
    3d2c:	9809883a 	mov	r4,r19
    3d30:	900b883a 	mov	r5,r18
    3d34:	000d883a 	mov	r6,zero
    3d38:	000f883a 	mov	r7,zero
    3d3c:	d8800615 	stw	r2,24(sp)
    3d40:	000a2f00 	call	a2f0 <__ltdf2>
    3d44:	10027e16 	blt	r2,zero,4740 <_dtoa_r+0xc6c>
    3d48:	d8c00617 	ldw	r3,24(sp)
    3d4c:	00800584 	movi	r2,22
    3d50:	10c26c36 	bltu	r2,r3,4704 <_dtoa_r+0xc30>
    3d54:	180490fa 	slli	r2,r3,3
    3d58:	00c000f4 	movhi	r3,3
    3d5c:	18c13d04 	addi	r3,r3,1268
    3d60:	d9800317 	ldw	r6,12(sp)
    3d64:	1885883a 	add	r2,r3,r2
    3d68:	11000017 	ldw	r4,0(r2)
    3d6c:	11400117 	ldw	r5,4(r2)
    3d70:	880f883a 	mov	r7,r17
    3d74:	000a2280 	call	a228 <__gtdf2>
    3d78:	00828f0e 	bge	zero,r2,47b8 <_dtoa_r+0xce4>
    3d7c:	d8800617 	ldw	r2,24(sp)
    3d80:	d8000d15 	stw	zero,52(sp)
    3d84:	10bfffc4 	addi	r2,r2,-1
    3d88:	d8800615 	stw	r2,24(sp)
    3d8c:	ad29c83a 	sub	r20,r21,r20
    3d90:	a53fffc4 	addi	r20,r20,-1
    3d94:	a0026616 	blt	r20,zero,4730 <_dtoa_r+0xc5c>
    3d98:	dd000715 	stw	r20,28(sp)
    3d9c:	d8000815 	stw	zero,32(sp)
    3da0:	d8800617 	ldw	r2,24(sp)
    3da4:	10025a16 	blt	r2,zero,4710 <_dtoa_r+0xc3c>
    3da8:	d8c00717 	ldw	r3,28(sp)
    3dac:	d8800b15 	stw	r2,44(sp)
    3db0:	d8000a15 	stw	zero,40(sp)
    3db4:	1887883a 	add	r3,r3,r2
    3db8:	d8c00715 	stw	r3,28(sp)
    3dbc:	d9c00417 	ldw	r7,16(sp)
    3dc0:	00800244 	movi	r2,9
    3dc4:	11c10536 	bltu	r2,r7,41dc <_dtoa_r+0x708>
    3dc8:	00800144 	movi	r2,5
    3dcc:	11c4c60e 	bge	r2,r7,50e8 <_dtoa_r+0x1614>
    3dd0:	39ffff04 	addi	r7,r7,-4
    3dd4:	d9c00415 	stw	r7,16(sp)
    3dd8:	0027883a 	mov	r19,zero
    3ddc:	d9c00417 	ldw	r7,16(sp)
    3de0:	008000c4 	movi	r2,3
    3de4:	3883a226 	beq	r7,r2,4c70 <_dtoa_r+0x119c>
    3de8:	11c2bc16 	blt	r2,r7,48dc <_dtoa_r+0xe08>
    3dec:	00800084 	movi	r2,2
    3df0:	3880fb1e 	bne	r7,r2,41e0 <_dtoa_r+0x70c>
    3df4:	d8000c15 	stw	zero,48(sp)
    3df8:	d9002117 	ldw	r4,132(sp)
    3dfc:	0103ae0e 	bge	zero,r4,4cb8 <_dtoa_r+0x11e4>
    3e00:	2025883a 	mov	r18,r4
    3e04:	d9000e15 	stw	r4,56(sp)
    3e08:	d9000915 	stw	r4,36(sp)
    3e0c:	80001115 	stw	zero,68(r16)
    3e10:	008005c4 	movi	r2,23
    3e14:	1484b22e 	bgeu	r2,r18,50e0 <_dtoa_r+0x160c>
    3e18:	00c00044 	movi	r3,1
    3e1c:	00800104 	movi	r2,4
    3e20:	1085883a 	add	r2,r2,r2
    3e24:	11000504 	addi	r4,r2,20
    3e28:	180b883a 	mov	r5,r3
    3e2c:	18c00044 	addi	r3,r3,1
    3e30:	913ffb2e 	bgeu	r18,r4,3e20 <__alt_mem_onchip_flash_0_data+0xf0f03e20>
    3e34:	81401115 	stw	r5,68(r16)
    3e38:	8009883a 	mov	r4,r16
    3e3c:	0006e2c0 	call	6e2c <_Balloc>
    3e40:	102f883a 	mov	r23,r2
    3e44:	80801015 	stw	r2,64(r16)
    3e48:	00800384 	movi	r2,14
    3e4c:	1480f036 	bltu	r2,r18,4210 <_dtoa_r+0x73c>
    3e50:	9800ef26 	beq	r19,zero,4210 <_dtoa_r+0x73c>
    3e54:	d8800617 	ldw	r2,24(sp)
    3e58:	00839c0e 	bge	zero,r2,4ccc <_dtoa_r+0x11f8>
    3e5c:	d8c00617 	ldw	r3,24(sp)
    3e60:	108003cc 	andi	r2,r2,15
    3e64:	100490fa 	slli	r2,r2,3
    3e68:	182bd13a 	srai	r21,r3,4
    3e6c:	00c000f4 	movhi	r3,3
    3e70:	18c13d04 	addi	r3,r3,1268
    3e74:	1885883a 	add	r2,r3,r2
    3e78:	a8c0040c 	andi	r3,r21,16
    3e7c:	12800017 	ldw	r10,0(r2)
    3e80:	15800117 	ldw	r22,4(r2)
    3e84:	18038726 	beq	r3,zero,4ca4 <_dtoa_r+0x11d0>
    3e88:	008000f4 	movhi	r2,3
    3e8c:	10813304 	addi	r2,r2,1228
    3e90:	11800817 	ldw	r6,32(r2)
    3e94:	11c00917 	ldw	r7,36(r2)
    3e98:	d9000317 	ldw	r4,12(sp)
    3e9c:	880b883a 	mov	r5,r17
    3ea0:	da801515 	stw	r10,84(sp)
    3ea4:	0009fbc0 	call	9fbc <__divdf3>
    3ea8:	da801517 	ldw	r10,84(sp)
    3eac:	d8801015 	stw	r2,64(sp)
    3eb0:	1829883a 	mov	r20,r3
    3eb4:	ad4003cc 	andi	r21,r21,15
    3eb8:	048000c4 	movi	r18,3
    3ebc:	a8001126 	beq	r21,zero,3f04 <_dtoa_r+0x430>
    3ec0:	04c000f4 	movhi	r19,3
    3ec4:	9cc13304 	addi	r19,r19,1228
    3ec8:	5005883a 	mov	r2,r10
    3ecc:	b007883a 	mov	r3,r22
    3ed0:	a980004c 	andi	r6,r21,1
    3ed4:	1009883a 	mov	r4,r2
    3ed8:	a82bd07a 	srai	r21,r21,1
    3edc:	180b883a 	mov	r5,r3
    3ee0:	30000426 	beq	r6,zero,3ef4 <_dtoa_r+0x420>
    3ee4:	99800017 	ldw	r6,0(r19)
    3ee8:	99c00117 	ldw	r7,4(r19)
    3eec:	94800044 	addi	r18,r18,1
    3ef0:	0009d5c0 	call	9d5c <__muldf3>
    3ef4:	9cc00204 	addi	r19,r19,8
    3ef8:	a83ff51e 	bne	r21,zero,3ed0 <__alt_mem_onchip_flash_0_data+0xf0f03ed0>
    3efc:	1015883a 	mov	r10,r2
    3f00:	182d883a 	mov	r22,r3
    3f04:	d9001017 	ldw	r4,64(sp)
    3f08:	a00b883a 	mov	r5,r20
    3f0c:	500d883a 	mov	r6,r10
    3f10:	b00f883a 	mov	r7,r22
    3f14:	0009fbc0 	call	9fbc <__divdf3>
    3f18:	1027883a 	mov	r19,r2
    3f1c:	1829883a 	mov	r20,r3
    3f20:	d8c00d17 	ldw	r3,52(sp)
    3f24:	18000626 	beq	r3,zero,3f40 <_dtoa_r+0x46c>
    3f28:	9809883a 	mov	r4,r19
    3f2c:	a00b883a 	mov	r5,r20
    3f30:	000d883a 	mov	r6,zero
    3f34:	01cffc34 	movhi	r7,16368
    3f38:	000a2f00 	call	a2f0 <__ltdf2>
    3f3c:	10040e16 	blt	r2,zero,4f78 <_dtoa_r+0x14a4>
    3f40:	9009883a 	mov	r4,r18
    3f44:	000a34c0 	call	a34c <__floatsidf>
    3f48:	1009883a 	mov	r4,r2
    3f4c:	180b883a 	mov	r5,r3
    3f50:	980d883a 	mov	r6,r19
    3f54:	a00f883a 	mov	r7,r20
    3f58:	0009d5c0 	call	9d5c <__muldf3>
    3f5c:	1009883a 	mov	r4,r2
    3f60:	180b883a 	mov	r5,r3
    3f64:	000d883a 	mov	r6,zero
    3f68:	01d00734 	movhi	r7,16412
    3f6c:	0009ca80 	call	9ca8 <__adddf3>
    3f70:	057f3034 	movhi	r21,64704
    3f74:	1d6b883a 	add	r21,r3,r21
    3f78:	d8c00917 	ldw	r3,36(sp)
    3f7c:	1025883a 	mov	r18,r2
    3f80:	18031f26 	beq	r3,zero,4c00 <_dtoa_r+0x112c>
    3f84:	d8800617 	ldw	r2,24(sp)
    3f88:	dac00917 	ldw	r11,36(sp)
    3f8c:	d8801315 	stw	r2,76(sp)
    3f90:	d8c00c17 	ldw	r3,48(sp)
    3f94:	18039026 	beq	r3,zero,4dd8 <_dtoa_r+0x1304>
    3f98:	58bfffc4 	addi	r2,r11,-1
    3f9c:	100490fa 	slli	r2,r2,3
    3fa0:	00c000f4 	movhi	r3,3
    3fa4:	18c13d04 	addi	r3,r3,1268
    3fa8:	0009883a 	mov	r4,zero
    3fac:	1885883a 	add	r2,r3,r2
    3fb0:	11800017 	ldw	r6,0(r2)
    3fb4:	11c00117 	ldw	r7,4(r2)
    3fb8:	014ff834 	movhi	r5,16352
    3fbc:	dac01615 	stw	r11,88(sp)
    3fc0:	0009fbc0 	call	9fbc <__divdf3>
    3fc4:	900d883a 	mov	r6,r18
    3fc8:	a80f883a 	mov	r7,r21
    3fcc:	1009883a 	mov	r4,r2
    3fd0:	180b883a 	mov	r5,r3
    3fd4:	0009cfc0 	call	9cfc <__subdf3>
    3fd8:	a00b883a 	mov	r5,r20
    3fdc:	9809883a 	mov	r4,r19
    3fe0:	182b883a 	mov	r21,r3
    3fe4:	d8801015 	stw	r2,64(sp)
    3fe8:	000a4200 	call	a420 <__fixdfsi>
    3fec:	1009883a 	mov	r4,r2
    3ff0:	d8801515 	stw	r2,84(sp)
    3ff4:	000a34c0 	call	a34c <__floatsidf>
    3ff8:	9809883a 	mov	r4,r19
    3ffc:	a00b883a 	mov	r5,r20
    4000:	100d883a 	mov	r6,r2
    4004:	180f883a 	mov	r7,r3
    4008:	0009cfc0 	call	9cfc <__subdf3>
    400c:	da401517 	ldw	r9,84(sp)
    4010:	d9001017 	ldw	r4,64(sp)
    4014:	a80b883a 	mov	r5,r21
    4018:	4d000c04 	addi	r20,r9,48
    401c:	bd000005 	stb	r20,0(r23)
    4020:	100d883a 	mov	r6,r2
    4024:	180f883a 	mov	r7,r3
    4028:	bd800044 	addi	r22,r23,1
    402c:	1025883a 	mov	r18,r2
    4030:	1827883a 	mov	r19,r3
    4034:	000a2280 	call	a228 <__gtdf2>
    4038:	00842216 	blt	zero,r2,50c4 <_dtoa_r+0x15f0>
    403c:	0009883a 	mov	r4,zero
    4040:	014ffc34 	movhi	r5,16368
    4044:	900d883a 	mov	r6,r18
    4048:	980f883a 	mov	r7,r19
    404c:	0009cfc0 	call	9cfc <__subdf3>
    4050:	d9001017 	ldw	r4,64(sp)
    4054:	a80b883a 	mov	r5,r21
    4058:	100d883a 	mov	r6,r2
    405c:	180f883a 	mov	r7,r3
    4060:	000a2280 	call	a228 <__gtdf2>
    4064:	dac01617 	ldw	r11,88(sp)
    4068:	00841316 	blt	zero,r2,50b8 <_dtoa_r+0x15e4>
    406c:	00800044 	movi	r2,1
    4070:	12c0670e 	bge	r2,r11,4210 <_dtoa_r+0x73c>
    4074:	bad7883a 	add	r11,r23,r11
    4078:	df001115 	stw	fp,68(sp)
    407c:	dc401215 	stw	r17,72(sp)
    4080:	5839883a 	mov	fp,r11
    4084:	dc401017 	ldw	r17,64(sp)
    4088:	00000806 	br	40ac <_dtoa_r+0x5d8>
    408c:	0009cfc0 	call	9cfc <__subdf3>
    4090:	1009883a 	mov	r4,r2
    4094:	180b883a 	mov	r5,r3
    4098:	880d883a 	mov	r6,r17
    409c:	a80f883a 	mov	r7,r21
    40a0:	000a2f00 	call	a2f0 <__ltdf2>
    40a4:	1003ee16 	blt	r2,zero,5060 <_dtoa_r+0x158c>
    40a8:	b703f126 	beq	r22,fp,5070 <_dtoa_r+0x159c>
    40ac:	8809883a 	mov	r4,r17
    40b0:	a80b883a 	mov	r5,r21
    40b4:	000d883a 	mov	r6,zero
    40b8:	01d00934 	movhi	r7,16420
    40bc:	0009d5c0 	call	9d5c <__muldf3>
    40c0:	000d883a 	mov	r6,zero
    40c4:	01d00934 	movhi	r7,16420
    40c8:	9009883a 	mov	r4,r18
    40cc:	980b883a 	mov	r5,r19
    40d0:	1023883a 	mov	r17,r2
    40d4:	182b883a 	mov	r21,r3
    40d8:	0009d5c0 	call	9d5c <__muldf3>
    40dc:	180b883a 	mov	r5,r3
    40e0:	1009883a 	mov	r4,r2
    40e4:	1825883a 	mov	r18,r3
    40e8:	1027883a 	mov	r19,r2
    40ec:	000a4200 	call	a420 <__fixdfsi>
    40f0:	1009883a 	mov	r4,r2
    40f4:	1029883a 	mov	r20,r2
    40f8:	000a34c0 	call	a34c <__floatsidf>
    40fc:	9809883a 	mov	r4,r19
    4100:	900b883a 	mov	r5,r18
    4104:	100d883a 	mov	r6,r2
    4108:	180f883a 	mov	r7,r3
    410c:	0009cfc0 	call	9cfc <__subdf3>
    4110:	a5000c04 	addi	r20,r20,48
    4114:	b5000005 	stb	r20,0(r22)
    4118:	1009883a 	mov	r4,r2
    411c:	180b883a 	mov	r5,r3
    4120:	880d883a 	mov	r6,r17
    4124:	a80f883a 	mov	r7,r21
    4128:	1025883a 	mov	r18,r2
    412c:	1827883a 	mov	r19,r3
    4130:	000a2f00 	call	a2f0 <__ltdf2>
    4134:	b5800044 	addi	r22,r22,1
    4138:	0009883a 	mov	r4,zero
    413c:	014ffc34 	movhi	r5,16368
    4140:	900d883a 	mov	r6,r18
    4144:	980f883a 	mov	r7,r19
    4148:	103fd00e 	bge	r2,zero,408c <__alt_mem_onchip_flash_0_data+0xf0f0408c>
    414c:	d9001317 	ldw	r4,76(sp)
    4150:	df001117 	ldw	fp,68(sp)
    4154:	d9000615 	stw	r4,24(sp)
    4158:	8009883a 	mov	r4,r16
    415c:	e00b883a 	mov	r5,fp
    4160:	0006ed40 	call	6ed4 <_Bfree>
    4164:	d9c00617 	ldw	r7,24(sp)
    4168:	d8c02217 	ldw	r3,136(sp)
    416c:	d9002417 	ldw	r4,144(sp)
    4170:	b0000005 	stb	zero,0(r22)
    4174:	38800044 	addi	r2,r7,1
    4178:	18800015 	stw	r2,0(r3)
    417c:	203e8426 	beq	r4,zero,3b90 <__alt_mem_onchip_flash_0_data+0xf0f03b90>
    4180:	25800015 	stw	r22,0(r4)
    4184:	003e8206 	br	3b90 <__alt_mem_onchip_flash_0_data+0xf0f03b90>
    4188:	00800434 	movhi	r2,16
    418c:	10bfffc4 	addi	r2,r2,-1
    4190:	90a4703a 	and	r18,r18,r2
    4194:	903e901e 	bne	r18,zero,3bd8 <__alt_mem_onchip_flash_0_data+0xf0f03bd8>
    4198:	05c000f4 	movhi	r23,3
    419c:	bdc11404 	addi	r23,r23,1104
    41a0:	003e8f06 	br	3be0 <__alt_mem_onchip_flash_0_data+0xf0f03be0>
    41a4:	b8800204 	addi	r2,r23,8
    41a8:	003e9206 	br	3bf4 <__alt_mem_onchip_flash_0_data+0xf0f03bf4>
    41ac:	01400434 	movhi	r5,16
    41b0:	297fffc4 	addi	r5,r5,-1
    41b4:	894a703a 	and	r5,r17,r5
    41b8:	d9000317 	ldw	r4,12(sp)
    41bc:	294ffc34 	orhi	r5,r5,16368
    41c0:	a53f0044 	addi	r20,r20,-1023
    41c4:	dd400217 	ldw	r21,8(sp)
    41c8:	d8000f15 	stw	zero,60(sp)
    41cc:	003eb106 	br	3c94 <__alt_mem_onchip_flash_0_data+0xf0f03c94>
    41d0:	05c000f4 	movhi	r23,3
    41d4:	bdc10b04 	addi	r23,r23,1068
    41d8:	003e6d06 	br	3b90 <__alt_mem_onchip_flash_0_data+0xf0f03b90>
    41dc:	d8000415 	stw	zero,16(sp)
    41e0:	80001115 	stw	zero,68(r16)
    41e4:	8009883a 	mov	r4,r16
    41e8:	000b883a 	mov	r5,zero
    41ec:	0006e2c0 	call	6e2c <_Balloc>
    41f0:	01ffffc4 	movi	r7,-1
    41f4:	102f883a 	mov	r23,r2
    41f8:	80801015 	stw	r2,64(r16)
    41fc:	00800044 	movi	r2,1
    4200:	d9c00915 	stw	r7,36(sp)
    4204:	d8002115 	stw	zero,132(sp)
    4208:	d9c00e15 	stw	r7,56(sp)
    420c:	d8800c15 	stw	r2,48(sp)
    4210:	d8800117 	ldw	r2,4(sp)
    4214:	10008b16 	blt	r2,zero,4444 <_dtoa_r+0x970>
    4218:	d9000617 	ldw	r4,24(sp)
    421c:	00c00384 	movi	r3,14
    4220:	19008816 	blt	r3,r4,4444 <_dtoa_r+0x970>
    4224:	200490fa 	slli	r2,r4,3
    4228:	d9c02117 	ldw	r7,132(sp)
    422c:	00c000f4 	movhi	r3,3
    4230:	18c13d04 	addi	r3,r3,1268
    4234:	1885883a 	add	r2,r3,r2
    4238:	14800017 	ldw	r18,0(r2)
    423c:	14c00117 	ldw	r19,4(r2)
    4240:	3801c916 	blt	r7,zero,4968 <_dtoa_r+0xe94>
    4244:	d9000317 	ldw	r4,12(sp)
    4248:	900d883a 	mov	r6,r18
    424c:	980f883a 	mov	r7,r19
    4250:	880b883a 	mov	r5,r17
    4254:	0009fbc0 	call	9fbc <__divdf3>
    4258:	180b883a 	mov	r5,r3
    425c:	1009883a 	mov	r4,r2
    4260:	000a4200 	call	a420 <__fixdfsi>
    4264:	1009883a 	mov	r4,r2
    4268:	102b883a 	mov	r21,r2
    426c:	000a34c0 	call	a34c <__floatsidf>
    4270:	1009883a 	mov	r4,r2
    4274:	180b883a 	mov	r5,r3
    4278:	900d883a 	mov	r6,r18
    427c:	980f883a 	mov	r7,r19
    4280:	0009d5c0 	call	9d5c <__muldf3>
    4284:	d9000317 	ldw	r4,12(sp)
    4288:	880b883a 	mov	r5,r17
    428c:	100d883a 	mov	r6,r2
    4290:	180f883a 	mov	r7,r3
    4294:	0009cfc0 	call	9cfc <__subdf3>
    4298:	d9c00917 	ldw	r7,36(sp)
    429c:	1009883a 	mov	r4,r2
    42a0:	a8800c04 	addi	r2,r21,48
    42a4:	b8800005 	stb	r2,0(r23)
    42a8:	01800044 	movi	r6,1
    42ac:	180b883a 	mov	r5,r3
    42b0:	2005883a 	mov	r2,r4
    42b4:	bd800044 	addi	r22,r23,1
    42b8:	39803726 	beq	r7,r6,4398 <_dtoa_r+0x8c4>
    42bc:	000d883a 	mov	r6,zero
    42c0:	01d00934 	movhi	r7,16420
    42c4:	0009d5c0 	call	9d5c <__muldf3>
    42c8:	1009883a 	mov	r4,r2
    42cc:	180b883a 	mov	r5,r3
    42d0:	000d883a 	mov	r6,zero
    42d4:	000f883a 	mov	r7,zero
    42d8:	1029883a 	mov	r20,r2
    42dc:	1823883a 	mov	r17,r3
    42e0:	000a1700 	call	a170 <__eqdf2>
    42e4:	103f9c26 	beq	r2,zero,4158 <__alt_mem_onchip_flash_0_data+0xf0f04158>
    42e8:	dd400917 	ldw	r21,36(sp)
    42ec:	dc000415 	stw	r16,16(sp)
    42f0:	00000906 	br	4318 <_dtoa_r+0x844>
    42f4:	0009d5c0 	call	9d5c <__muldf3>
    42f8:	1009883a 	mov	r4,r2
    42fc:	180b883a 	mov	r5,r3
    4300:	000d883a 	mov	r6,zero
    4304:	000f883a 	mov	r7,zero
    4308:	1029883a 	mov	r20,r2
    430c:	1823883a 	mov	r17,r3
    4310:	000a1700 	call	a170 <__eqdf2>
    4314:	10022926 	beq	r2,zero,4bbc <_dtoa_r+0x10e8>
    4318:	900d883a 	mov	r6,r18
    431c:	980f883a 	mov	r7,r19
    4320:	a009883a 	mov	r4,r20
    4324:	880b883a 	mov	r5,r17
    4328:	0009fbc0 	call	9fbc <__divdf3>
    432c:	180b883a 	mov	r5,r3
    4330:	1009883a 	mov	r4,r2
    4334:	000a4200 	call	a420 <__fixdfsi>
    4338:	1009883a 	mov	r4,r2
    433c:	1021883a 	mov	r16,r2
    4340:	000a34c0 	call	a34c <__floatsidf>
    4344:	1009883a 	mov	r4,r2
    4348:	180b883a 	mov	r5,r3
    434c:	900d883a 	mov	r6,r18
    4350:	980f883a 	mov	r7,r19
    4354:	0009d5c0 	call	9d5c <__muldf3>
    4358:	a009883a 	mov	r4,r20
    435c:	880b883a 	mov	r5,r17
    4360:	100d883a 	mov	r6,r2
    4364:	180f883a 	mov	r7,r3
    4368:	0009cfc0 	call	9cfc <__subdf3>
    436c:	82400c04 	addi	r9,r16,48
    4370:	b2400005 	stb	r9,0(r22)
    4374:	b5800044 	addi	r22,r22,1
    4378:	b5d3c83a 	sub	r9,r22,r23
    437c:	000d883a 	mov	r6,zero
    4380:	01d00934 	movhi	r7,16420
    4384:	1009883a 	mov	r4,r2
    4388:	180b883a 	mov	r5,r3
    438c:	aa7fd91e 	bne	r21,r9,42f4 <__alt_mem_onchip_flash_0_data+0xf0f042f4>
    4390:	802b883a 	mov	r21,r16
    4394:	dc000417 	ldw	r16,16(sp)
    4398:	1009883a 	mov	r4,r2
    439c:	180b883a 	mov	r5,r3
    43a0:	100d883a 	mov	r6,r2
    43a4:	180f883a 	mov	r7,r3
    43a8:	0009ca80 	call	9ca8 <__adddf3>
    43ac:	9009883a 	mov	r4,r18
    43b0:	980b883a 	mov	r5,r19
    43b4:	100d883a 	mov	r6,r2
    43b8:	180f883a 	mov	r7,r3
    43bc:	1023883a 	mov	r17,r2
    43c0:	1829883a 	mov	r20,r3
    43c4:	000a2f00 	call	a2f0 <__ltdf2>
    43c8:	10000816 	blt	r2,zero,43ec <_dtoa_r+0x918>
    43cc:	9009883a 	mov	r4,r18
    43d0:	980b883a 	mov	r5,r19
    43d4:	880d883a 	mov	r6,r17
    43d8:	a00f883a 	mov	r7,r20
    43dc:	000a1cc0 	call	a1cc <__nedf2>
    43e0:	103f5d1e 	bne	r2,zero,4158 <__alt_mem_onchip_flash_0_data+0xf0f04158>
    43e4:	ad40004c 	andi	r21,r21,1
    43e8:	a83f5b26 	beq	r21,zero,4158 <__alt_mem_onchip_flash_0_data+0xf0f04158>
    43ec:	b53fffc3 	ldbu	r20,-1(r22)
    43f0:	b0ffff84 	addi	r3,r22,-2
    43f4:	01400e44 	movi	r5,57
    43f8:	00000306 	br	4408 <_dtoa_r+0x934>
    43fc:	1d000003 	ldbu	r20,0(r3)
    4400:	102d883a 	mov	r22,r2
    4404:	18ffffc4 	addi	r3,r3,-1
    4408:	a1003fcc 	andi	r4,r20,255
    440c:	2100201c 	xori	r4,r4,128
    4410:	213fe004 	addi	r4,r4,-128
    4414:	b0bfffc4 	addi	r2,r22,-1
    4418:	2142ca1e 	bne	r4,r5,4f44 <_dtoa_r+0x1470>
    441c:	b8bff71e 	bne	r23,r2,43fc <__alt_mem_onchip_flash_0_data+0xf0f043fc>
    4420:	d8800617 	ldw	r2,24(sp)
    4424:	05000c44 	movi	r20,49
    4428:	10800044 	addi	r2,r2,1
    442c:	d8800615 	stw	r2,24(sp)
    4430:	00800c04 	movi	r2,48
    4434:	b8800005 	stb	r2,0(r23)
    4438:	b805883a 	mov	r2,r23
    443c:	15000005 	stb	r20,0(r2)
    4440:	003f4506 	br	4158 <__alt_mem_onchip_flash_0_data+0xf0f04158>
    4444:	d9c00c17 	ldw	r7,48(sp)
    4448:	3800c926 	beq	r7,zero,4770 <_dtoa_r+0xc9c>
    444c:	d9c00417 	ldw	r7,16(sp)
    4450:	00c00044 	movi	r3,1
    4454:	19c16c0e 	bge	r3,r7,4a08 <_dtoa_r+0xf34>
    4458:	d9000917 	ldw	r4,36(sp)
    445c:	d9c00a17 	ldw	r7,40(sp)
    4460:	24ffffc4 	addi	r19,r4,-1
    4464:	3cc20716 	blt	r7,r19,4c84 <_dtoa_r+0x11b0>
    4468:	3ce7c83a 	sub	r19,r7,r19
    446c:	d9c00917 	ldw	r7,36(sp)
    4470:	3802ae16 	blt	r7,zero,4f2c <_dtoa_r+0x1458>
    4474:	dc800817 	ldw	r18,32(sp)
    4478:	d8800917 	ldw	r2,36(sp)
    447c:	d8c00817 	ldw	r3,32(sp)
    4480:	d9c00717 	ldw	r7,28(sp)
    4484:	8009883a 	mov	r4,r16
    4488:	1887883a 	add	r3,r3,r2
    448c:	388f883a 	add	r7,r7,r2
    4490:	01400044 	movi	r5,1
    4494:	d8c00815 	stw	r3,32(sp)
    4498:	d9c00715 	stw	r7,28(sp)
    449c:	000722c0 	call	722c <__i2b>
    44a0:	102b883a 	mov	r21,r2
    44a4:	90000a26 	beq	r18,zero,44d0 <_dtoa_r+0x9fc>
    44a8:	d8800717 	ldw	r2,28(sp)
    44ac:	0080080e 	bge	zero,r2,44d0 <_dtoa_r+0x9fc>
    44b0:	90812b16 	blt	r18,r2,4960 <_dtoa_r+0xe8c>
    44b4:	d8c00817 	ldw	r3,32(sp)
    44b8:	d9000717 	ldw	r4,28(sp)
    44bc:	90a5c83a 	sub	r18,r18,r2
    44c0:	1887c83a 	sub	r3,r3,r2
    44c4:	2089c83a 	sub	r4,r4,r2
    44c8:	d8c00815 	stw	r3,32(sp)
    44cc:	d9000715 	stw	r4,28(sp)
    44d0:	d9c00a17 	ldw	r7,40(sp)
    44d4:	01c0140e 	bge	zero,r7,4528 <_dtoa_r+0xa54>
    44d8:	d8800c17 	ldw	r2,48(sp)
    44dc:	1001de26 	beq	r2,zero,4c58 <_dtoa_r+0x1184>
    44e0:	04c00e0e 	bge	zero,r19,451c <_dtoa_r+0xa48>
    44e4:	a80b883a 	mov	r5,r21
    44e8:	8009883a 	mov	r4,r16
    44ec:	980d883a 	mov	r6,r19
    44f0:	00074480 	call	7448 <__pow5mult>
    44f4:	e00d883a 	mov	r6,fp
    44f8:	8009883a 	mov	r4,r16
    44fc:	100b883a 	mov	r5,r2
    4500:	102b883a 	mov	r21,r2
    4504:	00072680 	call	7268 <__multiply>
    4508:	1029883a 	mov	r20,r2
    450c:	e00b883a 	mov	r5,fp
    4510:	8009883a 	mov	r4,r16
    4514:	0006ed40 	call	6ed4 <_Bfree>
    4518:	a039883a 	mov	fp,r20
    451c:	d8c00a17 	ldw	r3,40(sp)
    4520:	1ccdc83a 	sub	r6,r3,r19
    4524:	3001291e 	bne	r6,zero,49cc <_dtoa_r+0xef8>
    4528:	8009883a 	mov	r4,r16
    452c:	01400044 	movi	r5,1
    4530:	000722c0 	call	722c <__i2b>
    4534:	d9000b17 	ldw	r4,44(sp)
    4538:	1029883a 	mov	r20,r2
    453c:	0100050e 	bge	zero,r4,4554 <_dtoa_r+0xa80>
    4540:	d9800b17 	ldw	r6,44(sp)
    4544:	8009883a 	mov	r4,r16
    4548:	100b883a 	mov	r5,r2
    454c:	00074480 	call	7448 <__pow5mult>
    4550:	1029883a 	mov	r20,r2
    4554:	d9c00417 	ldw	r7,16(sp)
    4558:	00800044 	movi	r2,1
    455c:	11c0f00e 	bge	r2,r7,4920 <_dtoa_r+0xe4c>
    4560:	0023883a 	mov	r17,zero
    4564:	d8800b17 	ldw	r2,44(sp)
    4568:	1001741e 	bne	r2,zero,4b3c <_dtoa_r+0x1068>
    456c:	00800044 	movi	r2,1
    4570:	d8c00717 	ldw	r3,28(sp)
    4574:	10c5883a 	add	r2,r2,r3
    4578:	108007cc 	andi	r2,r2,31
    457c:	10008026 	beq	r2,zero,4780 <_dtoa_r+0xcac>
    4580:	01000804 	movi	r4,32
    4584:	2089c83a 	sub	r4,r4,r2
    4588:	00c00104 	movi	r3,4
    458c:	1902d00e 	bge	r3,r4,50d0 <_dtoa_r+0x15fc>
    4590:	d9000817 	ldw	r4,32(sp)
    4594:	d9c00717 	ldw	r7,28(sp)
    4598:	00c00704 	movi	r3,28
    459c:	1885c83a 	sub	r2,r3,r2
    45a0:	2089883a 	add	r4,r4,r2
    45a4:	388f883a 	add	r7,r7,r2
    45a8:	d9000815 	stw	r4,32(sp)
    45ac:	90a5883a 	add	r18,r18,r2
    45b0:	d9c00715 	stw	r7,28(sp)
    45b4:	d9c00817 	ldw	r7,32(sp)
    45b8:	01c0050e 	bge	zero,r7,45d0 <_dtoa_r+0xafc>
    45bc:	e00b883a 	mov	r5,fp
    45c0:	8009883a 	mov	r4,r16
    45c4:	380d883a 	mov	r6,r7
    45c8:	00075740 	call	7574 <__lshift>
    45cc:	1039883a 	mov	fp,r2
    45d0:	d8800717 	ldw	r2,28(sp)
    45d4:	0080050e 	bge	zero,r2,45ec <_dtoa_r+0xb18>
    45d8:	a00b883a 	mov	r5,r20
    45dc:	8009883a 	mov	r4,r16
    45e0:	100d883a 	mov	r6,r2
    45e4:	00075740 	call	7574 <__lshift>
    45e8:	1029883a 	mov	r20,r2
    45ec:	d8c00d17 	ldw	r3,52(sp)
    45f0:	1801401e 	bne	r3,zero,4af4 <_dtoa_r+0x1020>
    45f4:	d8800917 	ldw	r2,36(sp)
    45f8:	00815a0e 	bge	zero,r2,4b64 <_dtoa_r+0x1090>
    45fc:	d8c00c17 	ldw	r3,48(sp)
    4600:	18006f1e 	bne	r3,zero,47c0 <_dtoa_r+0xcec>
    4604:	b823883a 	mov	r17,r23
    4608:	dc800917 	ldw	r18,36(sp)
    460c:	00000206 	br	4618 <_dtoa_r+0xb44>
    4610:	0006efc0 	call	6efc <__multadd>
    4614:	1039883a 	mov	fp,r2
    4618:	e009883a 	mov	r4,fp
    461c:	a00b883a 	mov	r5,r20
    4620:	00038cc0 	call	38cc <quorem>
    4624:	10800c04 	addi	r2,r2,48
    4628:	88800005 	stb	r2,0(r17)
    462c:	8c400044 	addi	r17,r17,1
    4630:	8dc7c83a 	sub	r3,r17,r23
    4634:	8009883a 	mov	r4,r16
    4638:	e00b883a 	mov	r5,fp
    463c:	01800284 	movi	r6,10
    4640:	000f883a 	mov	r7,zero
    4644:	1cbff216 	blt	r3,r18,4610 <__alt_mem_onchip_flash_0_data+0xf0f04610>
    4648:	dd800917 	ldw	r22,36(sp)
    464c:	1007883a 	mov	r3,r2
    4650:	05823a0e 	bge	zero,r22,4f3c <_dtoa_r+0x1468>
    4654:	bdad883a 	add	r22,r23,r22
    4658:	0023883a 	mov	r17,zero
    465c:	e00b883a 	mov	r5,fp
    4660:	01800044 	movi	r6,1
    4664:	8009883a 	mov	r4,r16
    4668:	d8c01515 	stw	r3,84(sp)
    466c:	00075740 	call	7574 <__lshift>
    4670:	1009883a 	mov	r4,r2
    4674:	a00b883a 	mov	r5,r20
    4678:	1039883a 	mov	fp,r2
    467c:	00076d00 	call	76d0 <__mcmp>
    4680:	d8c01517 	ldw	r3,84(sp)
    4684:	0080d60e 	bge	zero,r2,49e0 <_dtoa_r+0xf0c>
    4688:	b13fffc3 	ldbu	r4,-1(r22)
    468c:	b0ffff84 	addi	r3,r22,-2
    4690:	01800e44 	movi	r6,57
    4694:	00000306 	br	46a4 <_dtoa_r+0xbd0>
    4698:	19000003 	ldbu	r4,0(r3)
    469c:	102d883a 	mov	r22,r2
    46a0:	18ffffc4 	addi	r3,r3,-1
    46a4:	21403fcc 	andi	r5,r4,255
    46a8:	2940201c 	xori	r5,r5,128
    46ac:	297fe004 	addi	r5,r5,-128
    46b0:	b0bfffc4 	addi	r2,r22,-1
    46b4:	2981a71e 	bne	r5,r6,4d54 <_dtoa_r+0x1280>
    46b8:	b8bff71e 	bne	r23,r2,4698 <__alt_mem_onchip_flash_0_data+0xf0f04698>
    46bc:	d8800617 	ldw	r2,24(sp)
    46c0:	10800044 	addi	r2,r2,1
    46c4:	d8800615 	stw	r2,24(sp)
    46c8:	00800c44 	movi	r2,49
    46cc:	b8800005 	stb	r2,0(r23)
    46d0:	8009883a 	mov	r4,r16
    46d4:	a00b883a 	mov	r5,r20
    46d8:	0006ed40 	call	6ed4 <_Bfree>
    46dc:	a83e9e26 	beq	r21,zero,4158 <__alt_mem_onchip_flash_0_data+0xf0f04158>
    46e0:	88000426 	beq	r17,zero,46f4 <_dtoa_r+0xc20>
    46e4:	8d400326 	beq	r17,r21,46f4 <_dtoa_r+0xc20>
    46e8:	8009883a 	mov	r4,r16
    46ec:	880b883a 	mov	r5,r17
    46f0:	0006ed40 	call	6ed4 <_Bfree>
    46f4:	8009883a 	mov	r4,r16
    46f8:	a80b883a 	mov	r5,r21
    46fc:	0006ed40 	call	6ed4 <_Bfree>
    4700:	003e9506 	br	4158 <__alt_mem_onchip_flash_0_data+0xf0f04158>
    4704:	00c00044 	movi	r3,1
    4708:	d8c00d15 	stw	r3,52(sp)
    470c:	003d9f06 	br	3d8c <__alt_mem_onchip_flash_0_data+0xf0f03d8c>
    4710:	d9000817 	ldw	r4,32(sp)
    4714:	d8800617 	ldw	r2,24(sp)
    4718:	d8000b15 	stw	zero,44(sp)
    471c:	2089c83a 	sub	r4,r4,r2
    4720:	0087c83a 	sub	r3,zero,r2
    4724:	d9000815 	stw	r4,32(sp)
    4728:	d8c00a15 	stw	r3,40(sp)
    472c:	003da306 	br	3dbc <__alt_mem_onchip_flash_0_data+0xf0f03dbc>
    4730:	0529c83a 	sub	r20,zero,r20
    4734:	dd000815 	stw	r20,32(sp)
    4738:	d8000715 	stw	zero,28(sp)
    473c:	003d9806 	br	3da0 <__alt_mem_onchip_flash_0_data+0xf0f03da0>
    4740:	d9000617 	ldw	r4,24(sp)
    4744:	000a34c0 	call	a34c <__floatsidf>
    4748:	1009883a 	mov	r4,r2
    474c:	180b883a 	mov	r5,r3
    4750:	980d883a 	mov	r6,r19
    4754:	900f883a 	mov	r7,r18
    4758:	000a1700 	call	a170 <__eqdf2>
    475c:	103d7a26 	beq	r2,zero,3d48 <__alt_mem_onchip_flash_0_data+0xf0f03d48>
    4760:	d8800617 	ldw	r2,24(sp)
    4764:	10bfffc4 	addi	r2,r2,-1
    4768:	d8800615 	stw	r2,24(sp)
    476c:	003d7606 	br	3d48 <__alt_mem_onchip_flash_0_data+0xf0f03d48>
    4770:	dcc00a17 	ldw	r19,40(sp)
    4774:	dc800817 	ldw	r18,32(sp)
    4778:	002b883a 	mov	r21,zero
    477c:	003f4906 	br	44a4 <__alt_mem_onchip_flash_0_data+0xf0f044a4>
    4780:	00800704 	movi	r2,28
    4784:	d8c00817 	ldw	r3,32(sp)
    4788:	d9000717 	ldw	r4,28(sp)
    478c:	90a5883a 	add	r18,r18,r2
    4790:	1887883a 	add	r3,r3,r2
    4794:	2089883a 	add	r4,r4,r2
    4798:	d8c00815 	stw	r3,32(sp)
    479c:	d9000715 	stw	r4,28(sp)
    47a0:	003f8406 	br	45b4 <__alt_mem_onchip_flash_0_data+0xf0f045b4>
    47a4:	d9c00317 	ldw	r7,12(sp)
    47a8:	013efb84 	movi	r4,-1042
    47ac:	2509c83a 	sub	r4,r4,r20
    47b0:	3908983a 	sll	r4,r7,r4
    47b4:	003d3006 	br	3c78 <__alt_mem_onchip_flash_0_data+0xf0f03c78>
    47b8:	d8000d15 	stw	zero,52(sp)
    47bc:	003d7306 	br	3d8c <__alt_mem_onchip_flash_0_data+0xf0f03d8c>
    47c0:	0480050e 	bge	zero,r18,47d8 <_dtoa_r+0xd04>
    47c4:	a80b883a 	mov	r5,r21
    47c8:	8009883a 	mov	r4,r16
    47cc:	900d883a 	mov	r6,r18
    47d0:	00075740 	call	7574 <__lshift>
    47d4:	102b883a 	mov	r21,r2
    47d8:	8801611e 	bne	r17,zero,4d60 <_dtoa_r+0x128c>
    47dc:	a827883a 	mov	r19,r21
    47e0:	d8c00317 	ldw	r3,12(sp)
    47e4:	d9000917 	ldw	r4,36(sp)
    47e8:	b8bfffc4 	addi	r2,r23,-1
    47ec:	18c0004c 	andi	r3,r3,1
    47f0:	1105883a 	add	r2,r2,r4
    47f4:	b825883a 	mov	r18,r23
    47f8:	d8800515 	stw	r2,20(sp)
    47fc:	a823883a 	mov	r17,r21
    4800:	d8c00315 	stw	r3,12(sp)
    4804:	ddc00715 	stw	r23,28(sp)
    4808:	e009883a 	mov	r4,fp
    480c:	a00b883a 	mov	r5,r20
    4810:	00038cc0 	call	38cc <quorem>
    4814:	e009883a 	mov	r4,fp
    4818:	880b883a 	mov	r5,r17
    481c:	102d883a 	mov	r22,r2
    4820:	00076d00 	call	76d0 <__mcmp>
    4824:	980d883a 	mov	r6,r19
    4828:	8009883a 	mov	r4,r16
    482c:	a00b883a 	mov	r5,r20
    4830:	102b883a 	mov	r21,r2
    4834:	00077280 	call	7728 <__mdiff>
    4838:	100d883a 	mov	r6,r2
    483c:	10800317 	ldw	r2,12(r2)
    4840:	b5c00c04 	addi	r23,r22,48
    4844:	10008c26 	beq	r2,zero,4a78 <_dtoa_r+0xfa4>
    4848:	8009883a 	mov	r4,r16
    484c:	300b883a 	mov	r5,r6
    4850:	0006ed40 	call	6ed4 <_Bfree>
    4854:	00800044 	movi	r2,1
    4858:	a8007116 	blt	r21,zero,4a20 <_dtoa_r+0xf4c>
    485c:	a800041e 	bne	r21,zero,4870 <_dtoa_r+0xd9c>
    4860:	d9c00417 	ldw	r7,16(sp)
    4864:	3800021e 	bne	r7,zero,4870 <_dtoa_r+0xd9c>
    4868:	d8c00317 	ldw	r3,12(sp)
    486c:	18006c26 	beq	r3,zero,4a20 <_dtoa_r+0xf4c>
    4870:	00814c16 	blt	zero,r2,4da4 <_dtoa_r+0x12d0>
    4874:	d8c00517 	ldw	r3,20(sp)
    4878:	95400044 	addi	r21,r18,1
    487c:	95c00005 	stb	r23,0(r18)
    4880:	a82d883a 	mov	r22,r21
    4884:	90c14d26 	beq	r18,r3,4dbc <_dtoa_r+0x12e8>
    4888:	e00b883a 	mov	r5,fp
    488c:	8009883a 	mov	r4,r16
    4890:	01800284 	movi	r6,10
    4894:	000f883a 	mov	r7,zero
    4898:	0006efc0 	call	6efc <__multadd>
    489c:	1039883a 	mov	fp,r2
    48a0:	8cc08b26 	beq	r17,r19,4ad0 <_dtoa_r+0xffc>
    48a4:	880b883a 	mov	r5,r17
    48a8:	01800284 	movi	r6,10
    48ac:	000f883a 	mov	r7,zero
    48b0:	8009883a 	mov	r4,r16
    48b4:	0006efc0 	call	6efc <__multadd>
    48b8:	980b883a 	mov	r5,r19
    48bc:	8009883a 	mov	r4,r16
    48c0:	01800284 	movi	r6,10
    48c4:	000f883a 	mov	r7,zero
    48c8:	1023883a 	mov	r17,r2
    48cc:	0006efc0 	call	6efc <__multadd>
    48d0:	1027883a 	mov	r19,r2
    48d4:	a825883a 	mov	r18,r21
    48d8:	003fcb06 	br	4808 <__alt_mem_onchip_flash_0_data+0xf0f04808>
    48dc:	d9c00417 	ldw	r7,16(sp)
    48e0:	00800104 	movi	r2,4
    48e4:	3880e426 	beq	r7,r2,4c78 <_dtoa_r+0x11a4>
    48e8:	00800144 	movi	r2,5
    48ec:	38be3c1e 	bne	r7,r2,41e0 <__alt_mem_onchip_flash_0_data+0xf0f041e0>
    48f0:	00c00044 	movi	r3,1
    48f4:	d8c00c15 	stw	r3,48(sp)
    48f8:	d9c02117 	ldw	r7,132(sp)
    48fc:	d8800617 	ldw	r2,24(sp)
    4900:	388f883a 	add	r7,r7,r2
    4904:	3c800044 	addi	r18,r7,1
    4908:	d9c00e15 	stw	r7,56(sp)
    490c:	dc800915 	stw	r18,36(sp)
    4910:	04bd3e16 	blt	zero,r18,3e0c <__alt_mem_onchip_flash_0_data+0xf0f03e0c>
    4914:	80001115 	stw	zero,68(r16)
    4918:	000b883a 	mov	r5,zero
    491c:	003d4606 	br	3e38 <__alt_mem_onchip_flash_0_data+0xf0f03e38>
    4920:	d8c00317 	ldw	r3,12(sp)
    4924:	183f0e1e 	bne	r3,zero,4560 <__alt_mem_onchip_flash_0_data+0xf0f04560>
    4928:	00c00434 	movhi	r3,16
    492c:	18ffffc4 	addi	r3,r3,-1
    4930:	88c6703a 	and	r3,r17,r3
    4934:	183f0a1e 	bne	r3,zero,4560 <__alt_mem_onchip_flash_0_data+0xf0f04560>
    4938:	8c5ffc2c 	andhi	r17,r17,32752
    493c:	883f0826 	beq	r17,zero,4560 <__alt_mem_onchip_flash_0_data+0xf0f04560>
    4940:	d9000817 	ldw	r4,32(sp)
    4944:	d9c00717 	ldw	r7,28(sp)
    4948:	1023883a 	mov	r17,r2
    494c:	2089883a 	add	r4,r4,r2
    4950:	388f883a 	add	r7,r7,r2
    4954:	d9000815 	stw	r4,32(sp)
    4958:	d9c00715 	stw	r7,28(sp)
    495c:	003f0106 	br	4564 <__alt_mem_onchip_flash_0_data+0xf0f04564>
    4960:	9005883a 	mov	r2,r18
    4964:	003ed306 	br	44b4 <__alt_mem_onchip_flash_0_data+0xf0f044b4>
    4968:	d8800917 	ldw	r2,36(sp)
    496c:	00be3516 	blt	zero,r2,4244 <__alt_mem_onchip_flash_0_data+0xf0f04244>
    4970:	1000b61e 	bne	r2,zero,4c4c <_dtoa_r+0x1178>
    4974:	9009883a 	mov	r4,r18
    4978:	980b883a 	mov	r5,r19
    497c:	000d883a 	mov	r6,zero
    4980:	01d00534 	movhi	r7,16404
    4984:	0009d5c0 	call	9d5c <__muldf3>
    4988:	d9800317 	ldw	r6,12(sp)
    498c:	1009883a 	mov	r4,r2
    4990:	180b883a 	mov	r5,r3
    4994:	880f883a 	mov	r7,r17
    4998:	000a28c0 	call	a28c <__gedf2>
    499c:	0029883a 	mov	r20,zero
    49a0:	002b883a 	mov	r21,zero
    49a4:	10007e16 	blt	r2,zero,4ba0 <_dtoa_r+0x10cc>
    49a8:	d8802117 	ldw	r2,132(sp)
    49ac:	b82d883a 	mov	r22,r23
    49b0:	0084303a 	nor	r2,zero,r2
    49b4:	d8800615 	stw	r2,24(sp)
    49b8:	8009883a 	mov	r4,r16
    49bc:	a00b883a 	mov	r5,r20
    49c0:	0006ed40 	call	6ed4 <_Bfree>
    49c4:	a83f4b1e 	bne	r21,zero,46f4 <__alt_mem_onchip_flash_0_data+0xf0f046f4>
    49c8:	003de306 	br	4158 <__alt_mem_onchip_flash_0_data+0xf0f04158>
    49cc:	e00b883a 	mov	r5,fp
    49d0:	8009883a 	mov	r4,r16
    49d4:	00074480 	call	7448 <__pow5mult>
    49d8:	1039883a 	mov	fp,r2
    49dc:	003ed206 	br	4528 <__alt_mem_onchip_flash_0_data+0xf0f04528>
    49e0:	1000021e 	bne	r2,zero,49ec <_dtoa_r+0xf18>
    49e4:	18c0004c 	andi	r3,r3,1
    49e8:	183f271e 	bne	r3,zero,4688 <__alt_mem_onchip_flash_0_data+0xf0f04688>
    49ec:	01000c04 	movi	r4,48
    49f0:	00000106 	br	49f8 <_dtoa_r+0xf24>
    49f4:	102d883a 	mov	r22,r2
    49f8:	b0bfffc4 	addi	r2,r22,-1
    49fc:	10c00007 	ldb	r3,0(r2)
    4a00:	193ffc26 	beq	r3,r4,49f4 <__alt_mem_onchip_flash_0_data+0xf0f049f4>
    4a04:	003f3206 	br	46d0 <__alt_mem_onchip_flash_0_data+0xf0f046d0>
    4a08:	d8c00f17 	ldw	r3,60(sp)
    4a0c:	18015026 	beq	r3,zero,4f50 <_dtoa_r+0x147c>
    4a10:	10810cc4 	addi	r2,r2,1075
    4a14:	dcc00a17 	ldw	r19,40(sp)
    4a18:	dc800817 	ldw	r18,32(sp)
    4a1c:	003e9706 	br	447c <__alt_mem_onchip_flash_0_data+0xf0f0447c>
    4a20:	b807883a 	mov	r3,r23
    4a24:	182b883a 	mov	r21,r3
    4a28:	ddc00717 	ldw	r23,28(sp)
    4a2c:	00800e0e 	bge	zero,r2,4a68 <_dtoa_r+0xf94>
    4a30:	e00b883a 	mov	r5,fp
    4a34:	01800044 	movi	r6,1
    4a38:	8009883a 	mov	r4,r16
    4a3c:	d8c01515 	stw	r3,84(sp)
    4a40:	00075740 	call	7574 <__lshift>
    4a44:	1009883a 	mov	r4,r2
    4a48:	a00b883a 	mov	r5,r20
    4a4c:	1039883a 	mov	fp,r2
    4a50:	00076d00 	call	76d0 <__mcmp>
    4a54:	d8c01517 	ldw	r3,84(sp)
    4a58:	0081880e 	bge	zero,r2,507c <_dtoa_r+0x15a8>
    4a5c:	00800e44 	movi	r2,57
    4a60:	b0c00c44 	addi	r3,r22,49
    4a64:	a8816326 	beq	r21,r2,4ff4 <_dtoa_r+0x1520>
    4a68:	90c00005 	stb	r3,0(r18)
    4a6c:	95800044 	addi	r22,r18,1
    4a70:	982b883a 	mov	r21,r19
    4a74:	003f1606 	br	46d0 <__alt_mem_onchip_flash_0_data+0xf0f046d0>
    4a78:	300b883a 	mov	r5,r6
    4a7c:	e009883a 	mov	r4,fp
    4a80:	d9801515 	stw	r6,84(sp)
    4a84:	00076d00 	call	76d0 <__mcmp>
    4a88:	d9801517 	ldw	r6,84(sp)
    4a8c:	8009883a 	mov	r4,r16
    4a90:	d8801515 	stw	r2,84(sp)
    4a94:	300b883a 	mov	r5,r6
    4a98:	0006ed40 	call	6ed4 <_Bfree>
    4a9c:	d8801517 	ldw	r2,84(sp)
    4aa0:	103f6d1e 	bne	r2,zero,4858 <__alt_mem_onchip_flash_0_data+0xf0f04858>
    4aa4:	d9c00417 	ldw	r7,16(sp)
    4aa8:	383f6b1e 	bne	r7,zero,4858 <__alt_mem_onchip_flash_0_data+0xf0f04858>
    4aac:	d8c00317 	ldw	r3,12(sp)
    4ab0:	183f691e 	bne	r3,zero,4858 <__alt_mem_onchip_flash_0_data+0xf0f04858>
    4ab4:	b807883a 	mov	r3,r23
    4ab8:	00800e44 	movi	r2,57
    4abc:	ddc00717 	ldw	r23,28(sp)
    4ac0:	18814c26 	beq	r3,r2,4ff4 <_dtoa_r+0x1520>
    4ac4:	057fe80e 	bge	zero,r21,4a68 <__alt_mem_onchip_flash_0_data+0xf0f04a68>
    4ac8:	b0c00c44 	addi	r3,r22,49
    4acc:	003fe606 	br	4a68 <__alt_mem_onchip_flash_0_data+0xf0f04a68>
    4ad0:	880b883a 	mov	r5,r17
    4ad4:	8009883a 	mov	r4,r16
    4ad8:	01800284 	movi	r6,10
    4adc:	000f883a 	mov	r7,zero
    4ae0:	0006efc0 	call	6efc <__multadd>
    4ae4:	1023883a 	mov	r17,r2
    4ae8:	1027883a 	mov	r19,r2
    4aec:	a825883a 	mov	r18,r21
    4af0:	003f4506 	br	4808 <__alt_mem_onchip_flash_0_data+0xf0f04808>
    4af4:	e009883a 	mov	r4,fp
    4af8:	a00b883a 	mov	r5,r20
    4afc:	00076d00 	call	76d0 <__mcmp>
    4b00:	103ebc0e 	bge	r2,zero,45f4 <__alt_mem_onchip_flash_0_data+0xf0f045f4>
    4b04:	e00b883a 	mov	r5,fp
    4b08:	8009883a 	mov	r4,r16
    4b0c:	01800284 	movi	r6,10
    4b10:	000f883a 	mov	r7,zero
    4b14:	0006efc0 	call	6efc <__multadd>
    4b18:	1039883a 	mov	fp,r2
    4b1c:	d8800617 	ldw	r2,24(sp)
    4b20:	d8c00c17 	ldw	r3,48(sp)
    4b24:	10bfffc4 	addi	r2,r2,-1
    4b28:	d8800615 	stw	r2,24(sp)
    4b2c:	1801571e 	bne	r3,zero,508c <_dtoa_r+0x15b8>
    4b30:	d9c00e17 	ldw	r7,56(sp)
    4b34:	d9c00915 	stw	r7,36(sp)
    4b38:	003eae06 	br	45f4 <__alt_mem_onchip_flash_0_data+0xf0f045f4>
    4b3c:	a0800417 	ldw	r2,16(r20)
    4b40:	10800104 	addi	r2,r2,4
    4b44:	1085883a 	add	r2,r2,r2
    4b48:	1085883a 	add	r2,r2,r2
    4b4c:	a085883a 	add	r2,r20,r2
    4b50:	11000017 	ldw	r4,0(r2)
    4b54:	00071140 	call	7114 <__hi0bits>
    4b58:	00c00804 	movi	r3,32
    4b5c:	1885c83a 	sub	r2,r3,r2
    4b60:	003e8306 	br	4570 <__alt_mem_onchip_flash_0_data+0xf0f04570>
    4b64:	d9c00417 	ldw	r7,16(sp)
    4b68:	00800084 	movi	r2,2
    4b6c:	11fea30e 	bge	r2,r7,45fc <__alt_mem_onchip_flash_0_data+0xf0f045fc>
    4b70:	d8800917 	ldw	r2,36(sp)
    4b74:	103f8c1e 	bne	r2,zero,49a8 <__alt_mem_onchip_flash_0_data+0xf0f049a8>
    4b78:	a00b883a 	mov	r5,r20
    4b7c:	8009883a 	mov	r4,r16
    4b80:	01800144 	movi	r6,5
    4b84:	000f883a 	mov	r7,zero
    4b88:	0006efc0 	call	6efc <__multadd>
    4b8c:	e009883a 	mov	r4,fp
    4b90:	100b883a 	mov	r5,r2
    4b94:	1029883a 	mov	r20,r2
    4b98:	00076d00 	call	76d0 <__mcmp>
    4b9c:	00bf820e 	bge	zero,r2,49a8 <__alt_mem_onchip_flash_0_data+0xf0f049a8>
    4ba0:	00800c44 	movi	r2,49
    4ba4:	b8800005 	stb	r2,0(r23)
    4ba8:	d8800617 	ldw	r2,24(sp)
    4bac:	bd800044 	addi	r22,r23,1
    4bb0:	10800044 	addi	r2,r2,1
    4bb4:	d8800615 	stw	r2,24(sp)
    4bb8:	003f7f06 	br	49b8 <__alt_mem_onchip_flash_0_data+0xf0f049b8>
    4bbc:	dc000417 	ldw	r16,16(sp)
    4bc0:	003d6506 	br	4158 <__alt_mem_onchip_flash_0_data+0xf0f04158>
    4bc4:	9009883a 	mov	r4,r18
    4bc8:	000a34c0 	call	a34c <__floatsidf>
    4bcc:	1009883a 	mov	r4,r2
    4bd0:	180b883a 	mov	r5,r3
    4bd4:	980d883a 	mov	r6,r19
    4bd8:	a00f883a 	mov	r7,r20
    4bdc:	0009d5c0 	call	9d5c <__muldf3>
    4be0:	1009883a 	mov	r4,r2
    4be4:	180b883a 	mov	r5,r3
    4be8:	000d883a 	mov	r6,zero
    4bec:	01d00734 	movhi	r7,16412
    4bf0:	0009ca80 	call	9ca8 <__adddf3>
    4bf4:	057f3034 	movhi	r21,64704
    4bf8:	1025883a 	mov	r18,r2
    4bfc:	1d6b883a 	add	r21,r3,r21
    4c00:	9809883a 	mov	r4,r19
    4c04:	a00b883a 	mov	r5,r20
    4c08:	000d883a 	mov	r6,zero
    4c0c:	01d00534 	movhi	r7,16404
    4c10:	0009cfc0 	call	9cfc <__subdf3>
    4c14:	1009883a 	mov	r4,r2
    4c18:	180b883a 	mov	r5,r3
    4c1c:	900d883a 	mov	r6,r18
    4c20:	a80f883a 	mov	r7,r21
    4c24:	1027883a 	mov	r19,r2
    4c28:	1829883a 	mov	r20,r3
    4c2c:	000a2280 	call	a228 <__gtdf2>
    4c30:	00806616 	blt	zero,r2,4dcc <_dtoa_r+0x12f8>
    4c34:	a9e0003c 	xorhi	r7,r21,32768
    4c38:	9809883a 	mov	r4,r19
    4c3c:	a00b883a 	mov	r5,r20
    4c40:	900d883a 	mov	r6,r18
    4c44:	000a2f00 	call	a2f0 <__ltdf2>
    4c48:	103d710e 	bge	r2,zero,4210 <__alt_mem_onchip_flash_0_data+0xf0f04210>
    4c4c:	0029883a 	mov	r20,zero
    4c50:	002b883a 	mov	r21,zero
    4c54:	003f5406 	br	49a8 <__alt_mem_onchip_flash_0_data+0xf0f049a8>
    4c58:	d9800a17 	ldw	r6,40(sp)
    4c5c:	e00b883a 	mov	r5,fp
    4c60:	8009883a 	mov	r4,r16
    4c64:	00074480 	call	7448 <__pow5mult>
    4c68:	1039883a 	mov	fp,r2
    4c6c:	003e2e06 	br	4528 <__alt_mem_onchip_flash_0_data+0xf0f04528>
    4c70:	d8000c15 	stw	zero,48(sp)
    4c74:	003f2006 	br	48f8 <__alt_mem_onchip_flash_0_data+0xf0f048f8>
    4c78:	00800044 	movi	r2,1
    4c7c:	d8800c15 	stw	r2,48(sp)
    4c80:	003c5d06 	br	3df8 <__alt_mem_onchip_flash_0_data+0xf0f03df8>
    4c84:	d8c00a17 	ldw	r3,40(sp)
    4c88:	d9000b17 	ldw	r4,44(sp)
    4c8c:	dcc00a15 	stw	r19,40(sp)
    4c90:	98c5c83a 	sub	r2,r19,r3
    4c94:	2089883a 	add	r4,r4,r2
    4c98:	d9000b15 	stw	r4,44(sp)
    4c9c:	0027883a 	mov	r19,zero
    4ca0:	003df206 	br	446c <__alt_mem_onchip_flash_0_data+0xf0f0446c>
    4ca4:	d9000317 	ldw	r4,12(sp)
    4ca8:	8829883a 	mov	r20,r17
    4cac:	04800084 	movi	r18,2
    4cb0:	d9001015 	stw	r4,64(sp)
    4cb4:	003c8106 	br	3ebc <__alt_mem_onchip_flash_0_data+0xf0f03ebc>
    4cb8:	04800044 	movi	r18,1
    4cbc:	dc800e15 	stw	r18,56(sp)
    4cc0:	dc800915 	stw	r18,36(sp)
    4cc4:	dc802115 	stw	r18,132(sp)
    4cc8:	003f1206 	br	4914 <__alt_mem_onchip_flash_0_data+0xf0f04914>
    4ccc:	d8800617 	ldw	r2,24(sp)
    4cd0:	00abc83a 	sub	r21,zero,r2
    4cd4:	a800a426 	beq	r21,zero,4f68 <_dtoa_r+0x1494>
    4cd8:	a88003cc 	andi	r2,r21,15
    4cdc:	100490fa 	slli	r2,r2,3
    4ce0:	00c000f4 	movhi	r3,3
    4ce4:	18c13d04 	addi	r3,r3,1268
    4ce8:	d9000317 	ldw	r4,12(sp)
    4cec:	1885883a 	add	r2,r3,r2
    4cf0:	11800017 	ldw	r6,0(r2)
    4cf4:	11c00117 	ldw	r7,4(r2)
    4cf8:	a82bd13a 	srai	r21,r21,4
    4cfc:	880b883a 	mov	r5,r17
    4d00:	0009d5c0 	call	9d5c <__muldf3>
    4d04:	1027883a 	mov	r19,r2
    4d08:	1829883a 	mov	r20,r3
    4d0c:	a800e826 	beq	r21,zero,50b0 <_dtoa_r+0x15dc>
    4d10:	058000f4 	movhi	r22,3
    4d14:	b5813304 	addi	r22,r22,1228
    4d18:	04800084 	movi	r18,2
    4d1c:	a980004c 	andi	r6,r21,1
    4d20:	1009883a 	mov	r4,r2
    4d24:	a82bd07a 	srai	r21,r21,1
    4d28:	180b883a 	mov	r5,r3
    4d2c:	30000426 	beq	r6,zero,4d40 <_dtoa_r+0x126c>
    4d30:	b1800017 	ldw	r6,0(r22)
    4d34:	b1c00117 	ldw	r7,4(r22)
    4d38:	94800044 	addi	r18,r18,1
    4d3c:	0009d5c0 	call	9d5c <__muldf3>
    4d40:	b5800204 	addi	r22,r22,8
    4d44:	a83ff51e 	bne	r21,zero,4d1c <__alt_mem_onchip_flash_0_data+0xf0f04d1c>
    4d48:	1027883a 	mov	r19,r2
    4d4c:	1829883a 	mov	r20,r3
    4d50:	003c7306 	br	3f20 <__alt_mem_onchip_flash_0_data+0xf0f03f20>
    4d54:	21000044 	addi	r4,r4,1
    4d58:	11000005 	stb	r4,0(r2)
    4d5c:	003e5c06 	br	46d0 <__alt_mem_onchip_flash_0_data+0xf0f046d0>
    4d60:	a9400117 	ldw	r5,4(r21)
    4d64:	8009883a 	mov	r4,r16
    4d68:	0006e2c0 	call	6e2c <_Balloc>
    4d6c:	a9800417 	ldw	r6,16(r21)
    4d70:	11000304 	addi	r4,r2,12
    4d74:	a9400304 	addi	r5,r21,12
    4d78:	31800084 	addi	r6,r6,2
    4d7c:	318d883a 	add	r6,r6,r6
    4d80:	318d883a 	add	r6,r6,r6
    4d84:	1023883a 	mov	r17,r2
    4d88:	0006b300 	call	6b30 <memcpy>
    4d8c:	8009883a 	mov	r4,r16
    4d90:	880b883a 	mov	r5,r17
    4d94:	01800044 	movi	r6,1
    4d98:	00075740 	call	7574 <__lshift>
    4d9c:	1027883a 	mov	r19,r2
    4da0:	003e8f06 	br	47e0 <__alt_mem_onchip_flash_0_data+0xf0f047e0>
    4da4:	b807883a 	mov	r3,r23
    4da8:	00800e44 	movi	r2,57
    4dac:	ddc00717 	ldw	r23,28(sp)
    4db0:	18809026 	beq	r3,r2,4ff4 <_dtoa_r+0x1520>
    4db4:	18c00044 	addi	r3,r3,1
    4db8:	003f2b06 	br	4a68 <__alt_mem_onchip_flash_0_data+0xf0f04a68>
    4dbc:	b807883a 	mov	r3,r23
    4dc0:	982b883a 	mov	r21,r19
    4dc4:	ddc00717 	ldw	r23,28(sp)
    4dc8:	003e2406 	br	465c <__alt_mem_onchip_flash_0_data+0xf0f0465c>
    4dcc:	0029883a 	mov	r20,zero
    4dd0:	002b883a 	mov	r21,zero
    4dd4:	003f7206 	br	4ba0 <__alt_mem_onchip_flash_0_data+0xf0f04ba0>
    4dd8:	593fffc4 	addi	r4,r11,-1
    4ddc:	200490fa 	slli	r2,r4,3
    4de0:	00c000f4 	movhi	r3,3
    4de4:	18c13d04 	addi	r3,r3,1268
    4de8:	d9001015 	stw	r4,64(sp)
    4dec:	1885883a 	add	r2,r3,r2
    4df0:	11000017 	ldw	r4,0(r2)
    4df4:	11400117 	ldw	r5,4(r2)
    4df8:	900d883a 	mov	r6,r18
    4dfc:	a80f883a 	mov	r7,r21
    4e00:	dac01615 	stw	r11,88(sp)
    4e04:	0009d5c0 	call	9d5c <__muldf3>
    4e08:	a00b883a 	mov	r5,r20
    4e0c:	9809883a 	mov	r4,r19
    4e10:	d8c01215 	stw	r3,72(sp)
    4e14:	d8801115 	stw	r2,68(sp)
    4e18:	000a4200 	call	a420 <__fixdfsi>
    4e1c:	1009883a 	mov	r4,r2
    4e20:	1025883a 	mov	r18,r2
    4e24:	000a34c0 	call	a34c <__floatsidf>
    4e28:	9809883a 	mov	r4,r19
    4e2c:	a00b883a 	mov	r5,r20
    4e30:	100d883a 	mov	r6,r2
    4e34:	180f883a 	mov	r7,r3
    4e38:	94800c04 	addi	r18,r18,48
    4e3c:	0009cfc0 	call	9cfc <__subdf3>
    4e40:	bc800005 	stb	r18,0(r23)
    4e44:	dac01617 	ldw	r11,88(sp)
    4e48:	102b883a 	mov	r21,r2
    4e4c:	00800044 	movi	r2,1
    4e50:	bd800044 	addi	r22,r23,1
    4e54:	1815883a 	mov	r10,r3
    4e58:	58802226 	beq	r11,r2,4ee4 <_dtoa_r+0x1410>
    4e5c:	bad7883a 	add	r11,r23,r11
    4e60:	dc001415 	stw	r16,80(sp)
    4e64:	a805883a 	mov	r2,r21
    4e68:	b027883a 	mov	r19,r22
    4e6c:	5821883a 	mov	r16,r11
    4e70:	882b883a 	mov	r21,r17
    4e74:	000d883a 	mov	r6,zero
    4e78:	01d00934 	movhi	r7,16420
    4e7c:	1009883a 	mov	r4,r2
    4e80:	180b883a 	mov	r5,r3
    4e84:	0009d5c0 	call	9d5c <__muldf3>
    4e88:	180b883a 	mov	r5,r3
    4e8c:	1009883a 	mov	r4,r2
    4e90:	1829883a 	mov	r20,r3
    4e94:	1023883a 	mov	r17,r2
    4e98:	000a4200 	call	a420 <__fixdfsi>
    4e9c:	1009883a 	mov	r4,r2
    4ea0:	1025883a 	mov	r18,r2
    4ea4:	000a34c0 	call	a34c <__floatsidf>
    4ea8:	8809883a 	mov	r4,r17
    4eac:	a00b883a 	mov	r5,r20
    4eb0:	100d883a 	mov	r6,r2
    4eb4:	180f883a 	mov	r7,r3
    4eb8:	94800c04 	addi	r18,r18,48
    4ebc:	0009cfc0 	call	9cfc <__subdf3>
    4ec0:	9cc00044 	addi	r19,r19,1
    4ec4:	9cbfffc5 	stb	r18,-1(r19)
    4ec8:	9c3fea1e 	bne	r19,r16,4e74 <__alt_mem_onchip_flash_0_data+0xf0f04e74>
    4ecc:	1815883a 	mov	r10,r3
    4ed0:	d8c01017 	ldw	r3,64(sp)
    4ed4:	dc001417 	ldw	r16,80(sp)
    4ed8:	a823883a 	mov	r17,r21
    4edc:	b0ed883a 	add	r22,r22,r3
    4ee0:	102b883a 	mov	r21,r2
    4ee4:	d9001117 	ldw	r4,68(sp)
    4ee8:	d9401217 	ldw	r5,72(sp)
    4eec:	000d883a 	mov	r6,zero
    4ef0:	01cff834 	movhi	r7,16352
    4ef4:	da801515 	stw	r10,84(sp)
    4ef8:	0009ca80 	call	9ca8 <__adddf3>
    4efc:	da801517 	ldw	r10,84(sp)
    4f00:	1009883a 	mov	r4,r2
    4f04:	180b883a 	mov	r5,r3
    4f08:	500f883a 	mov	r7,r10
    4f0c:	a80d883a 	mov	r6,r21
    4f10:	000a2f00 	call	a2f0 <__ltdf2>
    4f14:	da801517 	ldw	r10,84(sp)
    4f18:	10003b0e 	bge	r2,zero,5008 <_dtoa_r+0x1534>
    4f1c:	d9c01317 	ldw	r7,76(sp)
    4f20:	b53fffc3 	ldbu	r20,-1(r22)
    4f24:	d9c00615 	stw	r7,24(sp)
    4f28:	003d3106 	br	43f0 <__alt_mem_onchip_flash_0_data+0xf0f043f0>
    4f2c:	d8800817 	ldw	r2,32(sp)
    4f30:	11e5c83a 	sub	r18,r2,r7
    4f34:	0005883a 	mov	r2,zero
    4f38:	003d5006 	br	447c <__alt_mem_onchip_flash_0_data+0xf0f0447c>
    4f3c:	05800044 	movi	r22,1
    4f40:	003dc406 	br	4654 <__alt_mem_onchip_flash_0_data+0xf0f04654>
    4f44:	a5000044 	addi	r20,r20,1
    4f48:	15000005 	stb	r20,0(r2)
    4f4c:	003c8206 	br	4158 <__alt_mem_onchip_flash_0_data+0xf0f04158>
    4f50:	d8800217 	ldw	r2,8(sp)
    4f54:	00c00d84 	movi	r3,54
    4f58:	dcc00a17 	ldw	r19,40(sp)
    4f5c:	1885c83a 	sub	r2,r3,r2
    4f60:	dc800817 	ldw	r18,32(sp)
    4f64:	003d4506 	br	447c <__alt_mem_onchip_flash_0_data+0xf0f0447c>
    4f68:	dcc00317 	ldw	r19,12(sp)
    4f6c:	8829883a 	mov	r20,r17
    4f70:	04800084 	movi	r18,2
    4f74:	003bea06 	br	3f20 <__alt_mem_onchip_flash_0_data+0xf0f03f20>
    4f78:	d9000917 	ldw	r4,36(sp)
    4f7c:	203f1126 	beq	r4,zero,4bc4 <__alt_mem_onchip_flash_0_data+0xf0f04bc4>
    4f80:	d9c00e17 	ldw	r7,56(sp)
    4f84:	01fca20e 	bge	zero,r7,4210 <__alt_mem_onchip_flash_0_data+0xf0f04210>
    4f88:	a00b883a 	mov	r5,r20
    4f8c:	9809883a 	mov	r4,r19
    4f90:	000d883a 	mov	r6,zero
    4f94:	01d00934 	movhi	r7,16420
    4f98:	0009d5c0 	call	9d5c <__muldf3>
    4f9c:	91000044 	addi	r4,r18,1
    4fa0:	1027883a 	mov	r19,r2
    4fa4:	1829883a 	mov	r20,r3
    4fa8:	000a34c0 	call	a34c <__floatsidf>
    4fac:	9809883a 	mov	r4,r19
    4fb0:	a00b883a 	mov	r5,r20
    4fb4:	100d883a 	mov	r6,r2
    4fb8:	180f883a 	mov	r7,r3
    4fbc:	0009d5c0 	call	9d5c <__muldf3>
    4fc0:	1009883a 	mov	r4,r2
    4fc4:	180b883a 	mov	r5,r3
    4fc8:	000d883a 	mov	r6,zero
    4fcc:	01d00734 	movhi	r7,16412
    4fd0:	0009ca80 	call	9ca8 <__adddf3>
    4fd4:	1025883a 	mov	r18,r2
    4fd8:	d8800617 	ldw	r2,24(sp)
    4fdc:	057f3034 	movhi	r21,64704
    4fe0:	1d6b883a 	add	r21,r3,r21
    4fe4:	10bfffc4 	addi	r2,r2,-1
    4fe8:	d8801315 	stw	r2,76(sp)
    4fec:	dac00e17 	ldw	r11,56(sp)
    4ff0:	003be706 	br	3f90 <__alt_mem_onchip_flash_0_data+0xf0f03f90>
    4ff4:	01000e44 	movi	r4,57
    4ff8:	91000005 	stb	r4,0(r18)
    4ffc:	95800044 	addi	r22,r18,1
    5000:	982b883a 	mov	r21,r19
    5004:	003da106 	br	468c <__alt_mem_onchip_flash_0_data+0xf0f0468c>
    5008:	d9801117 	ldw	r6,68(sp)
    500c:	d9c01217 	ldw	r7,72(sp)
    5010:	0009883a 	mov	r4,zero
    5014:	014ff834 	movhi	r5,16352
    5018:	da801515 	stw	r10,84(sp)
    501c:	0009cfc0 	call	9cfc <__subdf3>
    5020:	da801517 	ldw	r10,84(sp)
    5024:	1009883a 	mov	r4,r2
    5028:	180b883a 	mov	r5,r3
    502c:	a80d883a 	mov	r6,r21
    5030:	500f883a 	mov	r7,r10
    5034:	000a2280 	call	a228 <__gtdf2>
    5038:	00bc750e 	bge	zero,r2,4210 <__alt_mem_onchip_flash_0_data+0xf0f04210>
    503c:	01000c04 	movi	r4,48
    5040:	00000106 	br	5048 <_dtoa_r+0x1574>
    5044:	102d883a 	mov	r22,r2
    5048:	b0bfffc4 	addi	r2,r22,-1
    504c:	10c00007 	ldb	r3,0(r2)
    5050:	193ffc26 	beq	r3,r4,5044 <__alt_mem_onchip_flash_0_data+0xf0f05044>
    5054:	d8801317 	ldw	r2,76(sp)
    5058:	d8800615 	stw	r2,24(sp)
    505c:	003c3e06 	br	4158 <__alt_mem_onchip_flash_0_data+0xf0f04158>
    5060:	d9001317 	ldw	r4,76(sp)
    5064:	df001117 	ldw	fp,68(sp)
    5068:	d9000615 	stw	r4,24(sp)
    506c:	003ce006 	br	43f0 <__alt_mem_onchip_flash_0_data+0xf0f043f0>
    5070:	df001117 	ldw	fp,68(sp)
    5074:	dc401217 	ldw	r17,72(sp)
    5078:	003c6506 	br	4210 <__alt_mem_onchip_flash_0_data+0xf0f04210>
    507c:	103e7a1e 	bne	r2,zero,4a68 <__alt_mem_onchip_flash_0_data+0xf0f04a68>
    5080:	1880004c 	andi	r2,r3,1
    5084:	103e7826 	beq	r2,zero,4a68 <__alt_mem_onchip_flash_0_data+0xf0f04a68>
    5088:	003e7406 	br	4a5c <__alt_mem_onchip_flash_0_data+0xf0f04a5c>
    508c:	8009883a 	mov	r4,r16
    5090:	a80b883a 	mov	r5,r21
    5094:	01800284 	movi	r6,10
    5098:	000f883a 	mov	r7,zero
    509c:	0006efc0 	call	6efc <__multadd>
    50a0:	d9000e17 	ldw	r4,56(sp)
    50a4:	102b883a 	mov	r21,r2
    50a8:	d9000915 	stw	r4,36(sp)
    50ac:	003d5106 	br	45f4 <__alt_mem_onchip_flash_0_data+0xf0f045f4>
    50b0:	04800084 	movi	r18,2
    50b4:	003b9a06 	br	3f20 <__alt_mem_onchip_flash_0_data+0xf0f03f20>
    50b8:	d8c01317 	ldw	r3,76(sp)
    50bc:	d8c00615 	stw	r3,24(sp)
    50c0:	003ccb06 	br	43f0 <__alt_mem_onchip_flash_0_data+0xf0f043f0>
    50c4:	d8c01317 	ldw	r3,76(sp)
    50c8:	d8c00615 	stw	r3,24(sp)
    50cc:	003c2206 	br	4158 <__alt_mem_onchip_flash_0_data+0xf0f04158>
    50d0:	20fd3826 	beq	r4,r3,45b4 <__alt_mem_onchip_flash_0_data+0xf0f045b4>
    50d4:	00c00f04 	movi	r3,60
    50d8:	1885c83a 	sub	r2,r3,r2
    50dc:	003da906 	br	4784 <__alt_mem_onchip_flash_0_data+0xf0f04784>
    50e0:	000b883a 	mov	r5,zero
    50e4:	003b5406 	br	3e38 <__alt_mem_onchip_flash_0_data+0xf0f03e38>
    50e8:	04c00044 	movi	r19,1
    50ec:	003b3b06 	br	3ddc <__alt_mem_onchip_flash_0_data+0xf0f03ddc>

000050f0 <_fflush_r>:
    50f0:	defffb04 	addi	sp,sp,-20
    50f4:	dcc00315 	stw	r19,12(sp)
    50f8:	dc400115 	stw	r17,4(sp)
    50fc:	dfc00415 	stw	ra,16(sp)
    5100:	dc800215 	stw	r18,8(sp)
    5104:	dc000015 	stw	r16,0(sp)
    5108:	2027883a 	mov	r19,r4
    510c:	2823883a 	mov	r17,r5
    5110:	20000226 	beq	r4,zero,511c <_fflush_r+0x2c>
    5114:	20800e17 	ldw	r2,56(r4)
    5118:	10005726 	beq	r2,zero,5278 <_fflush_r+0x188>
    511c:	8880030b 	ldhu	r2,12(r17)
    5120:	10c0020c 	andi	r3,r2,8
    5124:	18ffffcc 	andi	r3,r3,65535
    5128:	18e0001c 	xori	r3,r3,32768
    512c:	18e00004 	addi	r3,r3,-32768
    5130:	1800311e 	bne	r3,zero,51f8 <_fflush_r+0x108>
    5134:	89000117 	ldw	r4,4(r17)
    5138:	10c20014 	ori	r3,r2,2048
    513c:	88c0030d 	sth	r3,12(r17)
    5140:	180b883a 	mov	r5,r3
    5144:	0100520e 	bge	zero,r4,5290 <_fflush_r+0x1a0>
    5148:	88c00a17 	ldw	r3,40(r17)
    514c:	18002226 	beq	r3,zero,51d8 <_fflush_r+0xe8>
    5150:	1084000c 	andi	r2,r2,4096
    5154:	10bfffcc 	andi	r2,r2,65535
    5158:	10a0001c 	xori	r2,r2,32768
    515c:	10a00004 	addi	r2,r2,-32768
    5160:	10004e26 	beq	r2,zero,529c <_fflush_r+0x1ac>
    5164:	8c001417 	ldw	r16,80(r17)
    5168:	2940010c 	andi	r5,r5,4
    516c:	297fffcc 	andi	r5,r5,65535
    5170:	2960001c 	xori	r5,r5,32768
    5174:	29600004 	addi	r5,r5,-32768
    5178:	28000626 	beq	r5,zero,5194 <_fflush_r+0xa4>
    517c:	89000117 	ldw	r4,4(r17)
    5180:	88800c17 	ldw	r2,48(r17)
    5184:	8121c83a 	sub	r16,r16,r4
    5188:	10000226 	beq	r2,zero,5194 <_fflush_r+0xa4>
    518c:	88800f17 	ldw	r2,60(r17)
    5190:	80a1c83a 	sub	r16,r16,r2
    5194:	89400717 	ldw	r5,28(r17)
    5198:	9809883a 	mov	r4,r19
    519c:	800d883a 	mov	r6,r16
    51a0:	000f883a 	mov	r7,zero
    51a4:	183ee83a 	callr	r3
    51a8:	8080281e 	bne	r16,r2,524c <_fflush_r+0x15c>
    51ac:	8880030b 	ldhu	r2,12(r17)
    51b0:	88c00417 	ldw	r3,16(r17)
    51b4:	88000115 	stw	zero,4(r17)
    51b8:	113dffcc 	andi	r4,r2,63487
    51bc:	1084000c 	andi	r2,r2,4096
    51c0:	10bfffcc 	andi	r2,r2,65535
    51c4:	10a0001c 	xori	r2,r2,32768
    51c8:	8900030d 	sth	r4,12(r17)
    51cc:	88c00015 	stw	r3,0(r17)
    51d0:	10a00004 	addi	r2,r2,-32768
    51d4:	10002c1e 	bne	r2,zero,5288 <_fflush_r+0x198>
    51d8:	0005883a 	mov	r2,zero
    51dc:	dfc00417 	ldw	ra,16(sp)
    51e0:	dcc00317 	ldw	r19,12(sp)
    51e4:	dc800217 	ldw	r18,8(sp)
    51e8:	dc400117 	ldw	r17,4(sp)
    51ec:	dc000017 	ldw	r16,0(sp)
    51f0:	dec00504 	addi	sp,sp,20
    51f4:	f800283a 	ret
    51f8:	8c800417 	ldw	r18,16(r17)
    51fc:	903ff626 	beq	r18,zero,51d8 <__alt_mem_onchip_flash_0_data+0xf0f051d8>
    5200:	8c000017 	ldw	r16,0(r17)
    5204:	108000cc 	andi	r2,r2,3
    5208:	8c800015 	stw	r18,0(r17)
    520c:	84a1c83a 	sub	r16,r16,r18
    5210:	10001b1e 	bne	r2,zero,5280 <_fflush_r+0x190>
    5214:	88800517 	ldw	r2,20(r17)
    5218:	88800215 	stw	r2,8(r17)
    521c:	04000316 	blt	zero,r16,522c <_fflush_r+0x13c>
    5220:	003fed06 	br	51d8 <__alt_mem_onchip_flash_0_data+0xf0f051d8>
    5224:	90a5883a 	add	r18,r18,r2
    5228:	043feb0e 	bge	zero,r16,51d8 <__alt_mem_onchip_flash_0_data+0xf0f051d8>
    522c:	88800917 	ldw	r2,36(r17)
    5230:	89400717 	ldw	r5,28(r17)
    5234:	800f883a 	mov	r7,r16
    5238:	900d883a 	mov	r6,r18
    523c:	9809883a 	mov	r4,r19
    5240:	103ee83a 	callr	r2
    5244:	80a1c83a 	sub	r16,r16,r2
    5248:	00bff616 	blt	zero,r2,5224 <__alt_mem_onchip_flash_0_data+0xf0f05224>
    524c:	88c0030b 	ldhu	r3,12(r17)
    5250:	00bfffc4 	movi	r2,-1
    5254:	18c01014 	ori	r3,r3,64
    5258:	88c0030d 	sth	r3,12(r17)
    525c:	dfc00417 	ldw	ra,16(sp)
    5260:	dcc00317 	ldw	r19,12(sp)
    5264:	dc800217 	ldw	r18,8(sp)
    5268:	dc400117 	ldw	r17,4(sp)
    526c:	dc000017 	ldw	r16,0(sp)
    5270:	dec00504 	addi	sp,sp,20
    5274:	f800283a 	ret
    5278:	00053980 	call	5398 <__sinit>
    527c:	003fa706 	br	511c <__alt_mem_onchip_flash_0_data+0xf0f0511c>
    5280:	0005883a 	mov	r2,zero
    5284:	003fe406 	br	5218 <__alt_mem_onchip_flash_0_data+0xf0f05218>
    5288:	8c001415 	stw	r16,80(r17)
    528c:	003fd206 	br	51d8 <__alt_mem_onchip_flash_0_data+0xf0f051d8>
    5290:	88c00f17 	ldw	r3,60(r17)
    5294:	00ffac16 	blt	zero,r3,5148 <__alt_mem_onchip_flash_0_data+0xf0f05148>
    5298:	003fcf06 	br	51d8 <__alt_mem_onchip_flash_0_data+0xf0f051d8>
    529c:	89400717 	ldw	r5,28(r17)
    52a0:	9809883a 	mov	r4,r19
    52a4:	000d883a 	mov	r6,zero
    52a8:	01c00044 	movi	r7,1
    52ac:	183ee83a 	callr	r3
    52b0:	1021883a 	mov	r16,r2
    52b4:	00bfffc4 	movi	r2,-1
    52b8:	80800326 	beq	r16,r2,52c8 <_fflush_r+0x1d8>
    52bc:	8940030b 	ldhu	r5,12(r17)
    52c0:	88c00a17 	ldw	r3,40(r17)
    52c4:	003fa806 	br	5168 <__alt_mem_onchip_flash_0_data+0xf0f05168>
    52c8:	98c00017 	ldw	r3,0(r19)
    52cc:	00800744 	movi	r2,29
    52d0:	18bfde1e 	bne	r3,r2,524c <__alt_mem_onchip_flash_0_data+0xf0f0524c>
    52d4:	003fc006 	br	51d8 <__alt_mem_onchip_flash_0_data+0xf0f051d8>

000052d8 <fflush>:
    52d8:	200b883a 	mov	r5,r4
    52dc:	20000426 	beq	r4,zero,52f0 <fflush+0x18>
    52e0:	008000f4 	movhi	r2,3
    52e4:	1088af04 	addi	r2,r2,8892
    52e8:	11000017 	ldw	r4,0(r2)
    52ec:	00050f01 	jmpi	50f0 <_fflush_r>
    52f0:	008000f4 	movhi	r2,3
    52f4:	1088ae04 	addi	r2,r2,8888
    52f8:	11000017 	ldw	r4,0(r2)
    52fc:	01400034 	movhi	r5,0
    5300:	29543c04 	addi	r5,r5,20720
    5304:	0005f781 	jmpi	5f78 <_fwalk_reent>

00005308 <__fp_lock>:
    5308:	0005883a 	mov	r2,zero
    530c:	f800283a 	ret

00005310 <__fp_unlock>:
    5310:	0005883a 	mov	r2,zero
    5314:	f800283a 	ret

00005318 <_cleanup_r>:
    5318:	01400074 	movhi	r5,1
    531c:	29631204 	addi	r5,r5,-29624
    5320:	0005ed01 	jmpi	5ed0 <_fwalk>

00005324 <__sfmoreglue>:
    5324:	defffc04 	addi	sp,sp,-16
    5328:	dc400115 	stw	r17,4(sp)
    532c:	2c401724 	muli	r17,r5,92
    5330:	dc800215 	stw	r18,8(sp)
    5334:	2825883a 	mov	r18,r5
    5338:	89400304 	addi	r5,r17,12
    533c:	dc000015 	stw	r16,0(sp)
    5340:	dfc00315 	stw	ra,12(sp)
    5344:	00062b40 	call	62b4 <_malloc_r>
    5348:	1021883a 	mov	r16,r2
    534c:	10000726 	beq	r2,zero,536c <__sfmoreglue+0x48>
    5350:	11000304 	addi	r4,r2,12
    5354:	10000015 	stw	zero,0(r2)
    5358:	14800115 	stw	r18,4(r2)
    535c:	11000215 	stw	r4,8(r2)
    5360:	000b883a 	mov	r5,zero
    5364:	880d883a 	mov	r6,r17
    5368:	0006d500 	call	6d50 <memset>
    536c:	8005883a 	mov	r2,r16
    5370:	dfc00317 	ldw	ra,12(sp)
    5374:	dc800217 	ldw	r18,8(sp)
    5378:	dc400117 	ldw	r17,4(sp)
    537c:	dc000017 	ldw	r16,0(sp)
    5380:	dec00404 	addi	sp,sp,16
    5384:	f800283a 	ret

00005388 <_cleanup>:
    5388:	008000f4 	movhi	r2,3
    538c:	1088ae04 	addi	r2,r2,8888
    5390:	11000017 	ldw	r4,0(r2)
    5394:	00053181 	jmpi	5318 <_cleanup_r>

00005398 <__sinit>:
    5398:	20800e17 	ldw	r2,56(r4)
    539c:	1000401e 	bne	r2,zero,54a0 <__sinit+0x108>
    53a0:	21400117 	ldw	r5,4(r4)
    53a4:	01800034 	movhi	r6,0
    53a8:	3194c604 	addi	r6,r6,21272
    53ac:	20c00217 	ldw	r3,8(r4)
    53b0:	21800f15 	stw	r6,60(r4)
    53b4:	2080bb04 	addi	r2,r4,748
    53b8:	02400044 	movi	r9,1
    53bc:	018000c4 	movi	r6,3
    53c0:	2180b915 	stw	r6,740(r4)
    53c4:	2080ba15 	stw	r2,744(r4)
    53c8:	22400e15 	stw	r9,56(r4)
    53cc:	20800317 	ldw	r2,12(r4)
    53d0:	2000b815 	stw	zero,736(r4)
    53d4:	02000074 	movhi	r8,1
    53d8:	42219104 	addi	r8,r8,-31164
    53dc:	01c00074 	movhi	r7,1
    53e0:	39e1a604 	addi	r7,r7,-31080
    53e4:	01800074 	movhi	r6,1
    53e8:	31a1c804 	addi	r6,r6,-30944
    53ec:	01000074 	movhi	r4,1
    53f0:	2121df04 	addi	r4,r4,-30852
    53f4:	02800104 	movi	r10,4
    53f8:	28000015 	stw	zero,0(r5)
    53fc:	28000115 	stw	zero,4(r5)
    5400:	28000215 	stw	zero,8(r5)
    5404:	2a80030d 	sth	r10,12(r5)
    5408:	2800038d 	sth	zero,14(r5)
    540c:	28000415 	stw	zero,16(r5)
    5410:	28000515 	stw	zero,20(r5)
    5414:	28000615 	stw	zero,24(r5)
    5418:	29400715 	stw	r5,28(r5)
    541c:	2a000815 	stw	r8,32(r5)
    5420:	29c00915 	stw	r7,36(r5)
    5424:	29800a15 	stw	r6,40(r5)
    5428:	29000b15 	stw	r4,44(r5)
    542c:	01400284 	movi	r5,10
    5430:	18000015 	stw	zero,0(r3)
    5434:	18000115 	stw	zero,4(r3)
    5438:	18000215 	stw	zero,8(r3)
    543c:	1940030d 	sth	r5,12(r3)
    5440:	1a40038d 	sth	r9,14(r3)
    5444:	18000415 	stw	zero,16(r3)
    5448:	18000515 	stw	zero,20(r3)
    544c:	18000615 	stw	zero,24(r3)
    5450:	18c00715 	stw	r3,28(r3)
    5454:	1a000815 	stw	r8,32(r3)
    5458:	19c00915 	stw	r7,36(r3)
    545c:	19800a15 	stw	r6,40(r3)
    5460:	19000b15 	stw	r4,44(r3)
    5464:	00c00484 	movi	r3,18
    5468:	10c0030d 	sth	r3,12(r2)
    546c:	00c00084 	movi	r3,2
    5470:	10000015 	stw	zero,0(r2)
    5474:	10000115 	stw	zero,4(r2)
    5478:	10000215 	stw	zero,8(r2)
    547c:	10c0038d 	sth	r3,14(r2)
    5480:	10000415 	stw	zero,16(r2)
    5484:	10000515 	stw	zero,20(r2)
    5488:	10000615 	stw	zero,24(r2)
    548c:	10800715 	stw	r2,28(r2)
    5490:	12000815 	stw	r8,32(r2)
    5494:	11c00915 	stw	r7,36(r2)
    5498:	11800a15 	stw	r6,40(r2)
    549c:	11000b15 	stw	r4,44(r2)
    54a0:	f800283a 	ret

000054a4 <__sfp>:
    54a4:	defffc04 	addi	sp,sp,-16
    54a8:	008000f4 	movhi	r2,3
    54ac:	1088ae04 	addi	r2,r2,8888
    54b0:	dc400115 	stw	r17,4(sp)
    54b4:	14400017 	ldw	r17,0(r2)
    54b8:	dc800215 	stw	r18,8(sp)
    54bc:	dfc00315 	stw	ra,12(sp)
    54c0:	88800e17 	ldw	r2,56(r17)
    54c4:	dc000015 	stw	r16,0(sp)
    54c8:	2025883a 	mov	r18,r4
    54cc:	10002826 	beq	r2,zero,5570 <__sfp+0xcc>
    54d0:	8c40b804 	addi	r17,r17,736
    54d4:	043fffc4 	movi	r16,-1
    54d8:	89400117 	ldw	r5,4(r17)
    54dc:	88800217 	ldw	r2,8(r17)
    54e0:	297fffc4 	addi	r5,r5,-1
    54e4:	28000a16 	blt	r5,zero,5510 <__sfp+0x6c>
    54e8:	10c0030f 	ldh	r3,12(r2)
    54ec:	18000c26 	beq	r3,zero,5520 <__sfp+0x7c>
    54f0:	10c01a04 	addi	r3,r2,104
    54f4:	00000206 	br	5500 <__sfp+0x5c>
    54f8:	19bfe90f 	ldh	r6,-92(r3)
    54fc:	30000826 	beq	r6,zero,5520 <__sfp+0x7c>
    5500:	297fffc4 	addi	r5,r5,-1
    5504:	18bffd04 	addi	r2,r3,-12
    5508:	18c01704 	addi	r3,r3,92
    550c:	2c3ffa1e 	bne	r5,r16,54f8 <__alt_mem_onchip_flash_0_data+0xf0f054f8>
    5510:	88800017 	ldw	r2,0(r17)
    5514:	10001926 	beq	r2,zero,557c <__sfp+0xd8>
    5518:	1023883a 	mov	r17,r2
    551c:	003fee06 	br	54d8 <__alt_mem_onchip_flash_0_data+0xf0f054d8>
    5520:	00ffffc4 	movi	r3,-1
    5524:	10c0038d 	sth	r3,14(r2)
    5528:	00c00044 	movi	r3,1
    552c:	10c0030d 	sth	r3,12(r2)
    5530:	10000015 	stw	zero,0(r2)
    5534:	10000215 	stw	zero,8(r2)
    5538:	10000115 	stw	zero,4(r2)
    553c:	10000415 	stw	zero,16(r2)
    5540:	10000515 	stw	zero,20(r2)
    5544:	10000615 	stw	zero,24(r2)
    5548:	10000c15 	stw	zero,48(r2)
    554c:	10000d15 	stw	zero,52(r2)
    5550:	10001115 	stw	zero,68(r2)
    5554:	10001215 	stw	zero,72(r2)
    5558:	dfc00317 	ldw	ra,12(sp)
    555c:	dc800217 	ldw	r18,8(sp)
    5560:	dc400117 	ldw	r17,4(sp)
    5564:	dc000017 	ldw	r16,0(sp)
    5568:	dec00404 	addi	sp,sp,16
    556c:	f800283a 	ret
    5570:	8809883a 	mov	r4,r17
    5574:	00053980 	call	5398 <__sinit>
    5578:	003fd506 	br	54d0 <__alt_mem_onchip_flash_0_data+0xf0f054d0>
    557c:	9009883a 	mov	r4,r18
    5580:	01400104 	movi	r5,4
    5584:	00053240 	call	5324 <__sfmoreglue>
    5588:	88800015 	stw	r2,0(r17)
    558c:	103fe21e 	bne	r2,zero,5518 <__alt_mem_onchip_flash_0_data+0xf0f05518>
    5590:	00800304 	movi	r2,12
    5594:	90800015 	stw	r2,0(r18)
    5598:	0005883a 	mov	r2,zero
    559c:	003fee06 	br	5558 <__alt_mem_onchip_flash_0_data+0xf0f05558>

000055a0 <__sfp_lock_acquire>:
    55a0:	f800283a 	ret

000055a4 <__sfp_lock_release>:
    55a4:	f800283a 	ret

000055a8 <__sinit_lock_acquire>:
    55a8:	f800283a 	ret

000055ac <__sinit_lock_release>:
    55ac:	f800283a 	ret

000055b0 <__fp_lock_all>:
    55b0:	008000f4 	movhi	r2,3
    55b4:	1088af04 	addi	r2,r2,8892
    55b8:	11000017 	ldw	r4,0(r2)
    55bc:	01400034 	movhi	r5,0
    55c0:	2954c204 	addi	r5,r5,21256
    55c4:	0005ed01 	jmpi	5ed0 <_fwalk>

000055c8 <__fp_unlock_all>:
    55c8:	008000f4 	movhi	r2,3
    55cc:	1088af04 	addi	r2,r2,8892
    55d0:	11000017 	ldw	r4,0(r2)
    55d4:	01400034 	movhi	r5,0
    55d8:	2954c404 	addi	r5,r5,21264
    55dc:	0005ed01 	jmpi	5ed0 <_fwalk>

000055e0 <_malloc_trim_r>:
    55e0:	defffb04 	addi	sp,sp,-20
    55e4:	dcc00315 	stw	r19,12(sp)
    55e8:	dc800215 	stw	r18,8(sp)
    55ec:	dc400115 	stw	r17,4(sp)
    55f0:	dc000015 	stw	r16,0(sp)
    55f4:	2827883a 	mov	r19,r5
    55f8:	dfc00415 	stw	ra,16(sp)
    55fc:	044000f4 	movhi	r17,3
    5600:	8c42e104 	addi	r17,r17,2948
    5604:	2021883a 	mov	r16,r4
    5608:	000af140 	call	af14 <__malloc_lock>
    560c:	88800217 	ldw	r2,8(r17)
    5610:	14800117 	ldw	r18,4(r2)
    5614:	00bfff04 	movi	r2,-4
    5618:	90a4703a 	and	r18,r18,r2
    561c:	9083fbc4 	addi	r2,r18,4079
    5620:	14e7c83a 	sub	r19,r2,r19
    5624:	9826d33a 	srli	r19,r19,12
    5628:	0083ffc4 	movi	r2,4095
    562c:	9cffffc4 	addi	r19,r19,-1
    5630:	9826933a 	slli	r19,r19,12
    5634:	14c0060e 	bge	r2,r19,5650 <_malloc_trim_r+0x70>
    5638:	8009883a 	mov	r4,r16
    563c:	000b883a 	mov	r5,zero
    5640:	00085e00 	call	85e0 <_sbrk_r>
    5644:	88c00217 	ldw	r3,8(r17)
    5648:	1c87883a 	add	r3,r3,r18
    564c:	10c00a26 	beq	r2,r3,5678 <_malloc_trim_r+0x98>
    5650:	8009883a 	mov	r4,r16
    5654:	000af180 	call	af18 <__malloc_unlock>
    5658:	0005883a 	mov	r2,zero
    565c:	dfc00417 	ldw	ra,16(sp)
    5660:	dcc00317 	ldw	r19,12(sp)
    5664:	dc800217 	ldw	r18,8(sp)
    5668:	dc400117 	ldw	r17,4(sp)
    566c:	dc000017 	ldw	r16,0(sp)
    5670:	dec00504 	addi	sp,sp,20
    5674:	f800283a 	ret
    5678:	8009883a 	mov	r4,r16
    567c:	04cbc83a 	sub	r5,zero,r19
    5680:	00085e00 	call	85e0 <_sbrk_r>
    5684:	00ffffc4 	movi	r3,-1
    5688:	10c01326 	beq	r2,r3,56d8 <_malloc_trim_r+0xf8>
    568c:	008000f4 	movhi	r2,3
    5690:	108fbe04 	addi	r2,r2,16120
    5694:	11000017 	ldw	r4,0(r2)
    5698:	88c00217 	ldw	r3,8(r17)
    569c:	94e5c83a 	sub	r18,r18,r19
    56a0:	94800054 	ori	r18,r18,1
    56a4:	24e7c83a 	sub	r19,r4,r19
    56a8:	1c800115 	stw	r18,4(r3)
    56ac:	8009883a 	mov	r4,r16
    56b0:	14c00015 	stw	r19,0(r2)
    56b4:	000af180 	call	af18 <__malloc_unlock>
    56b8:	00800044 	movi	r2,1
    56bc:	dfc00417 	ldw	ra,16(sp)
    56c0:	dcc00317 	ldw	r19,12(sp)
    56c4:	dc800217 	ldw	r18,8(sp)
    56c8:	dc400117 	ldw	r17,4(sp)
    56cc:	dc000017 	ldw	r16,0(sp)
    56d0:	dec00504 	addi	sp,sp,20
    56d4:	f800283a 	ret
    56d8:	8009883a 	mov	r4,r16
    56dc:	000b883a 	mov	r5,zero
    56e0:	00085e00 	call	85e0 <_sbrk_r>
    56e4:	88c00217 	ldw	r3,8(r17)
    56e8:	014003c4 	movi	r5,15
    56ec:	10c9c83a 	sub	r4,r2,r3
    56f0:	293fd70e 	bge	r5,r4,5650 <__alt_mem_onchip_flash_0_data+0xf0f05650>
    56f4:	014000f4 	movhi	r5,3
    56f8:	2948b104 	addi	r5,r5,8900
    56fc:	29400017 	ldw	r5,0(r5)
    5700:	21000054 	ori	r4,r4,1
    5704:	19000115 	stw	r4,4(r3)
    5708:	1145c83a 	sub	r2,r2,r5
    570c:	014000f4 	movhi	r5,3
    5710:	294fbe04 	addi	r5,r5,16120
    5714:	28800015 	stw	r2,0(r5)
    5718:	003fcd06 	br	5650 <__alt_mem_onchip_flash_0_data+0xf0f05650>

0000571c <_free_r>:
    571c:	defffd04 	addi	sp,sp,-12
    5720:	dc400115 	stw	r17,4(sp)
    5724:	dc000015 	stw	r16,0(sp)
    5728:	dfc00215 	stw	ra,8(sp)
    572c:	2821883a 	mov	r16,r5
    5730:	2023883a 	mov	r17,r4
    5734:	28004b26 	beq	r5,zero,5864 <_free_r+0x148>
    5738:	000af140 	call	af14 <__malloc_lock>
    573c:	823fff17 	ldw	r8,-4(r16)
    5740:	00bfff84 	movi	r2,-2
    5744:	81bffe04 	addi	r6,r16,-8
    5748:	4084703a 	and	r2,r8,r2
    574c:	3087883a 	add	r3,r6,r2
    5750:	014000f4 	movhi	r5,3
    5754:	2942e104 	addi	r5,r5,2948
    5758:	1a400117 	ldw	r9,4(r3)
    575c:	29000217 	ldw	r4,8(r5)
    5760:	01ffff04 	movi	r7,-4
    5764:	49ce703a 	and	r7,r9,r7
    5768:	20c06526 	beq	r4,r3,5900 <_free_r+0x1e4>
    576c:	19c00115 	stw	r7,4(r3)
    5770:	4200004c 	andi	r8,r8,1
    5774:	40003026 	beq	r8,zero,5838 <_free_r+0x11c>
    5778:	0009883a 	mov	r4,zero
    577c:	19d1883a 	add	r8,r3,r7
    5780:	42000117 	ldw	r8,4(r8)
    5784:	4200004c 	andi	r8,r8,1
    5788:	4000061e 	bne	r8,zero,57a4 <_free_r+0x88>
    578c:	11c5883a 	add	r2,r2,r7
    5790:	19c00217 	ldw	r7,8(r3)
    5794:	20004e26 	beq	r4,zero,58d0 <_free_r+0x1b4>
    5798:	18c00317 	ldw	r3,12(r3)
    579c:	38c00315 	stw	r3,12(r7)
    57a0:	19c00215 	stw	r7,8(r3)
    57a4:	11c00054 	ori	r7,r2,1
    57a8:	3087883a 	add	r3,r6,r2
    57ac:	31c00115 	stw	r7,4(r6)
    57b0:	18800015 	stw	r2,0(r3)
    57b4:	20001a1e 	bne	r4,zero,5820 <_free_r+0x104>
    57b8:	00c07fc4 	movi	r3,511
    57bc:	18802e2e 	bgeu	r3,r2,5878 <_free_r+0x15c>
    57c0:	1006d27a 	srli	r3,r2,9
    57c4:	01000104 	movi	r4,4
    57c8:	20c06636 	bltu	r4,r3,5964 <_free_r+0x248>
    57cc:	1008d1ba 	srli	r4,r2,6
    57d0:	21000e04 	addi	r4,r4,56
    57d4:	210f883a 	add	r7,r4,r4
    57d8:	39cf883a 	add	r7,r7,r7
    57dc:	39cf883a 	add	r7,r7,r7
    57e0:	29cf883a 	add	r7,r5,r7
    57e4:	38c00217 	ldw	r3,8(r7)
    57e8:	014000f4 	movhi	r5,3
    57ec:	2942e104 	addi	r5,r5,2948
    57f0:	19c06126 	beq	r3,r7,5978 <_free_r+0x25c>
    57f4:	013fff04 	movi	r4,-4
    57f8:	19400117 	ldw	r5,4(r3)
    57fc:	290a703a 	and	r5,r5,r4
    5800:	1140022e 	bgeu	r2,r5,580c <_free_r+0xf0>
    5804:	18c00217 	ldw	r3,8(r3)
    5808:	38fffb1e 	bne	r7,r3,57f8 <__alt_mem_onchip_flash_0_data+0xf0f057f8>
    580c:	18800317 	ldw	r2,12(r3)
    5810:	30800315 	stw	r2,12(r6)
    5814:	30c00215 	stw	r3,8(r6)
    5818:	11800215 	stw	r6,8(r2)
    581c:	19800315 	stw	r6,12(r3)
    5820:	8809883a 	mov	r4,r17
    5824:	dfc00217 	ldw	ra,8(sp)
    5828:	dc400117 	ldw	r17,4(sp)
    582c:	dc000017 	ldw	r16,0(sp)
    5830:	dec00304 	addi	sp,sp,12
    5834:	000af181 	jmpi	af18 <__malloc_unlock>
    5838:	813ffe17 	ldw	r4,-8(r16)
    583c:	2a400204 	addi	r9,r5,8
    5840:	310dc83a 	sub	r6,r6,r4
    5844:	32000217 	ldw	r8,8(r6)
    5848:	1105883a 	add	r2,r2,r4
    584c:	42404326 	beq	r8,r9,595c <_free_r+0x240>
    5850:	32400317 	ldw	r9,12(r6)
    5854:	0009883a 	mov	r4,zero
    5858:	42400315 	stw	r9,12(r8)
    585c:	4a000215 	stw	r8,8(r9)
    5860:	003fc606 	br	577c <__alt_mem_onchip_flash_0_data+0xf0f0577c>
    5864:	dfc00217 	ldw	ra,8(sp)
    5868:	dc400117 	ldw	r17,4(sp)
    586c:	dc000017 	ldw	r16,0(sp)
    5870:	dec00304 	addi	sp,sp,12
    5874:	f800283a 	ret
    5878:	1004d0fa 	srli	r2,r2,3
    587c:	02000044 	movi	r8,1
    5880:	29c00117 	ldw	r7,4(r5)
    5884:	1087883a 	add	r3,r2,r2
    5888:	18c7883a 	add	r3,r3,r3
    588c:	1005d0ba 	srai	r2,r2,2
    5890:	18c7883a 	add	r3,r3,r3
    5894:	28c7883a 	add	r3,r5,r3
    5898:	19000217 	ldw	r4,8(r3)
    589c:	4084983a 	sll	r2,r8,r2
    58a0:	30c00315 	stw	r3,12(r6)
    58a4:	31000215 	stw	r4,8(r6)
    58a8:	11c4b03a 	or	r2,r2,r7
    58ac:	21800315 	stw	r6,12(r4)
    58b0:	8809883a 	mov	r4,r17
    58b4:	28800115 	stw	r2,4(r5)
    58b8:	19800215 	stw	r6,8(r3)
    58bc:	dfc00217 	ldw	ra,8(sp)
    58c0:	dc400117 	ldw	r17,4(sp)
    58c4:	dc000017 	ldw	r16,0(sp)
    58c8:	dec00304 	addi	sp,sp,12
    58cc:	000af181 	jmpi	af18 <__malloc_unlock>
    58d0:	020000f4 	movhi	r8,3
    58d4:	4202e304 	addi	r8,r8,2956
    58d8:	3a3faf1e 	bne	r7,r8,5798 <__alt_mem_onchip_flash_0_data+0xf0f05798>
    58dc:	29800515 	stw	r6,20(r5)
    58e0:	29800415 	stw	r6,16(r5)
    58e4:	11000054 	ori	r4,r2,1
    58e8:	3087883a 	add	r3,r6,r2
    58ec:	31c00315 	stw	r7,12(r6)
    58f0:	31c00215 	stw	r7,8(r6)
    58f4:	31000115 	stw	r4,4(r6)
    58f8:	18800015 	stw	r2,0(r3)
    58fc:	003fc806 	br	5820 <__alt_mem_onchip_flash_0_data+0xf0f05820>
    5900:	4200004c 	andi	r8,r8,1
    5904:	3885883a 	add	r2,r7,r2
    5908:	4000071e 	bne	r8,zero,5928 <_free_r+0x20c>
    590c:	81fffe17 	ldw	r7,-8(r16)
    5910:	31cdc83a 	sub	r6,r6,r7
    5914:	30c00317 	ldw	r3,12(r6)
    5918:	31000217 	ldw	r4,8(r6)
    591c:	11c5883a 	add	r2,r2,r7
    5920:	20c00315 	stw	r3,12(r4)
    5924:	19000215 	stw	r4,8(r3)
    5928:	00c000f4 	movhi	r3,3
    592c:	18c8b204 	addi	r3,r3,8904
    5930:	18c00017 	ldw	r3,0(r3)
    5934:	11000054 	ori	r4,r2,1
    5938:	31000115 	stw	r4,4(r6)
    593c:	29800215 	stw	r6,8(r5)
    5940:	10ffb736 	bltu	r2,r3,5820 <__alt_mem_onchip_flash_0_data+0xf0f05820>
    5944:	008000f4 	movhi	r2,3
    5948:	108fb504 	addi	r2,r2,16084
    594c:	11400017 	ldw	r5,0(r2)
    5950:	8809883a 	mov	r4,r17
