
sodailte_awa.elf:     file format elf32-littlenios2
sodailte_awa.elf
architecture: nios2, flags 0x00000112:
EXEC_P, HAS_SYMS, D_PAGED
start address 0x0000018c

Program Header:
    LOAD off    0x00001020 vaddr 0x00000020 paddr 0x00000020 align 2**12
         filesz 0x00030758 memsz 0x00030758 flags r-x
    LOAD off    0x00031778 vaddr 0x00030778 paddr 0x0003230c align 2**12
         filesz 0x00001b94 memsz 0x00001b94 flags rw-
    LOAD off    0x00033ea0 vaddr 0x00033ea0 paddr 0x00033ea0 align 2**12
         filesz 0x00000000 memsz 0x00000310 flags rw-
    LOAD off    0x00034000 vaddr 0x0f000000 paddr 0x0f000000 align 2**12
         filesz 0x00000020 memsz 0x00000020 flags r-x

Sections:
Idx Name          Size      VMA       LMA       File off  Algn
  0 .entry        00000020  0f000000  0f000000  00034000  2**5
                  CONTENTS, ALLOC, LOAD, READONLY, CODE
  1 .exceptions   0000016c  00000020  00000020  00001020  2**2
                  CONTENTS, ALLOC, LOAD, READONLY, CODE
  2 .text         0000cef4  0000018c  0000018c  0000118c  2**2
                  CONTENTS, ALLOC, LOAD, READONLY, CODE
  3 .rodata       000236f8  0000d080  0000d080  0000e080  2**2
                  CONTENTS, ALLOC, LOAD, READONLY, DATA
  4 .rwdata       00001b94  00030778  0003230c  00031778  2**2
                  CONTENTS, ALLOC, LOAD, DATA, SMALL_DATA
  5 .bss          00000310  00033ea0  00033ea0  00033ea0  2**2
                  ALLOC, SMALL_DATA
  6 .comment      00000023  00000000  00000000  00034020  2**0
                  CONTENTS, READONLY
  7 .debug_aranges 00000f20  00000000  00000000  00034048  2**3
                  CONTENTS, READONLY, DEBUGGING
  8 .debug_info   0002aa0b  00000000  00000000  00034f68  2**0
                  CONTENTS, READONLY, DEBUGGING
  9 .debug_abbrev 0000aee4  00000000  00000000  0005f973  2**0
                  CONTENTS, READONLY, DEBUGGING
 10 .debug_line   0000c0b1  00000000  00000000  0006a857  2**0
                  CONTENTS, READONLY, DEBUGGING
 11 .debug_frame  00001b58  00000000  00000000  00076908  2**2
                  CONTENTS, READONLY, DEBUGGING
 12 .debug_str    00003da3  00000000  00000000  00078460  2**0
                  CONTENTS, READONLY, DEBUGGING
 13 .debug_loc    00014b47  00000000  00000000  0007c203  2**0
                  CONTENTS, READONLY, DEBUGGING
 14 .debug_alt_sim_info 00000030  00000000  00000000  00090d4c  2**2
                  CONTENTS, READONLY, DEBUGGING
 15 .debug_ranges 00000d78  00000000  00000000  00090d80  2**3
                  CONTENTS, READONLY, DEBUGGING
 16 .thread_model 00000003  00000000  00000000  000954c0  2**0
                  CONTENTS, READONLY
 17 .cpu          0000000c  00000000  00000000  000954c3  2**0
                  CONTENTS, READONLY
 18 .qsys         00000001  00000000  00000000  000954cf  2**0
                  CONTENTS, READONLY
 19 .simulation_enabled 00000001  00000000  00000000  000954d0  2**0
                  CONTENTS, READONLY
 20 .sysid_hash   00000004  00000000  00000000  000954d1  2**0
                  CONTENTS, READONLY
 21 .sysid_base   00000004  00000000  00000000  000954d5  2**0
                  CONTENTS, READONLY
 22 .sysid_time   00000004  00000000  00000000  000954d9  2**0
                  CONTENTS, READONLY
 23 .stderr_dev   00000009  00000000  00000000  000954dd  2**0
                  CONTENTS, READONLY
 24 .stdin_dev    00000009  00000000  00000000  000954e6  2**0
                  CONTENTS, READONLY
 25 .stdout_dev   00000009  00000000  00000000  000954ef  2**0
                  CONTENTS, READONLY
 26 .sopc_system_name 00000008  00000000  00000000  000954f8  2**0
                  CONTENTS, READONLY
 27 .sopcinfo     00078592  00000000  00000000  00095500  2**0
                  CONTENTS, READONLY
SYMBOL TABLE:
0f000000 l    d  .entry	00000000 .entry
00000020 l    d  .exceptions	00000000 .exceptions
0000018c l    d  .text	00000000 .text
0000d080 l    d  .rodata	00000000 .rodata
00030778 l    d  .rwdata	00000000 .rwdata
00033ea0 l    d  .bss	00000000 .bss
00000000 l    d  .comment	00000000 .comment
00000000 l    d  .debug_aranges	00000000 .debug_aranges
00000000 l    d  .debug_info	00000000 .debug_info
00000000 l    d  .debug_abbrev	00000000 .debug_abbrev
00000000 l    d  .debug_line	00000000 .debug_line
00000000 l    d  .debug_frame	00000000 .debug_frame
00000000 l    d  .debug_str	00000000 .debug_str
00000000 l    d  .debug_loc	00000000 .debug_loc
00000000 l    d  .debug_alt_sim_info	00000000 .debug_alt_sim_info
00000000 l    d  .debug_ranges	00000000 .debug_ranges
00000000 l    df *ABS*	00000000 ../sodalite_filetest_bsp//obj/HAL/src/crt0.o
000001d4 l       .text	00000000 alt_after_alt_main
00000000 l    df *ABS*	00000000 alt_irq_handler.c
00000000 l    df *ABS*	00000000 alt_instruction_exception_entry.c
00030738 l     O .rodata	00000040 CSWTCH.5
00000000 l    df *ABS*	00000000 awa.c
00000000 l    df *ABS*	00000000 fontx_k12x10.c
00000000 l    df *ABS*	00000000 fontx_k6x10.c
00000000 l    df *ABS*	00000000 nd_egl.c
00000400 l     F .text	00000098 nd_GsEglFontx_putkanji
00033ea0 l     O .bss	00000004 nd_color
00033ea4 l     O .bss	00000004 nd_bgcolor
00033ea8 l     O .bss	00000004 nd_pastel
00033eac l     O .bss	00000004 pFONTX_ascii_top
00033eb0 l     O .bss	00000004 pFONTX_kanji_top
00000000 l    df *ABS*	00000000 testuty.c
000301ea l     O .rodata	00000200 memcrc16table
00000000 l    df *ABS*	00000000 lib2-divmod.c
000015b0 l     F .text	00000074 udivmodsi4
00000000 l    df *ABS*	00000000 printf.c
00000000 l    df *ABS*	00000000 putchar.c
00000000 l    df *ABS*	00000000 puts.c
00000000 l    df *ABS*	00000000 rand.c
00000000 l    df *ABS*	00000000 strlen.c
00000000 l    df *ABS*	00000000 vfprintf.c
00001908 l     F .text	00000034 __sprint_r
0003042e l     O .rodata	00000010 blanks.3546
0003043e l     O .rodata	00000010 zeroes.3547
00000000 l    df *ABS*	00000000 wsetup.c
00000000 l    df *ABS*	00000000 dtoa.c
000038cc l     F .text	00000208 quorem
00000000 l    df *ABS*	00000000 fflush.c
00000000 l    df *ABS*	00000000 findfp.c
00005308 l     F .text	00000008 __fp_lock
00005310 l     F .text	00000008 __fp_unlock
00000000 l    df *ABS*	00000000 mallocr.c
00000000 l    df *ABS*	00000000 fvwrite.c
00000000 l    df *ABS*	00000000 fwalk.c
00000000 l    df *ABS*	00000000 impure.c
00030778 l     O .rwdata	00000400 impure_data
00000000 l    df *ABS*	00000000 locale.c
00030474 l     O .rodata	00000030 lconv
00000000 l    df *ABS*	00000000 makebuf.c
00000000 l    df *ABS*	00000000 mallocr.c
00000000 l    df *ABS*	00000000 memchr.c
00000000 l    df *ABS*	00000000 memcpy.c
00000000 l    df *ABS*	00000000 memmove.c
00000000 l    df *ABS*	00000000 memset.c
00000000 l    df *ABS*	00000000 mprec.c
000305bc l     O .rodata	0000000c p05.2466
00000000 l    df *ABS*	00000000 putc.c
00000000 l    df *ABS*	00000000 mallocr.c
00000000 l    df *ABS*	00000000 s_isinfd.c
00000000 l    df *ABS*	00000000 s_isnand.c
00000000 l    df *ABS*	00000000 sbrkr.c
00000000 l    df *ABS*	00000000 stdio.c
00000000 l    df *ABS*	00000000 strcmp.c
00000000 l    df *ABS*	00000000 wbuf.c
00000000 l    df *ABS*	00000000 writer.c
00000000 l    df *ABS*	00000000 mallocr.c
00000000 l    df *ABS*	00000000 closer.c
00000000 l    df *ABS*	00000000 fclose.c
00000000 l    df *ABS*	00000000 fstatr.c
00000000 l    df *ABS*	00000000 int_errno.c
00000000 l    df *ABS*	00000000 isattyr.c
00000000 l    df *ABS*	00000000 lseekr.c
00000000 l    df *ABS*	00000000 readr.c
00000000 l    df *ABS*	00000000 libgcc2.c
00000000 l    df *ABS*	00000000 libgcc2.c
00000000 l    df *ABS*	00000000 fp-bit.c
00009954 l     F .text	00000354 _fpadd_parts
00000000 l    df *ABS*	00000000 fp-bit.c
00000000 l    df *ABS*	00000000 fp-bit.c
00000000 l    df *ABS*	00000000 fp-bit.c
00000000 l    df *ABS*	00000000 fp-bit.c
00000000 l    df *ABS*	00000000 fp-bit.c
00000000 l    df *ABS*	00000000 fp-bit.c
00000000 l    df *ABS*	00000000 fp-bit.c
00000000 l    df *ABS*	00000000 fp-bit.c
00000000 l    df *ABS*	00000000 fp-bit.c
00000000 l    df *ABS*	00000000 fp-bit.c
00000000 l    df *ABS*	00000000 fp-bit.c
00000000 l    df *ABS*	00000000 libgcc2.c
00000000 l    df *ABS*	00000000 libgcc2.c
00000000 l    df *ABS*	00000000 fp-bit.c
00000000 l    df *ABS*	00000000 fp-bit.c
00000000 l    df *ABS*	00000000 fp-bit.c
00000000 l    df *ABS*	00000000 libgcc2.c
00000000 l    df *ABS*	00000000 libgcc2.c
00000000 l    df *ABS*	00000000 alt_close.c
00000000 l    df *ABS*	00000000 alt_dev.c
0000ac0c l     F .text	00000008 alt_dev_null_write
00000000 l    df *ABS*	00000000 alt_errno.c
00000000 l    df *ABS*	00000000 alt_fstat.c
00000000 l    df *ABS*	00000000 alt_isatty.c
00000000 l    df *ABS*	00000000 alt_load.c
00000000 l    df *ABS*	00000000 alt_lseek.c
00000000 l    df *ABS*	00000000 alt_main.c
00000000 l    df *ABS*	00000000 alt_malloc_lock.c
00000000 l    df *ABS*	00000000 alt_read.c
00000000 l    df *ABS*	00000000 alt_release_fd.c
00000000 l    df *ABS*	00000000 alt_sbrk.c
000322e4 l     O .rwdata	00000004 heap_end
00000000 l    df *ABS*	00000000 alt_uncached_malloc.c
00000000 l    df *ABS*	00000000 alt_write.c
00000000 l    df *ABS*	00000000 alt_sys_init.c
00031134 l     O .rwdata	00001060 jtag_uart
00032194 l     O .rwdata	00000028 modular_adc_0
000321bc l     O .rwdata	000000fc onchip_flash_0
00000000 l    df *ABS*	00000000 altera_avalon_jtag_uart_fd.c
00000000 l    df *ABS*	00000000 altera_avalon_jtag_uart_init.c
0000b288 l     F .text	0000005c altera_avalon_jtag_uart_timeout
0000b2e4 l     F .text	00000104 altera_avalon_jtag_uart_irq
00000000 l    df *ABS*	00000000 altera_avalon_jtag_uart_ioctl.c
00000000 l    df *ABS*	00000000 altera_avalon_jtag_uart_read.c
00000000 l    df *ABS*	00000000 altera_avalon_jtag_uart_write.c
00000000 l    df *ABS*	00000000 altera_avalon_timer_sc.c
0000b7c8 l     F .text	0000003c alt_avalon_timer_sc_irq
00000000 l    df *ABS*	00000000 altera_modular_adc.c
00000000 l    df *ABS*	00000000 altera_onchip_flash.c
00000000 l    df *ABS*	00000000 alt_alarm_start.c
00000000 l    df *ABS*	00000000 alt_dcache_flush.c
00000000 l    df *ABS*	00000000 alt_dcache_flush_all.c
00000000 l    df *ABS*	00000000 alt_dev_llist_insert.c
00000000 l    df *ABS*	00000000 alt_do_ctors.c
00000000 l    df *ABS*	00000000 alt_do_dtors.c
00000000 l    df *ABS*	00000000 alt_find_dev.c
00000000 l    df *ABS*	00000000 alt_flash_dev.c
00000000 l    df *ABS*	00000000 alt_icache_flush_all.c
00000000 l    df *ABS*	00000000 alt_iic.c
00000000 l    df *ABS*	00000000 alt_iic_isr_register.c
00000000 l    df *ABS*	00000000 alt_io_redirect.c
0000c5d4 l     F .text	00000070 alt_open_fd.constprop.0
00000000 l    df *ABS*	00000000 alt_irq_vars.c
00000000 l    df *ABS*	00000000 alt_open.c
00000000 l    df *ABS*	00000000 alt_tick.c
00000000 l    df *ABS*	00000000 altera_nios2_gen2_irq.c
00000000 l    df *ABS*	00000000 alt_find_file.c
00000000 l    df *ABS*	00000000 alt_get_fd.c
00000000 l    df *ABS*	00000000 alt_icache_flush.c
00000000 l    df *ABS*	00000000 atexit.c
00000000 l    df *ABS*	00000000 exit.c
00000000 l    df *ABS*	00000000 malign.c
00000000 l    df *ABS*	00000000 mallocr.c
00000000 l    df *ABS*	00000000 memcmp.c
00000000 l    df *ABS*	00000000 __atexit.c
00000000 l    df *ABS*	00000000 __call_atexit.c
00000000 l    df *ABS*	00000000 alt_exit.c
00000000 l    df *ABS*	00000000 
00033ef4 g     O .bss	00000004 alt_instruction_exception_handler
00001750 g     F .text	0000001c putchar
00007c60 g     F .text	00000074 _mprec_log10
00007d50 g     F .text	00000084 __any_on
00008cc4 g     F .text	00000064 _isatty_r
000304a4 g     O .rodata	00000028 __mprec_tinytens
0000aeb4 g     F .text	00000060 alt_main
0000aae8 g     F .text	00000044 __ashldi3
0000176c g     F .text	00000084 _puts_r
00033f20 g     O .bss	00000100 alt_irq
00008d28 g     F .text	0000006c _lseek_r
0003230c g       *ABS*	00000000 __flash_rwdata_start
0000a170 g     F .text	0000005c __eqdf2
000341b0 g       *ABS*	00000000 __alt_heap_start
00000544 g     F .text	0000001c nd_GsVgaSetBuffer
0000170c g     F .text	0000003c printf
00008720 g     F .text	0000005c __sseek
00005398 g     F .text	0000010c __sinit
00008828 g     F .text	0000013c __swbuf_r
00006030 g     F .text	0000009c _setlocale_r
00005324 g     F .text	00000064 __sfmoreglue
0000af18 g     F .text	00000004 __malloc_unlock
00001540 g     F .text	00000024 memdump
00006c28 g     F .text	00000128 memmove
00005388 g     F .text	00000010 _cleanup
00006e2c g     F .text	000000a8 _Balloc
00000610 g     F .text	00000040 nd_GsEglPage
0000a228 g     F .text	00000064 __gtdf2
0000c960 g     F .text	00000008 altera_nios2_gen2_irq_init
00000000  w      *UND*	00000000 __errno
0f000000 g     F .entry	0000001c __reset
00000020 g       *ABS*	00000000 __flash_exceptions_start
00008c5c g     F .text	00000068 _fstat_r
00033ed8 g     O .bss	00000004 errno
0000b854 g     F .text	00000008 altera_modular_adc_init
00033ee0 g     O .bss	00000004 alt_argv
0003a2b8 g       *ABS*	00000000 _gp
00000c34 g     F .text	00000134 nd_GsEglPutcharFont
000004f0 g     F .text	00000020 nd_GsVgaVsync_isrdisable
0000c17c g     F .text	00000034 alt_onchip_flash_poll_for_status_write_passed
0000103c g     F .text	00000050 nd_GsEglPuthex2
0000b078 g     F .text	0000005c alt_uncached_malloc
00030f8c g     O .rwdata	00000180 alt_fd_list
00001748 g     F .text	00000008 _putchar_r
0000c3d0 g     F .text	00000094 alt_find_dev
00006b30 g     F .text	000000f8 memcpy
0f100000 g       *ABS*	00000000 __alt_mem_onchip_flash_0_data
00005318 g     F .text	0000000c _cleanup_r
0000a34c g     F .text	000000d4 __floatsidf
0000c644 g     F .text	00000078 alt_io_redirect
0000a2f0 g     F .text	0000005c __ltdf2
0000d080 g       *ABS*	00000000 __DTOR_END__
000017f0 g     F .text	00000014 puts
0000cabc g     F .text	00000030 alt_exception_cause_generated_bad_addr
00007bbc g     F .text	000000a4 __ratio
0000b510 g     F .text	00000134 altera_avalon_jtag_uart_read
00000000  w      *UND*	00000000 malloc
000016e0 g     F .text	0000002c _printf_r
000016d0 g     F .text	00000008 __udivsi3
0000ac90 g     F .text	0000008c isatty
0000c148 g     F .text	00000034 alt_onchip_flash_poll_for_status_erase_passed
000304f4 g     O .rodata	000000c8 __mprec_tens
00001564 g     F .text	0000004c memcrc16
000060cc g     F .text	0000000c __locale_charset
0000ca6c g     F .text	00000050 alt_icache_flush
0000d080 g     O .rodata	0002216a fontx_k12x10_fnt
00033ed4 g     O .bss	00000004 __malloc_top_pad
000322f0 g     O .rwdata	00000008 altera_onchip_flash_list
000322c0 g     O .rwdata	00000004 __mb_cur_max
000060d8 g     F .text	0000000c _localeconv_r
0000722c g     F .text	0000003c __i2b
000059ec g     F .text	000004e4 __sfvwrite_r
000085e0 g     F .text	00000064 _sbrk_r
00033eb4 g     O .bss	00000004 nd_GsVgaVsyncCount
00008d94 g     F .text	0000006c _read_r
000322e8 g     O .rwdata	00000008 altera_modular_adc_list
0000b930 g     F .text	00000140 alt_onchip_flash_erase_block
0000c244 g     F .text	00000040 alt_dcache_flush
00030b78 g     O .rwdata	0000000c __lc_ctype
000322cc g     O .rwdata	00000004 alt_max_fd
0000a8d0 g     F .text	00000104 __unpack_d
00008b0c g     F .text	0000013c _fclose_r
000052d8 g     F .text	00000030 fflush
00033ed0 g     O .bss	00000004 __malloc_max_sbrked_mem
00009ca8 g     F .text	00000054 __adddf3
00000d68 g     F .text	000000cc nd_GsEglPutstrFont
00007930 g     F .text	00000148 __b2d
000093c8 g     F .text	0000058c __umoddi3
0000ae30 g     F .text	00000084 lseek
000322b8 g     O .rwdata	00000004 _global_impure_ptr
00007f80 g     F .text	000005fc _realloc_r
000341b0 g       *ABS*	00000000 __bss_end
0000c56c g     F .text	00000068 alt_iic_isr_register
0000c86c g     F .text	000000f4 alt_tick
00000f60 g     F .text	000000dc nd_GsEglPutdec
00008e00 g     F .text	000005c8 __udivdi3
000304cc g     O .rodata	00000028 __mprec_bigtens
00007010 g     F .text	00000104 __s2b
0000a4e4 g     F .text	0000011c __floatunsidf
000076d0 g     F .text	00000058 __mcmp
000055b0 g     F .text	00000018 __fp_lock_all
0000c554 g     F .text	00000018 alt_ic_irq_enabled
00000560 g     F .text	00000038 nd_GsVgaInit
00000e34 g     F .text	0000000c nd_GsEglSetFont
0000c838 g     F .text	00000034 alt_alarm_stop
00033eb8 g     O .bss	00000004 nd_GsEglDrawBuffer
00033ee8 g     O .bss	00000004 alt_irq_active
000000fc g     F .exceptions	00000064 alt_irq_handler
0003110c g     O .rwdata	00000028 alt_dev_null
00000650 g     F .text	00000010 nd_GsEglColor
0000c284 g     F .text	00000018 alt_dcache_flush_all
00007114 g     F .text	00000068 __hi0bits
00000528 g     F .text	0000001c nd_GsVgaScanOff
0000a420 g     F .text	000000c4 __fixdfsi
0003230c g       *ABS*	00000000 __ram_rwdata_end
000322d0 g     O .rwdata	00000008 alt_dev_list
0000b0d4 g     F .text	000000e8 write
00007dd4 g     F .text	000000bc _putc_r
00030778 g       *ABS*	00000000 __ram_rodata_end
0000ac14 g     F .text	0000007c fstat
0000aaa4 g     F .text	00000044 __lshrdi3
00000510 g     F .text	00000018 nd_GsVgaScanOn
00007448 g     F .text	0000012c __pow5mult
00033ec8 g     O .bss	00000004 __nlocale_changed
000016d8 g     F .text	00000008 __umodsi3
000341b0 g       *ABS*	00000000 end
0000b3e8 g     F .text	00000080 altera_avalon_jtag_uart_init
00000160 g     F .exceptions	0000002c alt_instruction_exception_entry
0000d080 g       *ABS*	00000000 __CTOR_LIST__
02000000 g       *ABS*	00000000 __alt_stack_pointer
0000b804 g     F .text	00000050 alt_avalon_timer_sc_init
0000a600 g     F .text	000000ac __clzsi2
0000b644 g     F .text	00000184 altera_avalon_jtag_uart_write
000055a0 g     F .text	00000004 __sfp_lock_acquire
00006a38 g     F .text	000000f8 memchr
0000193c g     F .text	00001df8 ___vfprintf_internal_r
0000b8e8 g     F .text	00000048 alt_onchip_flash_get_info
0000571c g     F .text	000002d0 _free_r
0000cecc g     F .text	000001a0 __call_exitprocs
00033ec4 g     O .bss	00000004 __mlocale_changed
000322c4 g     O .rwdata	00000004 __malloc_sbrk_base
0000018c g     F .text	0000004c _start
00033ef0 g     O .bss	00000004 _alt_tick_rate
0000181c g     F .text	00000060 rand
00000498 g     F .text	00000038 nd_GsVgaVsync_isr
00007574 g     F .text	0000015c __lshift
00033eec g     O .bss	00000004 _alt_nticks
0000af1c g     F .text	000000ec read
0000b1dc g     F .text	00000070 alt_sys_init
0000cd9c g     F .text	00000130 __register_exitproc
0000108c g     F .text	00000070 nd_GsEglPuthex8
00007268 g     F .text	000001e0 __multiply
0000b468 g     F .text	00000034 altera_avalon_jtag_uart_close
00030778 g       *ABS*	00000000 __ram_rwdata_start
0000d080 g       *ABS*	00000000 __ram_rodata_start
00033ef8 g     O .bss	00000028 __malloc_current_mallinfo
00007a78 g     F .text	00000144 __d2b
0002fc00 g     O .rodata	00000400 nd_GsEglRomFont
0000b24c g     F .text	00000010 altera_avalon_jtag_uart_read_fd
0000ca14 g     F .text	00000058 alt_get_fd
0000a9d4 g     F .text	000000d0 __fpcmp_parts_d
00008aa8 g     F .text	00000064 _close_r
00001398 g     F .text	000000d4 memdump_word
00000f04 g     F .text	0000005c nd_GsEglPutstr
0000cd20 g     F .text	0000007c memcmp
0000b26c g     F .text	00000010 altera_avalon_jtag_uart_close_fd
000341b0 g       *ABS*	00000000 __alt_stack_base
0000b27c g     F .text	0000000c altera_avalon_jtag_uart_ioctl_fd
000012c8 g     F .text	000000d0 memdump_byte
00003758 g     F .text	00000174 __swsetup_r
00009fbc g     F .text	000001b4 __divdf3
0000b864 g     F .text	00000084 alt_onchip_flash_read
000054a4 g     F .text	000000fc __sfp
00007cd4 g     F .text	0000007c __copybits
00030b84 g     O .rwdata	00000408 __malloc_av_
000055ac g     F .text	00000004 __sinit_lock_release
00009d5c g     F .text	00000260 __muldf3
00008644 g     F .text	00000054 __sread
0000c968 g     F .text	000000ac alt_find_file
0000c29c g     F .text	0000006c alt_dev_llist_insert
0000af14 g     F .text	00000004 __malloc_lock
0000b02c g     F .text	0000004c sbrk
000050f0 g     F .text	000001e8 _fflush_r
000089ec g     F .text	000000bc _calloc_r
000322f8 g     O .rwdata	00000008 alt_flash_dev_list
00033ea0 g       *ABS*	00000000 __bss_start
00006d50 g     F .text	000000dc memset
000003e0 g     F .text	00000020 main
00033edc g     O .bss	00000004 alt_envp
00033ecc g     O .bss	00000004 __malloc_max_total_mem
0000b25c g     F .text	00000010 altera_avalon_jtag_uart_write_fd
00008964 g     F .text	0000001c __swbuf
00001804 g     F .text	00000018 srand
0000877c g     F .text	00000008 __sclose
02000000 g       *ABS*	00000000 __alt_heap_limit
00008c48 g     F .text	00000014 fclose
00034020 g     O .bss	00000190 _atexit0
00003ad4 g     F .text	0000161c _dtoa_r
000062b4 g     F .text	00000784 _malloc_r
000322e0 g     O .rwdata	00000004 alt_errno
0000c114 g     F .text	00000034 alt_onchip_flash_poll_for_status_to_go_idle
00005ed0 g     F .text	000000a8 _fwalk
00007e90 g     F .text	000000f0 putc
00001624 g     F .text	00000050 __divsi3
000305c8 g     O .rodata	00000014 __thenan_df
000055e0 g     F .text	0000013c _malloc_trim_r
0000d080 g       *ABS*	00000000 __CTOR_END__
0000be54 g     F .text	000002c0 altera_onchip_flash_init
00008784 g     F .text	000000a4 strcmp
000008a8 g     F .text	000001a0 nd_GsEglCircle
0000d080 g       *ABS*	00000000 __flash_rodata_start
0000d080 g       *ABS*	00000000 __DTOR_LIST__
00000e40 g     F .text	000000c4 nd_GsEglPutchar
0000a1cc g     F .text	0000005c __nedf2
000004d0 g     F .text	00000020 nd_GsVgaVsync_isrenable
0000b1bc g     F .text	00000020 alt_irq_init
0000b008 g     F .text	00000024 alt_release_fd
0000cb38 g     F .text	0000001c memalign
000305dc g     O .rodata	00000100 __clz_tab
00033ec0 g     O .bss	00000004 _PathLocale
0000caec g     F .text	00000014 atexit
00008980 g     F .text	0000006c _write_r
000060e4 g     F .text	0000001c setlocale
0002f1ec g     O .rodata	00000a11 fontx_k6x10_fnt
0000146c g     F .text	000000d4 memdump_dword
000322bc g     O .rwdata	00000004 _impure_ptr
00033ee4 g     O .bss	00000004 alt_argc
0000c36c g     F .text	00000064 _do_dtors
000005b8 g     F .text	0000002c nd_GsVgaVsync_getcount
00000020 g       .exceptions	00000000 alt_irq_entry
000078d0 g     F .text	00000060 __ulp
0000857c g     F .text	00000038 __isinfd
000055c8 g     F .text	00000018 __fp_unlock_all
000322d8 g     O .rwdata	00000008 alt_fs_list
0000ba70 g     F .text	00000210 alt_onchip_flash_write_block
00000020 g       *ABS*	00000000 __ram_exceptions_start
00006100 g     F .text	0000000c localeconv
00000a48 g     F .text	00000160 nd_GsEglLine
0000c4d0 g     F .text	00000004 alt_ic_isr_register
0003230c g       *ABS*	00000000 _edata
0000bc80 g     F .text	000001d4 alt_onchip_flash_write
000341b0 g       *ABS*	00000000 _end
0000c464 g     F .text	0000004c alt_flash_open_dev
0000018c g       *ABS*	00000000 __ram_exceptions_end
0000b49c g     F .text	00000074 altera_avalon_jtag_uart_ioctl
0000c514 g     F .text	00000040 alt_ic_irq_disable
000010fc g     F .text	000001cc systeminit
00008698 g     F .text	00000088 __swrite
000322c8 g     O .rwdata	00000004 __malloc_trim_threshold
0000cb00 g     F .text	00000038 exit
00005f78 g     F .text	000000b8 _fwalk_reent
00007728 g     F .text	000001a8 __mdiff
0000c4b0 g     F .text	00000014 alt_flash_close_dev
000005e4 g     F .text	0000002c nd_GsVgaVsync_setcount
00000660 g     F .text	000000cc nd_GsEglPset
00001674 g     F .text	0000005c __modsi3
0000cb54 g     F .text	000001cc _memalign_r
02000000 g       *ABS*	00000000 __alt_data_end
00000020 g     F .exceptions	00000000 alt_exception
000055a4 g     F .text	00000004 __sfp_lock_release
00000000 g       *ABS*	00000000 __alt_mem_sdram
0000b85c g     F .text	00000008 altera_modular_adc_open
0000d06c g     F .text	00000014 _exit
000085b4 g     F .text	0000002c __isnand
0000c1b0 g     F .text	00000094 alt_alarm_start
0f000000 g       *ABS*	00000000 __alt_mem_ipl_memory
0000610c g     F .text	000001a8 __smakebuf_r
0000187c g     F .text	0000008c strlen
0000c6bc g     F .text	0000017c open
0000a28c g     F .text	00000064 __gedf2
000001d8 g     F .text	00000208 awa
0000c4c4 g     F .text	0000000c alt_icache_flush_all
00032300 g     O .rwdata	00000004 alt_priority_mask
00000ba8 g     F .text	0000008c nd_GsEglBox
0000c4d4 g     F .text	00000040 alt_ic_irq_enable
00003734 g     F .text	00000024 __vfprintf_internal
00000598 g     F .text	00000020 nd_GsVgaWaitVsync
00009cfc g     F .text	00000060 __subdf3
0000717c g     F .text	000000b0 __lo0bits
0000072c g     F .text	0000017c nd_GsEglBoxfill
00032304 g     O .rwdata	00000008 alt_alarm_list
0000c308 g     F .text	00000064 _do_ctors
00033ebc g     O .bss	00000004 nd_GsVgaVsyncFlag
0000ab2c g     F .text	000000e0 close
0000ad1c g     F .text	00000114 alt_load
0000a6ac g     F .text	00000224 __pack_d
00000000  w      *UND*	00000000 free
000055a8 g     F .text	00000004 __sinit_lock_acquire
00006efc g     F .text	00000114 __multadd
00006ed4 g     F .text	00000028 _Bfree



Disassembly of section .entry:

0f000000 <__reset>:
 f000000:	00880014 	movui	r2,8192
 f000004:	1001483a 	initi	r2
 f000008:	10bff804 	addi	r2,r2,-32
 f00000c:	00bffd16 	blt	zero,r2,f000004 <__alt_mem_onchip_flash_0_data+0xfff00004>
 f000010:	00400034 	movhi	at,0
 f000014:	08406314 	ori	at,at,396
 f000018:	0800683a 	jmp	at
 f00001c:	00000000 	call	0 <__alt_mem_sdram>

Disassembly of section .exceptions:

00000020 <alt_exception>:
  20:	deffed04 	addi	sp,sp,-76
  24:	dfc00015 	stw	ra,0(sp)
  28:	d8400215 	stw	at,8(sp)
  2c:	d8800315 	stw	r2,12(sp)
  30:	d8c00415 	stw	r3,16(sp)
  34:	d9000515 	stw	r4,20(sp)
  38:	d9400615 	stw	r5,24(sp)
  3c:	d9800715 	stw	r6,28(sp)
  40:	d9c00815 	stw	r7,32(sp)
  44:	000b307a 	rdctl	r5,estatus
  48:	da000915 	stw	r8,36(sp)
  4c:	da400a15 	stw	r9,40(sp)
  50:	da800b15 	stw	r10,44(sp)
  54:	dac00c15 	stw	r11,48(sp)
  58:	db000d15 	stw	r12,52(sp)
  5c:	db400e15 	stw	r13,56(sp)
  60:	db800f15 	stw	r14,60(sp)
  64:	dbc01015 	stw	r15,64(sp)
  68:	d9401115 	stw	r5,68(sp)
  6c:	ebffff04 	addi	r15,ea,-4
  70:	dbc01215 	stw	r15,72(sp)
  74:	0009313a 	rdctl	r4,ipending
  78:	2880004c 	andi	r2,r5,1
  7c:	10000326 	beq	r2,zero,8c <alt_exception+0x6c>
  80:	20000226 	beq	r4,zero,8c <alt_exception+0x6c>
  84:	00000fc0 	call	fc <alt_irq_handler>
  88:	00000706 	br	a8 <alt_exception+0x88>
  8c:	df401215 	stw	ea,72(sp)
  90:	e8bfff17 	ldw	r2,-4(ea)
  94:	e93fff04 	addi	r4,ea,-4
  98:	00001600 	call	160 <alt_instruction_exception_entry>
  9c:	1000021e 	bne	r2,zero,a8 <alt_exception+0x88>
  a0:	ebffff04 	addi	r15,ea,-4
  a4:	dbc01215 	stw	r15,72(sp)
  a8:	d9401117 	ldw	r5,68(sp)
  ac:	df401217 	ldw	ea,72(sp)
  b0:	dfc00017 	ldw	ra,0(sp)
  b4:	2801707a 	wrctl	estatus,r5
  b8:	d8400217 	ldw	at,8(sp)
  bc:	d8800317 	ldw	r2,12(sp)
  c0:	d8c00417 	ldw	r3,16(sp)
  c4:	d9000517 	ldw	r4,20(sp)
  c8:	d9400617 	ldw	r5,24(sp)
  cc:	d9800717 	ldw	r6,28(sp)
  d0:	d9c00817 	ldw	r7,32(sp)
  d4:	da000917 	ldw	r8,36(sp)
  d8:	da400a17 	ldw	r9,40(sp)
  dc:	da800b17 	ldw	r10,44(sp)
  e0:	dac00c17 	ldw	r11,48(sp)
  e4:	db000d17 	ldw	r12,52(sp)
  e8:	db400e17 	ldw	r13,56(sp)
  ec:	db800f17 	ldw	r14,60(sp)
  f0:	dbc01017 	ldw	r15,64(sp)
  f4:	dec01304 	addi	sp,sp,76
  f8:	ef80083a 	eret

000000fc <alt_irq_handler>:
  fc:	defffe04 	addi	sp,sp,-8
 100:	dfc00115 	stw	ra,4(sp)
 104:	dc000015 	stw	r16,0(sp)
 108:	000b313a 	rdctl	r5,ipending
 10c:	040000f4 	movhi	r16,3
 110:	840fc804 	addi	r16,r16,16160
 114:	2880004c 	andi	r2,r5,1
 118:	0007883a 	mov	r3,zero
 11c:	1000051e 	bne	r2,zero,134 <alt_irq_handler+0x38>
 120:	00800044 	movi	r2,1
 124:	1085883a 	add	r2,r2,r2
 128:	2888703a 	and	r4,r5,r2
 12c:	18c00044 	addi	r3,r3,1
 130:	203ffc26 	beq	r4,zero,124 <__alt_mem_onchip_flash_0_data+0xf0f00124>
 134:	180690fa 	slli	r3,r3,3
 138:	80c7883a 	add	r3,r16,r3
 13c:	18800017 	ldw	r2,0(r3)
 140:	19000117 	ldw	r4,4(r3)
 144:	103ee83a 	callr	r2
 148:	000b313a 	rdctl	r5,ipending
 14c:	283ff11e 	bne	r5,zero,114 <__alt_mem_onchip_flash_0_data+0xf0f00114>
 150:	dfc00117 	ldw	ra,4(sp)
 154:	dc000017 	ldw	r16,0(sp)
 158:	dec00204 	addi	sp,sp,8
 15c:	f800283a 	ret

00000160 <alt_instruction_exception_entry>:
 160:	200b883a 	mov	r5,r4
 164:	000931fa 	rdctl	r4,exception
 168:	000d333a 	rdctl	r6,badaddr
 16c:	d0a70f17 	ldw	r2,-25540(gp)
 170:	10000326 	beq	r2,zero,180 <alt_instruction_exception_entry+0x20>
 174:	21001f0c 	andi	r4,r4,124
 178:	2008d0ba 	srli	r4,r4,2
 17c:	1000683a 	jmp	r2
 180:	003da03a 	break	0
 184:	0005883a 	mov	r2,zero
 188:	f800283a 	ret

Disassembly of section .text:

0000018c <_start>:
     18c:	00880014 	movui	r2,8192
     190:	10000033 	initd	0(r2)
     194:	10bff804 	addi	r2,r2,-32
     198:	00bffd16 	blt	zero,r2,190 <__alt_mem_onchip_flash_0_data+0xf0f00190>
     19c:	06c08034 	movhi	sp,512
     1a0:	dec00014 	ori	sp,sp,0
     1a4:	068000f4 	movhi	gp,3
     1a8:	d6a8ae14 	ori	gp,gp,41656
     1ac:	008000f4 	movhi	r2,3
     1b0:	108fa814 	ori	r2,r2,16032
     1b4:	00c000f4 	movhi	r3,3
     1b8:	18d06c14 	ori	r3,r3,16816
     1bc:	10c00326 	beq	r2,r3,1cc <_start+0x40>
     1c0:	10000015 	stw	zero,0(r2)
     1c4:	10800104 	addi	r2,r2,4
     1c8:	10fffd36 	bltu	r2,r3,1c0 <__alt_mem_onchip_flash_0_data+0xf0f001c0>
     1cc:	000ad1c0 	call	ad1c <alt_load>
     1d0:	000aeb40 	call	aeb4 <alt_main>

000001d4 <alt_after_alt_main>:
     1d4:	003fff06 	br	1d4 <__alt_mem_onchip_flash_0_data+0xf0f001d4>

000001d8 <awa>:
     1d8:	defd0804 	addi	sp,sp,-3040
     1dc:	dfc2f715 	stw	ra,3036(sp)
     1e0:	ddc2f515 	stw	r23,3028(sp)
     1e4:	dd82f415 	stw	r22,3024(sp)
     1e8:	dc02ee15 	stw	r16,3000(sp)
     1ec:	df02f615 	stw	fp,3032(sp)
     1f0:	2021883a 	mov	r16,r4
     1f4:	dd42f315 	stw	r21,3020(sp)
     1f8:	dd02f215 	stw	r20,3016(sp)
     1fc:	dcc2f115 	stw	r19,3012(sp)
     200:	dc82f015 	stw	r18,3008(sp)
     204:	dc42ef15 	stw	r17,3004(sp)
     208:	00005440 	call	544 <nd_GsVgaSetBuffer>
     20c:	8009883a 	mov	r4,r16
     210:	800b883a 	mov	r5,r16
     214:	000d883a 	mov	r6,zero
     218:	00006100 	call	610 <nd_GsEglPage>
     21c:	00005100 	call	510 <nd_GsVgaScanOn>
     220:	01108404 	movi	r4,16912
     224:	000b883a 	mov	r5,zero
     228:	01804004 	movi	r6,256
     22c:	00006500 	call	650 <nd_GsEglColor>
     230:	01c077c4 	movi	r7,479
     234:	0009883a 	mov	r4,zero
     238:	000b883a 	mov	r5,zero
     23c:	01809fc4 	movi	r6,639
     240:	000072c0 	call	72c <nd_GsEglBoxfill>
     244:	011fffc4 	movi	r4,32767
     248:	000b883a 	mov	r5,zero
     24c:	01804004 	movi	r6,256
     250:	00006500 	call	650 <nd_GsEglColor>
     254:	01c077c4 	movi	r7,479
     258:	0009883a 	mov	r4,zero
     25c:	000b883a 	mov	r5,zero
     260:	000d883a 	mov	r6,zero
     264:	0000a480 	call	a48 <nd_GsEglLine>
     268:	011f0004 	movi	r4,31744
     26c:	000b883a 	mov	r5,zero
     270:	01804004 	movi	r6,256
     274:	00006500 	call	650 <nd_GsEglColor>
     278:	01009fc4 	movi	r4,639
     27c:	200d883a 	mov	r6,r4
     280:	01c077c4 	movi	r7,479
     284:	000b883a 	mov	r5,zero
     288:	0000a480 	call	a48 <nd_GsEglLine>
     28c:	0100f804 	movi	r4,992
     290:	000b883a 	mov	r5,zero
     294:	01804004 	movi	r6,256
     298:	00006500 	call	650 <nd_GsEglColor>
     29c:	000f883a 	mov	r7,zero
     2a0:	0009883a 	mov	r4,zero
     2a4:	000b883a 	mov	r5,zero
     2a8:	01809fc4 	movi	r6,639
     2ac:	0000a480 	call	a48 <nd_GsEglLine>
     2b0:	010007c4 	movi	r4,31
     2b4:	000b883a 	mov	r5,zero
     2b8:	01804004 	movi	r6,256
     2bc:	00006500 	call	650 <nd_GsEglColor>
     2c0:	014077c4 	movi	r5,479
     2c4:	0009883a 	mov	r4,zero
     2c8:	01809fc4 	movi	r6,639
     2cc:	280f883a 	mov	r7,r5
     2d0:	0000a480 	call	a48 <nd_GsEglLine>
     2d4:	d82f883a 	mov	r23,sp
     2d8:	dd82f104 	addi	r22,sp,3012
     2dc:	d8800304 	addi	r2,sp,12
     2e0:	10000015 	stw	zero,0(r2)
     2e4:	10800504 	addi	r2,r2,20
     2e8:	15bffd1e 	bne	r2,r22,2e0 <__alt_mem_onchip_flash_0_data+0xf0f002e0>
     2ec:	05000044 	movi	r20,1
     2f0:	df000104 	addi	fp,sp,4
     2f4:	dc800404 	addi	r18,sp,16
     2f8:	dc400204 	addi	r17,sp,8
     2fc:	b827883a 	mov	r19,r23
     300:	dc000304 	addi	r16,sp,12
     304:	00000906 	br	32c <awa+0x154>
     308:	88c00017 	ldw	r3,0(r17)
     30c:	18802716 	blt	r3,r2,3ac <awa+0x1d4>
     310:	80000015 	stw	zero,0(r16)
     314:	84000504 	addi	r16,r16,20
     318:	9cc00504 	addi	r19,r19,20
     31c:	e7000504 	addi	fp,fp,20
     320:	94800504 	addi	r18,r18,20
     324:	8c400504 	addi	r17,r17,20
     328:	85801926 	beq	r16,r22,390 <awa+0x1b8>
     32c:	80800017 	ldw	r2,0(r16)
     330:	103ff51e 	bne	r2,zero,308 <__alt_mem_onchip_flash_0_data+0xf0f00308>
     334:	000181c0 	call	181c <rand>
     338:	1009883a 	mov	r4,r2
     33c:	0140a004 	movi	r5,640
     340:	00016740 	call	1674 <__modsi3>
     344:	98800015 	stw	r2,0(r19)
     348:	000181c0 	call	181c <rand>
     34c:	1009883a 	mov	r4,r2
     350:	01407804 	movi	r5,480
     354:	00016740 	call	1674 <__modsi3>
     358:	e0800015 	stw	r2,0(fp)
     35c:	000181c0 	call	181c <rand>
     360:	90800015 	stw	r2,0(r18)
     364:	000181c0 	call	181c <rand>
     368:	1080190c 	andi	r2,r2,100
     36c:	10800284 	addi	r2,r2,10
     370:	80800015 	stw	r2,0(r16)
     374:	8d000015 	stw	r20,0(r17)
     378:	84000504 	addi	r16,r16,20
     37c:	9cc00504 	addi	r19,r19,20
     380:	e7000504 	addi	fp,fp,20
     384:	94800504 	addi	r18,r18,20
     388:	8c400504 	addi	r17,r17,20
     38c:	85bfe71e 	bne	r16,r22,32c <__alt_mem_onchip_flash_0_data+0xf0f0032c>
     390:	ad400044 	addi	r21,r21,1
     394:	a805d0fa 	srai	r2,r21,3
     398:	00e40034 	movhi	r3,36864
     39c:	18c01804 	addi	r3,r3,96
     3a0:	1080004c 	andi	r2,r2,1
     3a4:	18800015 	stw	r2,0(r3)
     3a8:	003fd106 	br	2f0 <__alt_mem_onchip_flash_0_data+0xf0f002f0>
     3ac:	91000017 	ldw	r4,0(r18)
     3b0:	000b883a 	mov	r5,zero
     3b4:	01804004 	movi	r6,256
     3b8:	20800044 	addi	r2,r4,1
     3bc:	90800015 	stw	r2,0(r18)
     3c0:	00006500 	call	650 <nd_GsEglColor>
     3c4:	89800017 	ldw	r6,0(r17)
     3c8:	99000017 	ldw	r4,0(r19)
     3cc:	e1400017 	ldw	r5,0(fp)
     3d0:	30800044 	addi	r2,r6,1
     3d4:	88800015 	stw	r2,0(r17)
     3d8:	00008a80 	call	8a8 <nd_GsEglCircle>
     3dc:	003fcd06 	br	314 <__alt_mem_onchip_flash_0_data+0xf0f00314>

000003e0 <main>:
     3e0:	deffff04 	addi	sp,sp,-4
     3e4:	dfc00015 	stw	ra,0(sp)
     3e8:	00010fc0 	call	10fc <systeminit>
     3ec:	00005600 	call	560 <nd_GsVgaInit>
     3f0:	010003f4 	movhi	r4,15
     3f4:	000b0780 	call	b078 <alt_uncached_malloc>
     3f8:	1009883a 	mov	r4,r2
     3fc:	00001d80 	call	1d8 <awa>

00000400 <nd_GsEglFontx_putkanji>:
     400:	2b000383 	ldbu	r12,14(r5)
     404:	2ac00443 	ldbu	r11,17(r5)
     408:	28c003c3 	ldbu	r3,15(r5)
     40c:	630001c4 	addi	r12,r12,7
     410:	6019d0fa 	srai	r12,r12,3
     414:	5ac5883a 	add	r2,r11,r11
     418:	1085883a 	add	r2,r2,r2
     41c:	10800484 	addi	r2,r2,18
     420:	60d9383a 	mul	r12,r12,r3
     424:	2885883a 	add	r2,r5,r2
     428:	58001526 	beq	r11,zero,480 <nd_GsEglFontx_putkanji+0x80>
     42c:	000d883a 	mov	r6,zero
     430:	30c00104 	addi	r3,r6,4
     434:	18c7883a 	add	r3,r3,r3
     438:	18c7883a 	add	r3,r3,r3
     43c:	28c7883a 	add	r3,r5,r3
     440:	1a8000c3 	ldbu	r10,3(r3)
     444:	19c00143 	ldbu	r7,5(r3)
     448:	1a000103 	ldbu	r8,4(r3)
     44c:	1a400083 	ldbu	r9,2(r3)
     450:	5014923a 	slli	r10,r10,8
     454:	380e923a 	slli	r7,r7,8
     458:	31800044 	addi	r6,r6,1
     45c:	5246b03a 	or	r3,r10,r9
     460:	3a0eb03a 	or	r7,r7,r8
     464:	38d1c83a 	sub	r8,r7,r3
     468:	42000044 	addi	r8,r8,1
     46c:	4311383a 	mul	r8,r8,r12
     470:	20c00116 	blt	r4,r3,478 <nd_GsEglFontx_putkanji+0x78>
     474:	3900040e 	bge	r7,r4,488 <nd_GsEglFontx_putkanji+0x88>
     478:	1205883a 	add	r2,r2,r8
     47c:	32ffec16 	blt	r6,r11,430 <__alt_mem_onchip_flash_0_data+0xf0f00430>
     480:	0005883a 	mov	r2,zero
     484:	f800283a 	ret
     488:	20c7c83a 	sub	r3,r4,r3
     48c:	1b19383a 	mul	r12,r3,r12
     490:	1305883a 	add	r2,r2,r12
     494:	f800283a 	ret

00000498 <nd_GsVgaVsync_isr>:
     498:	00a40034 	movhi	r2,36864
     49c:	10840004 	addi	r2,r2,4096
     4a0:	11000017 	ldw	r4,0(r2)
     4a4:	00efffc4 	movi	r3,-16385
     4a8:	20c6703a 	and	r3,r4,r3
     4ac:	10c00015 	stw	r3,0(r2)
     4b0:	d0a6ff17 	ldw	r2,-25604(gp)
     4b4:	10000326 	beq	r2,zero,4c4 <nd_GsVgaVsync_isr+0x2c>
     4b8:	d0a6ff17 	ldw	r2,-25604(gp)
     4bc:	10bfffc4 	addi	r2,r2,-1
     4c0:	d0a6ff15 	stw	r2,-25604(gp)
     4c4:	00800044 	movi	r2,1
     4c8:	d0a70115 	stw	r2,-25596(gp)
     4cc:	f800283a 	ret

000004d0 <nd_GsVgaVsync_isrenable>:
     4d0:	00a40034 	movhi	r2,36864
     4d4:	10840004 	addi	r2,r2,4096
     4d8:	11000017 	ldw	r4,0(r2)
     4dc:	00efffc4 	movi	r3,-16385
     4e0:	20c6703a 	and	r3,r4,r3
     4e4:	18e00014 	ori	r3,r3,32768
     4e8:	10c00015 	stw	r3,0(r2)
     4ec:	f800283a 	ret

000004f0 <nd_GsVgaVsync_isrdisable>:
     4f0:	00a40034 	movhi	r2,36864
     4f4:	10840004 	addi	r2,r2,4096
     4f8:	11000017 	ldw	r4,0(r2)
     4fc:	00fffff4 	movhi	r3,65535
     500:	18dfffc4 	addi	r3,r3,32767
     504:	20c6703a 	and	r3,r4,r3
     508:	10c00015 	stw	r3,0(r2)
     50c:	f800283a 	ret

00000510 <nd_GsVgaScanOn>:
     510:	00a40034 	movhi	r2,36864
     514:	10840004 	addi	r2,r2,4096
     518:	10c00017 	ldw	r3,0(r2)
     51c:	18c00054 	ori	r3,r3,1
     520:	10c00015 	stw	r3,0(r2)
     524:	f800283a 	ret

00000528 <nd_GsVgaScanOff>:
     528:	00a40034 	movhi	r2,36864
     52c:	10840004 	addi	r2,r2,4096
     530:	11000017 	ldw	r4,0(r2)
     534:	00ffff84 	movi	r3,-2
     538:	20c6703a 	and	r3,r4,r3
     53c:	10c00015 	stw	r3,0(r2)
     540:	f800283a 	ret

00000544 <nd_GsVgaSetBuffer>:
     544:	00a00034 	movhi	r2,32768
     548:	10bfffc4 	addi	r2,r2,-1
     54c:	2088703a 	and	r4,r4,r2
     550:	00e40034 	movhi	r3,36864
     554:	18c40104 	addi	r3,r3,4100
     558:	19000015 	stw	r4,0(r3)
     55c:	f800283a 	ret

00000560 <nd_GsVgaInit>:
     560:	00a40034 	movhi	r2,36864
     564:	10840004 	addi	r2,r2,4096
     568:	11000017 	ldw	r4,0(r2)
     56c:	00fffff4 	movhi	r3,65535
     570:	18dfffc4 	addi	r3,r3,32767
     574:	20c6703a 	and	r3,r4,r3
     578:	10c00015 	stw	r3,0(r2)
     57c:	11000017 	ldw	r4,0(r2)
     580:	00ffff84 	movi	r3,-2
     584:	20c6703a 	and	r3,r4,r3
     588:	10c00015 	stw	r3,0(r2)
     58c:	d026ff15 	stw	zero,-25604(gp)
     590:	d0270115 	stw	zero,-25596(gp)
     594:	f800283a 	ret

00000598 <nd_GsVgaWaitVsync>:
     598:	01240034 	movhi	r4,36864
     59c:	21040004 	addi	r4,r4,4096
     5a0:	20c00017 	ldw	r3,0(r4)
     5a4:	18c8000c 	andi	r3,r3,8192
     5a8:	20800017 	ldw	r2,0(r4)
     5ac:	1088000c 	andi	r2,r2,8192
     5b0:	10fffd26 	beq	r2,r3,5a8 <__alt_mem_onchip_flash_0_data+0xf0f005a8>
     5b4:	f800283a 	ret

000005b8 <nd_GsVgaVsync_getcount>:
     5b8:	00a40034 	movhi	r2,36864
     5bc:	10840004 	addi	r2,r2,4096
     5c0:	10800017 	ldw	r2,0(r2)
     5c4:	10a0000c 	andi	r2,r2,32768
     5c8:	1000041e 	bne	r2,zero,5dc <nd_GsVgaVsync_getcount+0x24>
     5cc:	00a40034 	movhi	r2,36864
     5d0:	10840204 	addi	r2,r2,4104
     5d4:	10800017 	ldw	r2,0(r2)
     5d8:	f800283a 	ret
     5dc:	d0a6ff17 	ldw	r2,-25604(gp)
     5e0:	f800283a 	ret

000005e4 <nd_GsVgaVsync_setcount>:
     5e4:	00a40034 	movhi	r2,36864
     5e8:	10840004 	addi	r2,r2,4096
     5ec:	10800017 	ldw	r2,0(r2)
     5f0:	10a0000c 	andi	r2,r2,32768
     5f4:	1000041e 	bne	r2,zero,608 <nd_GsVgaVsync_setcount+0x24>
     5f8:	00a40034 	movhi	r2,36864
     5fc:	10840204 	addi	r2,r2,4104
     600:	11000015 	stw	r4,0(r2)
     604:	f800283a 	ret
     608:	d126ff15 	stw	r4,-25604(gp)
     60c:	f800283a 	ret

00000610 <nd_GsEglPage>:
     610:	30000726 	beq	r6,zero,630 <nd_GsEglPage+0x20>
     614:	01a40034 	movhi	r6,36864
     618:	31840004 	addi	r6,r6,4096
     61c:	30c00017 	ldw	r3,0(r6)
     620:	18c8000c 	andi	r3,r3,8192
     624:	30800017 	ldw	r2,0(r6)
     628:	1088000c 	andi	r2,r2,8192
     62c:	18bffd26 	beq	r3,r2,624 <__alt_mem_onchip_flash_0_data+0xf0f00624>
     630:	00a00034 	movhi	r2,32768
     634:	10bfffc4 	addi	r2,r2,-1
     638:	2088703a 	and	r4,r4,r2
     63c:	00a40034 	movhi	r2,36864
     640:	10840104 	addi	r2,r2,4100
     644:	11000015 	stw	r4,0(r2)
     648:	d1670015 	stw	r5,-25600(gp)
     64c:	f800283a 	ret

00000650 <nd_GsEglColor>:
     650:	d126fa15 	stw	r4,-25624(gp)
     654:	d166fb15 	stw	r5,-25620(gp)
     658:	d1a6fc15 	stw	r6,-25616(gp)
     65c:	f800283a 	ret

00000660 <nd_GsEglPset>:
     660:	d0e70017 	ldw	r3,-25600(gp)
     664:	18003026 	beq	r3,zero,728 <nd_GsEglPset+0xc8>
     668:	d0a6fc17 	ldw	r2,-25616(gp)
     66c:	10002e26 	beq	r2,zero,728 <nd_GsEglPset+0xc8>
     670:	01809fc4 	movi	r6,639
     674:	31002c36 	bltu	r6,r4,728 <nd_GsEglPset+0xc8>
     678:	28002b16 	blt	r5,zero,728 <nd_GsEglPset+0xc8>
     67c:	018077c4 	movi	r6,479
     680:	31402916 	blt	r6,r5,728 <nd_GsEglPset+0xc8>
     684:	280a92fa 	slli	r5,r5,11
     688:	2109883a 	add	r4,r4,r4
     68c:	20c7883a 	add	r3,r4,r3
     690:	01003fc4 	movi	r4,255
     694:	1947883a 	add	r3,r3,r5
     698:	d1a6fa17 	ldw	r6,-25624(gp)
     69c:	20802136 	bltu	r4,r2,724 <nd_GsEglPset+0xc4>
     6a0:	1900000b 	ldhu	r4,0(r3)
     6a4:	3280f80c 	andi	r10,r6,992
     6a8:	321f000c 	andi	r8,r6,31744
     6ac:	215f000c 	andi	r5,r4,31744
     6b0:	21c0f80c 	andi	r7,r4,992
     6b4:	280bd1fa 	srai	r5,r5,7
     6b8:	380fd0ba 	srai	r7,r7,2
     6bc:	301290fa 	slli	r9,r6,3
     6c0:	200890fa 	slli	r4,r4,3
     6c4:	5015d0ba 	srai	r10,r10,2
     6c8:	4011d1fa 	srai	r8,r8,7
     6cc:	21003e0c 	andi	r4,r4,248
     6d0:	51cdc83a 	sub	r6,r10,r7
     6d4:	4151c83a 	sub	r8,r8,r5
     6d8:	4a403e0c 	andi	r9,r9,248
     6dc:	308d383a 	mul	r6,r6,r2
     6e0:	4091383a 	mul	r8,r8,r2
     6e4:	4913c83a 	sub	r9,r9,r4
     6e8:	380e923a 	slli	r7,r7,8
     6ec:	280a923a 	slli	r5,r5,8
     6f0:	2008923a 	slli	r4,r4,8
     6f4:	4885383a 	mul	r2,r9,r2
     6f8:	31cd883a 	add	r6,r6,r7
     6fc:	414b883a 	add	r5,r8,r5
     700:	1105883a 	add	r2,r2,r4
     704:	300cd1ba 	srli	r6,r6,6
     708:	280ad07a 	srli	r5,r5,1
     70c:	1004d2fa 	srli	r2,r2,11
     710:	3180f80c 	andi	r6,r6,992
     714:	291f000c 	andi	r4,r5,31744
     718:	310cb03a 	or	r6,r6,r4
     71c:	108007cc 	andi	r2,r2,31
     720:	308cb03a 	or	r6,r6,r2
     724:	1980000d 	sth	r6,0(r3)
     728:	f800283a 	ret

0000072c <nd_GsEglBoxfill>:
     72c:	d0a70017 	ldw	r2,-25600(gp)
     730:	defffb04 	addi	sp,sp,-20
     734:	dd000415 	stw	r20,16(sp)
     738:	dcc00315 	stw	r19,12(sp)
     73c:	dc800215 	stw	r18,8(sp)
     740:	dc400115 	stw	r17,4(sp)
     744:	dc000015 	stw	r16,0(sp)
     748:	10004326 	beq	r2,zero,858 <nd_GsEglBoxfill+0x12c>
     74c:	d226fc17 	ldw	r8,-25616(gp)
     750:	40004126 	beq	r8,zero,858 <nd_GsEglBoxfill+0x12c>
     754:	3100030e 	bge	r6,r4,764 <nd_GsEglBoxfill+0x38>
     758:	2007883a 	mov	r3,r4
     75c:	3009883a 	mov	r4,r6
     760:	180d883a 	mov	r6,r3
     764:	3940030e 	bge	r7,r5,774 <nd_GsEglBoxfill+0x48>
     768:	2807883a 	mov	r3,r5
     76c:	380b883a 	mov	r5,r7
     770:	180f883a 	mov	r7,r3
     774:	20004616 	blt	r4,zero,890 <nd_GsEglBoxfill+0x164>
     778:	00c09fc4 	movi	r3,639
     77c:	19803d16 	blt	r3,r6,874 <nd_GsEglBoxfill+0x148>
     780:	31003516 	blt	r6,r4,858 <nd_GsEglBoxfill+0x12c>
     784:	28004616 	blt	r5,zero,8a0 <nd_GsEglBoxfill+0x174>
     788:	00c077c4 	movi	r3,479
     78c:	19c03e16 	blt	r3,r7,888 <nd_GsEglBoxfill+0x15c>
     790:	39403116 	blt	r7,r5,858 <nd_GsEglBoxfill+0x12c>
     794:	d3a6fa17 	ldw	r14,-25624(gp)
     798:	2123883a 	add	r17,r4,r4
     79c:	88a3883a 	add	r17,r17,r2
     7a0:	741f000c 	andi	r16,r14,31744
     7a4:	73c0f80c 	andi	r15,r14,992
     7a8:	701a90fa 	slli	r13,r14,3
     7ac:	8021d1fa 	srai	r16,r16,7
     7b0:	781fd0ba 	srai	r15,r15,2
     7b4:	6b403e0c 	andi	r13,r13,248
     7b8:	39c00044 	addi	r7,r7,1
     7bc:	31800044 	addi	r6,r6,1
     7c0:	03003fc4 	movi	r12,255
     7c4:	280492fa 	slli	r2,r5,11
     7c8:	2007883a 	mov	r3,r4
     7cc:	1445883a 	add	r2,r2,r17
     7d0:	62002b36 	bltu	r12,r8,880 <nd_GsEglBoxfill+0x154>
     7d4:	1240000b 	ldhu	r9,0(r2)
     7d8:	4a9f000c 	andi	r10,r9,31744
     7dc:	4ac0f80c 	andi	r11,r9,992
     7e0:	5015d1fa 	srai	r10,r10,7
     7e4:	5817d0ba 	srai	r11,r11,2
     7e8:	481290fa 	slli	r9,r9,3
     7ec:	82a5c83a 	sub	r18,r16,r10
     7f0:	7ae9c83a 	sub	r20,r15,r11
     7f4:	4a403e0c 	andi	r9,r9,248
     7f8:	5026923a 	slli	r19,r10,8
     7fc:	a229383a 	mul	r20,r20,r8
     800:	6a55c83a 	sub	r10,r13,r9
     804:	5816923a 	slli	r11,r11,8
     808:	9225383a 	mul	r18,r18,r8
     80c:	4812923a 	slli	r9,r9,8
     810:	5215383a 	mul	r10,r10,r8
     814:	a2d7883a 	add	r11,r20,r11
     818:	94e5883a 	add	r18,r18,r19
     81c:	5255883a 	add	r10,r10,r9
     820:	5816d1ba 	srli	r11,r11,6
     824:	9024d07a 	srli	r18,r18,1
     828:	5014d2fa 	srli	r10,r10,11
     82c:	5ac0f80c 	andi	r11,r11,992
     830:	925f000c 	andi	r9,r18,31744
     834:	5a52b03a 	or	r9,r11,r9
     838:	528007cc 	andi	r10,r10,31
     83c:	4a92b03a 	or	r9,r9,r10
     840:	1240000d 	sth	r9,0(r2)
     844:	18c00044 	addi	r3,r3,1
     848:	10800084 	addi	r2,r2,2
     84c:	19bfe01e 	bne	r3,r6,7d0 <__alt_mem_onchip_flash_0_data+0xf0f007d0>
     850:	29400044 	addi	r5,r5,1
     854:	29ffdb1e 	bne	r5,r7,7c4 <__alt_mem_onchip_flash_0_data+0xf0f007c4>
     858:	dd000417 	ldw	r20,16(sp)
     85c:	dcc00317 	ldw	r19,12(sp)
     860:	dc800217 	ldw	r18,8(sp)
     864:	dc400117 	ldw	r17,4(sp)
     868:	dc000017 	ldw	r16,0(sp)
     86c:	dec00504 	addi	sp,sp,20
     870:	f800283a 	ret
     874:	180d883a 	mov	r6,r3
     878:	313fc20e 	bge	r6,r4,784 <__alt_mem_onchip_flash_0_data+0xf0f00784>
     87c:	003ff606 	br	858 <__alt_mem_onchip_flash_0_data+0xf0f00858>
     880:	7013883a 	mov	r9,r14
     884:	003fee06 	br	840 <__alt_mem_onchip_flash_0_data+0xf0f00840>
     888:	180f883a 	mov	r7,r3
     88c:	003fc006 	br	790 <__alt_mem_onchip_flash_0_data+0xf0f00790>
     890:	00c09fc4 	movi	r3,639
     894:	0009883a 	mov	r4,zero
     898:	19bfb90e 	bge	r3,r6,780 <__alt_mem_onchip_flash_0_data+0xf0f00780>
     89c:	003ff506 	br	874 <__alt_mem_onchip_flash_0_data+0xf0f00874>
     8a0:	000b883a 	mov	r5,zero
     8a4:	003fb806 	br	788 <__alt_mem_onchip_flash_0_data+0xf0f00788>

000008a8 <nd_GsEglCircle>:
     8a8:	defff704 	addi	sp,sp,-36
     8ac:	dd000415 	stw	r20,16(sp)
     8b0:	dcc00315 	stw	r19,12(sp)
     8b4:	dc800215 	stw	r18,8(sp)
     8b8:	dc400115 	stw	r17,4(sp)
     8bc:	dc000015 	stw	r16,0(sp)
     8c0:	3185883a 	add	r2,r6,r6
     8c4:	050000c4 	movi	r20,3
     8c8:	dfc00815 	stw	ra,32(sp)
     8cc:	ddc00715 	stw	r23,28(sp)
     8d0:	dd800615 	stw	r22,24(sp)
     8d4:	dd400515 	stw	r21,20(sp)
     8d8:	2027883a 	mov	r19,r4
     8dc:	2825883a 	mov	r18,r5
     8e0:	a0a9c83a 	sub	r20,r20,r2
     8e4:	3023883a 	mov	r17,r6
     8e8:	0021883a 	mov	r16,zero
     8ec:	01800516 	blt	zero,r6,904 <nd_GsEglCircle+0x5c>
     8f0:	00002f06 	br	9b0 <nd_GsEglCircle+0x108>
     8f4:	8c7fffc4 	addi	r17,r17,-1
     8f8:	84000044 	addi	r16,r16,1
     8fc:	15000284 	addi	r20,r2,10
     900:	84402b0e 	bge	r16,r17,9b0 <nd_GsEglCircle+0x108>
     904:	84ef883a 	add	r23,r16,r19
     908:	946b883a 	add	r21,r18,r17
     90c:	b809883a 	mov	r4,r23
     910:	a80b883a 	mov	r5,r21
     914:	00006600 	call	660 <nd_GsEglPset>
     918:	9c2dc83a 	sub	r22,r19,r16
     91c:	b009883a 	mov	r4,r22
     920:	a80b883a 	mov	r5,r21
     924:	00006600 	call	660 <nd_GsEglPset>
     928:	946bc83a 	sub	r21,r18,r17
     92c:	b809883a 	mov	r4,r23
     930:	a80b883a 	mov	r5,r21
     934:	00006600 	call	660 <nd_GsEglPset>
     938:	b009883a 	mov	r4,r22
     93c:	a80b883a 	mov	r5,r21
     940:	00006600 	call	660 <nd_GsEglPset>
     944:	84ab883a 	add	r21,r16,r18
     948:	9c6f883a 	add	r23,r19,r17
     94c:	a80b883a 	mov	r5,r21
     950:	b809883a 	mov	r4,r23
     954:	00006600 	call	660 <nd_GsEglPset>
     958:	9c6dc83a 	sub	r22,r19,r17
     95c:	a80b883a 	mov	r5,r21
     960:	b009883a 	mov	r4,r22
     964:	00006600 	call	660 <nd_GsEglPset>
     968:	942bc83a 	sub	r21,r18,r16
     96c:	b809883a 	mov	r4,r23
     970:	a80b883a 	mov	r5,r21
     974:	00006600 	call	660 <nd_GsEglPset>
     978:	b009883a 	mov	r4,r22
     97c:	a80b883a 	mov	r5,r21
     980:	00006600 	call	660 <nd_GsEglPset>
     984:	8445c83a 	sub	r2,r16,r17
     988:	1085883a 	add	r2,r2,r2
     98c:	1085883a 	add	r2,r2,r2
     990:	1505883a 	add	r2,r2,r20
     994:	a03fd70e 	bge	r20,zero,8f4 <__alt_mem_onchip_flash_0_data+0xf0f008f4>
     998:	8405883a 	add	r2,r16,r16
     99c:	1085883a 	add	r2,r2,r2
     9a0:	1529883a 	add	r20,r2,r20
     9a4:	84000044 	addi	r16,r16,1
     9a8:	a5000184 	addi	r20,r20,6
     9ac:	847fd516 	blt	r16,r17,904 <__alt_mem_onchip_flash_0_data+0xf0f00904>
     9b0:	84400b26 	beq	r16,r17,9e0 <nd_GsEglCircle+0x138>
     9b4:	dfc00817 	ldw	ra,32(sp)
     9b8:	ddc00717 	ldw	r23,28(sp)
     9bc:	dd800617 	ldw	r22,24(sp)
     9c0:	dd400517 	ldw	r21,20(sp)
     9c4:	dd000417 	ldw	r20,16(sp)
     9c8:	dcc00317 	ldw	r19,12(sp)
     9cc:	dc800217 	ldw	r18,8(sp)
     9d0:	dc400117 	ldw	r17,4(sp)
     9d4:	dc000017 	ldw	r16,0(sp)
     9d8:	dec00904 	addi	sp,sp,36
     9dc:	f800283a 	ret
     9e0:	9c23883a 	add	r17,r19,r16
     9e4:	9429883a 	add	r20,r18,r16
     9e8:	8809883a 	mov	r4,r17
     9ec:	a00b883a 	mov	r5,r20
     9f0:	00006600 	call	660 <nd_GsEglPset>
     9f4:	9c27c83a 	sub	r19,r19,r16
     9f8:	9809883a 	mov	r4,r19
     9fc:	a00b883a 	mov	r5,r20
     a00:	00006600 	call	660 <nd_GsEglPset>
     a04:	9421c83a 	sub	r16,r18,r16
     a08:	8809883a 	mov	r4,r17
     a0c:	800b883a 	mov	r5,r16
     a10:	00006600 	call	660 <nd_GsEglPset>
     a14:	9809883a 	mov	r4,r19
     a18:	800b883a 	mov	r5,r16
     a1c:	dfc00817 	ldw	ra,32(sp)
     a20:	ddc00717 	ldw	r23,28(sp)
     a24:	dd800617 	ldw	r22,24(sp)
     a28:	dd400517 	ldw	r21,20(sp)
     a2c:	dd000417 	ldw	r20,16(sp)
     a30:	dcc00317 	ldw	r19,12(sp)
     a34:	dc800217 	ldw	r18,8(sp)
     a38:	dc400117 	ldw	r17,4(sp)
     a3c:	dc000017 	ldw	r16,0(sp)
     a40:	dec00904 	addi	sp,sp,36
     a44:	00006601 	jmpi	660 <nd_GsEglPset>

00000a48 <nd_GsEglLine>:
     a48:	defff804 	addi	sp,sp,-32
     a4c:	dc800215 	stw	r18,8(sp)
     a50:	3125c83a 	sub	r18,r6,r4
     a54:	91c5883a 	add	r2,r18,r7
     a58:	dd000415 	stw	r20,16(sp)
     a5c:	dcc00315 	stw	r19,12(sp)
     a60:	dc400115 	stw	r17,4(sp)
     a64:	dc000015 	stw	r16,0(sp)
     a68:	dfc00715 	stw	ra,28(sp)
     a6c:	dd800615 	stw	r22,24(sp)
     a70:	dd400515 	stw	r21,20(sp)
     a74:	1145c83a 	sub	r2,r2,r5
     a78:	2023883a 	mov	r17,r4
     a7c:	3029883a 	mov	r20,r6
     a80:	3827883a 	mov	r19,r7
     a84:	2821883a 	mov	r16,r5
     a88:	00803b0e 	bge	zero,r2,b78 <nd_GsEglLine+0x130>
     a8c:	8809883a 	mov	r4,r17
     a90:	800b883a 	mov	r5,r16
     a94:	00006600 	call	660 <nd_GsEglPset>
     a98:	9007883a 	mov	r3,r18
     a9c:	90004016 	blt	r18,zero,ba0 <nd_GsEglLine+0x158>
     aa0:	9c05c83a 	sub	r2,r19,r16
     aa4:	10003016 	blt	r2,zero,b68 <nd_GsEglLine+0x120>
     aa8:	10c0190e 	bge	r2,r3,b10 <nd_GsEglLine+0xc8>
     aac:	10ab883a 	add	r21,r2,r2
     ab0:	a8e5c83a 	sub	r18,r21,r3
     ab4:	90edc83a 	sub	r22,r18,r3
     ab8:	84c02916 	blt	r16,r19,b60 <nd_GsEglLine+0x118>
     abc:	04ffffc4 	movi	r19,-1
     ac0:	8c400044 	addi	r17,r17,1
     ac4:	a4400816 	blt	r20,r17,ae8 <nd_GsEglLine+0xa0>
     ac8:	0480290e 	bge	zero,r18,b70 <nd_GsEglLine+0x128>
     acc:	95a5883a 	add	r18,r18,r22
     ad0:	84e1883a 	add	r16,r16,r19
     ad4:	8809883a 	mov	r4,r17
     ad8:	800b883a 	mov	r5,r16
     adc:	8c400044 	addi	r17,r17,1
     ae0:	00006600 	call	660 <nd_GsEglPset>
     ae4:	a47ff80e 	bge	r20,r17,ac8 <__alt_mem_onchip_flash_0_data+0xf0f00ac8>
     ae8:	dfc00717 	ldw	ra,28(sp)
     aec:	dd800617 	ldw	r22,24(sp)
     af0:	dd400517 	ldw	r21,20(sp)
     af4:	dd000417 	ldw	r20,16(sp)
     af8:	dcc00317 	ldw	r19,12(sp)
     afc:	dc800217 	ldw	r18,8(sp)
     b00:	dc400117 	ldw	r17,4(sp)
     b04:	dc000017 	ldw	r16,0(sp)
     b08:	dec00804 	addi	sp,sp,32
     b0c:	f800283a 	ret
     b10:	18eb883a 	add	r21,r3,r3
     b14:	a8a5c83a 	sub	r18,r21,r2
     b18:	90adc83a 	sub	r22,r18,r2
     b1c:	8d000e16 	blt	r17,r20,b58 <nd_GsEglLine+0x110>
     b20:	053fffc4 	movi	r20,-1
     b24:	84000044 	addi	r16,r16,1
     b28:	9c3fef16 	blt	r19,r16,ae8 <__alt_mem_onchip_flash_0_data+0xf0f00ae8>
     b2c:	0480080e 	bge	zero,r18,b50 <nd_GsEglLine+0x108>
     b30:	95a5883a 	add	r18,r18,r22
     b34:	8d23883a 	add	r17,r17,r20
     b38:	800b883a 	mov	r5,r16
     b3c:	8809883a 	mov	r4,r17
     b40:	84000044 	addi	r16,r16,1
     b44:	00006600 	call	660 <nd_GsEglPset>
     b48:	9c3fe716 	blt	r19,r16,ae8 <__alt_mem_onchip_flash_0_data+0xf0f00ae8>
     b4c:	04bff816 	blt	zero,r18,b30 <__alt_mem_onchip_flash_0_data+0xf0f00b30>
     b50:	9565883a 	add	r18,r18,r21
     b54:	003ff806 	br	b38 <__alt_mem_onchip_flash_0_data+0xf0f00b38>
     b58:	05000044 	movi	r20,1
     b5c:	003ff106 	br	b24 <__alt_mem_onchip_flash_0_data+0xf0f00b24>
     b60:	04c00044 	movi	r19,1
     b64:	003fd606 	br	ac0 <__alt_mem_onchip_flash_0_data+0xf0f00ac0>
     b68:	0085c83a 	sub	r2,zero,r2
     b6c:	003fce06 	br	aa8 <__alt_mem_onchip_flash_0_data+0xf0f00aa8>
     b70:	9565883a 	add	r18,r18,r21
     b74:	003fd706 	br	ad4 <__alt_mem_onchip_flash_0_data+0xf0f00ad4>
     b78:	3821883a 	mov	r16,r7
     b7c:	3023883a 	mov	r17,r6
     b80:	21a5c83a 	sub	r18,r4,r6
     b84:	2827883a 	mov	r19,r5
     b88:	2029883a 	mov	r20,r4
     b8c:	800b883a 	mov	r5,r16
     b90:	8809883a 	mov	r4,r17
     b94:	00006600 	call	660 <nd_GsEglPset>
     b98:	9007883a 	mov	r3,r18
     b9c:	903fc00e 	bge	r18,zero,aa0 <__alt_mem_onchip_flash_0_data+0xf0f00aa0>
     ba0:	0487c83a 	sub	r3,zero,r18
     ba4:	003fbe06 	br	aa0 <__alt_mem_onchip_flash_0_data+0xf0f00aa0>

00000ba8 <nd_GsEglBox>:
     ba8:	defffb04 	addi	sp,sp,-20
     bac:	dc000015 	stw	r16,0(sp)
     bb0:	3821883a 	mov	r16,r7
     bb4:	280f883a 	mov	r7,r5
     bb8:	dfc00415 	stw	ra,16(sp)
     bbc:	dcc00315 	stw	r19,12(sp)
     bc0:	dc800215 	stw	r18,8(sp)
     bc4:	dc400115 	stw	r17,4(sp)
     bc8:	3025883a 	mov	r18,r6
     bcc:	2023883a 	mov	r17,r4
     bd0:	2827883a 	mov	r19,r5
     bd4:	0000a480 	call	a48 <nd_GsEglLine>
     bd8:	8809883a 	mov	r4,r17
     bdc:	800b883a 	mov	r5,r16
     be0:	900d883a 	mov	r6,r18
     be4:	800f883a 	mov	r7,r16
     be8:	0000a480 	call	a48 <nd_GsEglLine>
     bec:	9cc00044 	addi	r19,r19,1
     bf0:	843fffc4 	addi	r16,r16,-1
     bf4:	9009883a 	mov	r4,r18
     bf8:	980b883a 	mov	r5,r19
     bfc:	900d883a 	mov	r6,r18
     c00:	800f883a 	mov	r7,r16
     c04:	0000a480 	call	a48 <nd_GsEglLine>
     c08:	8809883a 	mov	r4,r17
     c0c:	980b883a 	mov	r5,r19
     c10:	880d883a 	mov	r6,r17
     c14:	800f883a 	mov	r7,r16
     c18:	dfc00417 	ldw	ra,16(sp)
     c1c:	dcc00317 	ldw	r19,12(sp)
     c20:	dc800217 	ldw	r18,8(sp)
     c24:	dc400117 	ldw	r17,4(sp)
     c28:	dc000017 	ldw	r16,0(sp)
     c2c:	dec00504 	addi	sp,sp,20
     c30:	0000a481 	jmpi	a48 <nd_GsEglLine>

00000c34 <nd_GsEglPutcharFont>:
     c34:	defff804 	addi	sp,sp,-32
     c38:	dd400515 	stw	r21,20(sp)
     c3c:	dd000415 	stw	r20,16(sp)
     c40:	dfc00715 	stw	ra,28(sp)
     c44:	dd800615 	stw	r22,24(sp)
     c48:	dcc00315 	stw	r19,12(sp)
     c4c:	dc800215 	stw	r18,8(sp)
     c50:	dc400115 	stw	r17,4(sp)
     c54:	dc000015 	stw	r16,0(sp)
     c58:	31bfffcc 	andi	r6,r6,65535
     c5c:	00803fc4 	movi	r2,255
     c60:	202b883a 	mov	r21,r4
     c64:	2829883a 	mov	r20,r5
     c68:	11802e36 	bltu	r2,r6,d24 <nd_GsEglPutcharFont+0xf0>
     c6c:	d0a6fd17 	ldw	r2,-25612(gp)
     c70:	10003626 	beq	r2,zero,d4c <nd_GsEglPutcharFont+0x118>
     c74:	14c00383 	ldbu	r19,14(r2)
     c78:	158003c3 	ldbu	r22,15(r2)
     c7c:	10800444 	addi	r2,r2,17
     c80:	98c001c4 	addi	r3,r19,7
     c84:	1807d0fa 	srai	r3,r3,3
     c88:	1d87383a 	mul	r3,r3,r22
     c8c:	30cd383a 	mul	r6,r6,r3
     c90:	11a5883a 	add	r18,r2,r6
     c94:	b0001826 	beq	r22,zero,cf8 <nd_GsEglPutcharFont+0xc4>
     c98:	b52d883a 	add	r22,r22,r20
     c9c:	0021883a 	mov	r16,zero
     ca0:	0023883a 	mov	r17,zero
     ca4:	9800041e 	bne	r19,zero,cb8 <nd_GsEglPutcharFont+0x84>
     ca8:	00001106 	br	cf0 <nd_GsEglPutcharFont+0xbc>
     cac:	8c400044 	addi	r17,r17,1
     cb0:	8421883a 	add	r16,r16,r16
     cb4:	8cc00e26 	beq	r17,r19,cf0 <nd_GsEglPutcharFont+0xbc>
     cb8:	88c001cc 	andi	r3,r17,7
     cbc:	1800021e 	bne	r3,zero,cc8 <nd_GsEglPutcharFont+0x94>
     cc0:	94000003 	ldbu	r16,0(r18)
     cc4:	94800044 	addi	r18,r18,1
     cc8:	80c03fcc 	andi	r3,r16,255
     ccc:	18c0201c 	xori	r3,r3,128
     cd0:	18ffe004 	addi	r3,r3,-128
     cd4:	183ff50e 	bge	r3,zero,cac <__alt_mem_onchip_flash_0_data+0xf0f00cac>
     cd8:	8d49883a 	add	r4,r17,r21
     cdc:	a00b883a 	mov	r5,r20
     ce0:	8c400044 	addi	r17,r17,1
     ce4:	00006600 	call	660 <nd_GsEglPset>
     ce8:	8421883a 	add	r16,r16,r16
     cec:	8cfff21e 	bne	r17,r19,cb8 <__alt_mem_onchip_flash_0_data+0xf0f00cb8>
     cf0:	a5000044 	addi	r20,r20,1
     cf4:	a5bfea1e 	bne	r20,r22,ca0 <__alt_mem_onchip_flash_0_data+0xf0f00ca0>
     cf8:	9805883a 	mov	r2,r19
     cfc:	dfc00717 	ldw	ra,28(sp)
     d00:	dd800617 	ldw	r22,24(sp)
     d04:	dd400517 	ldw	r21,20(sp)
     d08:	dd000417 	ldw	r20,16(sp)
     d0c:	dcc00317 	ldw	r19,12(sp)
     d10:	dc800217 	ldw	r18,8(sp)
     d14:	dc400117 	ldw	r17,4(sp)
     d18:	dc000017 	ldw	r16,0(sp)
     d1c:	dec00804 	addi	sp,sp,32
     d20:	f800283a 	ret
     d24:	d426fe17 	ldw	r16,-25608(gp)
     d28:	80000826 	beq	r16,zero,d4c <nd_GsEglPutcharFont+0x118>
     d2c:	3009883a 	mov	r4,r6
     d30:	800b883a 	mov	r5,r16
     d34:	00004000 	call	400 <nd_GsEglFontx_putkanji>
     d38:	1025883a 	mov	r18,r2
     d3c:	10000526 	beq	r2,zero,d54 <nd_GsEglPutcharFont+0x120>
     d40:	84c00383 	ldbu	r19,14(r16)
     d44:	858003c3 	ldbu	r22,15(r16)
     d48:	003fd206 	br	c94 <__alt_mem_onchip_flash_0_data+0xf0f00c94>
     d4c:	0027883a 	mov	r19,zero
     d50:	003fe906 	br	cf8 <__alt_mem_onchip_flash_0_data+0xf0f00cf8>
     d54:	01206814 	movui	r4,33184
     d58:	800b883a 	mov	r5,r16
     d5c:	00004000 	call	400 <nd_GsEglFontx_putkanji>
     d60:	1025883a 	mov	r18,r2
     d64:	003ff606 	br	d40 <__alt_mem_onchip_flash_0_data+0xf0f00d40>

00000d68 <nd_GsEglPutstrFont>:
     d68:	defff904 	addi	sp,sp,-28
     d6c:	dd400515 	stw	r21,20(sp)
     d70:	dd000415 	stw	r20,16(sp)
     d74:	dcc00315 	stw	r19,12(sp)
     d78:	dc800215 	stw	r18,8(sp)
     d7c:	dc400115 	stw	r17,4(sp)
     d80:	dc000015 	stw	r16,0(sp)
     d84:	dfc00615 	stw	ra,24(sp)
     d88:	2021883a 	mov	r16,r4
     d8c:	2829883a 	mov	r20,r5
     d90:	3023883a 	mov	r17,r6
     d94:	04c00784 	movi	r19,30
     d98:	054007c4 	movi	r21,31
     d9c:	04809fc4 	movi	r18,639
     da0:	00000806 	br	dc4 <nd_GsEglPutstrFont+0x5c>
     da4:	a900112e 	bgeu	r21,r4,dec <nd_GsEglPutstrFont+0x84>
     da8:	8009883a 	mov	r4,r16
     dac:	a00b883a 	mov	r5,r20
     db0:	19bfffcc 	andi	r6,r3,65535
     db4:	0000c340 	call	c34 <nd_GsEglPutcharFont>
     db8:	80a1883a 	add	r16,r16,r2
     dbc:	8c400044 	addi	r17,r17,1
     dc0:	94001316 	blt	r18,r16,e10 <nd_GsEglPutstrFont+0xa8>
     dc4:	88800003 	ldbu	r2,0(r17)
     dc8:	10c03fcc 	andi	r3,r2,255
     dcc:	197fdfc4 	addi	r5,r3,-129
     dd0:	193fc804 	addi	r4,r3,-224
     dd4:	10803fcc 	andi	r2,r2,255
     dd8:	100c923a 	slli	r6,r2,8
     ddc:	297fffcc 	andi	r5,r5,65535
     de0:	213fffcc 	andi	r4,r4,65535
     de4:	10000a26 	beq	r2,zero,e10 <nd_GsEglPutstrFont+0xa8>
     de8:	997fee36 	bltu	r19,r5,da4 <__alt_mem_onchip_flash_0_data+0xf0f00da4>
     dec:	88c00043 	ldbu	r3,1(r17)
     df0:	8009883a 	mov	r4,r16
     df4:	a00b883a 	mov	r5,r20
     df8:	30c6b03a 	or	r3,r6,r3
     dfc:	19bfffcc 	andi	r6,r3,65535
     e00:	0000c340 	call	c34 <nd_GsEglPutcharFont>
     e04:	80a1883a 	add	r16,r16,r2
     e08:	8c400084 	addi	r17,r17,2
     e0c:	943fed0e 	bge	r18,r16,dc4 <__alt_mem_onchip_flash_0_data+0xf0f00dc4>
     e10:	dfc00617 	ldw	ra,24(sp)
     e14:	dd400517 	ldw	r21,20(sp)
     e18:	dd000417 	ldw	r20,16(sp)
     e1c:	dcc00317 	ldw	r19,12(sp)
     e20:	dc800217 	ldw	r18,8(sp)
     e24:	dc400117 	ldw	r17,4(sp)
     e28:	dc000017 	ldw	r16,0(sp)
     e2c:	dec00704 	addi	sp,sp,28
     e30:	f800283a 	ret

00000e34 <nd_GsEglSetFont>:
     e34:	d126fd15 	stw	r4,-25612(gp)
     e38:	d166fe15 	stw	r5,-25608(gp)
     e3c:	f800283a 	ret

00000e40 <nd_GsEglPutchar>:
     e40:	31801fcc 	andi	r6,r6,127
     e44:	defff704 	addi	sp,sp,-36
     e48:	300490fa 	slli	r2,r6,3
     e4c:	dcc00315 	stw	r19,12(sp)
     e50:	04c000f4 	movhi	r19,3
     e54:	9cff0004 	addi	r19,r19,-1024
     e58:	2ccbc83a 	sub	r5,r5,r19
     e5c:	ddc00715 	stw	r23,28(sp)
     e60:	9dc00204 	addi	r23,r19,8
     e64:	dd800615 	stw	r22,24(sp)
     e68:	dd400515 	stw	r21,20(sp)
     e6c:	dc800215 	stw	r18,8(sp)
     e70:	dfc00815 	stw	ra,32(sp)
     e74:	dd000415 	stw	r20,16(sp)
     e78:	dc400115 	stw	r17,4(sp)
     e7c:	dc000015 	stw	r16,0(sp)
     e80:	202b883a 	mov	r21,r4
     e84:	14e7883a 	add	r19,r2,r19
     e88:	15ef883a 	add	r23,r2,r23
     e8c:	28adc83a 	sub	r22,r5,r2
     e90:	04800204 	movi	r18,8
     e94:	9c000003 	ldbu	r16,0(r19)
     e98:	0023883a 	mov	r17,zero
     e9c:	b4e9883a 	add	r20,r22,r19
     ea0:	00000306 	br	eb0 <nd_GsEglPutchar+0x70>
     ea4:	8c400044 	addi	r17,r17,1
     ea8:	8421883a 	add	r16,r16,r16
     eac:	8c800826 	beq	r17,r18,ed0 <nd_GsEglPutchar+0x90>
     eb0:	8080200c 	andi	r2,r16,128
     eb4:	103ffb26 	beq	r2,zero,ea4 <__alt_mem_onchip_flash_0_data+0xf0f00ea4>
     eb8:	8d49883a 	add	r4,r17,r21
     ebc:	a00b883a 	mov	r5,r20
     ec0:	8c400044 	addi	r17,r17,1
     ec4:	00006600 	call	660 <nd_GsEglPset>
     ec8:	8421883a 	add	r16,r16,r16
     ecc:	8cbff81e 	bne	r17,r18,eb0 <__alt_mem_onchip_flash_0_data+0xf0f00eb0>
     ed0:	9cc00044 	addi	r19,r19,1
     ed4:	9dffef1e 	bne	r19,r23,e94 <__alt_mem_onchip_flash_0_data+0xf0f00e94>
     ed8:	dfc00817 	ldw	ra,32(sp)
     edc:	ddc00717 	ldw	r23,28(sp)
     ee0:	dd800617 	ldw	r22,24(sp)
     ee4:	dd400517 	ldw	r21,20(sp)
     ee8:	dd000417 	ldw	r20,16(sp)
     eec:	dcc00317 	ldw	r19,12(sp)
     ef0:	dc800217 	ldw	r18,8(sp)
     ef4:	dc400117 	ldw	r17,4(sp)
     ef8:	dc000017 	ldw	r16,0(sp)
     efc:	dec00904 	addi	sp,sp,36
     f00:	f800283a 	ret

00000f04 <nd_GsEglPutstr>:
     f04:	defffc04 	addi	sp,sp,-16
     f08:	dc800215 	stw	r18,8(sp)
     f0c:	dc400115 	stw	r17,4(sp)
     f10:	dc000015 	stw	r16,0(sp)
     f14:	dfc00315 	stw	ra,12(sp)
     f18:	3021883a 	mov	r16,r6
     f1c:	31800007 	ldb	r6,0(r6)
     f20:	2023883a 	mov	r17,r4
     f24:	2825883a 	mov	r18,r5
     f28:	30000726 	beq	r6,zero,f48 <nd_GsEglPutstr+0x44>
     f2c:	8809883a 	mov	r4,r17
     f30:	900b883a 	mov	r5,r18
     f34:	84000044 	addi	r16,r16,1
     f38:	0000e400 	call	e40 <nd_GsEglPutchar>
     f3c:	81800007 	ldb	r6,0(r16)
     f40:	8c400204 	addi	r17,r17,8
     f44:	303ff91e 	bne	r6,zero,f2c <__alt_mem_onchip_flash_0_data+0xf0f00f2c>
     f48:	dfc00317 	ldw	ra,12(sp)
     f4c:	dc800217 	ldw	r18,8(sp)
     f50:	dc400117 	ldw	r17,4(sp)
     f54:	dc000017 	ldw	r16,0(sp)
     f58:	dec00404 	addi	sp,sp,16
     f5c:	f800283a 	ret

00000f60 <nd_GsEglPutdec>:
     f60:	defff504 	addi	sp,sp,-44
     f64:	dd400915 	stw	r21,36(sp)
     f68:	dd000815 	stw	r20,32(sp)
     f6c:	dcc00715 	stw	r19,28(sp)
     f70:	dc000415 	stw	r16,16(sp)
     f74:	dfc00a15 	stw	ra,40(sp)
     f78:	dc800615 	stw	r18,24(sp)
     f7c:	dc400515 	stw	r17,20(sp)
     f80:	3027883a 	mov	r19,r6
     f84:	2029883a 	mov	r20,r4
     f88:	282b883a 	mov	r21,r5
     f8c:	3021883a 	mov	r16,r6
     f90:	30001f16 	blt	r6,zero,1010 <nd_GsEglPutdec+0xb0>
     f94:	00800c04 	movi	r2,48
     f98:	d8800305 	stb	r2,12(sp)
     f9c:	d8000345 	stb	zero,13(sp)
     fa0:	80002326 	beq	r16,zero,1030 <nd_GsEglPutdec+0xd0>
     fa4:	04400304 	movi	r17,12
     fa8:	8009883a 	mov	r4,r16
     fac:	01400284 	movi	r5,10
     fb0:	00016740 	call	1674 <__modsi3>
     fb4:	8009883a 	mov	r4,r16
     fb8:	01400284 	movi	r5,10
     fbc:	1025883a 	mov	r18,r2
     fc0:	00016240 	call	1624 <__divsi3>
     fc4:	dc4d883a 	add	r6,sp,r17
     fc8:	94800c14 	ori	r18,r18,48
     fcc:	34800005 	stb	r18,0(r6)
     fd0:	1021883a 	mov	r16,r2
     fd4:	8c7fffc4 	addi	r17,r17,-1
     fd8:	103ff31e 	bne	r2,zero,fa8 <__alt_mem_onchip_flash_0_data+0xf0f00fa8>
     fdc:	98000f16 	blt	r19,zero,101c <nd_GsEglPutdec+0xbc>
     fe0:	a009883a 	mov	r4,r20
     fe4:	a80b883a 	mov	r5,r21
     fe8:	0000f040 	call	f04 <nd_GsEglPutstr>
     fec:	dfc00a17 	ldw	ra,40(sp)
     ff0:	dd400917 	ldw	r21,36(sp)
     ff4:	dd000817 	ldw	r20,32(sp)
     ff8:	dcc00717 	ldw	r19,28(sp)
     ffc:	dc800617 	ldw	r18,24(sp)
    1000:	dc400517 	ldw	r17,20(sp)
    1004:	dc000417 	ldw	r16,16(sp)
    1008:	dec00b04 	addi	sp,sp,44
    100c:	f800283a 	ret
    1010:	01a1c83a 	sub	r16,zero,r6
    1014:	003fdf06 	br	f94 <__alt_mem_onchip_flash_0_data+0xf0f00f94>
    1018:	04400304 	movi	r17,12
    101c:	dc47883a 	add	r3,sp,r17
    1020:	00800b44 	movi	r2,45
    1024:	18800005 	stb	r2,0(r3)
    1028:	180d883a 	mov	r6,r3
    102c:	003fec06 	br	fe0 <__alt_mem_onchip_flash_0_data+0xf0f00fe0>
    1030:	983ff916 	blt	r19,zero,1018 <__alt_mem_onchip_flash_0_data+0xf0f01018>
    1034:	d9800304 	addi	r6,sp,12
    1038:	003fe906 	br	fe0 <__alt_mem_onchip_flash_0_data+0xf0f00fe0>

0000103c <nd_GsEglPuthex2>:
    103c:	defffc04 	addi	sp,sp,-16
    1040:	dc000015 	stw	r16,0(sp)
    1044:	3021883a 	mov	r16,r6
    1048:	300cd13a 	srli	r6,r6,4
    104c:	dc800215 	stw	r18,8(sp)
    1050:	dc400115 	stw	r17,4(sp)
    1054:	318003cc 	andi	r6,r6,15
    1058:	2025883a 	mov	r18,r4
    105c:	2823883a 	mov	r17,r5
    1060:	dfc00315 	stw	ra,12(sp)
    1064:	0000e400 	call	e40 <nd_GsEglPutchar>
    1068:	91000204 	addi	r4,r18,8
    106c:	880b883a 	mov	r5,r17
    1070:	818003cc 	andi	r6,r16,15
    1074:	dfc00317 	ldw	ra,12(sp)
    1078:	dc800217 	ldw	r18,8(sp)
    107c:	dc400117 	ldw	r17,4(sp)
    1080:	dc000017 	ldw	r16,0(sp)
    1084:	dec00404 	addi	sp,sp,16
    1088:	0000e401 	jmpi	e40 <nd_GsEglPutchar>

0000108c <nd_GsEglPuthex8>:
    108c:	defffa04 	addi	sp,sp,-24
    1090:	dd000415 	stw	r20,16(sp)
    1094:	dcc00315 	stw	r19,12(sp)
    1098:	dc800215 	stw	r18,8(sp)
    109c:	dc400115 	stw	r17,4(sp)
    10a0:	dc000015 	stw	r16,0(sp)
    10a4:	dfc00515 	stw	ra,20(sp)
    10a8:	2029883a 	mov	r20,r4
    10ac:	2827883a 	mov	r19,r5
    10b0:	3023883a 	mov	r17,r6
    10b4:	040001c4 	movi	r16,7
    10b8:	04bfffc4 	movi	r18,-1
    10bc:	800890fa 	slli	r4,r16,3
    10c0:	898003cc 	andi	r6,r17,15
    10c4:	980b883a 	mov	r5,r19
    10c8:	2509883a 	add	r4,r4,r20
    10cc:	843fffc4 	addi	r16,r16,-1
    10d0:	0000e400 	call	e40 <nd_GsEglPutchar>
    10d4:	8822d13a 	srli	r17,r17,4
    10d8:	84bff81e 	bne	r16,r18,10bc <__alt_mem_onchip_flash_0_data+0xf0f010bc>
    10dc:	dfc00517 	ldw	ra,20(sp)
    10e0:	dd000417 	ldw	r20,16(sp)
    10e4:	dcc00317 	ldw	r19,12(sp)
    10e8:	dc800217 	ldw	r18,8(sp)
    10ec:	dc400117 	ldw	r17,4(sp)
    10f0:	dc000017 	ldw	r16,0(sp)
    10f4:	dec00604 	addi	sp,sp,24
    10f8:	f800283a 	ret

000010fc <systeminit>:
    10fc:	defffc04 	addi	sp,sp,-16
    1100:	010000f4 	movhi	r4,3
    1104:	21000004 	addi	r4,r4,0
    1108:	dfc00315 	stw	ra,12(sp)
    110c:	dc000015 	stw	r16,0(sp)
    1110:	dc800215 	stw	r18,8(sp)
    1114:	dc400115 	stw	r17,4(sp)
    1118:	00017f00 	call	17f0 <puts>
    111c:	010000f4 	movhi	r4,3
    1120:	21000804 	addi	r4,r4,32
    1124:	00017f00 	call	17f0 <puts>
    1128:	000f883a 	mov	r7,zero
    112c:	01801904 	movi	r6,100
    1130:	010000f4 	movhi	r4,3
    1134:	21000e04 	addi	r4,r4,56
    1138:	014000f4 	movhi	r5,3
    113c:	29401404 	addi	r5,r5,80
    1140:	000170c0 	call	170c <printf>
    1144:	04000204 	movi	r16,8
    1148:	800b883a 	mov	r5,r16
    114c:	010000f4 	movhi	r4,3
    1150:	21001604 	addi	r4,r4,88
    1154:	000170c0 	call	170c <printf>
    1158:	800b883a 	mov	r5,r16
    115c:	010000f4 	movhi	r4,3
    1160:	21001b04 	addi	r4,r4,108
    1164:	000170c0 	call	170c <printf>
    1168:	010000f4 	movhi	r4,3
    116c:	21002004 	addi	r4,r4,128
    1170:	01400804 	movi	r5,32
    1174:	000170c0 	call	170c <printf>
    1178:	010000f4 	movhi	r4,3
    117c:	21002704 	addi	r4,r4,156
    1180:	0143c034 	movhi	r5,3840
    1184:	000170c0 	call	170c <printf>
    1188:	010000f4 	movhi	r4,3
    118c:	21002e04 	addi	r4,r4,184
    1190:	0143fff4 	movhi	r5,4095
    1194:	29420804 	addi	r5,r5,2080
    1198:	000170c0 	call	170c <printf>
    119c:	010000f4 	movhi	r4,3
    11a0:	21003504 	addi	r4,r4,212
    11a4:	000b883a 	mov	r5,zero
    11a8:	01808034 	movhi	r6,512
    11ac:	31bfffc4 	addi	r6,r6,-1
    11b0:	000170c0 	call	170c <printf>
    11b4:	00840034 	movhi	r2,4096
    11b8:	11400037 	ldwio	r5,0(r2)
    11bc:	10800104 	addi	r2,r2,4
    11c0:	11800037 	ldwio	r6,0(r2)
    11c4:	010000f4 	movhi	r4,3
    11c8:	21003c04 	addi	r4,r4,240
    11cc:	000170c0 	call	170c <printf>
    11d0:	010000f4 	movhi	r4,3
    11d4:	21004204 	addi	r4,r4,264
    11d8:	014000f4 	movhi	r5,3
    11dc:	29404904 	addi	r5,r5,292
    11e0:	018000f4 	movhi	r6,3
    11e4:	31804c04 	addi	r6,r6,304
    11e8:	000170c0 	call	170c <printf>
    11ec:	01602014 	movui	r5,32896
    11f0:	00bfffd4 	movui	r2,65535
    11f4:	114bc032 	custom	0,r5,r2,r5
    11f8:	010000f4 	movhi	r4,3
    11fc:	21004f04 	addi	r4,r4,316
    1200:	000170c0 	call	170c <printf>
    1204:	04000434 	movhi	r16,16
    1208:	84080c04 	addi	r16,r16,8240
    120c:	01402074 	movhi	r5,129
    1210:	29642804 	addi	r5,r5,-28512
    1214:	2c0bc072 	custom	1,r5,r5,r16
    1218:	010000f4 	movhi	r4,3
    121c:	21005404 	addi	r4,r4,336
    1220:	000170c0 	call	170c <printf>
    1224:	0440fa34 	movhi	r17,1000
    1228:	8c5fffc4 	addi	r17,r17,32767
    122c:	0025883a 	mov	r18,zero
    1230:	8c8bc0b2 	custom	2,r5,r17,r18
    1234:	010000f4 	movhi	r4,3
    1238:	21005904 	addi	r4,r4,356
    123c:	000170c0 	call	170c <printf>
    1240:	8c8bc0f2 	custom	3,r5,r17,r18
    1244:	010000f4 	movhi	r4,3
    1248:	21005e04 	addi	r4,r4,376
    124c:	000170c0 	call	170c <printf>
    1250:	017fe074 	movhi	r5,65409
    1254:	29642804 	addi	r5,r5,-28512
    1258:	2c0bc132 	custom	4,r5,r5,r16
    125c:	010000f4 	movhi	r4,3
    1260:	21006304 	addi	r4,r4,396
    1264:	000170c0 	call	170c <printf>
    1268:	041fe074 	movhi	r16,32641
    126c:	84206084 	addi	r16,r16,-32382
    1270:	015fa034 	movhi	r5,32384
    1274:	29602044 	addi	r5,r5,-32639
    1278:	814bc1b2 	custom	6,r5,r16,r5
    127c:	010000f4 	movhi	r4,3
    1280:	21006804 	addi	r4,r4,416
    1284:	000170c0 	call	170c <printf>
    1288:	01602074 	movhi	r5,32897
    128c:	29602004 	addi	r5,r5,-32640
    1290:	814bc1f2 	custom	7,r5,r16,r5
    1294:	010000f4 	movhi	r4,3
    1298:	21006d04 	addi	r4,r4,436
    129c:	000170c0 	call	170c <printf>
    12a0:	010000f4 	movhi	r4,3
    12a4:	21003b04 	addi	r4,r4,236
    12a8:	00017f00 	call	17f0 <puts>
    12ac:	0005883a 	mov	r2,zero
    12b0:	dfc00317 	ldw	ra,12(sp)
    12b4:	dc800217 	ldw	r18,8(sp)
    12b8:	dc400117 	ldw	r17,4(sp)
    12bc:	dc000017 	ldw	r16,0(sp)
    12c0:	dec00404 	addi	sp,sp,16
    12c4:	f800283a 	ret

000012c8 <memdump_byte>:
    12c8:	defff504 	addi	sp,sp,-44
    12cc:	dd400915 	stw	r21,36(sp)
    12d0:	dd000815 	stw	r20,32(sp)
    12d4:	dc800615 	stw	r18,24(sp)
    12d8:	dc400515 	stw	r17,20(sp)
    12dc:	dc000415 	stw	r16,16(sp)
    12e0:	dfc00a15 	stw	ra,40(sp)
    12e4:	dcc00715 	stw	r19,28(sp)
    12e8:	2021883a 	mov	r16,r4
    12ec:	d925c83a 	sub	r18,sp,r4
    12f0:	25404004 	addi	r21,r4,256
    12f4:	dd000404 	addi	r20,sp,16
    12f8:	04401fc4 	movi	r17,127
    12fc:	010000f4 	movhi	r4,3
    1300:	21007204 	addi	r4,r4,456
    1304:	800b883a 	mov	r5,r16
    1308:	000170c0 	call	170c <printf>
    130c:	84c00404 	addi	r19,r16,16
    1310:	80800023 	ldbuio	r2,0(r16)
    1314:	010000f4 	movhi	r4,3
    1318:	21007404 	addi	r4,r4,464
    131c:	9407883a 	add	r3,r18,r16
    1320:	11403fcc 	andi	r5,r2,255
    1324:	84000044 	addi	r16,r16,1
    1328:	18800005 	stb	r2,0(r3)
    132c:	000170c0 	call	170c <printf>
    1330:	9c3ff71e 	bne	r19,r16,1310 <__alt_mem_onchip_flash_0_data+0xf0f01310>
    1334:	010000f4 	movhi	r4,3
    1338:	21007604 	addi	r4,r4,472
    133c:	000170c0 	call	170c <printf>
    1340:	d821883a 	mov	r16,sp
    1344:	80800007 	ldb	r2,0(r16)
    1348:	01000b84 	movi	r4,46
    134c:	84000044 	addi	r16,r16,1
    1350:	1440011e 	bne	r2,r17,1358 <memdump_byte+0x90>
    1354:	8809883a 	mov	r4,r17
    1358:	00017500 	call	1750 <putchar>
    135c:	853ff91e 	bne	r16,r20,1344 <__alt_mem_onchip_flash_0_data+0xf0f01344>
    1360:	01000284 	movi	r4,10
    1364:	9821883a 	mov	r16,r19
    1368:	00017500 	call	1750 <putchar>
    136c:	94bffc04 	addi	r18,r18,-16
    1370:	9d7fe21e 	bne	r19,r21,12fc <__alt_mem_onchip_flash_0_data+0xf0f012fc>
    1374:	dfc00a17 	ldw	ra,40(sp)
    1378:	dd400917 	ldw	r21,36(sp)
    137c:	dd000817 	ldw	r20,32(sp)
    1380:	dcc00717 	ldw	r19,28(sp)
    1384:	dc800617 	ldw	r18,24(sp)
    1388:	dc400517 	ldw	r17,20(sp)
    138c:	dc000417 	ldw	r16,16(sp)
    1390:	dec00b04 	addi	sp,sp,44
    1394:	f800283a 	ret

00001398 <memdump_word>:
    1398:	defff504 	addi	sp,sp,-44
    139c:	dc000415 	stw	r16,16(sp)
    13a0:	043fff84 	movi	r16,-2
    13a4:	2420703a 	and	r16,r4,r16
    13a8:	dd400915 	stw	r21,36(sp)
    13ac:	dcc00715 	stw	r19,28(sp)
    13b0:	dc800615 	stw	r18,24(sp)
    13b4:	dc400515 	stw	r17,20(sp)
    13b8:	dfc00a15 	stw	ra,40(sp)
    13bc:	dd000815 	stw	r20,32(sp)
    13c0:	dc27c83a 	sub	r19,sp,r16
    13c4:	85404004 	addi	r21,r16,256
    13c8:	dc800404 	addi	r18,sp,16
    13cc:	04401fc4 	movi	r17,127
    13d0:	010000f4 	movhi	r4,3
    13d4:	21007204 	addi	r4,r4,456
    13d8:	800b883a 	mov	r5,r16
    13dc:	000170c0 	call	170c <printf>
    13e0:	85000404 	addi	r20,r16,16
    13e4:	8080002b 	ldhuio	r2,0(r16)
    13e8:	010000f4 	movhi	r4,3
    13ec:	21007704 	addi	r4,r4,476
    13f0:	9c07883a 	add	r3,r19,r16
    13f4:	117fffcc 	andi	r5,r2,65535
    13f8:	84000084 	addi	r16,r16,2
    13fc:	1880000d 	sth	r2,0(r3)
    1400:	000170c0 	call	170c <printf>
    1404:	a43ff71e 	bne	r20,r16,13e4 <__alt_mem_onchip_flash_0_data+0xf0f013e4>
    1408:	010000f4 	movhi	r4,3
    140c:	21007604 	addi	r4,r4,472
    1410:	000170c0 	call	170c <printf>
    1414:	d821883a 	mov	r16,sp
    1418:	80800007 	ldb	r2,0(r16)
    141c:	01000b84 	movi	r4,46
    1420:	84000044 	addi	r16,r16,1
    1424:	1440011e 	bne	r2,r17,142c <memdump_word+0x94>
    1428:	8809883a 	mov	r4,r17
    142c:	00017500 	call	1750 <putchar>
    1430:	84bff91e 	bne	r16,r18,1418 <__alt_mem_onchip_flash_0_data+0xf0f01418>
    1434:	01000284 	movi	r4,10
    1438:	a021883a 	mov	r16,r20
    143c:	00017500 	call	1750 <putchar>
    1440:	9cfffc04 	addi	r19,r19,-16
    1444:	a57fe21e 	bne	r20,r21,13d0 <__alt_mem_onchip_flash_0_data+0xf0f013d0>
    1448:	dfc00a17 	ldw	ra,40(sp)
    144c:	dd400917 	ldw	r21,36(sp)
    1450:	dd000817 	ldw	r20,32(sp)
    1454:	dcc00717 	ldw	r19,28(sp)
    1458:	dc800617 	ldw	r18,24(sp)
    145c:	dc400517 	ldw	r17,20(sp)
    1460:	dc000417 	ldw	r16,16(sp)
    1464:	dec00b04 	addi	sp,sp,44
    1468:	f800283a 	ret

0000146c <memdump_dword>:
    146c:	defff504 	addi	sp,sp,-44
    1470:	dc000415 	stw	r16,16(sp)
    1474:	043fff04 	movi	r16,-4
    1478:	2420703a 	and	r16,r4,r16
    147c:	dd400915 	stw	r21,36(sp)
    1480:	dcc00715 	stw	r19,28(sp)
    1484:	dc800615 	stw	r18,24(sp)
    1488:	dc400515 	stw	r17,20(sp)
    148c:	dfc00a15 	stw	ra,40(sp)
    1490:	dd000815 	stw	r20,32(sp)
    1494:	dc27c83a 	sub	r19,sp,r16
    1498:	85404004 	addi	r21,r16,256
    149c:	dc800404 	addi	r18,sp,16
    14a0:	04401fc4 	movi	r17,127
    14a4:	010000f4 	movhi	r4,3
    14a8:	21007204 	addi	r4,r4,456
    14ac:	800b883a 	mov	r5,r16
    14b0:	000170c0 	call	170c <printf>
    14b4:	85000404 	addi	r20,r16,16
    14b8:	80800037 	ldwio	r2,0(r16)
    14bc:	010000f4 	movhi	r4,3
    14c0:	21007904 	addi	r4,r4,484
    14c4:	9c07883a 	add	r3,r19,r16
    14c8:	100b883a 	mov	r5,r2
    14cc:	84000104 	addi	r16,r16,4
    14d0:	18800015 	stw	r2,0(r3)
    14d4:	000170c0 	call	170c <printf>
    14d8:	a43ff71e 	bne	r20,r16,14b8 <__alt_mem_onchip_flash_0_data+0xf0f014b8>
    14dc:	010000f4 	movhi	r4,3
    14e0:	21007604 	addi	r4,r4,472
    14e4:	000170c0 	call	170c <printf>
    14e8:	d821883a 	mov	r16,sp
    14ec:	80800007 	ldb	r2,0(r16)
    14f0:	01000b84 	movi	r4,46
    14f4:	84000044 	addi	r16,r16,1
    14f8:	1440011e 	bne	r2,r17,1500 <memdump_dword+0x94>
    14fc:	8809883a 	mov	r4,r17
    1500:	00017500 	call	1750 <putchar>
    1504:	84bff91e 	bne	r16,r18,14ec <__alt_mem_onchip_flash_0_data+0xf0f014ec>
    1508:	01000284 	movi	r4,10
    150c:	a021883a 	mov	r16,r20
    1510:	00017500 	call	1750 <putchar>
    1514:	9cfffc04 	addi	r19,r19,-16
    1518:	a57fe21e 	bne	r20,r21,14a4 <__alt_mem_onchip_flash_0_data+0xf0f014a4>
    151c:	dfc00a17 	ldw	ra,40(sp)
    1520:	dd400917 	ldw	r21,36(sp)
    1524:	dd000817 	ldw	r20,32(sp)
    1528:	dcc00717 	ldw	r19,28(sp)
    152c:	dc800617 	ldw	r18,24(sp)
    1530:	dc400517 	ldw	r17,20(sp)
    1534:	dc000417 	ldw	r16,16(sp)
    1538:	dec00b04 	addi	sp,sp,44
    153c:	f800283a 	ret

00001540 <memdump>:
    1540:	00800044 	movi	r2,1
    1544:	28800626 	beq	r5,r2,1560 <memdump+0x20>
    1548:	00800084 	movi	r2,2
    154c:	28800326 	beq	r5,r2,155c <memdump+0x1c>
    1550:	2800011e 	bne	r5,zero,1558 <memdump+0x18>
    1554:	00012c81 	jmpi	12c8 <memdump_byte>
    1558:	f800283a 	ret
    155c:	000146c1 	jmpi	146c <memdump_dword>
    1560:	00013981 	jmpi	1398 <memdump_word>

00001564 <memcrc16>:
    1564:	28001026 	beq	r5,zero,15a8 <memcrc16+0x44>
    1568:	214b883a 	add	r5,r4,r5
    156c:	0005883a 	mov	r2,zero
    1570:	01c000f4 	movhi	r7,3
    1574:	39c07a84 	addi	r7,r7,490
    1578:	10bfffcc 	andi	r2,r2,65535
    157c:	21800003 	ldbu	r6,0(r4)
    1580:	1006d23a 	srli	r3,r2,8
    1584:	1004923a 	slli	r2,r2,8
    1588:	21000044 	addi	r4,r4,1
    158c:	30c6f03a 	xor	r3,r6,r3
    1590:	18c7883a 	add	r3,r3,r3
    1594:	38c7883a 	add	r3,r7,r3
    1598:	18c0000b 	ldhu	r3,0(r3)
    159c:	10c4f03a 	xor	r2,r2,r3
    15a0:	217ff51e 	bne	r4,r5,1578 <__alt_mem_onchip_flash_0_data+0xf0f01578>
    15a4:	f800283a 	ret
    15a8:	0005883a 	mov	r2,zero
    15ac:	f800283a 	ret

000015b0 <udivmodsi4>:
    15b0:	2005883a 	mov	r2,r4
    15b4:	2900182e 	bgeu	r5,r4,1618 <udivmodsi4+0x68>
    15b8:	28001716 	blt	r5,zero,1618 <udivmodsi4+0x68>
    15bc:	01000804 	movi	r4,32
    15c0:	00c00044 	movi	r3,1
    15c4:	00000206 	br	15d0 <udivmodsi4+0x20>
    15c8:	20001126 	beq	r4,zero,1610 <udivmodsi4+0x60>
    15cc:	28000516 	blt	r5,zero,15e4 <udivmodsi4+0x34>
    15d0:	294b883a 	add	r5,r5,r5
    15d4:	213fffc4 	addi	r4,r4,-1
    15d8:	18c7883a 	add	r3,r3,r3
    15dc:	28bffa36 	bltu	r5,r2,15c8 <__alt_mem_onchip_flash_0_data+0xf0f015c8>
    15e0:	18000b26 	beq	r3,zero,1610 <udivmodsi4+0x60>
    15e4:	0009883a 	mov	r4,zero
    15e8:	11400236 	bltu	r2,r5,15f4 <udivmodsi4+0x44>
    15ec:	1145c83a 	sub	r2,r2,r5
    15f0:	20c8b03a 	or	r4,r4,r3
    15f4:	1806d07a 	srli	r3,r3,1
    15f8:	280ad07a 	srli	r5,r5,1
    15fc:	183ffa1e 	bne	r3,zero,15e8 <__alt_mem_onchip_flash_0_data+0xf0f015e8>
    1600:	3000021e 	bne	r6,zero,160c <udivmodsi4+0x5c>
    1604:	2005883a 	mov	r2,r4
    1608:	f800283a 	ret
    160c:	f800283a 	ret
    1610:	0009883a 	mov	r4,zero
    1614:	003ffa06 	br	1600 <__alt_mem_onchip_flash_0_data+0xf0f01600>
    1618:	00c00044 	movi	r3,1
    161c:	0009883a 	mov	r4,zero
    1620:	003ff106 	br	15e8 <__alt_mem_onchip_flash_0_data+0xf0f015e8>

00001624 <__divsi3>:
    1624:	defffe04 	addi	sp,sp,-8
    1628:	dfc00115 	stw	ra,4(sp)
    162c:	dc000015 	stw	r16,0(sp)
    1630:	20000a16 	blt	r4,zero,165c <__divsi3+0x38>
    1634:	0021883a 	mov	r16,zero
    1638:	28000b16 	blt	r5,zero,1668 <__divsi3+0x44>
    163c:	000d883a 	mov	r6,zero
    1640:	00015b00 	call	15b0 <udivmodsi4>
    1644:	80000126 	beq	r16,zero,164c <__divsi3+0x28>
    1648:	0085c83a 	sub	r2,zero,r2
    164c:	dfc00117 	ldw	ra,4(sp)
    1650:	dc000017 	ldw	r16,0(sp)
    1654:	dec00204 	addi	sp,sp,8
    1658:	f800283a 	ret
    165c:	0109c83a 	sub	r4,zero,r4
    1660:	04000044 	movi	r16,1
    1664:	283ff50e 	bge	r5,zero,163c <__alt_mem_onchip_flash_0_data+0xf0f0163c>
    1668:	014bc83a 	sub	r5,zero,r5
    166c:	8400005c 	xori	r16,r16,1
    1670:	003ff206 	br	163c <__alt_mem_onchip_flash_0_data+0xf0f0163c>

00001674 <__modsi3>:
    1674:	deffff04 	addi	sp,sp,-4
    1678:	dfc00015 	stw	ra,0(sp)
    167c:	20000516 	blt	r4,zero,1694 <__modsi3+0x20>
    1680:	28000c16 	blt	r5,zero,16b4 <__modsi3+0x40>
    1684:	01800044 	movi	r6,1
    1688:	dfc00017 	ldw	ra,0(sp)
    168c:	dec00104 	addi	sp,sp,4
    1690:	00015b01 	jmpi	15b0 <udivmodsi4>
    1694:	0109c83a 	sub	r4,zero,r4
    1698:	28000b16 	blt	r5,zero,16c8 <__modsi3+0x54>
    169c:	01800044 	movi	r6,1
    16a0:	00015b00 	call	15b0 <udivmodsi4>
    16a4:	0085c83a 	sub	r2,zero,r2
    16a8:	dfc00017 	ldw	ra,0(sp)
    16ac:	dec00104 	addi	sp,sp,4
    16b0:	f800283a 	ret
    16b4:	014bc83a 	sub	r5,zero,r5
    16b8:	01800044 	movi	r6,1
    16bc:	dfc00017 	ldw	ra,0(sp)
    16c0:	dec00104 	addi	sp,sp,4
    16c4:	00015b01 	jmpi	15b0 <udivmodsi4>
    16c8:	014bc83a 	sub	r5,zero,r5
    16cc:	003ff306 	br	169c <__alt_mem_onchip_flash_0_data+0xf0f0169c>

000016d0 <__udivsi3>:
    16d0:	000d883a 	mov	r6,zero
    16d4:	00015b01 	jmpi	15b0 <udivmodsi4>

000016d8 <__umodsi3>:
    16d8:	01800044 	movi	r6,1
    16dc:	00015b01 	jmpi	15b0 <udivmodsi4>

000016e0 <_printf_r>:
    16e0:	defffd04 	addi	sp,sp,-12
    16e4:	dfc00015 	stw	ra,0(sp)
    16e8:	d9800115 	stw	r6,4(sp)
    16ec:	d9c00215 	stw	r7,8(sp)
    16f0:	280d883a 	mov	r6,r5
    16f4:	21400217 	ldw	r5,8(r4)
    16f8:	d9c00104 	addi	r7,sp,4
    16fc:	000193c0 	call	193c <___vfprintf_internal_r>
    1700:	dfc00017 	ldw	ra,0(sp)
    1704:	dec00304 	addi	sp,sp,12
    1708:	f800283a 	ret

0000170c <printf>:
    170c:	defffc04 	addi	sp,sp,-16
    1710:	dfc00015 	stw	ra,0(sp)
    1714:	d9400115 	stw	r5,4(sp)
    1718:	d9800215 	stw	r6,8(sp)
    171c:	d9c00315 	stw	r7,12(sp)
    1720:	008000f4 	movhi	r2,3
    1724:	1088af04 	addi	r2,r2,8892
    1728:	10800017 	ldw	r2,0(r2)
    172c:	200b883a 	mov	r5,r4
    1730:	d9800104 	addi	r6,sp,4
    1734:	11000217 	ldw	r4,8(r2)
    1738:	00037340 	call	3734 <__vfprintf_internal>
    173c:	dfc00017 	ldw	ra,0(sp)
    1740:	dec00404 	addi	sp,sp,16
    1744:	f800283a 	ret

00001748 <_putchar_r>:
    1748:	21800217 	ldw	r6,8(r4)
    174c:	0007dd41 	jmpi	7dd4 <_putc_r>

00001750 <putchar>:
    1750:	008000f4 	movhi	r2,3
    1754:	1088af04 	addi	r2,r2,8892
    1758:	10800017 	ldw	r2,0(r2)
    175c:	200b883a 	mov	r5,r4
    1760:	11800217 	ldw	r6,8(r2)
    1764:	1009883a 	mov	r4,r2
    1768:	0007dd41 	jmpi	7dd4 <_putc_r>

0000176c <_puts_r>:
    176c:	defff604 	addi	sp,sp,-40
    1770:	dc400815 	stw	r17,32(sp)
    1774:	2023883a 	mov	r17,r4
    1778:	2809883a 	mov	r4,r5
    177c:	dc000715 	stw	r16,28(sp)
    1780:	dfc00915 	stw	ra,36(sp)
    1784:	2821883a 	mov	r16,r5
    1788:	000187c0 	call	187c <strlen>
    178c:	10c00044 	addi	r3,r2,1
    1790:	d8800115 	stw	r2,4(sp)
    1794:	89400217 	ldw	r5,8(r17)
    1798:	008000f4 	movhi	r2,3
    179c:	10803b04 	addi	r2,r2,236
    17a0:	d8800215 	stw	r2,8(sp)
    17a4:	00800044 	movi	r2,1
    17a8:	d8800315 	stw	r2,12(sp)
    17ac:	8809883a 	mov	r4,r17
    17b0:	00800084 	movi	r2,2
    17b4:	d9800404 	addi	r6,sp,16
    17b8:	dc000015 	stw	r16,0(sp)
    17bc:	d8c00615 	stw	r3,24(sp)
    17c0:	dec00415 	stw	sp,16(sp)
    17c4:	d8800515 	stw	r2,20(sp)
    17c8:	00059ec0 	call	59ec <__sfvwrite_r>
    17cc:	1000061e 	bne	r2,zero,17e8 <_puts_r+0x7c>
    17d0:	00800284 	movi	r2,10
    17d4:	dfc00917 	ldw	ra,36(sp)
    17d8:	dc400817 	ldw	r17,32(sp)
    17dc:	dc000717 	ldw	r16,28(sp)
    17e0:	dec00a04 	addi	sp,sp,40
    17e4:	f800283a 	ret
    17e8:	00bfffc4 	movi	r2,-1
    17ec:	003ff906 	br	17d4 <__alt_mem_onchip_flash_0_data+0xf0f017d4>

000017f0 <puts>:
    17f0:	008000f4 	movhi	r2,3
    17f4:	1088af04 	addi	r2,r2,8892
    17f8:	200b883a 	mov	r5,r4
    17fc:	11000017 	ldw	r4,0(r2)
    1800:	000176c1 	jmpi	176c <_puts_r>

00001804 <srand>:
    1804:	008000f4 	movhi	r2,3
    1808:	1088af04 	addi	r2,r2,8892
    180c:	10800017 	ldw	r2,0(r2)
    1810:	11002915 	stw	r4,164(r2)
    1814:	10002a15 	stw	zero,168(r2)
    1818:	f800283a 	ret

0000181c <rand>:
    181c:	008000f4 	movhi	r2,3
    1820:	1088af04 	addi	r2,r2,8892
    1824:	10c00017 	ldw	r3,0(r2)
    1828:	01d614b4 	movhi	r7,22610
    182c:	39fd0b44 	addi	r7,r7,-3027
    1830:	00932574 	movhi	r2,19605
    1834:	109fcb44 	addi	r2,r2,32557
    1838:	19002917 	ldw	r4,164(r3)
    183c:	1a002a17 	ldw	r8,168(r3)
    1840:	208d383a 	mul	r6,r4,r2
    1844:	21cf383a 	mul	r7,r4,r7
    1848:	4091383a 	mul	r8,r8,r2
    184c:	2088383a 	mulxuu	r4,r4,r2
    1850:	31400044 	addi	r5,r6,1
    1854:	41c5883a 	add	r2,r8,r7
    1858:	1105883a 	add	r2,r2,r4
    185c:	298d803a 	cmpltu	r6,r5,r6
    1860:	3085883a 	add	r2,r6,r2
    1864:	18802a15 	stw	r2,168(r3)
    1868:	19402915 	stw	r5,164(r3)
    186c:	00e00034 	movhi	r3,32768
    1870:	18ffffc4 	addi	r3,r3,-1
    1874:	10c4703a 	and	r2,r2,r3
    1878:	f800283a 	ret

0000187c <strlen>:
    187c:	208000cc 	andi	r2,r4,3
    1880:	10001f1e 	bne	r2,zero,1900 <strlen+0x84>
    1884:	20800017 	ldw	r2,0(r4)
    1888:	01ffbff4 	movhi	r7,65279
    188c:	39ffbfc4 	addi	r7,r7,-257
    1890:	01a02074 	movhi	r6,32897
    1894:	31a02004 	addi	r6,r6,-32640
    1898:	11c7883a 	add	r3,r2,r7
    189c:	0084303a 	nor	r2,zero,r2
    18a0:	1886703a 	and	r3,r3,r2
    18a4:	1986703a 	and	r3,r3,r6
    18a8:	2005883a 	mov	r2,r4
    18ac:	1800101e 	bne	r3,zero,18f0 <strlen+0x74>
    18b0:	10800104 	addi	r2,r2,4
    18b4:	10c00017 	ldw	r3,0(r2)
    18b8:	19cb883a 	add	r5,r3,r7
    18bc:	00c6303a 	nor	r3,zero,r3
    18c0:	28c6703a 	and	r3,r5,r3
    18c4:	1986703a 	and	r3,r3,r6
    18c8:	1800091e 	bne	r3,zero,18f0 <strlen+0x74>
    18cc:	10800104 	addi	r2,r2,4
    18d0:	10c00017 	ldw	r3,0(r2)
    18d4:	19cb883a 	add	r5,r3,r7
    18d8:	00c6303a 	nor	r3,zero,r3
    18dc:	28c6703a 	and	r3,r5,r3
    18e0:	1986703a 	and	r3,r3,r6
    18e4:	183ff226 	beq	r3,zero,18b0 <__alt_mem_onchip_flash_0_data+0xf0f018b0>
    18e8:	00000106 	br	18f0 <strlen+0x74>
    18ec:	10800044 	addi	r2,r2,1
    18f0:	10c00007 	ldb	r3,0(r2)
    18f4:	183ffd1e 	bne	r3,zero,18ec <__alt_mem_onchip_flash_0_data+0xf0f018ec>
    18f8:	1105c83a 	sub	r2,r2,r4
    18fc:	f800283a 	ret
    1900:	2005883a 	mov	r2,r4
    1904:	003ffa06 	br	18f0 <__alt_mem_onchip_flash_0_data+0xf0f018f0>

00001908 <__sprint_r>:
    1908:	30800217 	ldw	r2,8(r6)
    190c:	defffe04 	addi	sp,sp,-8
    1910:	dc000015 	stw	r16,0(sp)
    1914:	dfc00115 	stw	ra,4(sp)
    1918:	3021883a 	mov	r16,r6
    191c:	10000226 	beq	r2,zero,1928 <__sprint_r+0x20>
    1920:	00059ec0 	call	59ec <__sfvwrite_r>
    1924:	80000215 	stw	zero,8(r16)
    1928:	80000115 	stw	zero,4(r16)
    192c:	dfc00117 	ldw	ra,4(sp)
    1930:	dc000017 	ldw	r16,0(sp)
    1934:	dec00204 	addi	sp,sp,8
    1938:	f800283a 	ret

0000193c <___vfprintf_internal_r>:
    193c:	defeb904 	addi	sp,sp,-1308
    1940:	dc013d15 	stw	r16,1268(sp)
    1944:	d9013015 	stw	r4,1216(sp)
    1948:	dfc14615 	stw	ra,1304(sp)
    194c:	df014515 	stw	fp,1300(sp)
    1950:	ddc14415 	stw	r23,1296(sp)
    1954:	dd814315 	stw	r22,1292(sp)
    1958:	dd414215 	stw	r21,1288(sp)
    195c:	dd014115 	stw	r20,1284(sp)
    1960:	dcc14015 	stw	r19,1280(sp)
    1964:	dc813f15 	stw	r18,1276(sp)
    1968:	dc413e15 	stw	r17,1272(sp)
    196c:	d9412915 	stw	r5,1188(sp)
    1970:	3021883a 	mov	r16,r6
    1974:	d9c12d15 	stw	r7,1204(sp)
    1978:	00060d80 	call	60d8 <_localeconv_r>
    197c:	10800017 	ldw	r2,0(r2)
    1980:	d9013017 	ldw	r4,1216(sp)
    1984:	d8013315 	stw	zero,1228(sp)
    1988:	d8813715 	stw	r2,1244(sp)
    198c:	d8013415 	stw	zero,1232(sp)
    1990:	20000226 	beq	r4,zero,199c <___vfprintf_internal_r+0x60>
    1994:	20800e17 	ldw	r2,56(r4)
    1998:	10019826 	beq	r2,zero,1ffc <___vfprintf_internal_r+0x6c0>
    199c:	da012917 	ldw	r8,1188(sp)
    19a0:	4080030b 	ldhu	r2,12(r8)
    19a4:	10c0020c 	andi	r3,r2,8
    19a8:	18ffffcc 	andi	r3,r3,65535
    19ac:	18e0001c 	xori	r3,r3,32768
    19b0:	18e00004 	addi	r3,r3,-32768
    19b4:	18013a26 	beq	r3,zero,1ea0 <___vfprintf_internal_r+0x564>
    19b8:	40c00417 	ldw	r3,16(r8)
    19bc:	18013826 	beq	r3,zero,1ea0 <___vfprintf_internal_r+0x564>
    19c0:	1100068c 	andi	r4,r2,26
    19c4:	00c00284 	movi	r3,10
    19c8:	20c13e26 	beq	r4,r3,1ec4 <___vfprintf_internal_r+0x588>
    19cc:	da010dc4 	addi	r8,sp,1079
    19d0:	d8800404 	addi	r2,sp,16
    19d4:	da012615 	stw	r8,1176(sp)
    19d8:	d8811b15 	stw	r2,1132(sp)
    19dc:	1013883a 	mov	r9,r2
    19e0:	d8812617 	ldw	r2,1176(sp)
    19e4:	da010e04 	addi	r8,sp,1080
    19e8:	dc413017 	ldw	r17,1216(sp)
    19ec:	da012715 	stw	r8,1180(sp)
    19f0:	4091c83a 	sub	r8,r8,r2
    19f4:	d8011d15 	stw	zero,1140(sp)
    19f8:	d8011c15 	stw	zero,1136(sp)
    19fc:	802b883a 	mov	r21,r16
    1a00:	d8013215 	stw	zero,1224(sp)
    1a04:	d8013615 	stw	zero,1240(sp)
    1a08:	d8013515 	stw	zero,1236(sp)
    1a0c:	d8012c15 	stw	zero,1200(sp)
    1a10:	da013915 	stw	r8,1252(sp)
    1a14:	a8800007 	ldb	r2,0(r21)
    1a18:	1002ec26 	beq	r2,zero,25cc <___vfprintf_internal_r+0xc90>
    1a1c:	00c00944 	movi	r3,37
    1a20:	a825883a 	mov	r18,r21
    1a24:	10c0021e 	bne	r2,r3,1a30 <___vfprintf_internal_r+0xf4>
    1a28:	00001406 	br	1a7c <___vfprintf_internal_r+0x140>
    1a2c:	10c00326 	beq	r2,r3,1a3c <___vfprintf_internal_r+0x100>
    1a30:	94800044 	addi	r18,r18,1
    1a34:	90800007 	ldb	r2,0(r18)
    1a38:	103ffc1e 	bne	r2,zero,1a2c <__alt_mem_onchip_flash_0_data+0xf0f01a2c>
    1a3c:	9561c83a 	sub	r16,r18,r21
    1a40:	80000e26 	beq	r16,zero,1a7c <___vfprintf_internal_r+0x140>
    1a44:	da011d17 	ldw	r8,1140(sp)
    1a48:	d8c11c17 	ldw	r3,1136(sp)
    1a4c:	4d400015 	stw	r21,0(r9)
    1a50:	4c000115 	stw	r16,4(r9)
    1a54:	4411883a 	add	r8,r8,r16
    1a58:	18c00044 	addi	r3,r3,1
    1a5c:	da011d15 	stw	r8,1140(sp)
    1a60:	d8c11c15 	stw	r3,1136(sp)
    1a64:	008001c4 	movi	r2,7
    1a68:	10c15d16 	blt	r2,r3,1fe0 <___vfprintf_internal_r+0x6a4>
    1a6c:	4a400204 	addi	r9,r9,8
    1a70:	d8812c17 	ldw	r2,1200(sp)
    1a74:	1405883a 	add	r2,r2,r16
    1a78:	d8812c15 	stw	r2,1200(sp)
    1a7c:	90800007 	ldb	r2,0(r18)
    1a80:	10013b26 	beq	r2,zero,1f70 <___vfprintf_internal_r+0x634>
    1a84:	95400044 	addi	r21,r18,1
    1a88:	94800047 	ldb	r18,1(r18)
    1a8c:	d8012585 	stb	zero,1174(sp)
    1a90:	073fffc4 	movi	fp,-1
    1a94:	d8012e15 	stw	zero,1208(sp)
    1a98:	0021883a 	mov	r16,zero
    1a9c:	00c01604 	movi	r3,88
    1aa0:	01400244 	movi	r5,9
    1aa4:	02800a84 	movi	r10,42
    1aa8:	01c01b04 	movi	r7,108
    1aac:	01800ac4 	movi	r6,43
    1ab0:	02c00804 	movi	r11,32
    1ab4:	ad400044 	addi	r21,r21,1
    1ab8:	90bff804 	addi	r2,r18,-32
    1abc:	1880092e 	bgeu	r3,r2,1ae4 <___vfprintf_internal_r+0x1a8>
    1ac0:	90012b26 	beq	r18,zero,1f70 <___vfprintf_internal_r+0x634>
    1ac4:	00c00044 	movi	r3,1
    1ac8:	d8c12815 	stw	r3,1184(sp)
    1acc:	dc810405 	stb	r18,1040(sp)
    1ad0:	d8012585 	stb	zero,1174(sp)
    1ad4:	d8c12b15 	stw	r3,1196(sp)
    1ad8:	dcc10404 	addi	r19,sp,1040
    1adc:	d8013115 	stw	zero,1220(sp)
    1ae0:	00008806 	br	1d04 <___vfprintf_internal_r+0x3c8>
    1ae4:	1085883a 	add	r2,r2,r2
    1ae8:	1085883a 	add	r2,r2,r2
    1aec:	01000034 	movhi	r4,0
    1af0:	2106c004 	addi	r4,r4,6912
    1af4:	1105883a 	add	r2,r2,r4
    1af8:	10800017 	ldw	r2,0(r2)
    1afc:	1000683a 	jmp	r2
    1b00:	000020b4 	movhi	zero,130
    1b04:	00001ac0 	call	1ac <_start+0x20>
    1b08:	00001ac0 	call	1ac <_start+0x20>
    1b0c:	000020c8 	cmpgei	zero,zero,131
    1b10:	00001ac0 	call	1ac <_start+0x20>
    1b14:	00001ac0 	call	1ac <_start+0x20>
    1b18:	00001ac0 	call	1ac <_start+0x20>
    1b1c:	00001ac0 	call	1ac <_start+0x20>
    1b20:	00001ac0 	call	1ac <_start+0x20>
    1b24:	00001ac0 	call	1ac <_start+0x20>
    1b28:	000021b0 	cmpltui	zero,zero,134
    1b2c:	0000206c 	andhi	zero,zero,129
    1b30:	00001ac0 	call	1ac <_start+0x20>
    1b34:	00001e94 	movui	zero,122
    1b38:	00002078 	rdprs	zero,zero,129
    1b3c:	00001ac0 	call	1ac <_start+0x20>
    1b40:	000020d4 	movui	zero,131
    1b44:	000021d4 	movui	zero,135
    1b48:	000021d4 	movui	zero,135
    1b4c:	000021d4 	movui	zero,135
    1b50:	000021d4 	movui	zero,135
    1b54:	000021d4 	movui	zero,135
    1b58:	000021d4 	movui	zero,135
    1b5c:	000021d4 	movui	zero,135
    1b60:	000021d4 	movui	zero,135
    1b64:	000021d4 	movui	zero,135
    1b68:	00001ac0 	call	1ac <_start+0x20>
    1b6c:	00001ac0 	call	1ac <_start+0x20>
    1b70:	00001ac0 	call	1ac <_start+0x20>
    1b74:	00001ac0 	call	1ac <_start+0x20>
    1b78:	00001ac0 	call	1ac <_start+0x20>
    1b7c:	00001ac0 	call	1ac <_start+0x20>
    1b80:	00001ac0 	call	1ac <_start+0x20>
    1b84:	00001ac0 	call	1ac <_start+0x20>
    1b88:	00001ac0 	call	1ac <_start+0x20>
    1b8c:	00001ac0 	call	1ac <_start+0x20>
    1b90:	00001e30 	cmpltui	zero,zero,120
    1b94:	000021fc 	xorhi	zero,zero,135
    1b98:	00001ac0 	call	1ac <_start+0x20>
    1b9c:	000021fc 	xorhi	zero,zero,135
    1ba0:	00001ac0 	call	1ac <_start+0x20>
    1ba4:	00001ac0 	call	1ac <_start+0x20>
    1ba8:	00001ac0 	call	1ac <_start+0x20>
    1bac:	00001ac0 	call	1ac <_start+0x20>
    1bb0:	0000236c 	andhi	zero,zero,141
    1bb4:	00001ac0 	call	1ac <_start+0x20>
    1bb8:	00001ac0 	call	1ac <_start+0x20>
    1bbc:	00001df8 	rdprs	zero,zero,119
    1bc0:	00001ac0 	call	1ac <_start+0x20>
    1bc4:	00001ac0 	call	1ac <_start+0x20>
    1bc8:	00001ac0 	call	1ac <_start+0x20>
    1bcc:	00001ac0 	call	1ac <_start+0x20>
    1bd0:	00001ac0 	call	1ac <_start+0x20>
    1bd4:	00001c64 	muli	zero,zero,113
    1bd8:	00001ac0 	call	1ac <_start+0x20>
    1bdc:	00001ac0 	call	1ac <_start+0x20>
    1be0:	000020e0 	cmpeqi	zero,zero,131
    1be4:	00001ac0 	call	1ac <_start+0x20>
    1be8:	00001ac0 	call	1ac <_start+0x20>
    1bec:	00001ac0 	call	1ac <_start+0x20>
    1bf0:	00001ac0 	call	1ac <_start+0x20>
    1bf4:	00001ac0 	call	1ac <_start+0x20>
    1bf8:	00001ac0 	call	1ac <_start+0x20>
    1bfc:	00001ac0 	call	1ac <_start+0x20>
    1c00:	00001ac0 	call	1ac <_start+0x20>
    1c04:	00001ac0 	call	1ac <_start+0x20>
    1c08:	00001ac0 	call	1ac <_start+0x20>
    1c0c:	00002154 	movui	zero,133
    1c10:	00001e34 	movhi	zero,120
    1c14:	000021fc 	xorhi	zero,zero,135
    1c18:	000021fc 	xorhi	zero,zero,135
    1c1c:	000021fc 	xorhi	zero,zero,135
    1c20:	00002134 	movhi	zero,132
    1c24:	00001e34 	movhi	zero,120
    1c28:	00001ac0 	call	1ac <_start+0x20>
    1c2c:	00001ac0 	call	1ac <_start+0x20>
    1c30:	00002140 	call	214 <awa+0x3c>
    1c34:	00001ac0 	call	1ac <_start+0x20>
    1c38:	00002184 	movi	zero,134
    1c3c:	00001dfc 	xorhi	zero,zero,119
    1c40:	00002284 	movi	zero,138
    1c44:	000022d0 	cmplti	zero,zero,139
    1c48:	00001ac0 	call	1ac <_start+0x20>
    1c4c:	000022dc 	xori	zero,zero,139
    1c50:	00001ac0 	call	1ac <_start+0x20>
    1c54:	00001c68 	cmpgeui	zero,zero,113
    1c58:	00001ac0 	call	1ac <_start+0x20>
    1c5c:	00001ac0 	call	1ac <_start+0x20>
    1c60:	00002338 	rdprs	zero,zero,140
    1c64:	84000414 	ori	r16,r16,16
    1c68:	8080080c 	andi	r2,r16,32
    1c6c:	1000f51e 	bne	r2,zero,2044 <___vfprintf_internal_r+0x708>
    1c70:	8080040c 	andi	r2,r16,16
    1c74:	10042c26 	beq	r2,zero,2d28 <___vfprintf_internal_r+0x13ec>
    1c78:	da012d17 	ldw	r8,1204(sp)
    1c7c:	002d883a 	mov	r22,zero
    1c80:	00c00044 	movi	r3,1
    1c84:	45c00017 	ldw	r23,0(r8)
    1c88:	42000104 	addi	r8,r8,4
    1c8c:	da012d15 	stw	r8,1204(sp)
    1c90:	b805883a 	mov	r2,r23
    1c94:	d8012585 	stb	zero,1174(sp)
    1c98:	e0000216 	blt	fp,zero,1ca4 <___vfprintf_internal_r+0x368>
    1c9c:	013fdfc4 	movi	r4,-129
    1ca0:	8120703a 	and	r16,r16,r4
    1ca4:	1002671e 	bne	r2,zero,2644 <___vfprintf_internal_r+0xd08>
    1ca8:	e002661e 	bne	fp,zero,2644 <___vfprintf_internal_r+0xd08>
    1cac:	18c03fcc 	andi	r3,r3,255
    1cb0:	1803561e 	bne	r3,zero,2a0c <___vfprintf_internal_r+0x10d0>
    1cb4:	8080004c 	andi	r2,r16,1
    1cb8:	10035426 	beq	r2,zero,2a0c <___vfprintf_internal_r+0x10d0>
    1cbc:	da013917 	ldw	r8,1252(sp)
    1cc0:	00800c04 	movi	r2,48
    1cc4:	d8810dc5 	stb	r2,1079(sp)
    1cc8:	da012b15 	stw	r8,1196(sp)
    1ccc:	dcc10dc4 	addi	r19,sp,1079
    1cd0:	d8812b17 	ldw	r2,1196(sp)
    1cd4:	d8812815 	stw	r2,1184(sp)
    1cd8:	1700010e 	bge	r2,fp,1ce0 <___vfprintf_internal_r+0x3a4>
    1cdc:	df012815 	stw	fp,1184(sp)
    1ce0:	d8812583 	ldbu	r2,1174(sp)
    1ce4:	df013115 	stw	fp,1220(sp)
    1ce8:	10803fcc 	andi	r2,r2,255
    1cec:	1080201c 	xori	r2,r2,128
    1cf0:	10bfe004 	addi	r2,r2,-128
    1cf4:	10000326 	beq	r2,zero,1d04 <___vfprintf_internal_r+0x3c8>
    1cf8:	da012817 	ldw	r8,1184(sp)
    1cfc:	42000044 	addi	r8,r8,1
    1d00:	da012815 	stw	r8,1184(sp)
    1d04:	80c0008c 	andi	r3,r16,2
    1d08:	d8c12a15 	stw	r3,1192(sp)
    1d0c:	18000326 	beq	r3,zero,1d1c <___vfprintf_internal_r+0x3e0>
    1d10:	da012817 	ldw	r8,1184(sp)
    1d14:	42000084 	addi	r8,r8,2
    1d18:	da012815 	stw	r8,1184(sp)
    1d1c:	80c0210c 	andi	r3,r16,132
    1d20:	d8c12f15 	stw	r3,1212(sp)
    1d24:	1801941e 	bne	r3,zero,2378 <___vfprintf_internal_r+0xa3c>
    1d28:	da012e17 	ldw	r8,1208(sp)
    1d2c:	d8c12817 	ldw	r3,1184(sp)
    1d30:	40edc83a 	sub	r22,r8,r3
    1d34:	0581900e 	bge	zero,r22,2378 <___vfprintf_internal_r+0xa3c>
    1d38:	02800404 	movi	r10,16
    1d3c:	da011d17 	ldw	r8,1140(sp)
    1d40:	d8c11c17 	ldw	r3,1136(sp)
    1d44:	05c000f4 	movhi	r23,3
    1d48:	bdc10b84 	addi	r23,r23,1070
    1d4c:	5580200e 	bge	r10,r22,1dd0 <___vfprintf_internal_r+0x494>
    1d50:	dc813815 	stw	r18,1248(sp)
    1d54:	5039883a 	mov	fp,r10
    1d58:	b825883a 	mov	r18,r23
    1d5c:	050001c4 	movi	r20,7
    1d60:	b02f883a 	mov	r23,r22
    1d64:	802d883a 	mov	r22,r16
    1d68:	dc012917 	ldw	r16,1188(sp)
    1d6c:	00000306 	br	1d7c <___vfprintf_internal_r+0x440>
    1d70:	bdfffc04 	addi	r23,r23,-16
    1d74:	4a400204 	addi	r9,r9,8
    1d78:	e5c0110e 	bge	fp,r23,1dc0 <___vfprintf_internal_r+0x484>
    1d7c:	4c800015 	stw	r18,0(r9)
    1d80:	4f000115 	stw	fp,4(r9)
    1d84:	42000404 	addi	r8,r8,16
    1d88:	18c00044 	addi	r3,r3,1
    1d8c:	da011d15 	stw	r8,1140(sp)
    1d90:	d8c11c15 	stw	r3,1136(sp)
    1d94:	a0fff60e 	bge	r20,r3,1d70 <__alt_mem_onchip_flash_0_data+0xf0f01d70>
    1d98:	8809883a 	mov	r4,r17
    1d9c:	800b883a 	mov	r5,r16
    1da0:	d9811b04 	addi	r6,sp,1132
    1da4:	00019080 	call	1908 <__sprint_r>
    1da8:	1000771e 	bne	r2,zero,1f88 <___vfprintf_internal_r+0x64c>
    1dac:	bdfffc04 	addi	r23,r23,-16
    1db0:	da011d17 	ldw	r8,1140(sp)
    1db4:	d8c11c17 	ldw	r3,1136(sp)
    1db8:	da400404 	addi	r9,sp,16
    1dbc:	e5ffef16 	blt	fp,r23,1d7c <__alt_mem_onchip_flash_0_data+0xf0f01d7c>
    1dc0:	b021883a 	mov	r16,r22
    1dc4:	b82d883a 	mov	r22,r23
    1dc8:	902f883a 	mov	r23,r18
    1dcc:	dc813817 	ldw	r18,1248(sp)
    1dd0:	4dc00015 	stw	r23,0(r9)
    1dd4:	4d800115 	stw	r22,4(r9)
    1dd8:	4591883a 	add	r8,r8,r22
    1ddc:	18c00044 	addi	r3,r3,1
    1de0:	da011d15 	stw	r8,1140(sp)
    1de4:	d8c11c15 	stw	r3,1136(sp)
    1de8:	008001c4 	movi	r2,7
    1dec:	10c36d16 	blt	r2,r3,2ba4 <___vfprintf_internal_r+0x1268>
    1df0:	4a400204 	addi	r9,r9,8
    1df4:	00016206 	br	2380 <___vfprintf_internal_r+0xa44>
    1df8:	84000414 	ori	r16,r16,16
    1dfc:	8080080c 	andi	r2,r16,32
    1e00:	1000801e 	bne	r2,zero,2004 <___vfprintf_internal_r+0x6c8>
    1e04:	8080040c 	andi	r2,r16,16
    1e08:	1003da26 	beq	r2,zero,2d74 <___vfprintf_internal_r+0x1438>
    1e0c:	d8c12d17 	ldw	r3,1204(sp)
    1e10:	002d883a 	mov	r22,zero
    1e14:	1dc00017 	ldw	r23,0(r3)
    1e18:	18c00104 	addi	r3,r3,4
    1e1c:	d8c12d15 	stw	r3,1204(sp)
    1e20:	b805883a 	mov	r2,r23
    1e24:	0007883a 	mov	r3,zero
    1e28:	d8012585 	stb	zero,1174(sp)
    1e2c:	003f9a06 	br	1c98 <__alt_mem_onchip_flash_0_data+0xf0f01c98>
    1e30:	84000414 	ori	r16,r16,16
    1e34:	8080080c 	andi	r2,r16,32
    1e38:	10007b1e 	bne	r2,zero,2028 <___vfprintf_internal_r+0x6ec>
    1e3c:	8080040c 	andi	r2,r16,16
    1e40:	1003ed26 	beq	r2,zero,2df8 <___vfprintf_internal_r+0x14bc>
    1e44:	d9012d17 	ldw	r4,1204(sp)
    1e48:	25c00017 	ldw	r23,0(r4)
    1e4c:	21000104 	addi	r4,r4,4
    1e50:	d9012d15 	stw	r4,1204(sp)
    1e54:	b82dd7fa 	srai	r22,r23,31
    1e58:	b005883a 	mov	r2,r22
    1e5c:	1003230e 	bge	r2,zero,2aec <___vfprintf_internal_r+0x11b0>
    1e60:	05efc83a 	sub	r23,zero,r23
    1e64:	b804c03a 	cmpne	r2,r23,zero
    1e68:	05adc83a 	sub	r22,zero,r22
    1e6c:	b0adc83a 	sub	r22,r22,r2
    1e70:	00800b44 	movi	r2,45
    1e74:	d8812585 	stb	r2,1174(sp)
    1e78:	00c00044 	movi	r3,1
    1e7c:	bd84b03a 	or	r2,r23,r22
    1e80:	003f8506 	br	1c98 <__alt_mem_onchip_flash_0_data+0xf0f01c98>
    1e84:	da012e17 	ldw	r8,1208(sp)
    1e88:	d8812d15 	stw	r2,1204(sp)
    1e8c:	0211c83a 	sub	r8,zero,r8
    1e90:	da012e15 	stw	r8,1208(sp)
    1e94:	84000114 	ori	r16,r16,4
    1e98:	ac800007 	ldb	r18,0(r21)
    1e9c:	003f0506 	br	1ab4 <__alt_mem_onchip_flash_0_data+0xf0f01ab4>
    1ea0:	d9013017 	ldw	r4,1216(sp)
    1ea4:	d9412917 	ldw	r5,1188(sp)
    1ea8:	00037580 	call	3758 <__swsetup_r>
    1eac:	10003d1e 	bne	r2,zero,1fa4 <___vfprintf_internal_r+0x668>
    1eb0:	d8c12917 	ldw	r3,1188(sp)
    1eb4:	1880030b 	ldhu	r2,12(r3)
    1eb8:	00c00284 	movi	r3,10
    1ebc:	1100068c 	andi	r4,r2,26
    1ec0:	20fec21e 	bne	r4,r3,19cc <__alt_mem_onchip_flash_0_data+0xf0f019cc>
    1ec4:	d9012917 	ldw	r4,1188(sp)
    1ec8:	20c0038b 	ldhu	r3,14(r4)
    1ecc:	193fffcc 	andi	r4,r3,65535
    1ed0:	2120001c 	xori	r4,r4,32768
    1ed4:	21200004 	addi	r4,r4,-32768
    1ed8:	203ebc16 	blt	r4,zero,19cc <__alt_mem_onchip_flash_0_data+0xf0f019cc>
    1edc:	da012917 	ldw	r8,1188(sp)
    1ee0:	d9013017 	ldw	r4,1216(sp)
    1ee4:	d9c12d17 	ldw	r7,1204(sp)
    1ee8:	42800717 	ldw	r10,28(r8)
    1eec:	42400917 	ldw	r9,36(r8)
    1ef0:	10bfff4c 	andi	r2,r2,65533
    1ef4:	02010004 	movi	r8,1024
    1ef8:	d881070d 	sth	r2,1052(sp)
    1efc:	d9410404 	addi	r5,sp,1040
    1f00:	d8800404 	addi	r2,sp,16
    1f04:	800d883a 	mov	r6,r16
    1f08:	d8c1078d 	sth	r3,1054(sp)
    1f0c:	da810b15 	stw	r10,1068(sp)
    1f10:	da410d15 	stw	r9,1076(sp)
    1f14:	d8810415 	stw	r2,1040(sp)
    1f18:	d8810815 	stw	r2,1056(sp)
    1f1c:	da010615 	stw	r8,1048(sp)
    1f20:	da010915 	stw	r8,1060(sp)
    1f24:	d8010a15 	stw	zero,1064(sp)
    1f28:	000193c0 	call	193c <___vfprintf_internal_r>
    1f2c:	d8812c15 	stw	r2,1200(sp)
    1f30:	10000416 	blt	r2,zero,1f44 <___vfprintf_internal_r+0x608>
    1f34:	d9013017 	ldw	r4,1216(sp)
    1f38:	d9410404 	addi	r5,sp,1040
    1f3c:	00050f00 	call	50f0 <_fflush_r>
    1f40:	1005d81e 	bne	r2,zero,36a4 <___vfprintf_internal_r+0x1d68>
    1f44:	d881070b 	ldhu	r2,1052(sp)
    1f48:	1080100c 	andi	r2,r2,64
    1f4c:	10bfffcc 	andi	r2,r2,65535
    1f50:	10a0001c 	xori	r2,r2,32768
    1f54:	10a00004 	addi	r2,r2,-32768
    1f58:	10001426 	beq	r2,zero,1fac <___vfprintf_internal_r+0x670>
    1f5c:	d8c12917 	ldw	r3,1188(sp)
    1f60:	1880030b 	ldhu	r2,12(r3)
    1f64:	10801014 	ori	r2,r2,64
    1f68:	1880030d 	sth	r2,12(r3)
    1f6c:	00000f06 	br	1fac <___vfprintf_internal_r+0x670>
    1f70:	d8811d17 	ldw	r2,1140(sp)
    1f74:	10000426 	beq	r2,zero,1f88 <___vfprintf_internal_r+0x64c>
    1f78:	d9013017 	ldw	r4,1216(sp)
    1f7c:	d9412917 	ldw	r5,1188(sp)
    1f80:	d9811b04 	addi	r6,sp,1132
    1f84:	00019080 	call	1908 <__sprint_r>
    1f88:	d8c12917 	ldw	r3,1188(sp)
    1f8c:	1880030b 	ldhu	r2,12(r3)
    1f90:	1080100c 	andi	r2,r2,64
    1f94:	10bfffcc 	andi	r2,r2,65535
    1f98:	10a0001c 	xori	r2,r2,32768
    1f9c:	10a00004 	addi	r2,r2,-32768
    1fa0:	10000226 	beq	r2,zero,1fac <___vfprintf_internal_r+0x670>
    1fa4:	00bfffc4 	movi	r2,-1
    1fa8:	d8812c15 	stw	r2,1200(sp)
    1fac:	d8812c17 	ldw	r2,1200(sp)
    1fb0:	dfc14617 	ldw	ra,1304(sp)
    1fb4:	df014517 	ldw	fp,1300(sp)
    1fb8:	ddc14417 	ldw	r23,1296(sp)
    1fbc:	dd814317 	ldw	r22,1292(sp)
    1fc0:	dd414217 	ldw	r21,1288(sp)
    1fc4:	dd014117 	ldw	r20,1284(sp)
    1fc8:	dcc14017 	ldw	r19,1280(sp)
    1fcc:	dc813f17 	ldw	r18,1276(sp)
    1fd0:	dc413e17 	ldw	r17,1272(sp)
    1fd4:	dc013d17 	ldw	r16,1268(sp)
    1fd8:	dec14704 	addi	sp,sp,1308
    1fdc:	f800283a 	ret
    1fe0:	d9412917 	ldw	r5,1188(sp)
    1fe4:	8809883a 	mov	r4,r17
    1fe8:	d9811b04 	addi	r6,sp,1132
    1fec:	00019080 	call	1908 <__sprint_r>
    1ff0:	103fe51e 	bne	r2,zero,1f88 <__alt_mem_onchip_flash_0_data+0xf0f01f88>
    1ff4:	da400404 	addi	r9,sp,16
    1ff8:	003e9d06 	br	1a70 <__alt_mem_onchip_flash_0_data+0xf0f01a70>
    1ffc:	00053980 	call	5398 <__sinit>
    2000:	003e6606 	br	199c <__alt_mem_onchip_flash_0_data+0xf0f0199c>
    2004:	d8812d17 	ldw	r2,1204(sp)
    2008:	0007883a 	mov	r3,zero
    200c:	15c00017 	ldw	r23,0(r2)
    2010:	15800117 	ldw	r22,4(r2)
    2014:	10800204 	addi	r2,r2,8
    2018:	d8812d15 	stw	r2,1204(sp)
    201c:	d8012585 	stb	zero,1174(sp)
    2020:	bd84b03a 	or	r2,r23,r22
    2024:	003f1c06 	br	1c98 <__alt_mem_onchip_flash_0_data+0xf0f01c98>
    2028:	d8c12d17 	ldw	r3,1204(sp)
    202c:	18800117 	ldw	r2,4(r3)
    2030:	1dc00017 	ldw	r23,0(r3)
    2034:	18c00204 	addi	r3,r3,8
    2038:	d8c12d15 	stw	r3,1204(sp)
    203c:	102d883a 	mov	r22,r2
    2040:	003f8606 	br	1e5c <__alt_mem_onchip_flash_0_data+0xf0f01e5c>
    2044:	d8c12d17 	ldw	r3,1204(sp)
    2048:	d9012d17 	ldw	r4,1204(sp)
    204c:	1dc00017 	ldw	r23,0(r3)
    2050:	1d800117 	ldw	r22,4(r3)
    2054:	21000204 	addi	r4,r4,8
    2058:	00c00044 	movi	r3,1
    205c:	d9012d15 	stw	r4,1204(sp)
    2060:	bd84b03a 	or	r2,r23,r22
    2064:	d8012585 	stb	zero,1174(sp)
    2068:	003f0b06 	br	1c98 <__alt_mem_onchip_flash_0_data+0xf0f01c98>
    206c:	d9812585 	stb	r6,1174(sp)
    2070:	ac800007 	ldb	r18,0(r21)
    2074:	003e8f06 	br	1ab4 <__alt_mem_onchip_flash_0_data+0xf0f01ab4>
    2078:	ac800007 	ldb	r18,0(r21)
    207c:	a9000044 	addi	r4,r21,1
    2080:	92857d26 	beq	r18,r10,3678 <___vfprintf_internal_r+0x1d3c>
    2084:	90bff404 	addi	r2,r18,-48
    2088:	0039883a 	mov	fp,zero
    208c:	28800736 	bltu	r5,r2,20ac <___vfprintf_internal_r+0x770>
    2090:	24800007 	ldb	r18,0(r4)
    2094:	e70002a4 	muli	fp,fp,10
    2098:	21000044 	addi	r4,r4,1
    209c:	1739883a 	add	fp,r2,fp
    20a0:	90bff404 	addi	r2,r18,-48
    20a4:	28bffa2e 	bgeu	r5,r2,2090 <__alt_mem_onchip_flash_0_data+0xf0f02090>
    20a8:	e0044216 	blt	fp,zero,31b4 <___vfprintf_internal_r+0x1878>
    20ac:	202b883a 	mov	r21,r4
    20b0:	003e8106 	br	1ab8 <__alt_mem_onchip_flash_0_data+0xf0f01ab8>
    20b4:	d8812587 	ldb	r2,1174(sp)
    20b8:	1003581e 	bne	r2,zero,2e1c <___vfprintf_internal_r+0x14e0>
    20bc:	dac12585 	stb	r11,1174(sp)
    20c0:	ac800007 	ldb	r18,0(r21)
    20c4:	003e7b06 	br	1ab4 <__alt_mem_onchip_flash_0_data+0xf0f01ab4>
    20c8:	84000054 	ori	r16,r16,1
    20cc:	ac800007 	ldb	r18,0(r21)
    20d0:	003e7806 	br	1ab4 <__alt_mem_onchip_flash_0_data+0xf0f01ab4>
    20d4:	84002014 	ori	r16,r16,128
    20d8:	ac800007 	ldb	r18,0(r21)
    20dc:	003e7506 	br	1ab4 <__alt_mem_onchip_flash_0_data+0xf0f01ab4>
    20e0:	020000f4 	movhi	r8,3
    20e4:	4200ff04 	addi	r8,r8,1020
    20e8:	da013615 	stw	r8,1240(sp)
    20ec:	8080080c 	andi	r2,r16,32
    20f0:	10009626 	beq	r2,zero,234c <___vfprintf_internal_r+0xa10>
    20f4:	d8812d17 	ldw	r2,1204(sp)
    20f8:	15c00017 	ldw	r23,0(r2)
    20fc:	15800117 	ldw	r22,4(r2)
    2100:	10800204 	addi	r2,r2,8
    2104:	d8812d15 	stw	r2,1204(sp)
    2108:	8080004c 	andi	r2,r16,1
    210c:	1002ae26 	beq	r2,zero,2bc8 <___vfprintf_internal_r+0x128c>
    2110:	bd84b03a 	or	r2,r23,r22
    2114:	10032a26 	beq	r2,zero,2dc0 <___vfprintf_internal_r+0x1484>
    2118:	00c00c04 	movi	r3,48
    211c:	d8c12505 	stb	r3,1172(sp)
    2120:	dc812545 	stb	r18,1173(sp)
    2124:	84000094 	ori	r16,r16,2
    2128:	00c00084 	movi	r3,2
    212c:	d8012585 	stb	zero,1174(sp)
    2130:	003ed906 	br	1c98 <__alt_mem_onchip_flash_0_data+0xf0f01c98>
    2134:	84001014 	ori	r16,r16,64
    2138:	ac800007 	ldb	r18,0(r21)
    213c:	003e5d06 	br	1ab4 <__alt_mem_onchip_flash_0_data+0xf0f01ab4>
    2140:	ac800007 	ldb	r18,0(r21)
    2144:	a805883a 	mov	r2,r21
    2148:	91c43226 	beq	r18,r7,3214 <___vfprintf_internal_r+0x18d8>
    214c:	84000414 	ori	r16,r16,16
    2150:	003e5806 	br	1ab4 <__alt_mem_onchip_flash_0_data+0xf0f01ab4>
    2154:	d8c12d17 	ldw	r3,1204(sp)
    2158:	02000044 	movi	r8,1
    215c:	da012815 	stw	r8,1184(sp)
    2160:	18800017 	ldw	r2,0(r3)
    2164:	18c00104 	addi	r3,r3,4
    2168:	d8012585 	stb	zero,1174(sp)
    216c:	d8810405 	stb	r2,1040(sp)
    2170:	d8c12d15 	stw	r3,1204(sp)
    2174:	da012b15 	stw	r8,1196(sp)
    2178:	dcc10404 	addi	r19,sp,1040
    217c:	d8013115 	stw	zero,1220(sp)
    2180:	003ee006 	br	1d04 <__alt_mem_onchip_flash_0_data+0xf0f01d04>
    2184:	8080080c 	andi	r2,r16,32
    2188:	10031026 	beq	r2,zero,2dcc <___vfprintf_internal_r+0x1490>
    218c:	d9012d17 	ldw	r4,1204(sp)
    2190:	da012c17 	ldw	r8,1200(sp)
    2194:	20800017 	ldw	r2,0(r4)
    2198:	4007d7fa 	srai	r3,r8,31
    219c:	21000104 	addi	r4,r4,4
    21a0:	d9012d15 	stw	r4,1204(sp)
    21a4:	12000015 	stw	r8,0(r2)
    21a8:	10c00115 	stw	r3,4(r2)
    21ac:	003e1906 	br	1a14 <__alt_mem_onchip_flash_0_data+0xf0f01a14>
    21b0:	da012d17 	ldw	r8,1204(sp)
    21b4:	d9012d17 	ldw	r4,1204(sp)
    21b8:	42000017 	ldw	r8,0(r8)
    21bc:	20800104 	addi	r2,r4,4
    21c0:	da012e15 	stw	r8,1208(sp)
    21c4:	403f2f16 	blt	r8,zero,1e84 <__alt_mem_onchip_flash_0_data+0xf0f01e84>
    21c8:	d8812d15 	stw	r2,1204(sp)
    21cc:	ac800007 	ldb	r18,0(r21)
    21d0:	003e3806 	br	1ab4 <__alt_mem_onchip_flash_0_data+0xf0f01ab4>
    21d4:	0009883a 	mov	r4,zero
    21d8:	90bff404 	addi	r2,r18,-48
    21dc:	ac800007 	ldb	r18,0(r21)
    21e0:	210002a4 	muli	r4,r4,10
    21e4:	ad400044 	addi	r21,r21,1
    21e8:	2089883a 	add	r4,r4,r2
    21ec:	90bff404 	addi	r2,r18,-48
    21f0:	28bffa2e 	bgeu	r5,r2,21dc <__alt_mem_onchip_flash_0_data+0xf0f021dc>
    21f4:	d9012e15 	stw	r4,1208(sp)
    21f8:	003e2f06 	br	1ab8 <__alt_mem_onchip_flash_0_data+0xf0f01ab8>
    21fc:	8080020c 	andi	r2,r16,8
    2200:	1002d426 	beq	r2,zero,2d54 <___vfprintf_internal_r+0x1418>
    2204:	d8c12d17 	ldw	r3,1204(sp)
    2208:	1d800017 	ldw	r22,0(r3)
    220c:	1d000117 	ldw	r20,4(r3)
    2210:	18c00204 	addi	r3,r3,8
    2214:	d8c12d15 	stw	r3,1204(sp)
    2218:	dd813315 	stw	r22,1228(sp)
    221c:	dd013415 	stw	r20,1232(sp)
    2220:	b009883a 	mov	r4,r22
    2224:	a00b883a 	mov	r5,r20
    2228:	da413c15 	stw	r9,1264(sp)
    222c:	000857c0 	call	857c <__isinfd>
    2230:	da413c17 	ldw	r9,1264(sp)
    2234:	b009883a 	mov	r4,r22
    2238:	a00b883a 	mov	r5,r20
    223c:	10035726 	beq	r2,zero,2f9c <___vfprintf_internal_r+0x1660>
    2240:	000d883a 	mov	r6,zero
    2244:	000f883a 	mov	r7,zero
    2248:	000a2f00 	call	a2f0 <__ltdf2>
    224c:	da413c17 	ldw	r9,1264(sp)
    2250:	10041b16 	blt	r2,zero,32c0 <___vfprintf_internal_r+0x1984>
    2254:	d8812583 	ldbu	r2,1174(sp)
    2258:	00c011c4 	movi	r3,71
    225c:	1c830b16 	blt	r3,r18,2e8c <___vfprintf_internal_r+0x1550>
    2260:	04c000f4 	movhi	r19,3
    2264:	9cc0fb04 	addi	r19,r19,1004
    2268:	020000c4 	movi	r8,3
    226c:	00ffdfc4 	movi	r3,-129
    2270:	da012815 	stw	r8,1184(sp)
    2274:	80e0703a 	and	r16,r16,r3
    2278:	da012b15 	stw	r8,1196(sp)
    227c:	d8013115 	stw	zero,1220(sp)
    2280:	003e9906 	br	1ce8 <__alt_mem_onchip_flash_0_data+0xf0f01ce8>
    2284:	d8812d17 	ldw	r2,1204(sp)
    2288:	d8c12d17 	ldw	r3,1204(sp)
    228c:	020000f4 	movhi	r8,3
    2290:	42010404 	addi	r8,r8,1040
    2294:	15c00017 	ldw	r23,0(r2)
    2298:	00800c04 	movi	r2,48
    229c:	18c00104 	addi	r3,r3,4
    22a0:	d8812505 	stb	r2,1172(sp)
    22a4:	00801e04 	movi	r2,120
    22a8:	d8812545 	stb	r2,1173(sp)
    22ac:	d8c12d15 	stw	r3,1204(sp)
    22b0:	002d883a 	mov	r22,zero
    22b4:	84000094 	ori	r16,r16,2
    22b8:	da013615 	stw	r8,1240(sp)
    22bc:	00c00084 	movi	r3,2
    22c0:	04801e04 	movi	r18,120
    22c4:	b805883a 	mov	r2,r23
    22c8:	d8012585 	stb	zero,1174(sp)
    22cc:	003e7206 	br	1c98 <__alt_mem_onchip_flash_0_data+0xf0f01c98>
    22d0:	84000814 	ori	r16,r16,32
    22d4:	ac800007 	ldb	r18,0(r21)
    22d8:	003df606 	br	1ab4 <__alt_mem_onchip_flash_0_data+0xf0f01ab4>
    22dc:	d8812d17 	ldw	r2,1204(sp)
    22e0:	d8012585 	stb	zero,1174(sp)
    22e4:	14c00017 	ldw	r19,0(r2)
    22e8:	15c00104 	addi	r23,r2,4
    22ec:	98040126 	beq	r19,zero,32f4 <___vfprintf_internal_r+0x19b8>
    22f0:	9809883a 	mov	r4,r19
    22f4:	e003dd16 	blt	fp,zero,326c <___vfprintf_internal_r+0x1930>
    22f8:	000b883a 	mov	r5,zero
    22fc:	e00d883a 	mov	r6,fp
    2300:	da413c15 	stw	r9,1264(sp)
    2304:	0006a380 	call	6a38 <memchr>
    2308:	da413c17 	ldw	r9,1264(sp)
    230c:	10042e26 	beq	r2,zero,33c8 <___vfprintf_internal_r+0x1a8c>
    2310:	14c5c83a 	sub	r2,r2,r19
    2314:	d8812b15 	stw	r2,1196(sp)
    2318:	e083790e 	bge	fp,r2,3100 <___vfprintf_internal_r+0x17c4>
    231c:	df012815 	stw	fp,1184(sp)
    2320:	e0049516 	blt	fp,zero,3578 <___vfprintf_internal_r+0x1c3c>
    2324:	d8812583 	ldbu	r2,1174(sp)
    2328:	df012b15 	stw	fp,1196(sp)
    232c:	ddc12d15 	stw	r23,1204(sp)
    2330:	d8013115 	stw	zero,1220(sp)
    2334:	003e6c06 	br	1ce8 <__alt_mem_onchip_flash_0_data+0xf0f01ce8>
    2338:	020000f4 	movhi	r8,3
    233c:	42010404 	addi	r8,r8,1040
    2340:	da013615 	stw	r8,1240(sp)
    2344:	8080080c 	andi	r2,r16,32
    2348:	103f6a1e 	bne	r2,zero,20f4 <__alt_mem_onchip_flash_0_data+0xf0f020f4>
    234c:	8080040c 	andi	r2,r16,16
    2350:	10029326 	beq	r2,zero,2da0 <___vfprintf_internal_r+0x1464>
    2354:	d8c12d17 	ldw	r3,1204(sp)
    2358:	002d883a 	mov	r22,zero
    235c:	1dc00017 	ldw	r23,0(r3)
    2360:	18c00104 	addi	r3,r3,4
    2364:	d8c12d15 	stw	r3,1204(sp)
    2368:	003f6706 	br	2108 <__alt_mem_onchip_flash_0_data+0xf0f02108>
    236c:	84000214 	ori	r16,r16,8
    2370:	ac800007 	ldb	r18,0(r21)
    2374:	003dcf06 	br	1ab4 <__alt_mem_onchip_flash_0_data+0xf0f01ab4>
    2378:	da011d17 	ldw	r8,1140(sp)
    237c:	d8c11c17 	ldw	r3,1136(sp)
    2380:	d8812587 	ldb	r2,1174(sp)
    2384:	10000b26 	beq	r2,zero,23b4 <___vfprintf_internal_r+0xa78>
    2388:	d8812584 	addi	r2,sp,1174
    238c:	48800015 	stw	r2,0(r9)
    2390:	00800044 	movi	r2,1
    2394:	48800115 	stw	r2,4(r9)
    2398:	4091883a 	add	r8,r8,r2
    239c:	1887883a 	add	r3,r3,r2
    23a0:	da011d15 	stw	r8,1140(sp)
    23a4:	d8c11c15 	stw	r3,1136(sp)
    23a8:	008001c4 	movi	r2,7
    23ac:	10c18516 	blt	r2,r3,29c4 <___vfprintf_internal_r+0x1088>
    23b0:	4a400204 	addi	r9,r9,8
    23b4:	d9012a17 	ldw	r4,1192(sp)
    23b8:	20000b26 	beq	r4,zero,23e8 <___vfprintf_internal_r+0xaac>
    23bc:	d8812504 	addi	r2,sp,1172
    23c0:	48800015 	stw	r2,0(r9)
    23c4:	00800084 	movi	r2,2
    23c8:	48800115 	stw	r2,4(r9)
    23cc:	4091883a 	add	r8,r8,r2
    23d0:	18c00044 	addi	r3,r3,1
    23d4:	da011d15 	stw	r8,1140(sp)
    23d8:	d8c11c15 	stw	r3,1136(sp)
    23dc:	008001c4 	movi	r2,7
    23e0:	10c18116 	blt	r2,r3,29e8 <___vfprintf_internal_r+0x10ac>
    23e4:	4a400204 	addi	r9,r9,8
    23e8:	d9012f17 	ldw	r4,1212(sp)
    23ec:	00802004 	movi	r2,128
    23f0:	2080fc26 	beq	r4,r2,27e4 <___vfprintf_internal_r+0xea8>
    23f4:	d8813117 	ldw	r2,1220(sp)
    23f8:	d9012b17 	ldw	r4,1196(sp)
    23fc:	112fc83a 	sub	r23,r2,r4
    2400:	05c02a0e 	bge	zero,r23,24ac <___vfprintf_internal_r+0xb70>
    2404:	07000404 	movi	fp,16
    2408:	050000f4 	movhi	r20,3
    240c:	a5010f84 	addi	r20,r20,1086
    2410:	e5c01d0e 	bge	fp,r23,2488 <___vfprintf_internal_r+0xb4c>
    2414:	dc812a15 	stw	r18,1192(sp)
    2418:	058001c4 	movi	r22,7
    241c:	a025883a 	mov	r18,r20
    2420:	8029883a 	mov	r20,r16
    2424:	dc012917 	ldw	r16,1188(sp)
    2428:	00000306 	br	2438 <___vfprintf_internal_r+0xafc>
    242c:	bdfffc04 	addi	r23,r23,-16
    2430:	4a400204 	addi	r9,r9,8
    2434:	e5c0110e 	bge	fp,r23,247c <___vfprintf_internal_r+0xb40>
    2438:	4c800015 	stw	r18,0(r9)
    243c:	4f000115 	stw	fp,4(r9)
    2440:	42000404 	addi	r8,r8,16
    2444:	18c00044 	addi	r3,r3,1
    2448:	da011d15 	stw	r8,1140(sp)
    244c:	d8c11c15 	stw	r3,1136(sp)
    2450:	b0fff60e 	bge	r22,r3,242c <__alt_mem_onchip_flash_0_data+0xf0f0242c>
    2454:	8809883a 	mov	r4,r17
    2458:	800b883a 	mov	r5,r16
    245c:	d9811b04 	addi	r6,sp,1132
    2460:	00019080 	call	1908 <__sprint_r>
    2464:	103ec81e 	bne	r2,zero,1f88 <__alt_mem_onchip_flash_0_data+0xf0f01f88>
    2468:	bdfffc04 	addi	r23,r23,-16
    246c:	da011d17 	ldw	r8,1140(sp)
    2470:	d8c11c17 	ldw	r3,1136(sp)
    2474:	da400404 	addi	r9,sp,16
    2478:	e5ffef16 	blt	fp,r23,2438 <__alt_mem_onchip_flash_0_data+0xf0f02438>
    247c:	a021883a 	mov	r16,r20
    2480:	9029883a 	mov	r20,r18
    2484:	dc812a17 	ldw	r18,1192(sp)
    2488:	4d000015 	stw	r20,0(r9)
    248c:	4dc00115 	stw	r23,4(r9)
    2490:	45d1883a 	add	r8,r8,r23
    2494:	18c00044 	addi	r3,r3,1
    2498:	da011d15 	stw	r8,1140(sp)
    249c:	d8c11c15 	stw	r3,1136(sp)
    24a0:	008001c4 	movi	r2,7
    24a4:	10c13e16 	blt	r2,r3,29a0 <___vfprintf_internal_r+0x1064>
    24a8:	4a400204 	addi	r9,r9,8
    24ac:	8080400c 	andi	r2,r16,256
    24b0:	1000831e 	bne	r2,zero,26c0 <___vfprintf_internal_r+0xd84>
    24b4:	d8812b17 	ldw	r2,1196(sp)
    24b8:	4cc00015 	stw	r19,0(r9)
    24bc:	48800115 	stw	r2,4(r9)
    24c0:	4091883a 	add	r8,r8,r2
    24c4:	18c00044 	addi	r3,r3,1
    24c8:	da011d15 	stw	r8,1140(sp)
    24cc:	d8c11c15 	stw	r3,1136(sp)
    24d0:	008001c4 	movi	r2,7
    24d4:	10c05316 	blt	r2,r3,2624 <___vfprintf_internal_r+0xce8>
    24d8:	4a400204 	addi	r9,r9,8
    24dc:	8400010c 	andi	r16,r16,4
    24e0:	80002e26 	beq	r16,zero,259c <___vfprintf_internal_r+0xc60>
    24e4:	d8812e17 	ldw	r2,1208(sp)
    24e8:	d8c12817 	ldw	r3,1184(sp)
    24ec:	10e1c83a 	sub	r16,r2,r3
    24f0:	04002a0e 	bge	zero,r16,259c <___vfprintf_internal_r+0xc60>
    24f4:	04800404 	movi	r18,16
    24f8:	d8c11c17 	ldw	r3,1136(sp)
    24fc:	05c000f4 	movhi	r23,3
    2500:	bdc10b84 	addi	r23,r23,1070
    2504:	9400170e 	bge	r18,r16,2564 <___vfprintf_internal_r+0xc28>
    2508:	04c001c4 	movi	r19,7
    250c:	dd012917 	ldw	r20,1188(sp)
    2510:	00000306 	br	2520 <___vfprintf_internal_r+0xbe4>
    2514:	843ffc04 	addi	r16,r16,-16
    2518:	4a400204 	addi	r9,r9,8
    251c:	9400110e 	bge	r18,r16,2564 <___vfprintf_internal_r+0xc28>
    2520:	4dc00015 	stw	r23,0(r9)
    2524:	4c800115 	stw	r18,4(r9)
    2528:	42000404 	addi	r8,r8,16
    252c:	18c00044 	addi	r3,r3,1
    2530:	da011d15 	stw	r8,1140(sp)
    2534:	d8c11c15 	stw	r3,1136(sp)
    2538:	98fff60e 	bge	r19,r3,2514 <__alt_mem_onchip_flash_0_data+0xf0f02514>
    253c:	8809883a 	mov	r4,r17
    2540:	a00b883a 	mov	r5,r20
    2544:	d9811b04 	addi	r6,sp,1132
    2548:	00019080 	call	1908 <__sprint_r>
    254c:	103e8e1e 	bne	r2,zero,1f88 <__alt_mem_onchip_flash_0_data+0xf0f01f88>
    2550:	843ffc04 	addi	r16,r16,-16
    2554:	da011d17 	ldw	r8,1140(sp)
    2558:	d8c11c17 	ldw	r3,1136(sp)
    255c:	da400404 	addi	r9,sp,16
    2560:	943fef16 	blt	r18,r16,2520 <__alt_mem_onchip_flash_0_data+0xf0f02520>
    2564:	4dc00015 	stw	r23,0(r9)
    2568:	4c000115 	stw	r16,4(r9)
    256c:	8211883a 	add	r8,r16,r8
    2570:	18c00044 	addi	r3,r3,1
    2574:	da011d15 	stw	r8,1140(sp)
    2578:	d8c11c15 	stw	r3,1136(sp)
    257c:	008001c4 	movi	r2,7
    2580:	10c0060e 	bge	r2,r3,259c <___vfprintf_internal_r+0xc60>
    2584:	d9412917 	ldw	r5,1188(sp)
    2588:	8809883a 	mov	r4,r17
    258c:	d9811b04 	addi	r6,sp,1132
    2590:	00019080 	call	1908 <__sprint_r>
    2594:	103e7c1e 	bne	r2,zero,1f88 <__alt_mem_onchip_flash_0_data+0xf0f01f88>
    2598:	da011d17 	ldw	r8,1140(sp)
    259c:	dd012817 	ldw	r20,1184(sp)
    25a0:	d9012e17 	ldw	r4,1208(sp)
    25a4:	a100010e 	bge	r20,r4,25ac <___vfprintf_internal_r+0xc70>
    25a8:	2029883a 	mov	r20,r4
    25ac:	d8812c17 	ldw	r2,1200(sp)
    25b0:	1505883a 	add	r2,r2,r20
    25b4:	d8812c15 	stw	r2,1200(sp)
    25b8:	4000b91e 	bne	r8,zero,28a0 <___vfprintf_internal_r+0xf64>
    25bc:	d8011c15 	stw	zero,1136(sp)
    25c0:	a8800007 	ldb	r2,0(r21)
    25c4:	da400404 	addi	r9,sp,16
    25c8:	103d141e 	bne	r2,zero,1a1c <__alt_mem_onchip_flash_0_data+0xf0f01a1c>
    25cc:	a825883a 	mov	r18,r21
    25d0:	003d2a06 	br	1a7c <__alt_mem_onchip_flash_0_data+0xf0f01a7c>
    25d4:	d9412917 	ldw	r5,1188(sp)
    25d8:	8809883a 	mov	r4,r17
    25dc:	d9811b04 	addi	r6,sp,1132
    25e0:	00019080 	call	1908 <__sprint_r>
    25e4:	103e681e 	bne	r2,zero,1f88 <__alt_mem_onchip_flash_0_data+0xf0f01f88>
    25e8:	da011d17 	ldw	r8,1140(sp)
    25ec:	da400404 	addi	r9,sp,16
    25f0:	8080004c 	andi	r2,r16,1
    25f4:	103fb926 	beq	r2,zero,24dc <__alt_mem_onchip_flash_0_data+0xf0f024dc>
    25f8:	d8c11c17 	ldw	r3,1136(sp)
    25fc:	d9013717 	ldw	r4,1244(sp)
    2600:	00800044 	movi	r2,1
    2604:	48800115 	stw	r2,4(r9)
    2608:	49000015 	stw	r4,0(r9)
    260c:	4091883a 	add	r8,r8,r2
    2610:	1887883a 	add	r3,r3,r2
    2614:	da011d15 	stw	r8,1140(sp)
    2618:	d8c11c15 	stw	r3,1136(sp)
    261c:	008001c4 	movi	r2,7
    2620:	10ffad0e 	bge	r2,r3,24d8 <__alt_mem_onchip_flash_0_data+0xf0f024d8>
    2624:	d9412917 	ldw	r5,1188(sp)
    2628:	8809883a 	mov	r4,r17
    262c:	d9811b04 	addi	r6,sp,1132
    2630:	00019080 	call	1908 <__sprint_r>
    2634:	103e541e 	bne	r2,zero,1f88 <__alt_mem_onchip_flash_0_data+0xf0f01f88>
    2638:	da400404 	addi	r9,sp,16
    263c:	da011d17 	ldw	r8,1140(sp)
    2640:	003fa606 	br	24dc <__alt_mem_onchip_flash_0_data+0xf0f024dc>
    2644:	18803fcc 	andi	r2,r3,255
    2648:	00c00044 	movi	r3,1
    264c:	10c10126 	beq	r2,r3,2a54 <___vfprintf_internal_r+0x1118>
    2650:	00c00084 	movi	r3,2
    2654:	10c0f026 	beq	r2,r3,2a18 <___vfprintf_internal_r+0x10dc>
    2658:	d8c10dc4 	addi	r3,sp,1079
    265c:	b808d0fa 	srli	r4,r23,3
    2660:	b00a977a 	slli	r5,r22,29
    2664:	b02cd0fa 	srli	r22,r22,3
    2668:	bdc001cc 	andi	r23,r23,7
    266c:	b8800c04 	addi	r2,r23,48
    2670:	292eb03a 	or	r23,r5,r4
    2674:	18800005 	stb	r2,0(r3)
    2678:	bd88b03a 	or	r4,r23,r22
    267c:	1827883a 	mov	r19,r3
    2680:	18ffffc4 	addi	r3,r3,-1
    2684:	203ff51e 	bne	r4,zero,265c <__alt_mem_onchip_flash_0_data+0xf0f0265c>
    2688:	8100004c 	andi	r4,r16,1
    268c:	980b883a 	mov	r5,r19
    2690:	20000726 	beq	r4,zero,26b0 <___vfprintf_internal_r+0xd74>
    2694:	10803fcc 	andi	r2,r2,255
    2698:	1080201c 	xori	r2,r2,128
    269c:	10bfe004 	addi	r2,r2,-128
    26a0:	01000c04 	movi	r4,48
    26a4:	11000226 	beq	r2,r4,26b0 <___vfprintf_internal_r+0xd74>
    26a8:	1827883a 	mov	r19,r3
    26ac:	293fffc5 	stb	r4,-1(r5)
    26b0:	d8812717 	ldw	r2,1180(sp)
    26b4:	14c5c83a 	sub	r2,r2,r19
    26b8:	d8812b15 	stw	r2,1196(sp)
    26bc:	003d8406 	br	1cd0 <__alt_mem_onchip_flash_0_data+0xf0f01cd0>
    26c0:	00801944 	movi	r2,101
    26c4:	14807c0e 	bge	r2,r18,28b8 <___vfprintf_internal_r+0xf7c>
    26c8:	d9013317 	ldw	r4,1228(sp)
    26cc:	d9413417 	ldw	r5,1232(sp)
    26d0:	000d883a 	mov	r6,zero
    26d4:	000f883a 	mov	r7,zero
    26d8:	d8c13b15 	stw	r3,1260(sp)
    26dc:	da013a15 	stw	r8,1256(sp)
    26e0:	da413c15 	stw	r9,1264(sp)
    26e4:	000a1cc0 	call	a1cc <__nedf2>
    26e8:	d8c13b17 	ldw	r3,1260(sp)
    26ec:	da013a17 	ldw	r8,1256(sp)
    26f0:	da413c17 	ldw	r9,1264(sp)
    26f4:	1001001e 	bne	r2,zero,2af8 <___vfprintf_internal_r+0x11bc>
    26f8:	008000f4 	movhi	r2,3
    26fc:	10810b04 	addi	r2,r2,1068
    2700:	48800015 	stw	r2,0(r9)
    2704:	00800044 	movi	r2,1
    2708:	48800115 	stw	r2,4(r9)
    270c:	4091883a 	add	r8,r8,r2
    2710:	1887883a 	add	r3,r3,r2
    2714:	da011d15 	stw	r8,1140(sp)
    2718:	d8c11c15 	stw	r3,1136(sp)
    271c:	008001c4 	movi	r2,7
    2720:	10c1dd16 	blt	r2,r3,2e98 <___vfprintf_internal_r+0x155c>
    2724:	4a400204 	addi	r9,r9,8
    2728:	d8812417 	ldw	r2,1168(sp)
    272c:	d8c13217 	ldw	r3,1224(sp)
    2730:	10c00216 	blt	r2,r3,273c <___vfprintf_internal_r+0xe00>
    2734:	8080004c 	andi	r2,r16,1
    2738:	103f6826 	beq	r2,zero,24dc <__alt_mem_onchip_flash_0_data+0xf0f024dc>
    273c:	d8c11c17 	ldw	r3,1136(sp)
    2740:	d9013717 	ldw	r4,1244(sp)
    2744:	00800044 	movi	r2,1
    2748:	48800115 	stw	r2,4(r9)
    274c:	49000015 	stw	r4,0(r9)
    2750:	4091883a 	add	r8,r8,r2
    2754:	1887883a 	add	r3,r3,r2
    2758:	da011d15 	stw	r8,1140(sp)
    275c:	d8c11c15 	stw	r3,1136(sp)
    2760:	008001c4 	movi	r2,7
    2764:	10c2af16 	blt	r2,r3,3224 <___vfprintf_internal_r+0x18e8>
    2768:	4a400204 	addi	r9,r9,8
    276c:	d8813217 	ldw	r2,1224(sp)
    2770:	14bfffc4 	addi	r18,r2,-1
    2774:	04bf590e 	bge	zero,r18,24dc <__alt_mem_onchip_flash_0_data+0xf0f024dc>
    2778:	04c00404 	movi	r19,16
    277c:	d8c11c17 	ldw	r3,1136(sp)
    2780:	050000f4 	movhi	r20,3
    2784:	a5010f84 	addi	r20,r20,1086
    2788:	9c81630e 	bge	r19,r18,2d18 <___vfprintf_internal_r+0x13dc>
    278c:	058001c4 	movi	r22,7
    2790:	ddc12917 	ldw	r23,1188(sp)
    2794:	00000306 	br	27a4 <___vfprintf_internal_r+0xe68>
    2798:	4a400204 	addi	r9,r9,8
    279c:	94bffc04 	addi	r18,r18,-16
    27a0:	9c815d0e 	bge	r19,r18,2d18 <___vfprintf_internal_r+0x13dc>
    27a4:	4d000015 	stw	r20,0(r9)
    27a8:	4cc00115 	stw	r19,4(r9)
    27ac:	42000404 	addi	r8,r8,16
    27b0:	18c00044 	addi	r3,r3,1
    27b4:	da011d15 	stw	r8,1140(sp)
    27b8:	d8c11c15 	stw	r3,1136(sp)
    27bc:	b0fff60e 	bge	r22,r3,2798 <__alt_mem_onchip_flash_0_data+0xf0f02798>
    27c0:	8809883a 	mov	r4,r17
    27c4:	b80b883a 	mov	r5,r23
    27c8:	d9811b04 	addi	r6,sp,1132
    27cc:	00019080 	call	1908 <__sprint_r>
    27d0:	103ded1e 	bne	r2,zero,1f88 <__alt_mem_onchip_flash_0_data+0xf0f01f88>
    27d4:	da011d17 	ldw	r8,1140(sp)
    27d8:	d8c11c17 	ldw	r3,1136(sp)
    27dc:	da400404 	addi	r9,sp,16
    27e0:	003fee06 	br	279c <__alt_mem_onchip_flash_0_data+0xf0f0279c>
    27e4:	d8812e17 	ldw	r2,1208(sp)
    27e8:	d9012817 	ldw	r4,1184(sp)
    27ec:	112fc83a 	sub	r23,r2,r4
    27f0:	05ff000e 	bge	zero,r23,23f4 <__alt_mem_onchip_flash_0_data+0xf0f023f4>
    27f4:	07000404 	movi	fp,16
    27f8:	050000f4 	movhi	r20,3
    27fc:	a5010f84 	addi	r20,r20,1086
    2800:	e5c01d0e 	bge	fp,r23,2878 <___vfprintf_internal_r+0xf3c>
    2804:	dc812a15 	stw	r18,1192(sp)
    2808:	058001c4 	movi	r22,7
    280c:	a025883a 	mov	r18,r20
    2810:	8029883a 	mov	r20,r16
    2814:	dc012917 	ldw	r16,1188(sp)
    2818:	00000306 	br	2828 <___vfprintf_internal_r+0xeec>
    281c:	bdfffc04 	addi	r23,r23,-16
    2820:	4a400204 	addi	r9,r9,8
    2824:	e5c0110e 	bge	fp,r23,286c <___vfprintf_internal_r+0xf30>
    2828:	4c800015 	stw	r18,0(r9)
    282c:	4f000115 	stw	fp,4(r9)
    2830:	42000404 	addi	r8,r8,16
    2834:	18c00044 	addi	r3,r3,1
    2838:	da011d15 	stw	r8,1140(sp)
    283c:	d8c11c15 	stw	r3,1136(sp)
    2840:	b0fff60e 	bge	r22,r3,281c <__alt_mem_onchip_flash_0_data+0xf0f0281c>
    2844:	8809883a 	mov	r4,r17
    2848:	800b883a 	mov	r5,r16
    284c:	d9811b04 	addi	r6,sp,1132
    2850:	00019080 	call	1908 <__sprint_r>
    2854:	103dcc1e 	bne	r2,zero,1f88 <__alt_mem_onchip_flash_0_data+0xf0f01f88>
    2858:	bdfffc04 	addi	r23,r23,-16
    285c:	da011d17 	ldw	r8,1140(sp)
    2860:	d8c11c17 	ldw	r3,1136(sp)
    2864:	da400404 	addi	r9,sp,16
    2868:	e5ffef16 	blt	fp,r23,2828 <__alt_mem_onchip_flash_0_data+0xf0f02828>
    286c:	a021883a 	mov	r16,r20
    2870:	9029883a 	mov	r20,r18
    2874:	dc812a17 	ldw	r18,1192(sp)
    2878:	4d000015 	stw	r20,0(r9)
    287c:	4dc00115 	stw	r23,4(r9)
    2880:	45d1883a 	add	r8,r8,r23
    2884:	18c00044 	addi	r3,r3,1
    2888:	da011d15 	stw	r8,1140(sp)
    288c:	d8c11c15 	stw	r3,1136(sp)
    2890:	008001c4 	movi	r2,7
    2894:	10c11716 	blt	r2,r3,2cf4 <___vfprintf_internal_r+0x13b8>
    2898:	4a400204 	addi	r9,r9,8
    289c:	003ed506 	br	23f4 <__alt_mem_onchip_flash_0_data+0xf0f023f4>
    28a0:	d9412917 	ldw	r5,1188(sp)
    28a4:	8809883a 	mov	r4,r17
    28a8:	d9811b04 	addi	r6,sp,1132
    28ac:	00019080 	call	1908 <__sprint_r>
    28b0:	103f4226 	beq	r2,zero,25bc <__alt_mem_onchip_flash_0_data+0xf0f025bc>
    28b4:	003db406 	br	1f88 <__alt_mem_onchip_flash_0_data+0xf0f01f88>
    28b8:	d9013217 	ldw	r4,1224(sp)
    28bc:	00800044 	movi	r2,1
    28c0:	4cc00015 	stw	r19,0(r9)
    28c4:	1100e10e 	bge	r2,r4,2c4c <___vfprintf_internal_r+0x1310>
    28c8:	00800044 	movi	r2,1
    28cc:	48800115 	stw	r2,4(r9)
    28d0:	4091883a 	add	r8,r8,r2
    28d4:	1887883a 	add	r3,r3,r2
    28d8:	da011d15 	stw	r8,1140(sp)
    28dc:	d8c11c15 	stw	r3,1136(sp)
    28e0:	008001c4 	movi	r2,7
    28e4:	10c0ed16 	blt	r2,r3,2c9c <___vfprintf_internal_r+0x1360>
    28e8:	4a400204 	addi	r9,r9,8
    28ec:	d8813717 	ldw	r2,1244(sp)
    28f0:	48800015 	stw	r2,0(r9)
    28f4:	00800044 	movi	r2,1
    28f8:	48800115 	stw	r2,4(r9)
    28fc:	4091883a 	add	r8,r8,r2
    2900:	1887883a 	add	r3,r3,r2
    2904:	da011d15 	stw	r8,1140(sp)
    2908:	d8c11c15 	stw	r3,1136(sp)
    290c:	008001c4 	movi	r2,7
    2910:	10c0eb16 	blt	r2,r3,2cc0 <___vfprintf_internal_r+0x1384>
    2914:	4c800204 	addi	r18,r9,8
    2918:	d9013317 	ldw	r4,1228(sp)
    291c:	d9413417 	ldw	r5,1232(sp)
    2920:	000d883a 	mov	r6,zero
    2924:	000f883a 	mov	r7,zero
    2928:	d8c13b15 	stw	r3,1260(sp)
    292c:	da013a15 	stw	r8,1256(sp)
    2930:	000a1700 	call	a170 <__eqdf2>
    2934:	d8c13b17 	ldw	r3,1260(sp)
    2938:	da013a17 	ldw	r8,1256(sp)
    293c:	1000a626 	beq	r2,zero,2bd8 <___vfprintf_internal_r+0x129c>
    2940:	d9013217 	ldw	r4,1224(sp)
    2944:	9cc00044 	addi	r19,r19,1
    2948:	94c00015 	stw	r19,0(r18)
    294c:	20bfffc4 	addi	r2,r4,-1
    2950:	90800115 	stw	r2,4(r18)
    2954:	4091883a 	add	r8,r8,r2
    2958:	18c00044 	addi	r3,r3,1
    295c:	da011d15 	stw	r8,1140(sp)
    2960:	d8c11c15 	stw	r3,1136(sp)
    2964:	008001c4 	movi	r2,7
    2968:	10c0c316 	blt	r2,r3,2c78 <___vfprintf_internal_r+0x133c>
    296c:	94800204 	addi	r18,r18,8
    2970:	d9013517 	ldw	r4,1236(sp)
    2974:	d8811fc4 	addi	r2,sp,1151
    2978:	90800015 	stw	r2,0(r18)
    297c:	91000115 	stw	r4,4(r18)
    2980:	4111883a 	add	r8,r8,r4
    2984:	18c00044 	addi	r3,r3,1
    2988:	da011d15 	stw	r8,1140(sp)
    298c:	d8c11c15 	stw	r3,1136(sp)
    2990:	008001c4 	movi	r2,7
    2994:	10ff2316 	blt	r2,r3,2624 <__alt_mem_onchip_flash_0_data+0xf0f02624>
    2998:	92400204 	addi	r9,r18,8
    299c:	003ecf06 	br	24dc <__alt_mem_onchip_flash_0_data+0xf0f024dc>
    29a0:	d9412917 	ldw	r5,1188(sp)
    29a4:	8809883a 	mov	r4,r17
    29a8:	d9811b04 	addi	r6,sp,1132
    29ac:	00019080 	call	1908 <__sprint_r>
    29b0:	103d751e 	bne	r2,zero,1f88 <__alt_mem_onchip_flash_0_data+0xf0f01f88>
    29b4:	da011d17 	ldw	r8,1140(sp)
    29b8:	d8c11c17 	ldw	r3,1136(sp)
    29bc:	da400404 	addi	r9,sp,16
    29c0:	003eba06 	br	24ac <__alt_mem_onchip_flash_0_data+0xf0f024ac>
    29c4:	d9412917 	ldw	r5,1188(sp)
    29c8:	8809883a 	mov	r4,r17
    29cc:	d9811b04 	addi	r6,sp,1132
    29d0:	00019080 	call	1908 <__sprint_r>
    29d4:	103d6c1e 	bne	r2,zero,1f88 <__alt_mem_onchip_flash_0_data+0xf0f01f88>
    29d8:	da011d17 	ldw	r8,1140(sp)
    29dc:	d8c11c17 	ldw	r3,1136(sp)
    29e0:	da400404 	addi	r9,sp,16
    29e4:	003e7306 	br	23b4 <__alt_mem_onchip_flash_0_data+0xf0f023b4>
    29e8:	d9412917 	ldw	r5,1188(sp)
    29ec:	8809883a 	mov	r4,r17
    29f0:	d9811b04 	addi	r6,sp,1132
    29f4:	00019080 	call	1908 <__sprint_r>
    29f8:	103d631e 	bne	r2,zero,1f88 <__alt_mem_onchip_flash_0_data+0xf0f01f88>
    29fc:	da011d17 	ldw	r8,1140(sp)
    2a00:	d8c11c17 	ldw	r3,1136(sp)
    2a04:	da400404 	addi	r9,sp,16
    2a08:	003e7706 	br	23e8 <__alt_mem_onchip_flash_0_data+0xf0f023e8>
    2a0c:	d8012b15 	stw	zero,1196(sp)
    2a10:	dcc10e04 	addi	r19,sp,1080
    2a14:	003cae06 	br	1cd0 <__alt_mem_onchip_flash_0_data+0xf0f01cd0>
    2a18:	d9413617 	ldw	r5,1240(sp)
    2a1c:	d8810dc4 	addi	r2,sp,1079
    2a20:	b8c003cc 	andi	r3,r23,15
    2a24:	b008973a 	slli	r4,r22,28
    2a28:	28c7883a 	add	r3,r5,r3
    2a2c:	b82ed13a 	srli	r23,r23,4
    2a30:	18c00003 	ldbu	r3,0(r3)
    2a34:	b02cd13a 	srli	r22,r22,4
    2a38:	25eeb03a 	or	r23,r4,r23
    2a3c:	10c00005 	stb	r3,0(r2)
    2a40:	bd86b03a 	or	r3,r23,r22
    2a44:	1027883a 	mov	r19,r2
    2a48:	10bfffc4 	addi	r2,r2,-1
    2a4c:	183ff41e 	bne	r3,zero,2a20 <__alt_mem_onchip_flash_0_data+0xf0f02a20>
    2a50:	003f1706 	br	26b0 <__alt_mem_onchip_flash_0_data+0xf0f026b0>
    2a54:	b0025826 	beq	r22,zero,33b8 <___vfprintf_internal_r+0x1a7c>
    2a58:	b807883a 	mov	r3,r23
    2a5c:	d8810dc4 	addi	r2,sp,1079
    2a60:	882f883a 	mov	r23,r17
    2a64:	04c00244 	movi	r19,9
    2a68:	8023883a 	mov	r17,r16
    2a6c:	da412815 	stw	r9,1184(sp)
    2a70:	1821883a 	mov	r16,r3
    2a74:	8009883a 	mov	r4,r16
    2a78:	b00b883a 	mov	r5,r22
    2a7c:	01800284 	movi	r6,10
    2a80:	000f883a 	mov	r7,zero
    2a84:	1029883a 	mov	r20,r2
    2a88:	00093c80 	call	93c8 <__umoddi3>
    2a8c:	10800c04 	addi	r2,r2,48
    2a90:	8009883a 	mov	r4,r16
    2a94:	b00b883a 	mov	r5,r22
    2a98:	a0800005 	stb	r2,0(r20)
    2a9c:	01800284 	movi	r6,10
    2aa0:	000f883a 	mov	r7,zero
    2aa4:	0008e000 	call	8e00 <__udivdi3>
    2aa8:	1021883a 	mov	r16,r2
    2aac:	182d883a 	mov	r22,r3
    2ab0:	a0bfffc4 	addi	r2,r20,-1
    2ab4:	183fef1e 	bne	r3,zero,2a74 <__alt_mem_onchip_flash_0_data+0xf0f02a74>
    2ab8:	9c3fee36 	bltu	r19,r16,2a74 <__alt_mem_onchip_flash_0_data+0xf0f02a74>
    2abc:	da412817 	ldw	r9,1184(sp)
    2ac0:	8005883a 	mov	r2,r16
    2ac4:	8821883a 	mov	r16,r17
    2ac8:	b823883a 	mov	r17,r23
    2acc:	102f883a 	mov	r23,r2
    2ad0:	d8812717 	ldw	r2,1180(sp)
    2ad4:	a4ffffc4 	addi	r19,r20,-1
    2ad8:	bdc00c04 	addi	r23,r23,48
    2adc:	14c5c83a 	sub	r2,r2,r19
    2ae0:	a5ffffc5 	stb	r23,-1(r20)
    2ae4:	d8812b15 	stw	r2,1196(sp)
    2ae8:	003c7906 	br	1cd0 <__alt_mem_onchip_flash_0_data+0xf0f01cd0>
    2aec:	00c00044 	movi	r3,1
    2af0:	bd84b03a 	or	r2,r23,r22
    2af4:	003c6806 	br	1c98 <__alt_mem_onchip_flash_0_data+0xf0f01c98>
    2af8:	dc812417 	ldw	r18,1168(sp)
    2afc:	0480ee0e 	bge	zero,r18,2eb8 <___vfprintf_internal_r+0x157c>
    2b00:	d9013217 	ldw	r4,1224(sp)
    2b04:	4cc00015 	stw	r19,0(r9)
    2b08:	9100c616 	blt	r18,r4,2e24 <___vfprintf_internal_r+0x14e8>
    2b0c:	49000115 	stw	r4,4(r9)
    2b10:	4111883a 	add	r8,r8,r4
    2b14:	18c00044 	addi	r3,r3,1
    2b18:	da011d15 	stw	r8,1140(sp)
    2b1c:	d8c11c15 	stw	r3,1136(sp)
    2b20:	008001c4 	movi	r2,7
    2b24:	10c20916 	blt	r2,r3,334c <___vfprintf_internal_r+0x1a10>
    2b28:	4a400204 	addi	r9,r9,8
    2b2c:	d8813217 	ldw	r2,1224(sp)
    2b30:	90a5c83a 	sub	r18,r18,r2
    2b34:	04beae0e 	bge	zero,r18,25f0 <__alt_mem_onchip_flash_0_data+0xf0f025f0>
    2b38:	04c00404 	movi	r19,16
    2b3c:	d8c11c17 	ldw	r3,1136(sp)
    2b40:	050000f4 	movhi	r20,3
    2b44:	a5010f84 	addi	r20,r20,1086
    2b48:	9c81be0e 	bge	r19,r18,3244 <___vfprintf_internal_r+0x1908>
    2b4c:	058001c4 	movi	r22,7
    2b50:	ddc12917 	ldw	r23,1188(sp)
    2b54:	00000306 	br	2b64 <___vfprintf_internal_r+0x1228>
    2b58:	4a400204 	addi	r9,r9,8
    2b5c:	94bffc04 	addi	r18,r18,-16
    2b60:	9c81b80e 	bge	r19,r18,3244 <___vfprintf_internal_r+0x1908>
    2b64:	4d000015 	stw	r20,0(r9)
    2b68:	4cc00115 	stw	r19,4(r9)
    2b6c:	42000404 	addi	r8,r8,16
    2b70:	18c00044 	addi	r3,r3,1
    2b74:	da011d15 	stw	r8,1140(sp)
    2b78:	d8c11c15 	stw	r3,1136(sp)
    2b7c:	b0fff60e 	bge	r22,r3,2b58 <__alt_mem_onchip_flash_0_data+0xf0f02b58>
    2b80:	8809883a 	mov	r4,r17
    2b84:	b80b883a 	mov	r5,r23
    2b88:	d9811b04 	addi	r6,sp,1132
    2b8c:	00019080 	call	1908 <__sprint_r>
    2b90:	103cfd1e 	bne	r2,zero,1f88 <__alt_mem_onchip_flash_0_data+0xf0f01f88>
    2b94:	da011d17 	ldw	r8,1140(sp)
    2b98:	d8c11c17 	ldw	r3,1136(sp)
    2b9c:	da400404 	addi	r9,sp,16
    2ba0:	003fee06 	br	2b5c <__alt_mem_onchip_flash_0_data+0xf0f02b5c>
    2ba4:	d9412917 	ldw	r5,1188(sp)
    2ba8:	8809883a 	mov	r4,r17
    2bac:	d9811b04 	addi	r6,sp,1132
    2bb0:	00019080 	call	1908 <__sprint_r>
    2bb4:	103cf41e 	bne	r2,zero,1f88 <__alt_mem_onchip_flash_0_data+0xf0f01f88>
    2bb8:	da011d17 	ldw	r8,1140(sp)
    2bbc:	d8c11c17 	ldw	r3,1136(sp)
    2bc0:	da400404 	addi	r9,sp,16
    2bc4:	003dee06 	br	2380 <__alt_mem_onchip_flash_0_data+0xf0f02380>
    2bc8:	00c00084 	movi	r3,2
    2bcc:	bd84b03a 	or	r2,r23,r22
    2bd0:	d8012585 	stb	zero,1174(sp)
    2bd4:	003c3006 	br	1c98 <__alt_mem_onchip_flash_0_data+0xf0f01c98>
    2bd8:	d8813217 	ldw	r2,1224(sp)
    2bdc:	14ffffc4 	addi	r19,r2,-1
    2be0:	04ff630e 	bge	zero,r19,2970 <__alt_mem_onchip_flash_0_data+0xf0f02970>
    2be4:	05800404 	movi	r22,16
    2be8:	050000f4 	movhi	r20,3
    2bec:	a5010f84 	addi	r20,r20,1086
    2bf0:	b4c03c0e 	bge	r22,r19,2ce4 <___vfprintf_internal_r+0x13a8>
    2bf4:	05c001c4 	movi	r23,7
    2bf8:	df012917 	ldw	fp,1188(sp)
    2bfc:	00000306 	br	2c0c <___vfprintf_internal_r+0x12d0>
    2c00:	94800204 	addi	r18,r18,8
    2c04:	9cfffc04 	addi	r19,r19,-16
    2c08:	b4c0360e 	bge	r22,r19,2ce4 <___vfprintf_internal_r+0x13a8>
    2c0c:	95000015 	stw	r20,0(r18)
    2c10:	95800115 	stw	r22,4(r18)
    2c14:	42000404 	addi	r8,r8,16
    2c18:	18c00044 	addi	r3,r3,1
    2c1c:	da011d15 	stw	r8,1140(sp)
    2c20:	d8c11c15 	stw	r3,1136(sp)
    2c24:	b8fff60e 	bge	r23,r3,2c00 <__alt_mem_onchip_flash_0_data+0xf0f02c00>
    2c28:	8809883a 	mov	r4,r17
    2c2c:	e00b883a 	mov	r5,fp
    2c30:	d9811b04 	addi	r6,sp,1132
    2c34:	00019080 	call	1908 <__sprint_r>
    2c38:	103cd31e 	bne	r2,zero,1f88 <__alt_mem_onchip_flash_0_data+0xf0f01f88>
    2c3c:	da011d17 	ldw	r8,1140(sp)
    2c40:	d8c11c17 	ldw	r3,1136(sp)
    2c44:	dc800404 	addi	r18,sp,16
    2c48:	003fee06 	br	2c04 <__alt_mem_onchip_flash_0_data+0xf0f02c04>
    2c4c:	8088703a 	and	r4,r16,r2
    2c50:	203f1d1e 	bne	r4,zero,28c8 <__alt_mem_onchip_flash_0_data+0xf0f028c8>
    2c54:	48800115 	stw	r2,4(r9)
    2c58:	42000044 	addi	r8,r8,1
    2c5c:	18c00044 	addi	r3,r3,1
    2c60:	da011d15 	stw	r8,1140(sp)
    2c64:	d8c11c15 	stw	r3,1136(sp)
    2c68:	008001c4 	movi	r2,7
    2c6c:	10c00216 	blt	r2,r3,2c78 <___vfprintf_internal_r+0x133c>
    2c70:	4c800204 	addi	r18,r9,8
    2c74:	003f3e06 	br	2970 <__alt_mem_onchip_flash_0_data+0xf0f02970>
    2c78:	d9412917 	ldw	r5,1188(sp)
    2c7c:	8809883a 	mov	r4,r17
    2c80:	d9811b04 	addi	r6,sp,1132
    2c84:	00019080 	call	1908 <__sprint_r>
    2c88:	103cbf1e 	bne	r2,zero,1f88 <__alt_mem_onchip_flash_0_data+0xf0f01f88>
    2c8c:	dc800404 	addi	r18,sp,16
    2c90:	da011d17 	ldw	r8,1140(sp)
    2c94:	d8c11c17 	ldw	r3,1136(sp)
    2c98:	003f3506 	br	2970 <__alt_mem_onchip_flash_0_data+0xf0f02970>
    2c9c:	d9412917 	ldw	r5,1188(sp)
    2ca0:	8809883a 	mov	r4,r17
    2ca4:	d9811b04 	addi	r6,sp,1132
    2ca8:	00019080 	call	1908 <__sprint_r>
    2cac:	103cb61e 	bne	r2,zero,1f88 <__alt_mem_onchip_flash_0_data+0xf0f01f88>
    2cb0:	da011d17 	ldw	r8,1140(sp)
    2cb4:	d8c11c17 	ldw	r3,1136(sp)
    2cb8:	da400404 	addi	r9,sp,16
    2cbc:	003f0b06 	br	28ec <__alt_mem_onchip_flash_0_data+0xf0f028ec>
    2cc0:	d9412917 	ldw	r5,1188(sp)
    2cc4:	8809883a 	mov	r4,r17
    2cc8:	d9811b04 	addi	r6,sp,1132
    2ccc:	00019080 	call	1908 <__sprint_r>
    2cd0:	103cad1e 	bne	r2,zero,1f88 <__alt_mem_onchip_flash_0_data+0xf0f01f88>
    2cd4:	da011d17 	ldw	r8,1140(sp)
    2cd8:	d8c11c17 	ldw	r3,1136(sp)
    2cdc:	dc800404 	addi	r18,sp,16
    2ce0:	003f0d06 	br	2918 <__alt_mem_onchip_flash_0_data+0xf0f02918>
    2ce4:	95000015 	stw	r20,0(r18)
    2ce8:	94c00115 	stw	r19,4(r18)
    2cec:	44d1883a 	add	r8,r8,r19
    2cf0:	003f1906 	br	2958 <__alt_mem_onchip_flash_0_data+0xf0f02958>
    2cf4:	d9412917 	ldw	r5,1188(sp)
    2cf8:	8809883a 	mov	r4,r17
    2cfc:	d9811b04 	addi	r6,sp,1132
    2d00:	00019080 	call	1908 <__sprint_r>
    2d04:	103ca01e 	bne	r2,zero,1f88 <__alt_mem_onchip_flash_0_data+0xf0f01f88>
    2d08:	da011d17 	ldw	r8,1140(sp)
    2d0c:	d8c11c17 	ldw	r3,1136(sp)
    2d10:	da400404 	addi	r9,sp,16
    2d14:	003db706 	br	23f4 <__alt_mem_onchip_flash_0_data+0xf0f023f4>
    2d18:	4d000015 	stw	r20,0(r9)
    2d1c:	4c800115 	stw	r18,4(r9)
    2d20:	4491883a 	add	r8,r8,r18
    2d24:	003de706 	br	24c4 <__alt_mem_onchip_flash_0_data+0xf0f024c4>
    2d28:	8080100c 	andi	r2,r16,64
    2d2c:	10010226 	beq	r2,zero,3138 <___vfprintf_internal_r+0x17fc>
    2d30:	d8812d17 	ldw	r2,1204(sp)
    2d34:	002d883a 	mov	r22,zero
    2d38:	00c00044 	movi	r3,1
    2d3c:	15c0000b 	ldhu	r23,0(r2)
    2d40:	10800104 	addi	r2,r2,4
    2d44:	d8812d15 	stw	r2,1204(sp)
    2d48:	d8012585 	stb	zero,1174(sp)
    2d4c:	b805883a 	mov	r2,r23
    2d50:	003bd106 	br	1c98 <__alt_mem_onchip_flash_0_data+0xf0f01c98>
    2d54:	d9012d17 	ldw	r4,1204(sp)
    2d58:	25800017 	ldw	r22,0(r4)
    2d5c:	25000117 	ldw	r20,4(r4)
    2d60:	21000204 	addi	r4,r4,8
    2d64:	d9012d15 	stw	r4,1204(sp)
    2d68:	dd813315 	stw	r22,1228(sp)
    2d6c:	dd013415 	stw	r20,1232(sp)
    2d70:	003d2b06 	br	2220 <__alt_mem_onchip_flash_0_data+0xf0f02220>
    2d74:	8080100c 	andi	r2,r16,64
    2d78:	1000fe26 	beq	r2,zero,3174 <___vfprintf_internal_r+0x1838>
    2d7c:	d9012d17 	ldw	r4,1204(sp)
    2d80:	002d883a 	mov	r22,zero
    2d84:	0007883a 	mov	r3,zero
    2d88:	25c0000b 	ldhu	r23,0(r4)
    2d8c:	21000104 	addi	r4,r4,4
    2d90:	d9012d15 	stw	r4,1204(sp)
    2d94:	b805883a 	mov	r2,r23
    2d98:	d8012585 	stb	zero,1174(sp)
    2d9c:	003bbe06 	br	1c98 <__alt_mem_onchip_flash_0_data+0xf0f01c98>
    2da0:	8080100c 	andi	r2,r16,64
    2da4:	1000ed26 	beq	r2,zero,315c <___vfprintf_internal_r+0x1820>
    2da8:	d9012d17 	ldw	r4,1204(sp)
    2dac:	002d883a 	mov	r22,zero
    2db0:	25c0000b 	ldhu	r23,0(r4)
    2db4:	21000104 	addi	r4,r4,4
    2db8:	d9012d15 	stw	r4,1204(sp)
    2dbc:	003cd206 	br	2108 <__alt_mem_onchip_flash_0_data+0xf0f02108>
    2dc0:	00c00084 	movi	r3,2
    2dc4:	d8012585 	stb	zero,1174(sp)
    2dc8:	003bb306 	br	1c98 <__alt_mem_onchip_flash_0_data+0xf0f01c98>
    2dcc:	8080040c 	andi	r2,r16,16
    2dd0:	1000f11e 	bne	r2,zero,3198 <___vfprintf_internal_r+0x185c>
    2dd4:	8400100c 	andi	r16,r16,64
    2dd8:	80015526 	beq	r16,zero,3330 <___vfprintf_internal_r+0x19f4>
    2ddc:	da012d17 	ldw	r8,1204(sp)
    2de0:	d8c12c17 	ldw	r3,1200(sp)
    2de4:	40800017 	ldw	r2,0(r8)
    2de8:	42000104 	addi	r8,r8,4
    2dec:	da012d15 	stw	r8,1204(sp)
    2df0:	10c0000d 	sth	r3,0(r2)
    2df4:	003b0706 	br	1a14 <__alt_mem_onchip_flash_0_data+0xf0f01a14>
    2df8:	8080100c 	andi	r2,r16,64
    2dfc:	1000c726 	beq	r2,zero,311c <___vfprintf_internal_r+0x17e0>
    2e00:	da012d17 	ldw	r8,1204(sp)
    2e04:	45c0000f 	ldh	r23,0(r8)
    2e08:	42000104 	addi	r8,r8,4
    2e0c:	da012d15 	stw	r8,1204(sp)
    2e10:	b82dd7fa 	srai	r22,r23,31
    2e14:	b005883a 	mov	r2,r22
    2e18:	003c1006 	br	1e5c <__alt_mem_onchip_flash_0_data+0xf0f01e5c>
    2e1c:	ac800007 	ldb	r18,0(r21)
    2e20:	003b2406 	br	1ab4 <__alt_mem_onchip_flash_0_data+0xf0f01ab4>
    2e24:	4c800115 	stw	r18,4(r9)
    2e28:	9211883a 	add	r8,r18,r8
    2e2c:	18c00044 	addi	r3,r3,1
    2e30:	da011d15 	stw	r8,1140(sp)
    2e34:	d8c11c15 	stw	r3,1136(sp)
    2e38:	008001c4 	movi	r2,7
    2e3c:	10c15416 	blt	r2,r3,3390 <___vfprintf_internal_r+0x1a54>
    2e40:	4a400204 	addi	r9,r9,8
    2e44:	d8813717 	ldw	r2,1244(sp)
    2e48:	9ca7883a 	add	r19,r19,r18
    2e4c:	48800015 	stw	r2,0(r9)
    2e50:	00800044 	movi	r2,1
    2e54:	48800115 	stw	r2,4(r9)
    2e58:	4091883a 	add	r8,r8,r2
    2e5c:	1887883a 	add	r3,r3,r2
    2e60:	da011d15 	stw	r8,1140(sp)
    2e64:	d8c11c15 	stw	r3,1136(sp)
    2e68:	008001c4 	movi	r2,7
    2e6c:	10c14016 	blt	r2,r3,3370 <___vfprintf_internal_r+0x1a34>
    2e70:	4a400204 	addi	r9,r9,8
    2e74:	d9013217 	ldw	r4,1224(sp)
    2e78:	da011d17 	ldw	r8,1140(sp)
    2e7c:	d8c11c17 	ldw	r3,1136(sp)
    2e80:	24a5c83a 	sub	r18,r4,r18
    2e84:	4cc00015 	stw	r19,0(r9)
    2e88:	003fa406 	br	2d1c <__alt_mem_onchip_flash_0_data+0xf0f02d1c>
    2e8c:	04c000f4 	movhi	r19,3
    2e90:	9cc0fc04 	addi	r19,r19,1008
    2e94:	003cf406 	br	2268 <__alt_mem_onchip_flash_0_data+0xf0f02268>
    2e98:	d9412917 	ldw	r5,1188(sp)
    2e9c:	8809883a 	mov	r4,r17
    2ea0:	d9811b04 	addi	r6,sp,1132
    2ea4:	00019080 	call	1908 <__sprint_r>
    2ea8:	103c371e 	bne	r2,zero,1f88 <__alt_mem_onchip_flash_0_data+0xf0f01f88>
    2eac:	da011d17 	ldw	r8,1140(sp)
    2eb0:	da400404 	addi	r9,sp,16
    2eb4:	003e1c06 	br	2728 <__alt_mem_onchip_flash_0_data+0xf0f02728>
    2eb8:	008000f4 	movhi	r2,3
    2ebc:	10810b04 	addi	r2,r2,1068
    2ec0:	48800015 	stw	r2,0(r9)
    2ec4:	00800044 	movi	r2,1
    2ec8:	48800115 	stw	r2,4(r9)
    2ecc:	4091883a 	add	r8,r8,r2
    2ed0:	1887883a 	add	r3,r3,r2
    2ed4:	da011d15 	stw	r8,1140(sp)
    2ed8:	d8c11c15 	stw	r3,1136(sp)
    2edc:	008001c4 	movi	r2,7
    2ee0:	10c0c316 	blt	r2,r3,31f0 <___vfprintf_internal_r+0x18b4>
    2ee4:	4a400204 	addi	r9,r9,8
    2ee8:	9000041e 	bne	r18,zero,2efc <___vfprintf_internal_r+0x15c0>
    2eec:	d8c13217 	ldw	r3,1224(sp)
    2ef0:	1800021e 	bne	r3,zero,2efc <___vfprintf_internal_r+0x15c0>
    2ef4:	8080004c 	andi	r2,r16,1
    2ef8:	103d7826 	beq	r2,zero,24dc <__alt_mem_onchip_flash_0_data+0xf0f024dc>
    2efc:	d8c11c17 	ldw	r3,1136(sp)
    2f00:	d9013717 	ldw	r4,1244(sp)
    2f04:	00800044 	movi	r2,1
    2f08:	48800115 	stw	r2,4(r9)
    2f0c:	49000015 	stw	r4,0(r9)
    2f10:	4091883a 	add	r8,r8,r2
    2f14:	1887883a 	add	r3,r3,r2
    2f18:	da011d15 	stw	r8,1140(sp)
    2f1c:	d8c11c15 	stw	r3,1136(sp)
    2f20:	008001c4 	movi	r2,7
    2f24:	10c12e16 	blt	r2,r3,33e0 <___vfprintf_internal_r+0x1aa4>
    2f28:	4a400204 	addi	r9,r9,8
    2f2c:	04a5c83a 	sub	r18,zero,r18
    2f30:	0480de0e 	bge	zero,r18,32ac <___vfprintf_internal_r+0x1970>
    2f34:	05800404 	movi	r22,16
    2f38:	050000f4 	movhi	r20,3
    2f3c:	a5010f84 	addi	r20,r20,1086
    2f40:	b480e20e 	bge	r22,r18,32cc <___vfprintf_internal_r+0x1990>
    2f44:	05c001c4 	movi	r23,7
    2f48:	df012917 	ldw	fp,1188(sp)
    2f4c:	00000306 	br	2f5c <___vfprintf_internal_r+0x1620>
    2f50:	4a400204 	addi	r9,r9,8
    2f54:	94bffc04 	addi	r18,r18,-16
    2f58:	b480dc0e 	bge	r22,r18,32cc <___vfprintf_internal_r+0x1990>
    2f5c:	4d000015 	stw	r20,0(r9)
    2f60:	4d800115 	stw	r22,4(r9)
    2f64:	42000404 	addi	r8,r8,16
    2f68:	18c00044 	addi	r3,r3,1
    2f6c:	da011d15 	stw	r8,1140(sp)
    2f70:	d8c11c15 	stw	r3,1136(sp)
    2f74:	b8fff60e 	bge	r23,r3,2f50 <__alt_mem_onchip_flash_0_data+0xf0f02f50>
    2f78:	8809883a 	mov	r4,r17
    2f7c:	e00b883a 	mov	r5,fp
    2f80:	d9811b04 	addi	r6,sp,1132
    2f84:	00019080 	call	1908 <__sprint_r>
    2f88:	103bff1e 	bne	r2,zero,1f88 <__alt_mem_onchip_flash_0_data+0xf0f01f88>
    2f8c:	da011d17 	ldw	r8,1140(sp)
    2f90:	d8c11c17 	ldw	r3,1136(sp)
    2f94:	da400404 	addi	r9,sp,16
    2f98:	003fee06 	br	2f54 <__alt_mem_onchip_flash_0_data+0xf0f02f54>
    2f9c:	da413c15 	stw	r9,1264(sp)
    2fa0:	00085b40 	call	85b4 <__isnand>
    2fa4:	da413c17 	ldw	r9,1264(sp)
    2fa8:	1000851e 	bne	r2,zero,31c0 <___vfprintf_internal_r+0x1884>
    2fac:	00bfffc4 	movi	r2,-1
    2fb0:	e0817626 	beq	fp,r2,358c <___vfprintf_internal_r+0x1c50>
    2fb4:	008019c4 	movi	r2,103
    2fb8:	90817126 	beq	r18,r2,3580 <___vfprintf_internal_r+0x1c44>
    2fbc:	008011c4 	movi	r2,71
    2fc0:	90816f26 	beq	r18,r2,3580 <___vfprintf_internal_r+0x1c44>
    2fc4:	82004014 	ori	r8,r16,256
    2fc8:	da012a15 	stw	r8,1192(sp)
    2fcc:	a0017116 	blt	r20,zero,3594 <___vfprintf_internal_r+0x1c58>
    2fd0:	d8012f05 	stb	zero,1212(sp)
    2fd4:	00801984 	movi	r2,102
    2fd8:	90811226 	beq	r18,r2,3424 <___vfprintf_internal_r+0x1ae8>
    2fdc:	00801184 	movi	r2,70
    2fe0:	90811026 	beq	r18,r2,3424 <___vfprintf_internal_r+0x1ae8>
    2fe4:	00801944 	movi	r2,101
    2fe8:	90819b26 	beq	r18,r2,3658 <___vfprintf_internal_r+0x1d1c>
    2fec:	00801144 	movi	r2,69
    2ff0:	90819926 	beq	r18,r2,3658 <___vfprintf_internal_r+0x1d1c>
    2ff4:	e02f883a 	mov	r23,fp
    2ff8:	d8812404 	addi	r2,sp,1168
    2ffc:	d8800115 	stw	r2,4(sp)
    3000:	d8812304 	addi	r2,sp,1164
    3004:	d8800215 	stw	r2,8(sp)
    3008:	d8812204 	addi	r2,sp,1160
    300c:	ddc00015 	stw	r23,0(sp)
    3010:	d8800315 	stw	r2,12(sp)
    3014:	8809883a 	mov	r4,r17
    3018:	b00b883a 	mov	r5,r22
    301c:	a00d883a 	mov	r6,r20
    3020:	01c00084 	movi	r7,2
    3024:	da413c15 	stw	r9,1264(sp)
    3028:	0003ad40 	call	3ad4 <_dtoa_r>
    302c:	1027883a 	mov	r19,r2
    3030:	008019c4 	movi	r2,103
    3034:	da413c17 	ldw	r9,1264(sp)
    3038:	90818c1e 	bne	r18,r2,366c <___vfprintf_internal_r+0x1d30>
    303c:	8080004c 	andi	r2,r16,1
    3040:	10017926 	beq	r2,zero,3628 <___vfprintf_internal_r+0x1cec>
    3044:	00801184 	movi	r2,70
    3048:	9dc7883a 	add	r3,r19,r23
    304c:	90810626 	beq	r18,r2,3468 <___vfprintf_internal_r+0x1b2c>
    3050:	b009883a 	mov	r4,r22
    3054:	a00b883a 	mov	r5,r20
    3058:	000d883a 	mov	r6,zero
    305c:	000f883a 	mov	r7,zero
    3060:	d8c13b15 	stw	r3,1260(sp)
    3064:	da413c15 	stw	r9,1264(sp)
    3068:	000a1700 	call	a170 <__eqdf2>
    306c:	d8c13b17 	ldw	r3,1260(sp)
    3070:	da413c17 	ldw	r9,1264(sp)
    3074:	10000726 	beq	r2,zero,3094 <___vfprintf_internal_r+0x1758>
    3078:	d8812217 	ldw	r2,1160(sp)
    307c:	10c1962e 	bgeu	r2,r3,36d8 <___vfprintf_internal_r+0x1d9c>
    3080:	01000c04 	movi	r4,48
    3084:	11000005 	stb	r4,0(r2)
    3088:	10800044 	addi	r2,r2,1
    308c:	d8812215 	stw	r2,1160(sp)
    3090:	10fffc1e 	bne	r2,r3,3084 <__alt_mem_onchip_flash_0_data+0xf0f03084>
    3094:	1cc7c83a 	sub	r3,r3,r19
    3098:	d8c13215 	stw	r3,1224(sp)
    309c:	008019c4 	movi	r2,103
    30a0:	90810626 	beq	r18,r2,34bc <___vfprintf_internal_r+0x1b80>
    30a4:	008011c4 	movi	r2,71
    30a8:	90810426 	beq	r18,r2,34bc <___vfprintf_internal_r+0x1b80>
    30ac:	00801984 	movi	r2,102
    30b0:	90819a1e 	bne	r18,r2,371c <___vfprintf_internal_r+0x1de0>
    30b4:	d8812417 	ldw	r2,1168(sp)
    30b8:	d8812b15 	stw	r2,1196(sp)
    30bc:	0081880e 	bge	zero,r2,36e0 <___vfprintf_internal_r+0x1da4>
    30c0:	e000021e 	bne	fp,zero,30cc <___vfprintf_internal_r+0x1790>
    30c4:	8400004c 	andi	r16,r16,1
    30c8:	80000426 	beq	r16,zero,30dc <___vfprintf_internal_r+0x17a0>
    30cc:	d8812b17 	ldw	r2,1196(sp)
    30d0:	e2000044 	addi	r8,fp,1
    30d4:	1205883a 	add	r2,r2,r8
    30d8:	d8812b15 	stw	r2,1196(sp)
    30dc:	d8812815 	stw	r2,1184(sp)
    30e0:	10011716 	blt	r2,zero,3540 <___vfprintf_internal_r+0x1c04>
    30e4:	ddc12f07 	ldb	r23,1212(sp)
    30e8:	b800ca26 	beq	r23,zero,3414 <___vfprintf_internal_r+0x1ad8>
    30ec:	00800b44 	movi	r2,45
    30f0:	d8812585 	stb	r2,1174(sp)
    30f4:	dc012a17 	ldw	r16,1192(sp)
    30f8:	d8013115 	stw	zero,1220(sp)
    30fc:	003afe06 	br	1cf8 <__alt_mem_onchip_flash_0_data+0xf0f01cf8>
    3100:	d8812b17 	ldw	r2,1196(sp)
    3104:	d8812815 	stw	r2,1184(sp)
    3108:	10005e16 	blt	r2,zero,3284 <___vfprintf_internal_r+0x1948>
    310c:	d8812583 	ldbu	r2,1174(sp)
    3110:	ddc12d15 	stw	r23,1204(sp)
    3114:	d8013115 	stw	zero,1220(sp)
    3118:	003af306 	br	1ce8 <__alt_mem_onchip_flash_0_data+0xf0f01ce8>
    311c:	d8812d17 	ldw	r2,1204(sp)
    3120:	15c00017 	ldw	r23,0(r2)
    3124:	10800104 	addi	r2,r2,4
    3128:	d8812d15 	stw	r2,1204(sp)
    312c:	b82dd7fa 	srai	r22,r23,31
    3130:	b005883a 	mov	r2,r22
    3134:	003b4906 	br	1e5c <__alt_mem_onchip_flash_0_data+0xf0f01e5c>
    3138:	d8c12d17 	ldw	r3,1204(sp)
    313c:	002d883a 	mov	r22,zero
    3140:	1dc00017 	ldw	r23,0(r3)
    3144:	18c00104 	addi	r3,r3,4
    3148:	d8c12d15 	stw	r3,1204(sp)
    314c:	b805883a 	mov	r2,r23
    3150:	00c00044 	movi	r3,1
    3154:	d8012585 	stb	zero,1174(sp)
    3158:	003acf06 	br	1c98 <__alt_mem_onchip_flash_0_data+0xf0f01c98>
    315c:	da012d17 	ldw	r8,1204(sp)
    3160:	002d883a 	mov	r22,zero
    3164:	45c00017 	ldw	r23,0(r8)
    3168:	42000104 	addi	r8,r8,4
    316c:	da012d15 	stw	r8,1204(sp)
    3170:	003be506 	br	2108 <__alt_mem_onchip_flash_0_data+0xf0f02108>
    3174:	da012d17 	ldw	r8,1204(sp)
    3178:	002d883a 	mov	r22,zero
    317c:	0007883a 	mov	r3,zero
    3180:	45c00017 	ldw	r23,0(r8)
    3184:	42000104 	addi	r8,r8,4
    3188:	da012d15 	stw	r8,1204(sp)
    318c:	b805883a 	mov	r2,r23
    3190:	d8012585 	stb	zero,1174(sp)
    3194:	003ac006 	br	1c98 <__alt_mem_onchip_flash_0_data+0xf0f01c98>
    3198:	d8c12d17 	ldw	r3,1204(sp)
    319c:	d9012c17 	ldw	r4,1200(sp)
    31a0:	18800017 	ldw	r2,0(r3)
    31a4:	18c00104 	addi	r3,r3,4
    31a8:	d8c12d15 	stw	r3,1204(sp)
    31ac:	11000015 	stw	r4,0(r2)
    31b0:	003a1806 	br	1a14 <__alt_mem_onchip_flash_0_data+0xf0f01a14>
    31b4:	073fffc4 	movi	fp,-1
    31b8:	202b883a 	mov	r21,r4
    31bc:	003a3e06 	br	1ab8 <__alt_mem_onchip_flash_0_data+0xf0f01ab8>
    31c0:	008011c4 	movi	r2,71
    31c4:	14809016 	blt	r2,r18,3408 <___vfprintf_internal_r+0x1acc>
    31c8:	04c000f4 	movhi	r19,3
    31cc:	9cc0fd04 	addi	r19,r19,1012
    31d0:	00c000c4 	movi	r3,3
    31d4:	00bfdfc4 	movi	r2,-129
    31d8:	80a0703a 	and	r16,r16,r2
    31dc:	d8c12815 	stw	r3,1184(sp)
    31e0:	d8812583 	ldbu	r2,1174(sp)
    31e4:	d8c12b15 	stw	r3,1196(sp)
    31e8:	d8013115 	stw	zero,1220(sp)
    31ec:	003abe06 	br	1ce8 <__alt_mem_onchip_flash_0_data+0xf0f01ce8>
    31f0:	d9412917 	ldw	r5,1188(sp)
    31f4:	8809883a 	mov	r4,r17
    31f8:	d9811b04 	addi	r6,sp,1132
    31fc:	00019080 	call	1908 <__sprint_r>
    3200:	103b611e 	bne	r2,zero,1f88 <__alt_mem_onchip_flash_0_data+0xf0f01f88>
    3204:	dc812417 	ldw	r18,1168(sp)
    3208:	da011d17 	ldw	r8,1140(sp)
    320c:	da400404 	addi	r9,sp,16
    3210:	003f3506 	br	2ee8 <__alt_mem_onchip_flash_0_data+0xf0f02ee8>
    3214:	ad400044 	addi	r21,r21,1
    3218:	84000814 	ori	r16,r16,32
    321c:	14800047 	ldb	r18,1(r2)
    3220:	003a2406 	br	1ab4 <__alt_mem_onchip_flash_0_data+0xf0f01ab4>
    3224:	d9412917 	ldw	r5,1188(sp)
    3228:	8809883a 	mov	r4,r17
    322c:	d9811b04 	addi	r6,sp,1132
    3230:	00019080 	call	1908 <__sprint_r>
    3234:	103b541e 	bne	r2,zero,1f88 <__alt_mem_onchip_flash_0_data+0xf0f01f88>
    3238:	da011d17 	ldw	r8,1140(sp)
    323c:	da400404 	addi	r9,sp,16
    3240:	003d4a06 	br	276c <__alt_mem_onchip_flash_0_data+0xf0f0276c>
    3244:	4d000015 	stw	r20,0(r9)
    3248:	4c800115 	stw	r18,4(r9)
    324c:	4491883a 	add	r8,r8,r18
    3250:	18c00044 	addi	r3,r3,1
    3254:	da011d15 	stw	r8,1140(sp)
    3258:	d8c11c15 	stw	r3,1136(sp)
    325c:	008001c4 	movi	r2,7
    3260:	10fcdc16 	blt	r2,r3,25d4 <__alt_mem_onchip_flash_0_data+0xf0f025d4>
    3264:	4a400204 	addi	r9,r9,8
    3268:	003ce106 	br	25f0 <__alt_mem_onchip_flash_0_data+0xf0f025f0>
    326c:	da413c15 	stw	r9,1264(sp)
    3270:	000187c0 	call	187c <strlen>
    3274:	d8812b15 	stw	r2,1196(sp)
    3278:	d8812815 	stw	r2,1184(sp)
    327c:	da413c17 	ldw	r9,1264(sp)
    3280:	103fa20e 	bge	r2,zero,310c <__alt_mem_onchip_flash_0_data+0xf0f0310c>
    3284:	d8012815 	stw	zero,1184(sp)
    3288:	003fa006 	br	310c <__alt_mem_onchip_flash_0_data+0xf0f0310c>
    328c:	d9412917 	ldw	r5,1188(sp)
    3290:	8809883a 	mov	r4,r17
    3294:	d9811b04 	addi	r6,sp,1132
    3298:	00019080 	call	1908 <__sprint_r>
    329c:	103b3a1e 	bne	r2,zero,1f88 <__alt_mem_onchip_flash_0_data+0xf0f01f88>
    32a0:	da011d17 	ldw	r8,1140(sp)
    32a4:	d8c11c17 	ldw	r3,1136(sp)
    32a8:	da400404 	addi	r9,sp,16
    32ac:	d8813217 	ldw	r2,1224(sp)
    32b0:	4cc00015 	stw	r19,0(r9)
    32b4:	48800115 	stw	r2,4(r9)
    32b8:	4091883a 	add	r8,r8,r2
    32bc:	003c8106 	br	24c4 <__alt_mem_onchip_flash_0_data+0xf0f024c4>
    32c0:	00800b44 	movi	r2,45
    32c4:	d8812585 	stb	r2,1174(sp)
    32c8:	003be306 	br	2258 <__alt_mem_onchip_flash_0_data+0xf0f02258>
    32cc:	4d000015 	stw	r20,0(r9)
    32d0:	4c800115 	stw	r18,4(r9)
    32d4:	4491883a 	add	r8,r8,r18
    32d8:	18c00044 	addi	r3,r3,1
    32dc:	da011d15 	stw	r8,1140(sp)
    32e0:	d8c11c15 	stw	r3,1136(sp)
    32e4:	008001c4 	movi	r2,7
    32e8:	10ffe816 	blt	r2,r3,328c <__alt_mem_onchip_flash_0_data+0xf0f0328c>
    32ec:	4a400204 	addi	r9,r9,8
    32f0:	003fee06 	br	32ac <__alt_mem_onchip_flash_0_data+0xf0f032ac>
    32f4:	df012b15 	stw	fp,1196(sp)
    32f8:	00800184 	movi	r2,6
    32fc:	1700072e 	bgeu	r2,fp,331c <___vfprintf_internal_r+0x19e0>
    3300:	d8812b15 	stw	r2,1196(sp)
    3304:	d8812815 	stw	r2,1184(sp)
    3308:	ddc12d15 	stw	r23,1204(sp)
    330c:	04c000f4 	movhi	r19,3
    3310:	9cc10904 	addi	r19,r19,1060
    3314:	d8013115 	stw	zero,1220(sp)
    3318:	003a7a06 	br	1d04 <__alt_mem_onchip_flash_0_data+0xf0f01d04>
    331c:	d8812b17 	ldw	r2,1196(sp)
    3320:	d8812815 	stw	r2,1184(sp)
    3324:	103ff80e 	bge	r2,zero,3308 <__alt_mem_onchip_flash_0_data+0xf0f03308>
    3328:	d8012815 	stw	zero,1184(sp)
    332c:	003ff606 	br	3308 <__alt_mem_onchip_flash_0_data+0xf0f03308>
    3330:	d9012d17 	ldw	r4,1204(sp)
    3334:	da012c17 	ldw	r8,1200(sp)
    3338:	20800017 	ldw	r2,0(r4)
    333c:	21000104 	addi	r4,r4,4
    3340:	d9012d15 	stw	r4,1204(sp)
    3344:	12000015 	stw	r8,0(r2)
    3348:	0039b206 	br	1a14 <__alt_mem_onchip_flash_0_data+0xf0f01a14>
    334c:	d9412917 	ldw	r5,1188(sp)
    3350:	8809883a 	mov	r4,r17
    3354:	d9811b04 	addi	r6,sp,1132
    3358:	00019080 	call	1908 <__sprint_r>
    335c:	103b0a1e 	bne	r2,zero,1f88 <__alt_mem_onchip_flash_0_data+0xf0f01f88>
    3360:	dc812417 	ldw	r18,1168(sp)
    3364:	da011d17 	ldw	r8,1140(sp)
    3368:	da400404 	addi	r9,sp,16
    336c:	003def06 	br	2b2c <__alt_mem_onchip_flash_0_data+0xf0f02b2c>
    3370:	d9412917 	ldw	r5,1188(sp)
    3374:	8809883a 	mov	r4,r17
    3378:	d9811b04 	addi	r6,sp,1132
    337c:	00019080 	call	1908 <__sprint_r>
    3380:	103b011e 	bne	r2,zero,1f88 <__alt_mem_onchip_flash_0_data+0xf0f01f88>
    3384:	dc812417 	ldw	r18,1168(sp)
    3388:	da400404 	addi	r9,sp,16
    338c:	003eb906 	br	2e74 <__alt_mem_onchip_flash_0_data+0xf0f02e74>
    3390:	d9412917 	ldw	r5,1188(sp)
    3394:	8809883a 	mov	r4,r17
    3398:	d9811b04 	addi	r6,sp,1132
    339c:	00019080 	call	1908 <__sprint_r>
    33a0:	103af91e 	bne	r2,zero,1f88 <__alt_mem_onchip_flash_0_data+0xf0f01f88>
    33a4:	dc812417 	ldw	r18,1168(sp)
    33a8:	da011d17 	ldw	r8,1140(sp)
    33ac:	d8c11c17 	ldw	r3,1136(sp)
    33b0:	da400404 	addi	r9,sp,16
    33b4:	003ea306 	br	2e44 <__alt_mem_onchip_flash_0_data+0xf0f02e44>
    33b8:	00800244 	movi	r2,9
    33bc:	15fda636 	bltu	r2,r23,2a58 <__alt_mem_onchip_flash_0_data+0xf0f02a58>
    33c0:	dd010e04 	addi	r20,sp,1080
    33c4:	003dc206 	br	2ad0 <__alt_mem_onchip_flash_0_data+0xf0f02ad0>
    33c8:	df012815 	stw	fp,1184(sp)
    33cc:	d8812583 	ldbu	r2,1174(sp)
    33d0:	df012b15 	stw	fp,1196(sp)
    33d4:	ddc12d15 	stw	r23,1204(sp)
    33d8:	d8013115 	stw	zero,1220(sp)
    33dc:	003a4206 	br	1ce8 <__alt_mem_onchip_flash_0_data+0xf0f01ce8>
    33e0:	d9412917 	ldw	r5,1188(sp)
    33e4:	8809883a 	mov	r4,r17
    33e8:	d9811b04 	addi	r6,sp,1132
    33ec:	00019080 	call	1908 <__sprint_r>
    33f0:	103ae51e 	bne	r2,zero,1f88 <__alt_mem_onchip_flash_0_data+0xf0f01f88>
    33f4:	dc812417 	ldw	r18,1168(sp)
    33f8:	da011d17 	ldw	r8,1140(sp)
    33fc:	d8c11c17 	ldw	r3,1136(sp)
    3400:	da400404 	addi	r9,sp,16
    3404:	003ec906 	br	2f2c <__alt_mem_onchip_flash_0_data+0xf0f02f2c>
    3408:	04c000f4 	movhi	r19,3
    340c:	9cc0fe04 	addi	r19,r19,1016
    3410:	003f6f06 	br	31d0 <__alt_mem_onchip_flash_0_data+0xf0f031d0>
    3414:	d8812583 	ldbu	r2,1174(sp)
    3418:	dc012a17 	ldw	r16,1192(sp)
    341c:	d8013115 	stw	zero,1220(sp)
    3420:	003a3106 	br	1ce8 <__alt_mem_onchip_flash_0_data+0xf0f01ce8>
    3424:	d8812404 	addi	r2,sp,1168
    3428:	d8800115 	stw	r2,4(sp)
    342c:	d8812304 	addi	r2,sp,1164
    3430:	d8800215 	stw	r2,8(sp)
    3434:	d8812204 	addi	r2,sp,1160
    3438:	df000015 	stw	fp,0(sp)
    343c:	d8800315 	stw	r2,12(sp)
    3440:	8809883a 	mov	r4,r17
    3444:	b00b883a 	mov	r5,r22
    3448:	a00d883a 	mov	r6,r20
    344c:	01c000c4 	movi	r7,3
    3450:	da413c15 	stw	r9,1264(sp)
    3454:	0003ad40 	call	3ad4 <_dtoa_r>
    3458:	da413c17 	ldw	r9,1264(sp)
    345c:	1027883a 	mov	r19,r2
    3460:	1707883a 	add	r3,r2,fp
    3464:	e02f883a 	mov	r23,fp
    3468:	99000007 	ldb	r4,0(r19)
    346c:	00800c04 	movi	r2,48
    3470:	20800326 	beq	r4,r2,3480 <___vfprintf_internal_r+0x1b44>
    3474:	da812417 	ldw	r10,1168(sp)
    3478:	1a87883a 	add	r3,r3,r10
    347c:	003ef406 	br	3050 <__alt_mem_onchip_flash_0_data+0xf0f03050>
    3480:	b009883a 	mov	r4,r22
    3484:	a00b883a 	mov	r5,r20
    3488:	000d883a 	mov	r6,zero
    348c:	000f883a 	mov	r7,zero
    3490:	d8c13b15 	stw	r3,1260(sp)
    3494:	da413c15 	stw	r9,1264(sp)
    3498:	000a1cc0 	call	a1cc <__nedf2>
    349c:	d8c13b17 	ldw	r3,1260(sp)
    34a0:	da413c17 	ldw	r9,1264(sp)
    34a4:	103ff326 	beq	r2,zero,3474 <__alt_mem_onchip_flash_0_data+0xf0f03474>
    34a8:	00800044 	movi	r2,1
    34ac:	15d5c83a 	sub	r10,r2,r23
    34b0:	da812415 	stw	r10,1168(sp)
    34b4:	1a87883a 	add	r3,r3,r10
    34b8:	003ee506 	br	3050 <__alt_mem_onchip_flash_0_data+0xf0f03050>
    34bc:	d8812417 	ldw	r2,1168(sp)
    34c0:	d8812b15 	stw	r2,1196(sp)
    34c4:	1029883a 	mov	r20,r2
    34c8:	00bfff44 	movi	r2,-3
    34cc:	a0800116 	blt	r20,r2,34d4 <___vfprintf_internal_r+0x1b98>
    34d0:	e5001d0e 	bge	fp,r20,3548 <___vfprintf_internal_r+0x1c0c>
    34d4:	94bfff84 	addi	r18,r18,-2
    34d8:	a53fffc4 	addi	r20,r20,-1
    34dc:	dd012415 	stw	r20,1168(sp)
    34e0:	dc811fc5 	stb	r18,1151(sp)
    34e4:	a0007816 	blt	r20,zero,36c8 <___vfprintf_internal_r+0x1d8c>
    34e8:	00800ac4 	movi	r2,43
    34ec:	d8812005 	stb	r2,1152(sp)
    34f0:	00800244 	movi	r2,9
    34f4:	15002b16 	blt	r2,r20,35a4 <___vfprintf_internal_r+0x1c68>
    34f8:	00800c04 	movi	r2,48
    34fc:	a5000c04 	addi	r20,r20,48
    3500:	d8812045 	stb	r2,1153(sp)
    3504:	dd012085 	stb	r20,1154(sp)
    3508:	d8c120c4 	addi	r3,sp,1155
    350c:	d8811fc4 	addi	r2,sp,1151
    3510:	da013217 	ldw	r8,1224(sp)
    3514:	1885c83a 	sub	r2,r3,r2
    3518:	d8813515 	stw	r2,1236(sp)
    351c:	4085883a 	add	r2,r8,r2
    3520:	d8812b15 	stw	r2,1196(sp)
    3524:	00800044 	movi	r2,1
    3528:	1200610e 	bge	r2,r8,36b0 <___vfprintf_internal_r+0x1d74>
    352c:	d8812b17 	ldw	r2,1196(sp)
    3530:	10800044 	addi	r2,r2,1
    3534:	d8812b15 	stw	r2,1196(sp)
    3538:	d8812815 	stw	r2,1184(sp)
    353c:	103ee90e 	bge	r2,zero,30e4 <__alt_mem_onchip_flash_0_data+0xf0f030e4>
    3540:	d8012815 	stw	zero,1184(sp)
    3544:	003ee706 	br	30e4 <__alt_mem_onchip_flash_0_data+0xf0f030e4>
    3548:	d8812b17 	ldw	r2,1196(sp)
    354c:	da013217 	ldw	r8,1224(sp)
    3550:	12003716 	blt	r2,r8,3630 <___vfprintf_internal_r+0x1cf4>
    3554:	8400004c 	andi	r16,r16,1
    3558:	80000326 	beq	r16,zero,3568 <___vfprintf_internal_r+0x1c2c>
    355c:	d8812b17 	ldw	r2,1196(sp)
    3560:	10800044 	addi	r2,r2,1
    3564:	d8812b15 	stw	r2,1196(sp)
    3568:	d8812815 	stw	r2,1184(sp)
    356c:	10003716 	blt	r2,zero,364c <___vfprintf_internal_r+0x1d10>
    3570:	048019c4 	movi	r18,103
    3574:	003edb06 	br	30e4 <__alt_mem_onchip_flash_0_data+0xf0f030e4>
    3578:	d8012815 	stw	zero,1184(sp)
    357c:	003b6906 	br	2324 <__alt_mem_onchip_flash_0_data+0xf0f02324>
    3580:	e03e901e 	bne	fp,zero,2fc4 <__alt_mem_onchip_flash_0_data+0xf0f02fc4>
    3584:	07000044 	movi	fp,1
    3588:	003e8e06 	br	2fc4 <__alt_mem_onchip_flash_0_data+0xf0f02fc4>
    358c:	07000184 	movi	fp,6
    3590:	003e8c06 	br	2fc4 <__alt_mem_onchip_flash_0_data+0xf0f02fc4>
    3594:	00c00b44 	movi	r3,45
    3598:	a520003c 	xorhi	r20,r20,32768
    359c:	d8c12f05 	stb	r3,1212(sp)
    35a0:	003e8c06 	br	2fd4 <__alt_mem_onchip_flash_0_data+0xf0f02fd4>
    35a4:	d8c11f84 	addi	r3,sp,1150
    35a8:	102f883a 	mov	r23,r2
    35ac:	4839883a 	mov	fp,r9
    35b0:	a009883a 	mov	r4,r20
    35b4:	01400284 	movi	r5,10
    35b8:	182d883a 	mov	r22,r3
    35bc:	00016740 	call	1674 <__modsi3>
    35c0:	10800c04 	addi	r2,r2,48
    35c4:	a009883a 	mov	r4,r20
    35c8:	b0800005 	stb	r2,0(r22)
    35cc:	01400284 	movi	r5,10
    35d0:	00016240 	call	1624 <__divsi3>
    35d4:	1029883a 	mov	r20,r2
    35d8:	b0ffffc4 	addi	r3,r22,-1
    35dc:	b8bff416 	blt	r23,r2,35b0 <__alt_mem_onchip_flash_0_data+0xf0f035b0>
    35e0:	11400c04 	addi	r5,r2,48
    35e4:	b17fffc5 	stb	r5,-1(r22)
    35e8:	d8811fc4 	addi	r2,sp,1151
    35ec:	e013883a 	mov	r9,fp
    35f0:	1880482e 	bgeu	r3,r2,3714 <___vfprintf_internal_r+0x1dd8>
    35f4:	b007883a 	mov	r3,r22
    35f8:	d9012044 	addi	r4,sp,1153
    35fc:	00000206 	br	3608 <___vfprintf_internal_r+0x1ccc>
    3600:	19400003 	ldbu	r5,0(r3)
    3604:	18c00044 	addi	r3,r3,1
    3608:	21400005 	stb	r5,0(r4)
    360c:	21000044 	addi	r4,r4,1
    3610:	10fffb1e 	bne	r2,r3,3600 <__alt_mem_onchip_flash_0_data+0xf0f03600>
    3614:	d8c12004 	addi	r3,sp,1152
    3618:	1d87c83a 	sub	r3,r3,r22
    361c:	d9012044 	addi	r4,sp,1153
    3620:	20c7883a 	add	r3,r4,r3
    3624:	003fba06 	br	3510 <__alt_mem_onchip_flash_0_data+0xf0f03510>
    3628:	d8c12217 	ldw	r3,1160(sp)
    362c:	003e9906 	br	3094 <__alt_mem_onchip_flash_0_data+0xf0f03094>
    3630:	05000b0e 	bge	zero,r20,3660 <___vfprintf_internal_r+0x1d24>
    3634:	05000044 	movi	r20,1
    3638:	da013217 	ldw	r8,1224(sp)
    363c:	a229883a 	add	r20,r20,r8
    3640:	dd012b15 	stw	r20,1196(sp)
    3644:	dd012815 	stw	r20,1184(sp)
    3648:	a03fc90e 	bge	r20,zero,3570 <__alt_mem_onchip_flash_0_data+0xf0f03570>
    364c:	d8012815 	stw	zero,1184(sp)
    3650:	048019c4 	movi	r18,103
    3654:	003ea306 	br	30e4 <__alt_mem_onchip_flash_0_data+0xf0f030e4>
    3658:	e5c00044 	addi	r23,fp,1
    365c:	003e6606 	br	2ff8 <__alt_mem_onchip_flash_0_data+0xf0f02ff8>
    3660:	00800084 	movi	r2,2
    3664:	1529c83a 	sub	r20,r2,r20
    3668:	003ff306 	br	3638 <__alt_mem_onchip_flash_0_data+0xf0f03638>
    366c:	008011c4 	movi	r2,71
    3670:	90be7226 	beq	r18,r2,303c <__alt_mem_onchip_flash_0_data+0xf0f0303c>
    3674:	003e7306 	br	3044 <__alt_mem_onchip_flash_0_data+0xf0f03044>
    3678:	d8812d17 	ldw	r2,1204(sp)
    367c:	ac800043 	ldbu	r18,1(r21)
    3680:	202b883a 	mov	r21,r4
    3684:	17000017 	ldw	fp,0(r2)
    3688:	10800104 	addi	r2,r2,4
    368c:	d8812d15 	stw	r2,1204(sp)
    3690:	e0001b16 	blt	fp,zero,3700 <___vfprintf_internal_r+0x1dc4>
    3694:	94803fcc 	andi	r18,r18,255
    3698:	9480201c 	xori	r18,r18,128
    369c:	94bfe004 	addi	r18,r18,-128
    36a0:	00390406 	br	1ab4 <__alt_mem_onchip_flash_0_data+0xf0f01ab4>
    36a4:	00bfffc4 	movi	r2,-1
    36a8:	d8812c15 	stw	r2,1200(sp)
    36ac:	003a2506 	br	1f44 <__alt_mem_onchip_flash_0_data+0xf0f01f44>
    36b0:	80a0703a 	and	r16,r16,r2
    36b4:	803f9d1e 	bne	r16,zero,352c <__alt_mem_onchip_flash_0_data+0xf0f0352c>
    36b8:	d8812b17 	ldw	r2,1196(sp)
    36bc:	d8812815 	stw	r2,1184(sp)
    36c0:	103e880e 	bge	r2,zero,30e4 <__alt_mem_onchip_flash_0_data+0xf0f030e4>
    36c4:	003f9e06 	br	3540 <__alt_mem_onchip_flash_0_data+0xf0f03540>
    36c8:	00800b44 	movi	r2,45
    36cc:	0529c83a 	sub	r20,zero,r20
    36d0:	d8812005 	stb	r2,1152(sp)
    36d4:	003f8606 	br	34f0 <__alt_mem_onchip_flash_0_data+0xf0f034f0>
    36d8:	1007883a 	mov	r3,r2
    36dc:	003e6d06 	br	3094 <__alt_mem_onchip_flash_0_data+0xf0f03094>
    36e0:	e000021e 	bne	fp,zero,36ec <___vfprintf_internal_r+0x1db0>
    36e4:	8400004c 	andi	r16,r16,1
    36e8:	80000e26 	beq	r16,zero,3724 <___vfprintf_internal_r+0x1de8>
    36ec:	e7000084 	addi	fp,fp,2
    36f0:	df012b15 	stw	fp,1196(sp)
    36f4:	df012815 	stw	fp,1184(sp)
    36f8:	e03e7a0e 	bge	fp,zero,30e4 <__alt_mem_onchip_flash_0_data+0xf0f030e4>
    36fc:	003f9006 	br	3540 <__alt_mem_onchip_flash_0_data+0xf0f03540>
    3700:	94803fcc 	andi	r18,r18,255
    3704:	9480201c 	xori	r18,r18,128
    3708:	073fffc4 	movi	fp,-1
    370c:	94bfe004 	addi	r18,r18,-128
    3710:	0038e806 	br	1ab4 <__alt_mem_onchip_flash_0_data+0xf0f01ab4>
    3714:	d8c12044 	addi	r3,sp,1153
    3718:	003f7d06 	br	3510 <__alt_mem_onchip_flash_0_data+0xf0f03510>
    371c:	dd012417 	ldw	r20,1168(sp)
    3720:	003f6d06 	br	34d8 <__alt_mem_onchip_flash_0_data+0xf0f034d8>
    3724:	00c00044 	movi	r3,1
    3728:	d8c12815 	stw	r3,1184(sp)
    372c:	d8c12b15 	stw	r3,1196(sp)
    3730:	003e6c06 	br	30e4 <__alt_mem_onchip_flash_0_data+0xf0f030e4>

00003734 <__vfprintf_internal>:
    3734:	008000f4 	movhi	r2,3
    3738:	1088af04 	addi	r2,r2,8892
    373c:	2007883a 	mov	r3,r4
    3740:	11000017 	ldw	r4,0(r2)
    3744:	2805883a 	mov	r2,r5
    3748:	300f883a 	mov	r7,r6
    374c:	180b883a 	mov	r5,r3
    3750:	100d883a 	mov	r6,r2
    3754:	000193c1 	jmpi	193c <___vfprintf_internal_r>

00003758 <__swsetup_r>:
    3758:	008000f4 	movhi	r2,3
    375c:	1088af04 	addi	r2,r2,8892
    3760:	10800017 	ldw	r2,0(r2)
    3764:	defffd04 	addi	sp,sp,-12
    3768:	dc400115 	stw	r17,4(sp)
    376c:	dc000015 	stw	r16,0(sp)
    3770:	dfc00215 	stw	ra,8(sp)
    3774:	2023883a 	mov	r17,r4
    3778:	2821883a 	mov	r16,r5
    377c:	10000226 	beq	r2,zero,3788 <__swsetup_r+0x30>
    3780:	10c00e17 	ldw	r3,56(r2)
    3784:	18003d26 	beq	r3,zero,387c <__swsetup_r+0x124>
    3788:	8080030b 	ldhu	r2,12(r16)
    378c:	10c0020c 	andi	r3,r2,8
    3790:	18ffffcc 	andi	r3,r3,65535
    3794:	18e0001c 	xori	r3,r3,32768
    3798:	18e00004 	addi	r3,r3,-32768
    379c:	18001226 	beq	r3,zero,37e8 <__swsetup_r+0x90>
    37a0:	80c00417 	ldw	r3,16(r16)
    37a4:	18001f26 	beq	r3,zero,3824 <__swsetup_r+0xcc>
    37a8:	1100004c 	andi	r4,r2,1
    37ac:	2000261e 	bne	r4,zero,3848 <__swsetup_r+0xf0>
    37b0:	1080008c 	andi	r2,r2,2
    37b4:	10bfffcc 	andi	r2,r2,65535
    37b8:	10a0001c 	xori	r2,r2,32768
    37bc:	10a00004 	addi	r2,r2,-32768
    37c0:	1000311e 	bne	r2,zero,3888 <__swsetup_r+0x130>
    37c4:	80800517 	ldw	r2,20(r16)
    37c8:	80800215 	stw	r2,8(r16)
    37cc:	18002326 	beq	r3,zero,385c <__swsetup_r+0x104>
    37d0:	0005883a 	mov	r2,zero
    37d4:	dfc00217 	ldw	ra,8(sp)
    37d8:	dc400117 	ldw	r17,4(sp)
    37dc:	dc000017 	ldw	r16,0(sp)
    37e0:	dec00304 	addi	sp,sp,12
    37e4:	f800283a 	ret
    37e8:	10c0040c 	andi	r3,r2,16
    37ec:	18ffffcc 	andi	r3,r3,65535
    37f0:	18e0001c 	xori	r3,r3,32768
    37f4:	18e00004 	addi	r3,r3,-32768
    37f8:	18001e26 	beq	r3,zero,3874 <__swsetup_r+0x11c>
    37fc:	10c0010c 	andi	r3,r2,4
    3800:	18ffffcc 	andi	r3,r3,65535
    3804:	18e0001c 	xori	r3,r3,32768
    3808:	18e00004 	addi	r3,r3,-32768
    380c:	1800211e 	bne	r3,zero,3894 <__swsetup_r+0x13c>
    3810:	80c00417 	ldw	r3,16(r16)
    3814:	11400214 	ori	r5,r2,8
    3818:	8140030d 	sth	r5,12(r16)
    381c:	2805883a 	mov	r2,r5
    3820:	183fe11e 	bne	r3,zero,37a8 <__alt_mem_onchip_flash_0_data+0xf0f037a8>
    3824:	1140a00c 	andi	r5,r2,640
    3828:	01008004 	movi	r4,512
    382c:	293fde26 	beq	r5,r4,37a8 <__alt_mem_onchip_flash_0_data+0xf0f037a8>
    3830:	8809883a 	mov	r4,r17
    3834:	800b883a 	mov	r5,r16
    3838:	000610c0 	call	610c <__smakebuf_r>
    383c:	8080030b 	ldhu	r2,12(r16)
    3840:	80c00417 	ldw	r3,16(r16)
    3844:	003fd806 	br	37a8 <__alt_mem_onchip_flash_0_data+0xf0f037a8>
    3848:	80800517 	ldw	r2,20(r16)
    384c:	80000215 	stw	zero,8(r16)
    3850:	0085c83a 	sub	r2,zero,r2
    3854:	80800615 	stw	r2,24(r16)
    3858:	183fdd1e 	bne	r3,zero,37d0 <__alt_mem_onchip_flash_0_data+0xf0f037d0>
    385c:	8080030b 	ldhu	r2,12(r16)
    3860:	1080200c 	andi	r2,r2,128
    3864:	10bfffcc 	andi	r2,r2,65535
    3868:	10a0001c 	xori	r2,r2,32768
    386c:	10a00004 	addi	r2,r2,-32768
    3870:	103fd826 	beq	r2,zero,37d4 <__alt_mem_onchip_flash_0_data+0xf0f037d4>
    3874:	00bfffc4 	movi	r2,-1
    3878:	003fd606 	br	37d4 <__alt_mem_onchip_flash_0_data+0xf0f037d4>
    387c:	1009883a 	mov	r4,r2
    3880:	00053980 	call	5398 <__sinit>
    3884:	003fc006 	br	3788 <__alt_mem_onchip_flash_0_data+0xf0f03788>
    3888:	0005883a 	mov	r2,zero
    388c:	80800215 	stw	r2,8(r16)
    3890:	003fce06 	br	37cc <__alt_mem_onchip_flash_0_data+0xf0f037cc>
    3894:	81400c17 	ldw	r5,48(r16)
    3898:	28000626 	beq	r5,zero,38b4 <__swsetup_r+0x15c>
    389c:	80c01004 	addi	r3,r16,64
    38a0:	28c00326 	beq	r5,r3,38b0 <__swsetup_r+0x158>
    38a4:	8809883a 	mov	r4,r17
    38a8:	000571c0 	call	571c <_free_r>
    38ac:	8080030b 	ldhu	r2,12(r16)
    38b0:	80000c15 	stw	zero,48(r16)
    38b4:	80c00417 	ldw	r3,16(r16)
    38b8:	013ff6c4 	movi	r4,-37
    38bc:	2084703a 	and	r2,r4,r2
    38c0:	80000115 	stw	zero,4(r16)
    38c4:	80c00015 	stw	r3,0(r16)
    38c8:	003fd206 	br	3814 <__alt_mem_onchip_flash_0_data+0xf0f03814>

000038cc <quorem>:
    38cc:	defff704 	addi	sp,sp,-36
    38d0:	dc400115 	stw	r17,4(sp)
    38d4:	20800417 	ldw	r2,16(r4)
    38d8:	2c400417 	ldw	r17,16(r5)
    38dc:	dd800615 	stw	r22,24(sp)
    38e0:	dd400515 	stw	r21,20(sp)
    38e4:	dfc00815 	stw	ra,32(sp)
    38e8:	ddc00715 	stw	r23,28(sp)
    38ec:	dd000415 	stw	r20,16(sp)
    38f0:	dcc00315 	stw	r19,12(sp)
    38f4:	dc800215 	stw	r18,8(sp)
    38f8:	dc000015 	stw	r16,0(sp)
    38fc:	202b883a 	mov	r21,r4
    3900:	282d883a 	mov	r22,r5
    3904:	14407116 	blt	r2,r17,3acc <quorem+0x200>
    3908:	88800104 	addi	r2,r17,4
    390c:	1085883a 	add	r2,r2,r2
    3910:	1085883a 	add	r2,r2,r2
    3914:	28a7883a 	add	r19,r5,r2
    3918:	2085883a 	add	r2,r4,r2
    391c:	15c00017 	ldw	r23,0(r2)
    3920:	99400017 	ldw	r5,0(r19)
    3924:	8c7fffc4 	addi	r17,r17,-1
    3928:	b809883a 	mov	r4,r23
    392c:	29400044 	addi	r5,r5,1
    3930:	00016d00 	call	16d0 <__udivsi3>
    3934:	1025883a 	mov	r18,r2
    3938:	b4000504 	addi	r16,r22,20
    393c:	ad000504 	addi	r20,r21,20
    3940:	10002d26 	beq	r2,zero,39f8 <quorem+0x12c>
    3944:	800d883a 	mov	r6,r16
    3948:	a007883a 	mov	r3,r20
    394c:	000f883a 	mov	r7,zero
    3950:	0005883a 	mov	r2,zero
    3954:	32c00017 	ldw	r11,0(r6)
    3958:	1a400017 	ldw	r9,0(r3)
    395c:	31800104 	addi	r6,r6,4
    3960:	5abfffcc 	andi	r10,r11,65535
    3964:	5495383a 	mul	r10,r10,r18
    3968:	5816d43a 	srli	r11,r11,16
    396c:	4a3fffcc 	andi	r8,r9,65535
    3970:	3a95883a 	add	r10,r7,r10
    3974:	500ed43a 	srli	r7,r10,16
    3978:	5c97383a 	mul	r11,r11,r18
    397c:	4085883a 	add	r2,r8,r2
    3980:	52bfffcc 	andi	r10,r10,65535
    3984:	1291c83a 	sub	r8,r2,r10
    3988:	4804d43a 	srli	r2,r9,16
    398c:	3acf883a 	add	r7,r7,r11
    3990:	4015d43a 	srai	r10,r8,16
    3994:	393fffcc 	andi	r4,r7,65535
    3998:	1105c83a 	sub	r2,r2,r4
    399c:	1285883a 	add	r2,r2,r10
    39a0:	1880008d 	sth	r2,2(r3)
    39a4:	1a00000d 	sth	r8,0(r3)
    39a8:	380ed43a 	srli	r7,r7,16
    39ac:	1005d43a 	srai	r2,r2,16
    39b0:	18c00104 	addi	r3,r3,4
    39b4:	99bfe72e 	bgeu	r19,r6,3954 <__alt_mem_onchip_flash_0_data+0xf0f03954>
    39b8:	b8000f1e 	bne	r23,zero,39f8 <quorem+0x12c>
    39bc:	88800144 	addi	r2,r17,5
    39c0:	1085883a 	add	r2,r2,r2
    39c4:	1085883a 	add	r2,r2,r2
    39c8:	a887883a 	add	r3,r21,r2
    39cc:	18bfff04 	addi	r2,r3,-4
    39d0:	a080082e 	bgeu	r20,r2,39f4 <quorem+0x128>
    39d4:	18ffff17 	ldw	r3,-4(r3)
    39d8:	18000326 	beq	r3,zero,39e8 <quorem+0x11c>
    39dc:	00000506 	br	39f4 <quorem+0x128>
    39e0:	10c00017 	ldw	r3,0(r2)
    39e4:	1800031e 	bne	r3,zero,39f4 <quorem+0x128>
    39e8:	10bfff04 	addi	r2,r2,-4
    39ec:	8c7fffc4 	addi	r17,r17,-1
    39f0:	a0bffb36 	bltu	r20,r2,39e0 <__alt_mem_onchip_flash_0_data+0xf0f039e0>
    39f4:	ac400415 	stw	r17,16(r21)
    39f8:	a809883a 	mov	r4,r21
    39fc:	b00b883a 	mov	r5,r22
    3a00:	00076d00 	call	76d0 <__mcmp>
    3a04:	10002516 	blt	r2,zero,3a9c <quorem+0x1d0>
    3a08:	94800044 	addi	r18,r18,1
    3a0c:	a007883a 	mov	r3,r20
    3a10:	000b883a 	mov	r5,zero
    3a14:	1a000017 	ldw	r8,0(r3)
    3a18:	81c00017 	ldw	r7,0(r16)
    3a1c:	84000104 	addi	r16,r16,4
    3a20:	41bfffcc 	andi	r6,r8,65535
    3a24:	38bfffcc 	andi	r2,r7,65535
    3a28:	314b883a 	add	r5,r6,r5
    3a2c:	288dc83a 	sub	r6,r5,r2
    3a30:	380ed43a 	srli	r7,r7,16
    3a34:	400ad43a 	srli	r5,r8,16
    3a38:	3005d43a 	srai	r2,r6,16
    3a3c:	1980000d 	sth	r6,0(r3)
    3a40:	29cbc83a 	sub	r5,r5,r7
    3a44:	288b883a 	add	r5,r5,r2
    3a48:	1940008d 	sth	r5,2(r3)
    3a4c:	280bd43a 	srai	r5,r5,16
    3a50:	18c00104 	addi	r3,r3,4
    3a54:	9c3fef2e 	bgeu	r19,r16,3a14 <__alt_mem_onchip_flash_0_data+0xf0f03a14>
    3a58:	88800144 	addi	r2,r17,5
    3a5c:	1085883a 	add	r2,r2,r2
    3a60:	1085883a 	add	r2,r2,r2
    3a64:	a885883a 	add	r2,r21,r2
    3a68:	10c00017 	ldw	r3,0(r2)
    3a6c:	18000b1e 	bne	r3,zero,3a9c <quorem+0x1d0>
    3a70:	10ffff04 	addi	r3,r2,-4
    3a74:	a0c0082e 	bgeu	r20,r3,3a98 <quorem+0x1cc>
    3a78:	10bfff17 	ldw	r2,-4(r2)
    3a7c:	10000326 	beq	r2,zero,3a8c <quorem+0x1c0>
    3a80:	00000506 	br	3a98 <quorem+0x1cc>
    3a84:	18800017 	ldw	r2,0(r3)
    3a88:	1000031e 	bne	r2,zero,3a98 <quorem+0x1cc>
    3a8c:	18ffff04 	addi	r3,r3,-4
    3a90:	8c7fffc4 	addi	r17,r17,-1
    3a94:	a0fffb36 	bltu	r20,r3,3a84 <__alt_mem_onchip_flash_0_data+0xf0f03a84>
    3a98:	ac400415 	stw	r17,16(r21)
    3a9c:	9005883a 	mov	r2,r18
    3aa0:	dfc00817 	ldw	ra,32(sp)
    3aa4:	ddc00717 	ldw	r23,28(sp)
    3aa8:	dd800617 	ldw	r22,24(sp)
    3aac:	dd400517 	ldw	r21,20(sp)
    3ab0:	dd000417 	ldw	r20,16(sp)
    3ab4:	dcc00317 	ldw	r19,12(sp)
    3ab8:	dc800217 	ldw	r18,8(sp)
    3abc:	dc400117 	ldw	r17,4(sp)
    3ac0:	dc000017 	ldw	r16,0(sp)
    3ac4:	dec00904 	addi	sp,sp,36
    3ac8:	f800283a 	ret
    3acc:	0005883a 	mov	r2,zero
    3ad0:	003ff306 	br	3aa0 <__alt_mem_onchip_flash_0_data+0xf0f03aa0>

00003ad4 <_dtoa_r>:
    3ad4:	20801017 	ldw	r2,64(r4)
    3ad8:	deffdf04 	addi	sp,sp,-132
    3adc:	dcc01a15 	stw	r19,104(sp)
    3ae0:	dc801915 	stw	r18,100(sp)
    3ae4:	dc401815 	stw	r17,96(sp)
    3ae8:	dc001715 	stw	r16,92(sp)
    3aec:	dfc02015 	stw	ra,128(sp)
    3af0:	df001f15 	stw	fp,124(sp)
    3af4:	ddc01e15 	stw	r23,120(sp)
    3af8:	dd801d15 	stw	r22,116(sp)
    3afc:	dd401c15 	stw	r21,112(sp)
    3b00:	dd001b15 	stw	r20,108(sp)
    3b04:	d9400315 	stw	r5,12(sp)
    3b08:	d9c00415 	stw	r7,16(sp)
    3b0c:	2021883a 	mov	r16,r4
    3b10:	3025883a 	mov	r18,r6
    3b14:	dcc02317 	ldw	r19,140(sp)
    3b18:	3023883a 	mov	r17,r6
    3b1c:	10000826 	beq	r2,zero,3b40 <_dtoa_r+0x6c>
    3b20:	20c01117 	ldw	r3,68(r4)
    3b24:	01800044 	movi	r6,1
    3b28:	100b883a 	mov	r5,r2
    3b2c:	30cc983a 	sll	r6,r6,r3
    3b30:	10c00115 	stw	r3,4(r2)
    3b34:	11800215 	stw	r6,8(r2)
    3b38:	0006ed40 	call	6ed4 <_Bfree>
    3b3c:	80001015 	stw	zero,64(r16)
    3b40:	90002f16 	blt	r18,zero,3c00 <_dtoa_r+0x12c>
    3b44:	98000015 	stw	zero,0(r19)
    3b48:	90dffc2c 	andhi	r3,r18,32752
    3b4c:	009ffc34 	movhi	r2,32752
    3b50:	18801c26 	beq	r3,r2,3bc4 <_dtoa_r+0xf0>
    3b54:	d9000317 	ldw	r4,12(sp)
    3b58:	880b883a 	mov	r5,r17
    3b5c:	000d883a 	mov	r6,zero
    3b60:	000f883a 	mov	r7,zero
    3b64:	000a1cc0 	call	a1cc <__nedf2>
    3b68:	10002c1e 	bne	r2,zero,3c1c <_dtoa_r+0x148>
    3b6c:	d9002217 	ldw	r4,136(sp)
    3b70:	d9c02417 	ldw	r7,144(sp)
    3b74:	00800044 	movi	r2,1
    3b78:	20800015 	stw	r2,0(r4)
    3b7c:	38019426 	beq	r7,zero,41d0 <_dtoa_r+0x6fc>
    3b80:	008000f4 	movhi	r2,3
    3b84:	10810b44 	addi	r2,r2,1069
    3b88:	38800015 	stw	r2,0(r7)
    3b8c:	15ffffc4 	addi	r23,r2,-1
    3b90:	b805883a 	mov	r2,r23
    3b94:	dfc02017 	ldw	ra,128(sp)
    3b98:	df001f17 	ldw	fp,124(sp)
    3b9c:	ddc01e17 	ldw	r23,120(sp)
    3ba0:	dd801d17 	ldw	r22,116(sp)
    3ba4:	dd401c17 	ldw	r21,112(sp)
    3ba8:	dd001b17 	ldw	r20,108(sp)
    3bac:	dcc01a17 	ldw	r19,104(sp)
    3bb0:	dc801917 	ldw	r18,100(sp)
    3bb4:	dc401817 	ldw	r17,96(sp)
    3bb8:	dc001717 	ldw	r16,92(sp)
    3bbc:	dec02104 	addi	sp,sp,132
    3bc0:	f800283a 	ret
    3bc4:	d8c02217 	ldw	r3,136(sp)
    3bc8:	d9000317 	ldw	r4,12(sp)
    3bcc:	0089c3c4 	movi	r2,9999
    3bd0:	18800015 	stw	r2,0(r3)
    3bd4:	20016c26 	beq	r4,zero,4188 <_dtoa_r+0x6b4>
    3bd8:	05c000f4 	movhi	r23,3
    3bdc:	bdc11704 	addi	r23,r23,1116
    3be0:	d9c02417 	ldw	r7,144(sp)
    3be4:	383fea26 	beq	r7,zero,3b90 <__alt_mem_onchip_flash_0_data+0xf0f03b90>
    3be8:	b88000c7 	ldb	r2,3(r23)
    3bec:	10016d1e 	bne	r2,zero,41a4 <_dtoa_r+0x6d0>
    3bf0:	b88000c4 	addi	r2,r23,3
    3bf4:	d8c02417 	ldw	r3,144(sp)
    3bf8:	18800015 	stw	r2,0(r3)
    3bfc:	003fe406 	br	3b90 <__alt_mem_onchip_flash_0_data+0xf0f03b90>
    3c00:	04600034 	movhi	r17,32768
    3c04:	8c7fffc4 	addi	r17,r17,-1
    3c08:	9462703a 	and	r17,r18,r17
    3c0c:	00800044 	movi	r2,1
    3c10:	98800015 	stw	r2,0(r19)
    3c14:	8825883a 	mov	r18,r17
    3c18:	003fcb06 	br	3b48 <__alt_mem_onchip_flash_0_data+0xf0f03b48>
    3c1c:	d9400317 	ldw	r5,12(sp)
    3c20:	9028d53a 	srli	r20,r18,20
    3c24:	d8800204 	addi	r2,sp,8
    3c28:	d8800015 	stw	r2,0(sp)
    3c2c:	8009883a 	mov	r4,r16
    3c30:	880d883a 	mov	r6,r17
    3c34:	d9c00104 	addi	r7,sp,4
    3c38:	0007a780 	call	7a78 <__d2b>
    3c3c:	a501ffcc 	andi	r20,r20,2047
    3c40:	1039883a 	mov	fp,r2
    3c44:	a001591e 	bne	r20,zero,41ac <_dtoa_r+0x6d8>
    3c48:	dd400217 	ldw	r21,8(sp)
    3c4c:	dd000117 	ldw	r20,4(sp)
    3c50:	00befbc4 	movi	r2,-1041
    3c54:	ad29883a 	add	r20,r21,r20
    3c58:	a082d216 	blt	r20,r2,47a4 <_dtoa_r+0xcd0>
    3c5c:	d8c00317 	ldw	r3,12(sp)
    3c60:	013f0384 	movi	r4,-1010
    3c64:	2509c83a 	sub	r4,r4,r20
    3c68:	a0810484 	addi	r2,r20,1042
    3c6c:	9124983a 	sll	r18,r18,r4
    3c70:	1884d83a 	srl	r2,r3,r2
    3c74:	9088b03a 	or	r4,r18,r2
    3c78:	000a4e40 	call	a4e4 <__floatunsidf>
    3c7c:	1009883a 	mov	r4,r2
    3c80:	017f8434 	movhi	r5,65040
    3c84:	00800044 	movi	r2,1
    3c88:	194b883a 	add	r5,r3,r5
    3c8c:	a53fffc4 	addi	r20,r20,-1
    3c90:	d8800f15 	stw	r2,60(sp)
    3c94:	000d883a 	mov	r6,zero
    3c98:	01cffe34 	movhi	r7,16376
    3c9c:	0009cfc0 	call	9cfc <__subdf3>
    3ca0:	1009883a 	mov	r4,r2
    3ca4:	180b883a 	mov	r5,r3
    3ca8:	0198dbf4 	movhi	r6,25455
    3cac:	3190d844 	addi	r6,r6,17249
    3cb0:	01cff4f4 	movhi	r7,16339
    3cb4:	39e1e9c4 	addi	r7,r7,-30809
    3cb8:	0009d5c0 	call	9d5c <__muldf3>
    3cbc:	180b883a 	mov	r5,r3
    3cc0:	01a2d874 	movhi	r6,35681
    3cc4:	31b22cc4 	addi	r6,r6,-14157
    3cc8:	01cff1f4 	movhi	r7,16327
    3ccc:	39e28a04 	addi	r7,r7,-30168
    3cd0:	1009883a 	mov	r4,r2
    3cd4:	0009ca80 	call	9ca8 <__adddf3>
    3cd8:	a009883a 	mov	r4,r20
    3cdc:	1027883a 	mov	r19,r2
    3ce0:	1825883a 	mov	r18,r3
    3ce4:	000a34c0 	call	a34c <__floatsidf>
    3ce8:	1009883a 	mov	r4,r2
    3cec:	180b883a 	mov	r5,r3
    3cf0:	019427f4 	movhi	r6,20639
    3cf4:	319e7ec4 	addi	r6,r6,31227
    3cf8:	01cff4f4 	movhi	r7,16339
    3cfc:	39d104c4 	addi	r7,r7,17427
    3d00:	0009d5c0 	call	9d5c <__muldf3>
    3d04:	9809883a 	mov	r4,r19
    3d08:	900b883a 	mov	r5,r18
    3d0c:	100d883a 	mov	r6,r2
    3d10:	180f883a 	mov	r7,r3
    3d14:	0009ca80 	call	9ca8 <__adddf3>
    3d18:	1009883a 	mov	r4,r2
    3d1c:	180b883a 	mov	r5,r3
    3d20:	1027883a 	mov	r19,r2
    3d24:	1825883a 	mov	r18,r3
    3d28:	000a4200 	call	a420 <__fixdfsi>
    3d2c:	9809883a 	mov	r4,r19
    3d30:	900b883a 	mov	r5,r18
    3d34:	000d883a 	mov	r6,zero
    3d38:	000f883a 	mov	r7,zero
    3d3c:	d8800615 	stw	r2,24(sp)
    3d40:	000a2f00 	call	a2f0 <__ltdf2>
    3d44:	10027e16 	blt	r2,zero,4740 <_dtoa_r+0xc6c>
    3d48:	d8c00617 	ldw	r3,24(sp)
    3d4c:	00800584 	movi	r2,22
    3d50:	10c26c36 	bltu	r2,r3,4704 <_dtoa_r+0xc30>
    3d54:	180490fa 	slli	r2,r3,3
    3d58:	00c000f4 	movhi	r3,3
    3d5c:	18c13d04 	addi	r3,r3,1268
    3d60:	d9800317 	ldw	r6,12(sp)
    3d64:	1885883a 	add	r2,r3,r2
    3d68:	11000017 	ldw	r4,0(r2)
    3d6c:	11400117 	ldw	r5,4(r2)
    3d70:	880f883a 	mov	r7,r17
    3d74:	000a2280 	call	a228 <__gtdf2>
    3d78:	00828f0e 	bge	zero,r2,47b8 <_dtoa_r+0xce4>
    3d7c:	d8800617 	ldw	r2,24(sp)
    3d80:	d8000d15 	stw	zero,52(sp)
    3d84:	10bfffc4 	addi	r2,r2,-1
    3d88:	d8800615 	stw	r2,24(sp)
    3d8c:	ad29c83a 	sub	r20,r21,r20
    3d90:	a53fffc4 	addi	r20,r20,-1
    3d94:	a0026616 	blt	r20,zero,4730 <_dtoa_r+0xc5c>
    3d98:	dd000715 	stw	r20,28(sp)
    3d9c:	d8000815 	stw	zero,32(sp)
    3da0:	d8800617 	ldw	r2,24(sp)
    3da4:	10025a16 	blt	r2,zero,4710 <_dtoa_r+0xc3c>
    3da8:	d8c00717 	ldw	r3,28(sp)
    3dac:	d8800b15 	stw	r2,44(sp)
    3db0:	d8000a15 	stw	zero,40(sp)
    3db4:	1887883a 	add	r3,r3,r2
    3db8:	d8c00715 	stw	r3,28(sp)
    3dbc:	d9c00417 	ldw	r7,16(sp)
    3dc0:	00800244 	movi	r2,9
    3dc4:	11c10536 	bltu	r2,r7,41dc <_dtoa_r+0x708>
    3dc8:	00800144 	movi	r2,5
    3dcc:	11c4c60e 	bge	r2,r7,50e8 <_dtoa_r+0x1614>
    3dd0:	39ffff04 	addi	r7,r7,-4
    3dd4:	d9c00415 	stw	r7,16(sp)
    3dd8:	0027883a 	mov	r19,zero
    3ddc:	d9c00417 	ldw	r7,16(sp)
    3de0:	008000c4 	movi	r2,3
    3de4:	3883a226 	beq	r7,r2,4c70 <_dtoa_r+0x119c>
    3de8:	11c2bc16 	blt	r2,r7,48dc <_dtoa_r+0xe08>
    3dec:	00800084 	movi	r2,2
    3df0:	3880fb1e 	bne	r7,r2,41e0 <_dtoa_r+0x70c>
    3df4:	d8000c15 	stw	zero,48(sp)
    3df8:	d9002117 	ldw	r4,132(sp)
    3dfc:	0103ae0e 	bge	zero,r4,4cb8 <_dtoa_r+0x11e4>
    3e00:	2025883a 	mov	r18,r4
    3e04:	d9000e15 	stw	r4,56(sp)
    3e08:	d9000915 	stw	r4,36(sp)
    3e0c:	80001115 	stw	zero,68(r16)
    3e10:	008005c4 	movi	r2,23
    3e14:	1484b22e 	bgeu	r2,r18,50e0 <_dtoa_r+0x160c>
    3e18:	00c00044 	movi	r3,1
    3e1c:	00800104 	movi	r2,4
    3e20:	1085883a 	add	r2,r2,r2
    3e24:	11000504 	addi	r4,r2,20
    3e28:	180b883a 	mov	r5,r3
    3e2c:	18c00044 	addi	r3,r3,1
    3e30:	913ffb2e 	bgeu	r18,r4,3e20 <__alt_mem_onchip_flash_0_data+0xf0f03e20>
    3e34:	81401115 	stw	r5,68(r16)
    3e38:	8009883a 	mov	r4,r16
    3e3c:	0006e2c0 	call	6e2c <_Balloc>
    3e40:	102f883a 	mov	r23,r2
    3e44:	80801015 	stw	r2,64(r16)
    3e48:	00800384 	movi	r2,14
    3e4c:	1480f036 	bltu	r2,r18,4210 <_dtoa_r+0x73c>
    3e50:	9800ef26 	beq	r19,zero,4210 <_dtoa_r+0x73c>
    3e54:	d8800617 	ldw	r2,24(sp)
    3e58:	00839c0e 	bge	zero,r2,4ccc <_dtoa_r+0x11f8>
    3e5c:	d8c00617 	ldw	r3,24(sp)
    3e60:	108003cc 	andi	r2,r2,15
    3e64:	100490fa 	slli	r2,r2,3
    3e68:	182bd13a 	srai	r21,r3,4
    3e6c:	00c000f4 	movhi	r3,3
    3e70:	18c13d04 	addi	r3,r3,1268
    3e74:	1885883a 	add	r2,r3,r2
    3e78:	a8c0040c 	andi	r3,r21,16
    3e7c:	12800017 	ldw	r10,0(r2)
    3e80:	15800117 	ldw	r22,4(r2)
    3e84:	18038726 	beq	r3,zero,4ca4 <_dtoa_r+0x11d0>
    3e88:	008000f4 	movhi	r2,3
    3e8c:	10813304 	addi	r2,r2,1228
    3e90:	11800817 	ldw	r6,32(r2)
    3e94:	11c00917 	ldw	r7,36(r2)
    3e98:	d9000317 	ldw	r4,12(sp)
    3e9c:	880b883a 	mov	r5,r17
    3ea0:	da801515 	stw	r10,84(sp)
    3ea4:	0009fbc0 	call	9fbc <__divdf3>
    3ea8:	da801517 	ldw	r10,84(sp)
    3eac:	d8801015 	stw	r2,64(sp)
    3eb0:	1829883a 	mov	r20,r3
    3eb4:	ad4003cc 	andi	r21,r21,15
    3eb8:	048000c4 	movi	r18,3
    3ebc:	a8001126 	beq	r21,zero,3f04 <_dtoa_r+0x430>
    3ec0:	04c000f4 	movhi	r19,3
    3ec4:	9cc13304 	addi	r19,r19,1228
    3ec8:	5005883a 	mov	r2,r10
    3ecc:	b007883a 	mov	r3,r22
    3ed0:	a980004c 	andi	r6,r21,1
    3ed4:	1009883a 	mov	r4,r2
    3ed8:	a82bd07a 	srai	r21,r21,1
    3edc:	180b883a 	mov	r5,r3
    3ee0:	30000426 	beq	r6,zero,3ef4 <_dtoa_r+0x420>
    3ee4:	99800017 	ldw	r6,0(r19)
    3ee8:	99c00117 	ldw	r7,4(r19)
    3eec:	94800044 	addi	r18,r18,1
    3ef0:	0009d5c0 	call	9d5c <__muldf3>
    3ef4:	9cc00204 	addi	r19,r19,8
    3ef8:	a83ff51e 	bne	r21,zero,3ed0 <__alt_mem_onchip_flash_0_data+0xf0f03ed0>
    3efc:	1015883a 	mov	r10,r2
    3f00:	182d883a 	mov	r22,r3
    3f04:	d9001017 	ldw	r4,64(sp)
    3f08:	a00b883a 	mov	r5,r20
    3f0c:	500d883a 	mov	r6,r10
    3f10:	b00f883a 	mov	r7,r22
    3f14:	0009fbc0 	call	9fbc <__divdf3>
    3f18:	1027883a 	mov	r19,r2
    3f1c:	1829883a 	mov	r20,r3
    3f20:	d8c00d17 	ldw	r3,52(sp)
    3f24:	18000626 	beq	r3,zero,3f40 <_dtoa_r+0x46c>
    3f28:	9809883a 	mov	r4,r19
    3f2c:	a00b883a 	mov	r5,r20
    3f30:	000d883a 	mov	r6,zero
    3f34:	01cffc34 	movhi	r7,16368
    3f38:	000a2f00 	call	a2f0 <__ltdf2>
    3f3c:	10040e16 	blt	r2,zero,4f78 <_dtoa_r+0x14a4>
    3f40:	9009883a 	mov	r4,r18
    3f44:	000a34c0 	call	a34c <__floatsidf>
    3f48:	1009883a 	mov	r4,r2
    3f4c:	180b883a 	mov	r5,r3
    3f50:	980d883a 	mov	r6,r19
    3f54:	a00f883a 	mov	r7,r20
    3f58:	0009d5c0 	call	9d5c <__muldf3>
    3f5c:	1009883a 	mov	r4,r2
    3f60:	180b883a 	mov	r5,r3
    3f64:	000d883a 	mov	r6,zero
    3f68:	01d00734 	movhi	r7,16412
    3f6c:	0009ca80 	call	9ca8 <__adddf3>
    3f70:	057f3034 	movhi	r21,64704
    3f74:	1d6b883a 	add	r21,r3,r21
    3f78:	d8c00917 	ldw	r3,36(sp)
    3f7c:	1025883a 	mov	r18,r2
    3f80:	18031f26 	beq	r3,zero,4c00 <_dtoa_r+0x112c>
    3f84:	d8800617 	ldw	r2,24(sp)
    3f88:	dac00917 	ldw	r11,36(sp)
    3f8c:	d8801315 	stw	r2,76(sp)
    3f90:	d8c00c17 	ldw	r3,48(sp)
    3f94:	18039026 	beq	r3,zero,4dd8 <_dtoa_r+0x1304>
    3f98:	58bfffc4 	addi	r2,r11,-1
    3f9c:	100490fa 	slli	r2,r2,3
    3fa0:	00c000f4 	movhi	r3,3
    3fa4:	18c13d04 	addi	r3,r3,1268
    3fa8:	0009883a 	mov	r4,zero
    3fac:	1885883a 	add	r2,r3,r2
    3fb0:	11800017 	ldw	r6,0(r2)
    3fb4:	11c00117 	ldw	r7,4(r2)
    3fb8:	014ff834 	movhi	r5,16352
    3fbc:	dac01615 	stw	r11,88(sp)
    3fc0:	0009fbc0 	call	9fbc <__divdf3>
    3fc4:	900d883a 	mov	r6,r18
    3fc8:	a80f883a 	mov	r7,r21
    3fcc:	1009883a 	mov	r4,r2
    3fd0:	180b883a 	mov	r5,r3
    3fd4:	0009cfc0 	call	9cfc <__subdf3>
    3fd8:	a00b883a 	mov	r5,r20
    3fdc:	9809883a 	mov	r4,r19
    3fe0:	182b883a 	mov	r21,r3
    3fe4:	d8801015 	stw	r2,64(sp)
    3fe8:	000a4200 	call	a420 <__fixdfsi>
    3fec:	1009883a 	mov	r4,r2
    3ff0:	d8801515 	stw	r2,84(sp)
    3ff4:	000a34c0 	call	a34c <__floatsidf>
    3ff8:	9809883a 	mov	r4,r19
    3ffc:	a00b883a 	mov	r5,r20
    4000:	100d883a 	mov	r6,r2
    4004:	180f883a 	mov	r7,r3
    4008:	0009cfc0 	call	9cfc <__subdf3>
    400c:	da401517 	ldw	r9,84(sp)
    4010:	d9001017 	ldw	r4,64(sp)
    4014:	a80b883a 	mov	r5,r21
    4018:	4d000c04 	addi	r20,r9,48
    401c:	bd000005 	stb	r20,0(r23)
    4020:	100d883a 	mov	r6,r2
    4024:	180f883a 	mov	r7,r3
    4028:	bd800044 	addi	r22,r23,1
    402c:	1025883a 	mov	r18,r2
    4030:	1827883a 	mov	r19,r3
    4034:	000a2280 	call	a228 <__gtdf2>
    4038:	00842216 	blt	zero,r2,50c4 <_dtoa_r+0x15f0>
    403c:	0009883a 	mov	r4,zero
    4040:	014ffc34 	movhi	r5,16368
    4044:	900d883a 	mov	r6,r18
    4048:	980f883a 	mov	r7,r19
    404c:	0009cfc0 	call	9cfc <__subdf3>
    4050:	d9001017 	ldw	r4,64(sp)
    4054:	a80b883a 	mov	r5,r21
    4058:	100d883a 	mov	r6,r2
    405c:	180f883a 	mov	r7,r3
    4060:	000a2280 	call	a228 <__gtdf2>
    4064:	dac01617 	ldw	r11,88(sp)
    4068:	00841316 	blt	zero,r2,50b8 <_dtoa_r+0x15e4>
    406c:	00800044 	movi	r2,1
    4070:	12c0670e 	bge	r2,r11,4210 <_dtoa_r+0x73c>
    4074:	bad7883a 	add	r11,r23,r11
    4078:	df001115 	stw	fp,68(sp)
    407c:	dc401215 	stw	r17,72(sp)
    4080:	5839883a 	mov	fp,r11
    4084:	dc401017 	ldw	r17,64(sp)
    4088:	00000806 	br	40ac <_dtoa_r+0x5d8>
    408c:	0009cfc0 	call	9cfc <__subdf3>
    4090:	1009883a 	mov	r4,r2
    4094:	180b883a 	mov	r5,r3
    4098:	880d883a 	mov	r6,r17
    409c:	a80f883a 	mov	r7,r21
    40a0:	000a2f00 	call	a2f0 <__ltdf2>
    40a4:	1003ee16 	blt	r2,zero,5060 <_dtoa_r+0x158c>
    40a8:	b703f126 	beq	r22,fp,5070 <_dtoa_r+0x159c>
    40ac:	8809883a 	mov	r4,r17
    40b0:	a80b883a 	mov	r5,r21
    40b4:	000d883a 	mov	r6,zero
    40b8:	01d00934 	movhi	r7,16420
    40bc:	0009d5c0 	call	9d5c <__muldf3>
    40c0:	000d883a 	mov	r6,zero
    40c4:	01d00934 	movhi	r7,16420
    40c8:	9009883a 	mov	r4,r18
    40cc:	980b883a 	mov	r5,r19
    40d0:	1023883a 	mov	r17,r2
    40d4:	182b883a 	mov	r21,r3
    40d8:	0009d5c0 	call	9d5c <__muldf3>
    40dc:	180b883a 	mov	r5,r3
    40e0:	1009883a 	mov	r4,r2
    40e4:	1825883a 	mov	r18,r3
    40e8:	1027883a 	mov	r19,r2
    40ec:	000a4200 	call	a420 <__fixdfsi>
    40f0:	1009883a 	mov	r4,r2
    40f4:	1029883a 	mov	r20,r2
    40f8:	000a34c0 	call	a34c <__floatsidf>
    40fc:	9809883a 	mov	r4,r19
    4100:	900b883a 	mov	r5,r18
    4104:	100d883a 	mov	r6,r2
    4108:	180f883a 	mov	r7,r3
    410c:	0009cfc0 	call	9cfc <__subdf3>
    4110:	a5000c04 	addi	r20,r20,48
    4114:	b5000005 	stb	r20,0(r22)
    4118:	1009883a 	mov	r4,r2
    411c:	180b883a 	mov	r5,r3
    4120:	880d883a 	mov	r6,r17
    4124:	a80f883a 	mov	r7,r21
    4128:	1025883a 	mov	r18,r2
    412c:	1827883a 	mov	r19,r3
    4130:	000a2f00 	call	a2f0 <__ltdf2>
    4134:	b5800044 	addi	r22,r22,1
    4138:	0009883a 	mov	r4,zero
    413c:	014ffc34 	movhi	r5,16368
    4140:	900d883a 	mov	r6,r18
    4144:	980f883a 	mov	r7,r19
    4148:	103fd00e 	bge	r2,zero,408c <__alt_mem_onchip_flash_0_data+0xf0f0408c>
    414c:	d9001317 	ldw	r4,76(sp)
    4150:	df001117 	ldw	fp,68(sp)
    4154:	d9000615 	stw	r4,24(sp)
    4158:	8009883a 	mov	r4,r16
    415c:	e00b883a 	mov	r5,fp
    4160:	0006ed40 	call	6ed4 <_Bfree>
    4164:	d9c00617 	ldw	r7,24(sp)
    4168:	d8c02217 	ldw	r3,136(sp)
    416c:	d9002417 	ldw	r4,144(sp)
    4170:	b0000005 	stb	zero,0(r22)
    4174:	38800044 	addi	r2,r7,1
    4178:	18800015 	stw	r2,0(r3)
    417c:	203e8426 	beq	r4,zero,3b90 <__alt_mem_onchip_flash_0_data+0xf0f03b90>
    4180:	25800015 	stw	r22,0(r4)
    4184:	003e8206 	br	3b90 <__alt_mem_onchip_flash_0_data+0xf0f03b90>
    4188:	00800434 	movhi	r2,16
    418c:	10bfffc4 	addi	r2,r2,-1
    4190:	90a4703a 	and	r18,r18,r2
    4194:	903e901e 	bne	r18,zero,3bd8 <__alt_mem_onchip_flash_0_data+0xf0f03bd8>
    4198:	05c000f4 	movhi	r23,3
    419c:	bdc11404 	addi	r23,r23,1104
    41a0:	003e8f06 	br	3be0 <__alt_mem_onchip_flash_0_data+0xf0f03be0>
    41a4:	b8800204 	addi	r2,r23,8
    41a8:	003e9206 	br	3bf4 <__alt_mem_onchip_flash_0_data+0xf0f03bf4>
    41ac:	01400434 	movhi	r5,16
    41b0:	297fffc4 	addi	r5,r5,-1
    41b4:	894a703a 	and	r5,r17,r5
    41b8:	d9000317 	ldw	r4,12(sp)
    41bc:	294ffc34 	orhi	r5,r5,16368
    41c0:	a53f0044 	addi	r20,r20,-1023
    41c4:	dd400217 	ldw	r21,8(sp)
    41c8:	d8000f15 	stw	zero,60(sp)
    41cc:	003eb106 	br	3c94 <__alt_mem_onchip_flash_0_data+0xf0f03c94>
    41d0:	05c000f4 	movhi	r23,3
    41d4:	bdc10b04 	addi	r23,r23,1068
    41d8:	003e6d06 	br	3b90 <__alt_mem_onchip_flash_0_data+0xf0f03b90>
    41dc:	d8000415 	stw	zero,16(sp)
    41e0:	80001115 	stw	zero,68(r16)
    41e4:	8009883a 	mov	r4,r16
    41e8:	000b883a 	mov	r5,zero
    41ec:	0006e2c0 	call	6e2c <_Balloc>
    41f0:	01ffffc4 	movi	r7,-1
    41f4:	102f883a 	mov	r23,r2
    41f8:	80801015 	stw	r2,64(r16)
    41fc:	00800044 	movi	r2,1
    4200:	d9c00915 	stw	r7,36(sp)
    4204:	d8002115 	stw	zero,132(sp)
    4208:	d9c00e15 	stw	r7,56(sp)
    420c:	d8800c15 	stw	r2,48(sp)
    4210:	d8800117 	ldw	r2,4(sp)
    4214:	10008b16 	blt	r2,zero,4444 <_dtoa_r+0x970>
    4218:	d9000617 	ldw	r4,24(sp)
    421c:	00c00384 	movi	r3,14
    4220:	19008816 	blt	r3,r4,4444 <_dtoa_r+0x970>
    4224:	200490fa 	slli	r2,r4,3
    4228:	d9c02117 	ldw	r7,132(sp)
    422c:	00c000f4 	movhi	r3,3
    4230:	18c13d04 	addi	r3,r3,1268
    4234:	1885883a 	add	r2,r3,r2
    4238:	14800017 	ldw	r18,0(r2)
    423c:	14c00117 	ldw	r19,4(r2)
    4240:	3801c916 	blt	r7,zero,4968 <_dtoa_r+0xe94>
    4244:	d9000317 	ldw	r4,12(sp)
    4248:	900d883a 	mov	r6,r18
    424c:	980f883a 	mov	r7,r19
    4250:	880b883a 	mov	r5,r17
    4254:	0009fbc0 	call	9fbc <__divdf3>
    4258:	180b883a 	mov	r5,r3
    425c:	1009883a 	mov	r4,r2
    4260:	000a4200 	call	a420 <__fixdfsi>
    4264:	1009883a 	mov	r4,r2
    4268:	102b883a 	mov	r21,r2
    426c:	000a34c0 	call	a34c <__floatsidf>
    4270:	1009883a 	mov	r4,r2
    4274:	180b883a 	mov	r5,r3
    4278:	900d883a 	mov	r6,r18
    427c:	980f883a 	mov	r7,r19
    4280:	0009d5c0 	call	9d5c <__muldf3>
    4284:	d9000317 	ldw	r4,12(sp)
    4288:	880b883a 	mov	r5,r17
    428c:	100d883a 	mov	r6,r2
    4290:	180f883a 	mov	r7,r3
    4294:	0009cfc0 	call	9cfc <__subdf3>
    4298:	d9c00917 	ldw	r7,36(sp)
    429c:	1009883a 	mov	r4,r2
    42a0:	a8800c04 	addi	r2,r21,48
    42a4:	b8800005 	stb	r2,0(r23)
    42a8:	01800044 	movi	r6,1
    42ac:	180b883a 	mov	r5,r3
    42b0:	2005883a 	mov	r2,r4
    42b4:	bd800044 	addi	r22,r23,1
    42b8:	39803726 	beq	r7,r6,4398 <_dtoa_r+0x8c4>
    42bc:	000d883a 	mov	r6,zero
    42c0:	01d00934 	movhi	r7,16420
    42c4:	0009d5c0 	call	9d5c <__muldf3>
    42c8:	1009883a 	mov	r4,r2
    42cc:	180b883a 	mov	r5,r3
    42d0:	000d883a 	mov	r6,zero
    42d4:	000f883a 	mov	r7,zero
    42d8:	1029883a 	mov	r20,r2
    42dc:	1823883a 	mov	r17,r3
    42e0:	000a1700 	call	a170 <__eqdf2>
    42e4:	103f9c26 	beq	r2,zero,4158 <__alt_mem_onchip_flash_0_data+0xf0f04158>
    42e8:	dd400917 	ldw	r21,36(sp)
    42ec:	dc000415 	stw	r16,16(sp)
    42f0:	00000906 	br	4318 <_dtoa_r+0x844>
    42f4:	0009d5c0 	call	9d5c <__muldf3>
    42f8:	1009883a 	mov	r4,r2
    42fc:	180b883a 	mov	r5,r3
    4300:	000d883a 	mov	r6,zero
    4304:	000f883a 	mov	r7,zero
    4308:	1029883a 	mov	r20,r2
    430c:	1823883a 	mov	r17,r3
    4310:	000a1700 	call	a170 <__eqdf2>
    4314:	10022926 	beq	r2,zero,4bbc <_dtoa_r+0x10e8>
    4318:	900d883a 	mov	r6,r18
    431c:	980f883a 	mov	r7,r19
    4320:	a009883a 	mov	r4,r20
    4324:	880b883a 	mov	r5,r17
    4328:	0009fbc0 	call	9fbc <__divdf3>
    432c:	180b883a 	mov	r5,r3
    4330:	1009883a 	mov	r4,r2
    4334:	000a4200 	call	a420 <__fixdfsi>
    4338:	1009883a 	mov	r4,r2
    433c:	1021883a 	mov	r16,r2
    4340:	000a34c0 	call	a34c <__floatsidf>
    4344:	1009883a 	mov	r4,r2
    4348:	180b883a 	mov	r5,r3
    434c:	900d883a 	mov	r6,r18
    4350:	980f883a 	mov	r7,r19
    4354:	0009d5c0 	call	9d5c <__muldf3>
    4358:	a009883a 	mov	r4,r20
    435c:	880b883a 	mov	r5,r17
    4360:	100d883a 	mov	r6,r2
    4364:	180f883a 	mov	r7,r3
    4368:	0009cfc0 	call	9cfc <__subdf3>
    436c:	82400c04 	addi	r9,r16,48
    4370:	b2400005 	stb	r9,0(r22)
    4374:	b5800044 	addi	r22,r22,1
    4378:	b5d3c83a 	sub	r9,r22,r23
    437c:	000d883a 	mov	r6,zero
    4380:	01d00934 	movhi	r7,16420
    4384:	1009883a 	mov	r4,r2
    4388:	180b883a 	mov	r5,r3
    438c:	aa7fd91e 	bne	r21,r9,42f4 <__alt_mem_onchip_flash_0_data+0xf0f042f4>
    4390:	802b883a 	mov	r21,r16
    4394:	dc000417 	ldw	r16,16(sp)
    4398:	1009883a 	mov	r4,r2
    439c:	180b883a 	mov	r5,r3
    43a0:	100d883a 	mov	r6,r2
    43a4:	180f883a 	mov	r7,r3
    43a8:	0009ca80 	call	9ca8 <__adddf3>
    43ac:	9009883a 	mov	r4,r18
    43b0:	980b883a 	mov	r5,r19
    43b4:	100d883a 	mov	r6,r2
    43b8:	180f883a 	mov	r7,r3
    43bc:	1023883a 	mov	r17,r2
    43c0:	1829883a 	mov	r20,r3
    43c4:	000a2f00 	call	a2f0 <__ltdf2>
    43c8:	10000816 	blt	r2,zero,43ec <_dtoa_r+0x918>
    43cc:	9009883a 	mov	r4,r18
    43d0:	980b883a 	mov	r5,r19
    43d4:	880d883a 	mov	r6,r17
    43d8:	a00f883a 	mov	r7,r20
    43dc:	000a1cc0 	call	a1cc <__nedf2>
    43e0:	103f5d1e 	bne	r2,zero,4158 <__alt_mem_onchip_flash_0_data+0xf0f04158>
    43e4:	ad40004c 	andi	r21,r21,1
    43e8:	a83f5b26 	beq	r21,zero,4158 <__alt_mem_onchip_flash_0_data+0xf0f04158>
    43ec:	b53fffc3 	ldbu	r20,-1(r22)
    43f0:	b0ffff84 	addi	r3,r22,-2
    43f4:	01400e44 	movi	r5,57
    43f8:	00000306 	br	4408 <_dtoa_r+0x934>
    43fc:	1d000003 	ldbu	r20,0(r3)
    4400:	102d883a 	mov	r22,r2
    4404:	18ffffc4 	addi	r3,r3,-1
    4408:	a1003fcc 	andi	r4,r20,255
    440c:	2100201c 	xori	r4,r4,128
    4410:	213fe004 	addi	r4,r4,-128
    4414:	b0bfffc4 	addi	r2,r22,-1
    4418:	2142ca1e 	bne	r4,r5,4f44 <_dtoa_r+0x1470>
    441c:	b8bff71e 	bne	r23,r2,43fc <__alt_mem_onchip_flash_0_data+0xf0f043fc>
    4420:	d8800617 	ldw	r2,24(sp)
    4424:	05000c44 	movi	r20,49
    4428:	10800044 	addi	r2,r2,1
    442c:	d8800615 	stw	r2,24(sp)
    4430:	00800c04 	movi	r2,48
    4434:	b8800005 	stb	r2,0(r23)
    4438:	b805883a 	mov	r2,r23
    443c:	15000005 	stb	r20,0(r2)
    4440:	003f4506 	br	4158 <__alt_mem_onchip_flash_0_data+0xf0f04158>
    4444:	d9c00c17 	ldw	r7,48(sp)
    4448:	3800c926 	beq	r7,zero,4770 <_dtoa_r+0xc9c>
    444c:	d9c00417 	ldw	r7,16(sp)
    4450:	00c00044 	movi	r3,1
    4454:	19c16c0e 	bge	r3,r7,4a08 <_dtoa_r+0xf34>
    4458:	d9000917 	ldw	r4,36(sp)
    445c:	d9c00a17 	ldw	r7,40(sp)
    4460:	24ffffc4 	addi	r19,r4,-1
    4464:	3cc20716 	blt	r7,r19,4c84 <_dtoa_r+0x11b0>
    4468:	3ce7c83a 	sub	r19,r7,r19
    446c:	d9c00917 	ldw	r7,36(sp)
    4470:	3802ae16 	blt	r7,zero,4f2c <_dtoa_r+0x1458>
    4474:	dc800817 	ldw	r18,32(sp)
    4478:	d8800917 	ldw	r2,36(sp)
    447c:	d8c00817 	ldw	r3,32(sp)
    4480:	d9c00717 	ldw	r7,28(sp)
    4484:	8009883a 	mov	r4,r16
    4488:	1887883a 	add	r3,r3,r2
    448c:	388f883a 	add	r7,r7,r2
    4490:	01400044 	movi	r5,1
    4494:	d8c00815 	stw	r3,32(sp)
    4498:	d9c00715 	stw	r7,28(sp)
    449c:	000722c0 	call	722c <__i2b>
    44a0:	102b883a 	mov	r21,r2
    44a4:	90000a26 	beq	r18,zero,44d0 <_dtoa_r+0x9fc>
    44a8:	d8800717 	ldw	r2,28(sp)
    44ac:	0080080e 	bge	zero,r2,44d0 <_dtoa_r+0x9fc>
    44b0:	90812b16 	blt	r18,r2,4960 <_dtoa_r+0xe8c>
    44b4:	d8c00817 	ldw	r3,32(sp)
    44b8:	d9000717 	ldw	r4,28(sp)
    44bc:	90a5c83a 	sub	r18,r18,r2
    44c0:	1887c83a 	sub	r3,r3,r2
    44c4:	2089c83a 	sub	r4,r4,r2
    44c8:	d8c00815 	stw	r3,32(sp)
    44cc:	d9000715 	stw	r4,28(sp)
    44d0:	d9c00a17 	ldw	r7,40(sp)
    44d4:	01c0140e 	bge	zero,r7,4528 <_dtoa_r+0xa54>
    44d8:	d8800c17 	ldw	r2,48(sp)
    44dc:	1001de26 	beq	r2,zero,4c58 <_dtoa_r+0x1184>
    44e0:	04c00e0e 	bge	zero,r19,451c <_dtoa_r+0xa48>
    44e4:	a80b883a 	mov	r5,r21
    44e8:	8009883a 	mov	r4,r16
    44ec:	980d883a 	mov	r6,r19
    44f0:	00074480 	call	7448 <__pow5mult>
    44f4:	e00d883a 	mov	r6,fp
    44f8:	8009883a 	mov	r4,r16
    44fc:	100b883a 	mov	r5,r2
    4500:	102b883a 	mov	r21,r2
    4504:	00072680 	call	7268 <__multiply>
    4508:	1029883a 	mov	r20,r2
    450c:	e00b883a 	mov	r5,fp
    4510:	8009883a 	mov	r4,r16
    4514:	0006ed40 	call	6ed4 <_Bfree>
    4518:	a039883a 	mov	fp,r20
    451c:	d8c00a17 	ldw	r3,40(sp)
    4520:	1ccdc83a 	sub	r6,r3,r19
    4524:	3001291e 	bne	r6,zero,49cc <_dtoa_r+0xef8>
    4528:	8009883a 	mov	r4,r16
    452c:	01400044 	movi	r5,1
    4530:	000722c0 	call	722c <__i2b>
    4534:	d9000b17 	ldw	r4,44(sp)
    4538:	1029883a 	mov	r20,r2
    453c:	0100050e 	bge	zero,r4,4554 <_dtoa_r+0xa80>
    4540:	d9800b17 	ldw	r6,44(sp)
    4544:	8009883a 	mov	r4,r16
    4548:	100b883a 	mov	r5,r2
    454c:	00074480 	call	7448 <__pow5mult>
    4550:	1029883a 	mov	r20,r2
    4554:	d9c00417 	ldw	r7,16(sp)
    4558:	00800044 	movi	r2,1
    455c:	11c0f00e 	bge	r2,r7,4920 <_dtoa_r+0xe4c>
    4560:	0023883a 	mov	r17,zero
    4564:	d8800b17 	ldw	r2,44(sp)
    4568:	1001741e 	bne	r2,zero,4b3c <_dtoa_r+0x1068>
    456c:	00800044 	movi	r2,1
    4570:	d8c00717 	ldw	r3,28(sp)
    4574:	10c5883a 	add	r2,r2,r3
    4578:	108007cc 	andi	r2,r2,31
    457c:	10008026 	beq	r2,zero,4780 <_dtoa_r+0xcac>
    4580:	01000804 	movi	r4,32
    4584:	2089c83a 	sub	r4,r4,r2
    4588:	00c00104 	movi	r3,4
    458c:	1902d00e 	bge	r3,r4,50d0 <_dtoa_r+0x15fc>
    4590:	d9000817 	ldw	r4,32(sp)
    4594:	d9c00717 	ldw	r7,28(sp)
    4598:	00c00704 	movi	r3,28
    459c:	1885c83a 	sub	r2,r3,r2
    45a0:	2089883a 	add	r4,r4,r2
    45a4:	388f883a 	add	r7,r7,r2
    45a8:	d9000815 	stw	r4,32(sp)
    45ac:	90a5883a 	add	r18,r18,r2
    45b0:	d9c00715 	stw	r7,28(sp)
    45b4:	d9c00817 	ldw	r7,32(sp)
    45b8:	01c0050e 	bge	zero,r7,45d0 <_dtoa_r+0xafc>
    45bc:	e00b883a 	mov	r5,fp
    45c0:	8009883a 	mov	r4,r16
    45c4:	380d883a 	mov	r6,r7
    45c8:	00075740 	call	7574 <__lshift>
    45cc:	1039883a 	mov	fp,r2
    45d0:	d8800717 	ldw	r2,28(sp)
    45d4:	0080050e 	bge	zero,r2,45ec <_dtoa_r+0xb18>
    45d8:	a00b883a 	mov	r5,r20
    45dc:	8009883a 	mov	r4,r16
    45e0:	100d883a 	mov	r6,r2
    45e4:	00075740 	call	7574 <__lshift>
    45e8:	1029883a 	mov	r20,r2
    45ec:	d8c00d17 	ldw	r3,52(sp)
    45f0:	1801401e 	bne	r3,zero,4af4 <_dtoa_r+0x1020>
    45f4:	d8800917 	ldw	r2,36(sp)
    45f8:	00815a0e 	bge	zero,r2,4b64 <_dtoa_r+0x1090>
    45fc:	d8c00c17 	ldw	r3,48(sp)
    4600:	18006f1e 	bne	r3,zero,47c0 <_dtoa_r+0xcec>
    4604:	b823883a 	mov	r17,r23
    4608:	dc800917 	ldw	r18,36(sp)
    460c:	00000206 	br	4618 <_dtoa_r+0xb44>
    4610:	0006efc0 	call	6efc <__multadd>
    4614:	1039883a 	mov	fp,r2
    4618:	e009883a 	mov	r4,fp
    461c:	a00b883a 	mov	r5,r20
    4620:	00038cc0 	call	38cc <quorem>
    4624:	10800c04 	addi	r2,r2,48
    4628:	88800005 	stb	r2,0(r17)
    462c:	8c400044 	addi	r17,r17,1
    4630:	8dc7c83a 	sub	r3,r17,r23
    4634:	8009883a 	mov	r4,r16
    4638:	e00b883a 	mov	r5,fp
    463c:	01800284 	movi	r6,10
    4640:	000f883a 	mov	r7,zero
    4644:	1cbff216 	blt	r3,r18,4610 <__alt_mem_onchip_flash_0_data+0xf0f04610>
    4648:	dd800917 	ldw	r22,36(sp)
    464c:	1007883a 	mov	r3,r2
    4650:	05823a0e 	bge	zero,r22,4f3c <_dtoa_r+0x1468>
    4654:	bdad883a 	add	r22,r23,r22
    4658:	0023883a 	mov	r17,zero
    465c:	e00b883a 	mov	r5,fp
    4660:	01800044 	movi	r6,1
    4664:	8009883a 	mov	r4,r16
    4668:	d8c01515 	stw	r3,84(sp)
    466c:	00075740 	call	7574 <__lshift>
    4670:	1009883a 	mov	r4,r2
    4674:	a00b883a 	mov	r5,r20
    4678:	1039883a 	mov	fp,r2
    467c:	00076d00 	call	76d0 <__mcmp>
    4680:	d8c01517 	ldw	r3,84(sp)
    4684:	0080d60e 	bge	zero,r2,49e0 <_dtoa_r+0xf0c>
    4688:	b13fffc3 	ldbu	r4,-1(r22)
    468c:	b0ffff84 	addi	r3,r22,-2
    4690:	01800e44 	movi	r6,57
    4694:	00000306 	br	46a4 <_dtoa_r+0xbd0>
    4698:	19000003 	ldbu	r4,0(r3)
    469c:	102d883a 	mov	r22,r2
    46a0:	18ffffc4 	addi	r3,r3,-1
    46a4:	21403fcc 	andi	r5,r4,255
    46a8:	2940201c 	xori	r5,r5,128
    46ac:	297fe004 	addi	r5,r5,-128
    46b0:	b0bfffc4 	addi	r2,r22,-1
    46b4:	2981a71e 	bne	r5,r6,4d54 <_dtoa_r+0x1280>
    46b8:	b8bff71e 	bne	r23,r2,4698 <__alt_mem_onchip_flash_0_data+0xf0f04698>
    46bc:	d8800617 	ldw	r2,24(sp)
    46c0:	10800044 	addi	r2,r2,1
    46c4:	d8800615 	stw	r2,24(sp)
    46c8:	00800c44 	movi	r2,49
    46cc:	b8800005 	stb	r2,0(r23)
    46d0:	8009883a 	mov	r4,r16
    46d4:	a00b883a 	mov	r5,r20
    46d8:	0006ed40 	call	6ed4 <_Bfree>
    46dc:	a83e9e26 	beq	r21,zero,4158 <__alt_mem_onchip_flash_0_data+0xf0f04158>
    46e0:	88000426 	beq	r17,zero,46f4 <_dtoa_r+0xc20>
    46e4:	8d400326 	beq	r17,r21,46f4 <_dtoa_r+0xc20>
    46e8:	8009883a 	mov	r4,r16
    46ec:	880b883a 	mov	r5,r17
    46f0:	0006ed40 	call	6ed4 <_Bfree>
    46f4:	8009883a 	mov	r4,r16
    46f8:	a80b883a 	mov	r5,r21
    46fc:	0006ed40 	call	6ed4 <_Bfree>
    4700:	003e9506 	br	4158 <__alt_mem_onchip_flash_0_data+0xf0f04158>
    4704:	00c00044 	movi	r3,1
    4708:	d8c00d15 	stw	r3,52(sp)
    470c:	003d9f06 	br	3d8c <__alt_mem_onchip_flash_0_data+0xf0f03d8c>
    4710:	d9000817 	ldw	r4,32(sp)
    4714:	d8800617 	ldw	r2,24(sp)
    4718:	d8000b15 	stw	zero,44(sp)
    471c:	2089c83a 	sub	r4,r4,r2
    4720:	0087c83a 	sub	r3,zero,r2
    4724:	d9000815 	stw	r4,32(sp)
    4728:	d8c00a15 	stw	r3,40(sp)
    472c:	003da306 	br	3dbc <__alt_mem_onchip_flash_0_data+0xf0f03dbc>
    4730:	0529c83a 	sub	r20,zero,r20
    4734:	dd000815 	stw	r20,32(sp)
    4738:	d8000715 	stw	zero,28(sp)
    473c:	003d9806 	br	3da0 <__alt_mem_onchip_flash_0_data+0xf0f03da0>
    4740:	d9000617 	ldw	r4,24(sp)
    4744:	000a34c0 	call	a34c <__floatsidf>
    4748:	1009883a 	mov	r4,r2
    474c:	180b883a 	mov	r5,r3
    4750:	980d883a 	mov	r6,r19
    4754:	900f883a 	mov	r7,r18
    4758:	000a1700 	call	a170 <__eqdf2>
    475c:	103d7a26 	beq	r2,zero,3d48 <__alt_mem_onchip_flash_0_data+0xf0f03d48>
    4760:	d8800617 	ldw	r2,24(sp)
    4764:	10bfffc4 	addi	r2,r2,-1
    4768:	d8800615 	stw	r2,24(sp)
    476c:	003d7606 	br	3d48 <__alt_mem_onchip_flash_0_data+0xf0f03d48>
    4770:	dcc00a17 	ldw	r19,40(sp)
    4774:	dc800817 	ldw	r18,32(sp)
    4778:	002b883a 	mov	r21,zero
    477c:	003f4906 	br	44a4 <__alt_mem_onchip_flash_0_data+0xf0f044a4>
    4780:	00800704 	movi	r2,28
    4784:	d8c00817 	ldw	r3,32(sp)
    4788:	d9000717 	ldw	r4,28(sp)
    478c:	90a5883a 	add	r18,r18,r2
    4790:	1887883a 	add	r3,r3,r2
    4794:	2089883a 	add	r4,r4,r2
    4798:	d8c00815 	stw	r3,32(sp)
    479c:	d9000715 	stw	r4,28(sp)
    47a0:	003f8406 	br	45b4 <__alt_mem_onchip_flash_0_data+0xf0f045b4>
    47a4:	d9c00317 	ldw	r7,12(sp)
    47a8:	013efb84 	movi	r4,-1042
    47ac:	2509c83a 	sub	r4,r4,r20
    47b0:	3908983a 	sll	r4,r7,r4
    47b4:	003d3006 	br	3c78 <__alt_mem_onchip_flash_0_data+0xf0f03c78>
    47b8:	d8000d15 	stw	zero,52(sp)
    47bc:	003d7306 	br	3d8c <__alt_mem_onchip_flash_0_data+0xf0f03d8c>
    47c0:	0480050e 	bge	zero,r18,47d8 <_dtoa_r+0xd04>
    47c4:	a80b883a 	mov	r5,r21
    47c8:	8009883a 	mov	r4,r16
    47cc:	900d883a 	mov	r6,r18
    47d0:	00075740 	call	7574 <__lshift>
    47d4:	102b883a 	mov	r21,r2
    47d8:	8801611e 	bne	r17,zero,4d60 <_dtoa_r+0x128c>
    47dc:	a827883a 	mov	r19,r21
    47e0:	d8c00317 	ldw	r3,12(sp)
    47e4:	d9000917 	ldw	r4,36(sp)
    47e8:	b8bfffc4 	addi	r2,r23,-1
    47ec:	18c0004c 	andi	r3,r3,1
    47f0:	1105883a 	add	r2,r2,r4
    47f4:	b825883a 	mov	r18,r23
    47f8:	d8800515 	stw	r2,20(sp)
    47fc:	a823883a 	mov	r17,r21
    4800:	d8c00315 	stw	r3,12(sp)
    4804:	ddc00715 	stw	r23,28(sp)
    4808:	e009883a 	mov	r4,fp
    480c:	a00b883a 	mov	r5,r20
    4810:	00038cc0 	call	38cc <quorem>
    4814:	e009883a 	mov	r4,fp
    4818:	880b883a 	mov	r5,r17
    481c:	102d883a 	mov	r22,r2
    4820:	00076d00 	call	76d0 <__mcmp>
    4824:	980d883a 	mov	r6,r19
    4828:	8009883a 	mov	r4,r16
    482c:	a00b883a 	mov	r5,r20
    4830:	102b883a 	mov	r21,r2
    4834:	00077280 	call	7728 <__mdiff>
    4838:	100d883a 	mov	r6,r2
    483c:	10800317 	ldw	r2,12(r2)
    4840:	b5c00c04 	addi	r23,r22,48
    4844:	10008c26 	beq	r2,zero,4a78 <_dtoa_r+0xfa4>
    4848:	8009883a 	mov	r4,r16
    484c:	300b883a 	mov	r5,r6
    4850:	0006ed40 	call	6ed4 <_Bfree>
    4854:	00800044 	movi	r2,1
    4858:	a8007116 	blt	r21,zero,4a20 <_dtoa_r+0xf4c>
    485c:	a800041e 	bne	r21,zero,4870 <_dtoa_r+0xd9c>
    4860:	d9c00417 	ldw	r7,16(sp)
    4864:	3800021e 	bne	r7,zero,4870 <_dtoa_r+0xd9c>
    4868:	d8c00317 	ldw	r3,12(sp)
    486c:	18006c26 	beq	r3,zero,4a20 <_dtoa_r+0xf4c>
    4870:	00814c16 	blt	zero,r2,4da4 <_dtoa_r+0x12d0>
    4874:	d8c00517 	ldw	r3,20(sp)
    4878:	95400044 	addi	r21,r18,1
    487c:	95c00005 	stb	r23,0(r18)
    4880:	a82d883a 	mov	r22,r21
    4884:	90c14d26 	beq	r18,r3,4dbc <_dtoa_r+0x12e8>
    4888:	e00b883a 	mov	r5,fp
    488c:	8009883a 	mov	r4,r16
    4890:	01800284 	movi	r6,10
    4894:	000f883a 	mov	r7,zero
    4898:	0006efc0 	call	6efc <__multadd>
    489c:	1039883a 	mov	fp,r2
    48a0:	8cc08b26 	beq	r17,r19,4ad0 <_dtoa_r+0xffc>
    48a4:	880b883a 	mov	r5,r17
    48a8:	01800284 	movi	r6,10
    48ac:	000f883a 	mov	r7,zero
    48b0:	8009883a 	mov	r4,r16
    48b4:	0006efc0 	call	6efc <__multadd>
    48b8:	980b883a 	mov	r5,r19
    48bc:	8009883a 	mov	r4,r16
    48c0:	01800284 	movi	r6,10
    48c4:	000f883a 	mov	r7,zero
    48c8:	1023883a 	mov	r17,r2
    48cc:	0006efc0 	call	6efc <__multadd>
    48d0:	1027883a 	mov	r19,r2
    48d4:	a825883a 	mov	r18,r21
    48d8:	003fcb06 	br	4808 <__alt_mem_onchip_flash_0_data+0xf0f04808>
    48dc:	d9c00417 	ldw	r7,16(sp)
    48e0:	00800104 	movi	r2,4
    48e4:	3880e426 	beq	r7,r2,4c78 <_dtoa_r+0x11a4>
    48e8:	00800144 	movi	r2,5
    48ec:	38be3c1e 	bne	r7,r2,41e0 <__alt_mem_onchip_flash_0_data+0xf0f041e0>
    48f0:	00c00044 	movi	r3,1
    48f4:	d8c00c15 	stw	r3,48(sp)
    48f8:	d9c02117 	ldw	r7,132(sp)
    48fc:	d8800617 	ldw	r2,24(sp)
    4900:	388f883a 	add	r7,r7,r2
    4904:	3c800044 	addi	r18,r7,1
    4908:	d9c00e15 	stw	r7,56(sp)
    490c:	dc800915 	stw	r18,36(sp)
    4910:	04bd3e16 	blt	zero,r18,3e0c <__alt_mem_onchip_flash_0_data+0xf0f03e0c>
    4914:	80001115 	stw	zero,68(r16)
    4918:	000b883a 	mov	r5,zero
    491c:	003d4606 	br	3e38 <__alt_mem_onchip_flash_0_data+0xf0f03e38>
    4920:	d8c00317 	ldw	r3,12(sp)
    4924:	183f0e1e 	bne	r3,zero,4560 <__alt_mem_onchip_flash_0_data+0xf0f04560>
    4928:	00c00434 	movhi	r3,16
    492c:	18ffffc4 	addi	r3,r3,-1
    4930:	88c6703a 	and	r3,r17,r3
    4934:	183f0a1e 	bne	r3,zero,4560 <__alt_mem_onchip_flash_0_data+0xf0f04560>
    4938:	8c5ffc2c 	andhi	r17,r17,32752
    493c:	883f0826 	beq	r17,zero,4560 <__alt_mem_onchip_flash_0_data+0xf0f04560>
    4940:	d9000817 	ldw	r4,32(sp)
    4944:	d9c00717 	ldw	r7,28(sp)
    4948:	1023883a 	mov	r17,r2
    494c:	2089883a 	add	r4,r4,r2
    4950:	388f883a 	add	r7,r7,r2
    4954:	d9000815 	stw	r4,32(sp)
    4958:	d9c00715 	stw	r7,28(sp)
    495c:	003f0106 	br	4564 <__alt_mem_onchip_flash_0_data+0xf0f04564>
    4960:	9005883a 	mov	r2,r18
    4964:	003ed306 	br	44b4 <__alt_mem_onchip_flash_0_data+0xf0f044b4>
    4968:	d8800917 	ldw	r2,36(sp)
    496c:	00be3516 	blt	zero,r2,4244 <__alt_mem_onchip_flash_0_data+0xf0f04244>
    4970:	1000b61e 	bne	r2,zero,4c4c <_dtoa_r+0x1178>
    4974:	9009883a 	mov	r4,r18
    4978:	980b883a 	mov	r5,r19
    497c:	000d883a 	mov	r6,zero
    4980:	01d00534 	movhi	r7,16404
    4984:	0009d5c0 	call	9d5c <__muldf3>
    4988:	d9800317 	ldw	r6,12(sp)
    498c:	1009883a 	mov	r4,r2
    4990:	180b883a 	mov	r5,r3
    4994:	880f883a 	mov	r7,r17
    4998:	000a28c0 	call	a28c <__gedf2>
    499c:	0029883a 	mov	r20,zero
    49a0:	002b883a 	mov	r21,zero
    49a4:	10007e16 	blt	r2,zero,4ba0 <_dtoa_r+0x10cc>
    49a8:	d8802117 	ldw	r2,132(sp)
    49ac:	b82d883a 	mov	r22,r23
    49b0:	0084303a 	nor	r2,zero,r2
    49b4:	d8800615 	stw	r2,24(sp)
    49b8:	8009883a 	mov	r4,r16
    49bc:	a00b883a 	mov	r5,r20
    49c0:	0006ed40 	call	6ed4 <_Bfree>
    49c4:	a83f4b1e 	bne	r21,zero,46f4 <__alt_mem_onchip_flash_0_data+0xf0f046f4>
    49c8:	003de306 	br	4158 <__alt_mem_onchip_flash_0_data+0xf0f04158>
    49cc:	e00b883a 	mov	r5,fp
    49d0:	8009883a 	mov	r4,r16
    49d4:	00074480 	call	7448 <__pow5mult>
    49d8:	1039883a 	mov	fp,r2
    49dc:	003ed206 	br	4528 <__alt_mem_onchip_flash_0_data+0xf0f04528>
    49e0:	1000021e 	bne	r2,zero,49ec <_dtoa_r+0xf18>
    49e4:	18c0004c 	andi	r3,r3,1
    49e8:	183f271e 	bne	r3,zero,4688 <__alt_mem_onchip_flash_0_data+0xf0f04688>
    49ec:	01000c04 	movi	r4,48
    49f0:	00000106 	br	49f8 <_dtoa_r+0xf24>
    49f4:	102d883a 	mov	r22,r2
    49f8:	b0bfffc4 	addi	r2,r22,-1
    49fc:	10c00007 	ldb	r3,0(r2)
    4a00:	193ffc26 	beq	r3,r4,49f4 <__alt_mem_onchip_flash_0_data+0xf0f049f4>
    4a04:	003f3206 	br	46d0 <__alt_mem_onchip_flash_0_data+0xf0f046d0>
    4a08:	d8c00f17 	ldw	r3,60(sp)
    4a0c:	18015026 	beq	r3,zero,4f50 <_dtoa_r+0x147c>
    4a10:	10810cc4 	addi	r2,r2,1075
    4a14:	dcc00a17 	ldw	r19,40(sp)
    4a18:	dc800817 	ldw	r18,32(sp)
    4a1c:	003e9706 	br	447c <__alt_mem_onchip_flash_0_data+0xf0f0447c>
    4a20:	b807883a 	mov	r3,r23
    4a24:	182b883a 	mov	r21,r3
    4a28:	ddc00717 	ldw	r23,28(sp)
    4a2c:	00800e0e 	bge	zero,r2,4a68 <_dtoa_r+0xf94>
    4a30:	e00b883a 	mov	r5,fp
    4a34:	01800044 	movi	r6,1
    4a38:	8009883a 	mov	r4,r16
    4a3c:	d8c01515 	stw	r3,84(sp)
    4a40:	00075740 	call	7574 <__lshift>
    4a44:	1009883a 	mov	r4,r2
    4a48:	a00b883a 	mov	r5,r20
    4a4c:	1039883a 	mov	fp,r2
    4a50:	00076d00 	call	76d0 <__mcmp>
    4a54:	d8c01517 	ldw	r3,84(sp)
    4a58:	0081880e 	bge	zero,r2,507c <_dtoa_r+0x15a8>
    4a5c:	00800e44 	movi	r2,57
    4a60:	b0c00c44 	addi	r3,r22,49
    4a64:	a8816326 	beq	r21,r2,4ff4 <_dtoa_r+0x1520>
    4a68:	90c00005 	stb	r3,0(r18)
    4a6c:	95800044 	addi	r22,r18,1
    4a70:	982b883a 	mov	r21,r19
    4a74:	003f1606 	br	46d0 <__alt_mem_onchip_flash_0_data+0xf0f046d0>
    4a78:	300b883a 	mov	r5,r6
    4a7c:	e009883a 	mov	r4,fp
    4a80:	d9801515 	stw	r6,84(sp)
    4a84:	00076d00 	call	76d0 <__mcmp>
    4a88:	d9801517 	ldw	r6,84(sp)
    4a8c:	8009883a 	mov	r4,r16
    4a90:	d8801515 	stw	r2,84(sp)
    4a94:	300b883a 	mov	r5,r6
    4a98:	0006ed40 	call	6ed4 <_Bfree>
    4a9c:	d8801517 	ldw	r2,84(sp)
    4aa0:	103f6d1e 	bne	r2,zero,4858 <__alt_mem_onchip_flash_0_data+0xf0f04858>
    4aa4:	d9c00417 	ldw	r7,16(sp)
    4aa8:	383f6b1e 	bne	r7,zero,4858 <__alt_mem_onchip_flash_0_data+0xf0f04858>
    4aac:	d8c00317 	ldw	r3,12(sp)
    4ab0:	183f691e 	bne	r3,zero,4858 <__alt_mem_onchip_flash_0_data+0xf0f04858>
    4ab4:	b807883a 	mov	r3,r23
    4ab8:	00800e44 	movi	r2,57
    4abc:	ddc00717 	ldw	r23,28(sp)
    4ac0:	18814c26 	beq	r3,r2,4ff4 <_dtoa_r+0x1520>
    4ac4:	057fe80e 	bge	zero,r21,4a68 <__alt_mem_onchip_flash_0_data+0xf0f04a68>
    4ac8:	b0c00c44 	addi	r3,r22,49
    4acc:	003fe606 	br	4a68 <__alt_mem_onchip_flash_0_data+0xf0f04a68>
    4ad0:	880b883a 	mov	r5,r17
    4ad4:	8009883a 	mov	r4,r16
    4ad8:	01800284 	movi	r6,10
    4adc:	000f883a 	mov	r7,zero
    4ae0:	0006efc0 	call	6efc <__multadd>
    4ae4:	1023883a 	mov	r17,r2
    4ae8:	1027883a 	mov	r19,r2
    4aec:	a825883a 	mov	r18,r21
    4af0:	003f4506 	br	4808 <__alt_mem_onchip_flash_0_data+0xf0f04808>
    4af4:	e009883a 	mov	r4,fp
    4af8:	a00b883a 	mov	r5,r20
    4afc:	00076d00 	call	76d0 <__mcmp>
    4b00:	103ebc0e 	bge	r2,zero,45f4 <__alt_mem_onchip_flash_0_data+0xf0f045f4>
    4b04:	e00b883a 	mov	r5,fp
    4b08:	8009883a 	mov	r4,r16
    4b0c:	01800284 	movi	r6,10
    4b10:	000f883a 	mov	r7,zero
    4b14:	0006efc0 	call	6efc <__multadd>
    4b18:	1039883a 	mov	fp,r2
    4b1c:	d8800617 	ldw	r2,24(sp)
    4b20:	d8c00c17 	ldw	r3,48(sp)
    4b24:	10bfffc4 	addi	r2,r2,-1
    4b28:	d8800615 	stw	r2,24(sp)
    4b2c:	1801571e 	bne	r3,zero,508c <_dtoa_r+0x15b8>
    4b30:	d9c00e17 	ldw	r7,56(sp)
    4b34:	d9c00915 	stw	r7,36(sp)
    4b38:	003eae06 	br	45f4 <__alt_mem_onchip_flash_0_data+0xf0f045f4>
    4b3c:	a0800417 	ldw	r2,16(r20)
    4b40:	10800104 	addi	r2,r2,4
    4b44:	1085883a 	add	r2,r2,r2
    4b48:	1085883a 	add	r2,r2,r2
    4b4c:	a085883a 	add	r2,r20,r2
    4b50:	11000017 	ldw	r4,0(r2)
    4b54:	00071140 	call	7114 <__hi0bits>
    4b58:	00c00804 	movi	r3,32
    4b5c:	1885c83a 	sub	r2,r3,r2
    4b60:	003e8306 	br	4570 <__alt_mem_onchip_flash_0_data+0xf0f04570>
    4b64:	d9c00417 	ldw	r7,16(sp)
    4b68:	00800084 	movi	r2,2
    4b6c:	11fea30e 	bge	r2,r7,45fc <__alt_mem_onchip_flash_0_data+0xf0f045fc>
    4b70:	d8800917 	ldw	r2,36(sp)
    4b74:	103f8c1e 	bne	r2,zero,49a8 <__alt_mem_onchip_flash_0_data+0xf0f049a8>
    4b78:	a00b883a 	mov	r5,r20
    4b7c:	8009883a 	mov	r4,r16
    4b80:	01800144 	movi	r6,5
    4b84:	000f883a 	mov	r7,zero
    4b88:	0006efc0 	call	6efc <__multadd>
    4b8c:	e009883a 	mov	r4,fp
    4b90:	100b883a 	mov	r5,r2
    4b94:	1029883a 	mov	r20,r2
    4b98:	00076d00 	call	76d0 <__mcmp>
    4b9c:	00bf820e 	bge	zero,r2,49a8 <__alt_mem_onchip_flash_0_data+0xf0f049a8>
    4ba0:	00800c44 	movi	r2,49
    4ba4:	b8800005 	stb	r2,0(r23)
    4ba8:	d8800617 	ldw	r2,24(sp)
    4bac:	bd800044 	addi	r22,r23,1
    4bb0:	10800044 	addi	r2,r2,1
    4bb4:	d8800615 	stw	r2,24(sp)
    4bb8:	003f7f06 	br	49b8 <__alt_mem_onchip_flash_0_data+0xf0f049b8>
    4bbc:	dc000417 	ldw	r16,16(sp)
    4bc0:	003d6506 	br	4158 <__alt_mem_onchip_flash_0_data+0xf0f04158>
    4bc4:	9009883a 	mov	r4,r18
    4bc8:	000a34c0 	call	a34c <__floatsidf>
    4bcc:	1009883a 	mov	r4,r2
    4bd0:	180b883a 	mov	r5,r3
    4bd4:	980d883a 	mov	r6,r19
    4bd8:	a00f883a 	mov	r7,r20
    4bdc:	0009d5c0 	call	9d5c <__muldf3>
    4be0:	1009883a 	mov	r4,r2
    4be4:	180b883a 	mov	r5,r3
    4be8:	000d883a 	mov	r6,zero
    4bec:	01d00734 	movhi	r7,16412
    4bf0:	0009ca80 	call	9ca8 <__adddf3>
    4bf4:	057f3034 	movhi	r21,64704
    4bf8:	1025883a 	mov	r18,r2
    4bfc:	1d6b883a 	add	r21,r3,r21
    4c00:	9809883a 	mov	r4,r19
    4c04:	a00b883a 	mov	r5,r20
    4c08:	000d883a 	mov	r6,zero
    4c0c:	01d00534 	movhi	r7,16404
    4c10:	0009cfc0 	call	9cfc <__subdf3>
    4c14:	1009883a 	mov	r4,r2
    4c18:	180b883a 	mov	r5,r3
    4c1c:	900d883a 	mov	r6,r18
    4c20:	a80f883a 	mov	r7,r21
    4c24:	1027883a 	mov	r19,r2
    4c28:	1829883a 	mov	r20,r3
    4c2c:	000a2280 	call	a228 <__gtdf2>
    4c30:	00806616 	blt	zero,r2,4dcc <_dtoa_r+0x12f8>
    4c34:	a9e0003c 	xorhi	r7,r21,32768
    4c38:	9809883a 	mov	r4,r19
    4c3c:	a00b883a 	mov	r5,r20
    4c40:	900d883a 	mov	r6,r18
    4c44:	000a2f00 	call	a2f0 <__ltdf2>
    4c48:	103d710e 	bge	r2,zero,4210 <__alt_mem_onchip_flash_0_data+0xf0f04210>
    4c4c:	0029883a 	mov	r20,zero
    4c50:	002b883a 	mov	r21,zero
    4c54:	003f5406 	br	49a8 <__alt_mem_onchip_flash_0_data+0xf0f049a8>
    4c58:	d9800a17 	ldw	r6,40(sp)
    4c5c:	e00b883a 	mov	r5,fp
    4c60:	8009883a 	mov	r4,r16
    4c64:	00074480 	call	7448 <__pow5mult>
    4c68:	1039883a 	mov	fp,r2
    4c6c:	003e2e06 	br	4528 <__alt_mem_onchip_flash_0_data+0xf0f04528>
    4c70:	d8000c15 	stw	zero,48(sp)
    4c74:	003f2006 	br	48f8 <__alt_mem_onchip_flash_0_data+0xf0f048f8>
    4c78:	00800044 	movi	r2,1
    4c7c:	d8800c15 	stw	r2,48(sp)
    4c80:	003c5d06 	br	3df8 <__alt_mem_onchip_flash_0_data+0xf0f03df8>
    4c84:	d8c00a17 	ldw	r3,40(sp)
    4c88:	d9000b17 	ldw	r4,44(sp)
    4c8c:	dcc00a15 	stw	r19,40(sp)
    4c90:	98c5c83a 	sub	r2,r19,r3
    4c94:	2089883a 	add	r4,r4,r2
    4c98:	d9000b15 	stw	r4,44(sp)
    4c9c:	0027883a 	mov	r19,zero
    4ca0:	003df206 	br	446c <__alt_mem_onchip_flash_0_data+0xf0f0446c>
    4ca4:	d9000317 	ldw	r4,12(sp)
    4ca8:	8829883a 	mov	r20,r17
    4cac:	04800084 	movi	r18,2
    4cb0:	d9001015 	stw	r4,64(sp)
    4cb4:	003c8106 	br	3ebc <__alt_mem_onchip_flash_0_data+0xf0f03ebc>
    4cb8:	04800044 	movi	r18,1
    4cbc:	dc800e15 	stw	r18,56(sp)
    4cc0:	dc800915 	stw	r18,36(sp)
    4cc4:	dc802115 	stw	r18,132(sp)
    4cc8:	003f1206 	br	4914 <__alt_mem_onchip_flash_0_data+0xf0f04914>
    4ccc:	d8800617 	ldw	r2,24(sp)
    4cd0:	00abc83a 	sub	r21,zero,r2
    4cd4:	a800a426 	beq	r21,zero,4f68 <_dtoa_r+0x1494>
    4cd8:	a88003cc 	andi	r2,r21,15
    4cdc:	100490fa 	slli	r2,r2,3
    4ce0:	00c000f4 	movhi	r3,3
    4ce4:	18c13d04 	addi	r3,r3,1268
    4ce8:	d9000317 	ldw	r4,12(sp)
    4cec:	1885883a 	add	r2,r3,r2
    4cf0:	11800017 	ldw	r6,0(r2)
    4cf4:	11c00117 	ldw	r7,4(r2)
    4cf8:	a82bd13a 	srai	r21,r21,4
    4cfc:	880b883a 	mov	r5,r17
    4d00:	0009d5c0 	call	9d5c <__muldf3>
    4d04:	1027883a 	mov	r19,r2
    4d08:	1829883a 	mov	r20,r3
    4d0c:	a800e826 	beq	r21,zero,50b0 <_dtoa_r+0x15dc>
    4d10:	058000f4 	movhi	r22,3
    4d14:	b5813304 	addi	r22,r22,1228
    4d18:	04800084 	movi	r18,2
    4d1c:	a980004c 	andi	r6,r21,1
    4d20:	1009883a 	mov	r4,r2
    4d24:	a82bd07a 	srai	r21,r21,1
    4d28:	180b883a 	mov	r5,r3
    4d2c:	30000426 	beq	r6,zero,4d40 <_dtoa_r+0x126c>
    4d30:	b1800017 	ldw	r6,0(r22)
    4d34:	b1c00117 	ldw	r7,4(r22)
    4d38:	94800044 	addi	r18,r18,1
    4d3c:	0009d5c0 	call	9d5c <__muldf3>
    4d40:	b5800204 	addi	r22,r22,8
    4d44:	a83ff51e 	bne	r21,zero,4d1c <__alt_mem_onchip_flash_0_data+0xf0f04d1c>
    4d48:	1027883a 	mov	r19,r2
    4d4c:	1829883a 	mov	r20,r3
    4d50:	003c7306 	br	3f20 <__alt_mem_onchip_flash_0_data+0xf0f03f20>
    4d54:	21000044 	addi	r4,r4,1
    4d58:	11000005 	stb	r4,0(r2)
    4d5c:	003e5c06 	br	46d0 <__alt_mem_onchip_flash_0_data+0xf0f046d0>
    4d60:	a9400117 	ldw	r5,4(r21)
    4d64:	8009883a 	mov	r4,r16
    4d68:	0006e2c0 	call	6e2c <_Balloc>
    4d6c:	a9800417 	ldw	r6,16(r21)
    4d70:	11000304 	addi	r4,r2,12
    4d74:	a9400304 	addi	r5,r21,12
    4d78:	31800084 	addi	r6,r6,2
    4d7c:	318d883a 	add	r6,r6,r6
    4d80:	318d883a 	add	r6,r6,r6
    4d84:	1023883a 	mov	r17,r2
    4d88:	0006b300 	call	6b30 <memcpy>
    4d8c:	8009883a 	mov	r4,r16
    4d90:	880b883a 	mov	r5,r17
    4d94:	01800044 	movi	r6,1
    4d98:	00075740 	call	7574 <__lshift>
    4d9c:	1027883a 	mov	r19,r2
    4da0:	003e8f06 	br	47e0 <__alt_mem_onchip_flash_0_data+0xf0f047e0>
    4da4:	b807883a 	mov	r3,r23
    4da8:	00800e44 	movi	r2,57
    4dac:	ddc00717 	ldw	r23,28(sp)
    4db0:	18809026 	beq	r3,r2,4ff4 <_dtoa_r+0x1520>
    4db4:	18c00044 	addi	r3,r3,1
    4db8:	003f2b06 	br	4a68 <__alt_mem_onchip_flash_0_data+0xf0f04a68>
    4dbc:	b807883a 	mov	r3,r23
    4dc0:	982b883a 	mov	r21,r19
    4dc4:	ddc00717 	ldw	r23,28(sp)
    4dc8:	003e2406 	br	465c <__alt_mem_onchip_flash_0_data+0xf0f0465c>
    4dcc:	0029883a 	mov	r20,zero
    4dd0:	002b883a 	mov	r21,zero
    4dd4:	003f7206 	br	4ba0 <__alt_mem_onchip_flash_0_data+0xf0f04ba0>
    4dd8:	593fffc4 	addi	r4,r11,-1
    4ddc:	200490fa 	slli	r2,r4,3
    4de0:	00c000f4 	movhi	r3,3
    4de4:	18c13d04 	addi	r3,r3,1268
    4de8:	d9001015 	stw	r4,64(sp)
    4dec:	1885883a 	add	r2,r3,r2
    4df0:	11000017 	ldw	r4,0(r2)
    4df4:	11400117 	ldw	r5,4(r2)
    4df8:	900d883a 	mov	r6,r18
    4dfc:	a80f883a 	mov	r7,r21
    4e00:	dac01615 	stw	r11,88(sp)
    4e04:	0009d5c0 	call	9d5c <__muldf3>
    4e08:	a00b883a 	mov	r5,r20
    4e0c:	9809883a 	mov	r4,r19
    4e10:	d8c01215 	stw	r3,72(sp)
    4e14:	d8801115 	stw	r2,68(sp)
    4e18:	000a4200 	call	a420 <__fixdfsi>
    4e1c:	1009883a 	mov	r4,r2
    4e20:	1025883a 	mov	r18,r2
    4e24:	000a34c0 	call	a34c <__floatsidf>
    4e28:	9809883a 	mov	r4,r19
    4e2c:	a00b883a 	mov	r5,r20
    4e30:	100d883a 	mov	r6,r2
    4e34:	180f883a 	mov	r7,r3
    4e38:	94800c04 	addi	r18,r18,48
    4e3c:	0009cfc0 	call	9cfc <__subdf3>
    4e40:	bc800005 	stb	r18,0(r23)
    4e44:	dac01617 	ldw	r11,88(sp)
    4e48:	102b883a 	mov	r21,r2
    4e4c:	00800044 	movi	r2,1
    4e50:	bd800044 	addi	r22,r23,1
    4e54:	1815883a 	mov	r10,r3
    4e58:	58802226 	beq	r11,r2,4ee4 <_dtoa_r+0x1410>
    4e5c:	bad7883a 	add	r11,r23,r11
    4e60:	dc001415 	stw	r16,80(sp)
    4e64:	a805883a 	mov	r2,r21
    4e68:	b027883a 	mov	r19,r22
    4e6c:	5821883a 	mov	r16,r11
    4e70:	882b883a 	mov	r21,r17
    4e74:	000d883a 	mov	r6,zero
    4e78:	01d00934 	movhi	r7,16420
    4e7c:	1009883a 	mov	r4,r2
    4e80:	180b883a 	mov	r5,r3
    4e84:	0009d5c0 	call	9d5c <__muldf3>
    4e88:	180b883a 	mov	r5,r3
    4e8c:	1009883a 	mov	r4,r2
    4e90:	1829883a 	mov	r20,r3
    4e94:	1023883a 	mov	r17,r2
    4e98:	000a4200 	call	a420 <__fixdfsi>
    4e9c:	1009883a 	mov	r4,r2
    4ea0:	1025883a 	mov	r18,r2
    4ea4:	000a34c0 	call	a34c <__floatsidf>
    4ea8:	8809883a 	mov	r4,r17
    4eac:	a00b883a 	mov	r5,r20
    4eb0:	100d883a 	mov	r6,r2
    4eb4:	180f883a 	mov	r7,r3
    4eb8:	94800c04 	addi	r18,r18,48
    4ebc:	0009cfc0 	call	9cfc <__subdf3>
    4ec0:	9cc00044 	addi	r19,r19,1
    4ec4:	9cbfffc5 	stb	r18,-1(r19)
    4ec8:	9c3fea1e 	bne	r19,r16,4e74 <__alt_mem_onchip_flash_0_data+0xf0f04e74>
    4ecc:	1815883a 	mov	r10,r3
    4ed0:	d8c01017 	ldw	r3,64(sp)
    4ed4:	dc001417 	ldw	r16,80(sp)
    4ed8:	a823883a 	mov	r17,r21
    4edc:	b0ed883a 	add	r22,r22,r3
    4ee0:	102b883a 	mov	r21,r2
    4ee4:	d9001117 	ldw	r4,68(sp)
    4ee8:	d9401217 	ldw	r5,72(sp)
    4eec:	000d883a 	mov	r6,zero
    4ef0:	01cff834 	movhi	r7,16352
    4ef4:	da801515 	stw	r10,84(sp)
    4ef8:	0009ca80 	call	9ca8 <__adddf3>
    4efc:	da801517 	ldw	r10,84(sp)
    4f00:	1009883a 	mov	r4,r2
    4f04:	180b883a 	mov	r5,r3
    4f08:	500f883a 	mov	r7,r10
    4f0c:	a80d883a 	mov	r6,r21
    4f10:	000a2f00 	call	a2f0 <__ltdf2>
    4f14:	da801517 	ldw	r10,84(sp)
    4f18:	10003b0e 	bge	r2,zero,5008 <_dtoa_r+0x1534>
    4f1c:	d9c01317 	ldw	r7,76(sp)
    4f20:	b53fffc3 	ldbu	r20,-1(r22)
    4f24:	d9c00615 	stw	r7,24(sp)
    4f28:	003d3106 	br	43f0 <__alt_mem_onchip_flash_0_data+0xf0f043f0>
    4f2c:	d8800817 	ldw	r2,32(sp)
    4f30:	11e5c83a 	sub	r18,r2,r7
    4f34:	0005883a 	mov	r2,zero
    4f38:	003d5006 	br	447c <__alt_mem_onchip_flash_0_data+0xf0f0447c>
    4f3c:	05800044 	movi	r22,1
    4f40:	003dc406 	br	4654 <__alt_mem_onchip_flash_0_data+0xf0f04654>
    4f44:	a5000044 	addi	r20,r20,1
    4f48:	15000005 	stb	r20,0(r2)
    4f4c:	003c8206 	br	4158 <__alt_mem_onchip_flash_0_data+0xf0f04158>
    4f50:	d8800217 	ldw	r2,8(sp)
    4f54:	00c00d84 	movi	r3,54
    4f58:	dcc00a17 	ldw	r19,40(sp)
    4f5c:	1885c83a 	sub	r2,r3,r2
    4f60:	dc800817 	ldw	r18,32(sp)
    4f64:	003d4506 	br	447c <__alt_mem_onchip_flash_0_data+0xf0f0447c>
    4f68:	dcc00317 	ldw	r19,12(sp)
    4f6c:	8829883a 	mov	r20,r17
    4f70:	04800084 	movi	r18,2
    4f74:	003bea06 	br	3f20 <__alt_mem_onchip_flash_0_data+0xf0f03f20>
    4f78:	d9000917 	ldw	r4,36(sp)
    4f7c:	203f1126 	beq	r4,zero,4bc4 <__alt_mem_onchip_flash_0_data+0xf0f04bc4>
    4f80:	d9c00e17 	ldw	r7,56(sp)
    4f84:	01fca20e 	bge	zero,r7,4210 <__alt_mem_onchip_flash_0_data+0xf0f04210>
    4f88:	a00b883a 	mov	r5,r20
    4f8c:	9809883a 	mov	r4,r19
    4f90:	000d883a 	mov	r6,zero
    4f94:	01d00934 	movhi	r7,16420
    4f98:	0009d5c0 	call	9d5c <__muldf3>
    4f9c:	91000044 	addi	r4,r18,1
    4fa0:	1027883a 	mov	r19,r2
    4fa4:	1829883a 	mov	r20,r3
    4fa8:	000a34c0 	call	a34c <__floatsidf>
    4fac:	9809883a 	mov	r4,r19
    4fb0:	a00b883a 	mov	r5,r20
    4fb4:	100d883a 	mov	r6,r2
    4fb8:	180f883a 	mov	r7,r3
    4fbc:	0009d5c0 	call	9d5c <__muldf3>
    4fc0:	1009883a 	mov	r4,r2
    4fc4:	180b883a 	mov	r5,r3
    4fc8:	000d883a 	mov	r6,zero
    4fcc:	01d00734 	movhi	r7,16412
    4fd0:	0009ca80 	call	9ca8 <__adddf3>
    4fd4:	1025883a 	mov	r18,r2
    4fd8:	d8800617 	ldw	r2,24(sp)
    4fdc:	057f3034 	movhi	r21,64704
    4fe0:	1d6b883a 	add	r21,r3,r21
    4fe4:	10bfffc4 	addi	r2,r2,-1
    4fe8:	d8801315 	stw	r2,76(sp)
    4fec:	dac00e17 	ldw	r11,56(sp)
    4ff0:	003be706 	br	3f90 <__alt_mem_onchip_flash_0_data+0xf0f03f90>
    4ff4:	01000e44 	movi	r4,57
    4ff8:	91000005 	stb	r4,0(r18)
    4ffc:	95800044 	addi	r22,r18,1
    5000:	982b883a 	mov	r21,r19
    5004:	003da106 	br	468c <__alt_mem_onchip_flash_0_data+0xf0f0468c>
    5008:	d9801117 	ldw	r6,68(sp)
    500c:	d9c01217 	ldw	r7,72(sp)
    5010:	0009883a 	mov	r4,zero
    5014:	014ff834 	movhi	r5,16352
    5018:	da801515 	stw	r10,84(sp)
    501c:	0009cfc0 	call	9cfc <__subdf3>
    5020:	da801517 	ldw	r10,84(sp)
    5024:	1009883a 	mov	r4,r2
    5028:	180b883a 	mov	r5,r3
    502c:	a80d883a 	mov	r6,r21
    5030:	500f883a 	mov	r7,r10
    5034:	000a2280 	call	a228 <__gtdf2>
    5038:	00bc750e 	bge	zero,r2,4210 <__alt_mem_onchip_flash_0_data+0xf0f04210>
    503c:	01000c04 	movi	r4,48
    5040:	00000106 	br	5048 <_dtoa_r+0x1574>
    5044:	102d883a 	mov	r22,r2
    5048:	b0bfffc4 	addi	r2,r22,-1
    504c:	10c00007 	ldb	r3,0(r2)
    5050:	193ffc26 	beq	r3,r4,5044 <__alt_mem_onchip_flash_0_data+0xf0f05044>
    5054:	d8801317 	ldw	r2,76(sp)
    5058:	d8800615 	stw	r2,24(sp)
    505c:	003c3e06 	br	4158 <__alt_mem_onchip_flash_0_data+0xf0f04158>
    5060:	d9001317 	ldw	r4,76(sp)
    5064:	df001117 	ldw	fp,68(sp)
    5068:	d9000615 	stw	r4,24(sp)
    506c:	003ce006 	br	43f0 <__alt_mem_onchip_flash_0_data+0xf0f043f0>
    5070:	df001117 	ldw	fp,68(sp)
    5074:	dc401217 	ldw	r17,72(sp)
    5078:	003c6506 	br	4210 <__alt_mem_onchip_flash_0_data+0xf0f04210>
    507c:	103e7a1e 	bne	r2,zero,4a68 <__alt_mem_onchip_flash_0_data+0xf0f04a68>
    5080:	1880004c 	andi	r2,r3,1
    5084:	103e7826 	beq	r2,zero,4a68 <__alt_mem_onchip_flash_0_data+0xf0f04a68>
    5088:	003e7406 	br	4a5c <__alt_mem_onchip_flash_0_data+0xf0f04a5c>
    508c:	8009883a 	mov	r4,r16
    5090:	a80b883a 	mov	r5,r21
    5094:	01800284 	movi	r6,10
    5098:	000f883a 	mov	r7,zero
    509c:	0006efc0 	call	6efc <__multadd>
    50a0:	d9000e17 	ldw	r4,56(sp)
    50a4:	102b883a 	mov	r21,r2
    50a8:	d9000915 	stw	r4,36(sp)
    50ac:	003d5106 	br	45f4 <__alt_mem_onchip_flash_0_data+0xf0f045f4>
    50b0:	04800084 	movi	r18,2
    50b4:	003b9a06 	br	3f20 <__alt_mem_onchip_flash_0_data+0xf0f03f20>
    50b8:	d8c01317 	ldw	r3,76(sp)
    50bc:	d8c00615 	stw	r3,24(sp)
    50c0:	003ccb06 	br	43f0 <__alt_mem_onchip_flash_0_data+0xf0f043f0>
    50c4:	d8c01317 	ldw	r3,76(sp)
    50c8:	d8c00615 	stw	r3,24(sp)
    50cc:	003c2206 	br	4158 <__alt_mem_onchip_flash_0_data+0xf0f04158>
    50d0:	20fd3826 	beq	r4,r3,45b4 <__alt_mem_onchip_flash_0_data+0xf0f045b4>
    50d4:	00c00f04 	movi	r3,60
    50d8:	1885c83a 	sub	r2,r3,r2
    50dc:	003da906 	br	4784 <__alt_mem_onchip_flash_0_data+0xf0f04784>
    50e0:	000b883a 	mov	r5,zero
    50e4:	003b5406 	br	3e38 <__alt_mem_onchip_flash_0_data+0xf0f03e38>
    50e8:	04c00044 	movi	r19,1
    50ec:	003b3b06 	br	3ddc <__alt_mem_onchip_flash_0_data+0xf0f03ddc>

000050f0 <_fflush_r>:
    50f0:	defffb04 	addi	sp,sp,-20
    50f4:	dcc00315 	stw	r19,12(sp)
    50f8:	dc400115 	stw	r17,4(sp)
    50fc:	dfc00415 	stw	ra,16(sp)
    5100:	dc800215 	stw	r18,8(sp)
    5104:	dc000015 	stw	r16,0(sp)
    5108:	2027883a 	mov	r19,r4
    510c:	2823883a 	mov	r17,r5
    5110:	20000226 	beq	r4,zero,511c <_fflush_r+0x2c>
    5114:	20800e17 	ldw	r2,56(r4)
    5118:	10005726 	beq	r2,zero,5278 <_fflush_r+0x188>
    511c:	8880030b 	ldhu	r2,12(r17)
    5120:	10c0020c 	andi	r3,r2,8
    5124:	18ffffcc 	andi	r3,r3,65535
    5128:	18e0001c 	xori	r3,r3,32768
    512c:	18e00004 	addi	r3,r3,-32768
    5130:	1800311e 	bne	r3,zero,51f8 <_fflush_r+0x108>
    5134:	89000117 	ldw	r4,4(r17)
    5138:	10c20014 	ori	r3,r2,2048
    513c:	88c0030d 	sth	r3,12(r17)
    5140:	180b883a 	mov	r5,r3
    5144:	0100520e 	bge	zero,r4,5290 <_fflush_r+0x1a0>
    5148:	88c00a17 	ldw	r3,40(r17)
    514c:	18002226 	beq	r3,zero,51d8 <_fflush_r+0xe8>
    5150:	1084000c 	andi	r2,r2,4096
    5154:	10bfffcc 	andi	r2,r2,65535
    5158:	10a0001c 	xori	r2,r2,32768
    515c:	10a00004 	addi	r2,r2,-32768
    5160:	10004e26 	beq	r2,zero,529c <_fflush_r+0x1ac>
    5164:	8c001417 	ldw	r16,80(r17)
    5168:	2940010c 	andi	r5,r5,4
    516c:	297fffcc 	andi	r5,r5,65535
    5170:	2960001c 	xori	r5,r5,32768
    5174:	29600004 	addi	r5,r5,-32768
    5178:	28000626 	beq	r5,zero,5194 <_fflush_r+0xa4>
    517c:	89000117 	ldw	r4,4(r17)
    5180:	88800c17 	ldw	r2,48(r17)
    5184:	8121c83a 	sub	r16,r16,r4
    5188:	10000226 	beq	r2,zero,5194 <_fflush_r+0xa4>
    518c:	88800f17 	ldw	r2,60(r17)
    5190:	80a1c83a 	sub	r16,r16,r2
    5194:	89400717 	ldw	r5,28(r17)
    5198:	9809883a 	mov	r4,r19
    519c:	800d883a 	mov	r6,r16
    51a0:	000f883a 	mov	r7,zero
    51a4:	183ee83a 	callr	r3
    51a8:	8080281e 	bne	r16,r2,524c <_fflush_r+0x15c>
    51ac:	8880030b 	ldhu	r2,12(r17)
    51b0:	88c00417 	ldw	r3,16(r17)
    51b4:	88000115 	stw	zero,4(r17)
    51b8:	113dffcc 	andi	r4,r2,63487
    51bc:	1084000c 	andi	r2,r2,4096
    51c0:	10bfffcc 	andi	r2,r2,65535
    51c4:	10a0001c 	xori	r2,r2,32768
    51c8:	8900030d 	sth	r4,12(r17)
    51cc:	88c00015 	stw	r3,0(r17)
    51d0:	10a00004 	addi	r2,r2,-32768
    51d4:	10002c1e 	bne	r2,zero,5288 <_fflush_r+0x198>
    51d8:	0005883a 	mov	r2,zero
    51dc:	dfc00417 	ldw	ra,16(sp)
    51e0:	dcc00317 	ldw	r19,12(sp)
    51e4:	dc800217 	ldw	r18,8(sp)
    51e8:	dc400117 	ldw	r17,4(sp)
    51ec:	dc000017 	ldw	r16,0(sp)
    51f0:	dec00504 	addi	sp,sp,20
    51f4:	f800283a 	ret
    51f8:	8c800417 	ldw	r18,16(r17)
    51fc:	903ff626 	beq	r18,zero,51d8 <__alt_mem_onchip_flash_0_data+0xf0f051d8>
    5200:	8c000017 	ldw	r16,0(r17)
    5204:	108000cc 	andi	r2,r2,3
    5208:	8c800015 	stw	r18,0(r17)
    520c:	84a1c83a 	sub	r16,r16,r18
    5210:	10001b1e 	bne	r2,zero,5280 <_fflush_r+0x190>
    5214:	88800517 	ldw	r2,20(r17)
    5218:	88800215 	stw	r2,8(r17)
    521c:	04000316 	blt	zero,r16,522c <_fflush_r+0x13c>
    5220:	003fed06 	br	51d8 <__alt_mem_onchip_flash_0_data+0xf0f051d8>
    5224:	90a5883a 	add	r18,r18,r2
    5228:	043feb0e 	bge	zero,r16,51d8 <__alt_mem_onchip_flash_0_data+0xf0f051d8>
    522c:	88800917 	ldw	r2,36(r17)
    5230:	89400717 	ldw	r5,28(r17)
    5234:	800f883a 	mov	r7,r16
    5238:	900d883a 	mov	r6,r18
    523c:	9809883a 	mov	r4,r19
    5240:	103ee83a 	callr	r2
    5244:	80a1c83a 	sub	r16,r16,r2
    5248:	00bff616 	blt	zero,r2,5224 <__alt_mem_onchip_flash_0_data+0xf0f05224>
    524c:	88c0030b 	ldhu	r3,12(r17)
    5250:	00bfffc4 	movi	r2,-1
    5254:	18c01014 	ori	r3,r3,64
    5258:	88c0030d 	sth	r3,12(r17)
    525c:	dfc00417 	ldw	ra,16(sp)
    5260:	dcc00317 	ldw	r19,12(sp)
    5264:	dc800217 	ldw	r18,8(sp)
    5268:	dc400117 	ldw	r17,4(sp)
    526c:	dc000017 	ldw	r16,0(sp)
    5270:	dec00504 	addi	sp,sp,20
    5274:	f800283a 	ret
    5278:	00053980 	call	5398 <__sinit>
    527c:	003fa706 	br	511c <__alt_mem_onchip_flash_0_data+0xf0f0511c>
    5280:	0005883a 	mov	r2,zero
    5284:	003fe406 	br	5218 <__alt_mem_onchip_flash_0_data+0xf0f05218>
    5288:	8c001415 	stw	r16,80(r17)
    528c:	003fd206 	br	51d8 <__alt_mem_onchip_flash_0_data+0xf0f051d8>
    5290:	88c00f17 	ldw	r3,60(r17)
    5294:	00ffac16 	blt	zero,r3,5148 <__alt_mem_onchip_flash_0_data+0xf0f05148>
    5298:	003fcf06 	br	51d8 <__alt_mem_onchip_flash_0_data+0xf0f051d8>
    529c:	89400717 	ldw	r5,28(r17)
    52a0:	9809883a 	mov	r4,r19
    52a4:	000d883a 	mov	r6,zero
    52a8:	01c00044 	movi	r7,1
    52ac:	183ee83a 	callr	r3
    52b0:	1021883a 	mov	r16,r2
    52b4:	00bfffc4 	movi	r2,-1
    52b8:	80800326 	beq	r16,r2,52c8 <_fflush_r+0x1d8>
    52bc:	8940030b 	ldhu	r5,12(r17)
    52c0:	88c00a17 	ldw	r3,40(r17)
    52c4:	003fa806 	br	5168 <__alt_mem_onchip_flash_0_data+0xf0f05168>
    52c8:	98c00017 	ldw	r3,0(r19)
    52cc:	00800744 	movi	r2,29
    52d0:	18bfde1e 	bne	r3,r2,524c <__alt_mem_onchip_flash_0_data+0xf0f0524c>
    52d4:	003fc006 	br	51d8 <__alt_mem_onchip_flash_0_data+0xf0f051d8>

000052d8 <fflush>:
    52d8:	200b883a 	mov	r5,r4
    52dc:	20000426 	beq	r4,zero,52f0 <fflush+0x18>
    52e0:	008000f4 	movhi	r2,3
    52e4:	1088af04 	addi	r2,r2,8892
    52e8:	11000017 	ldw	r4,0(r2)
    52ec:	00050f01 	jmpi	50f0 <_fflush_r>
    52f0:	008000f4 	movhi	r2,3
    52f4:	1088ae04 	addi	r2,r2,8888
    52f8:	11000017 	ldw	r4,0(r2)
    52fc:	01400034 	movhi	r5,0
    5300:	29543c04 	addi	r5,r5,20720
    5304:	0005f781 	jmpi	5f78 <_fwalk_reent>

00005308 <__fp_lock>:
    5308:	0005883a 	mov	r2,zero
    530c:	f800283a 	ret

00005310 <__fp_unlock>:
    5310:	0005883a 	mov	r2,zero
    5314:	f800283a 	ret

00005318 <_cleanup_r>:
    5318:	01400074 	movhi	r5,1
    531c:	29631204 	addi	r5,r5,-29624
    5320:	0005ed01 	jmpi	5ed0 <_fwalk>

00005324 <__sfmoreglue>:
    5324:	defffc04 	addi	sp,sp,-16
    5328:	dc400115 	stw	r17,4(sp)
    532c:	2c401724 	muli	r17,r5,92
    5330:	dc800215 	stw	r18,8(sp)
    5334:	2825883a 	mov	r18,r5
    5338:	89400304 	addi	r5,r17,12
    533c:	dc000015 	stw	r16,0(sp)
    5340:	dfc00315 	stw	ra,12(sp)
    5344:	00062b40 	call	62b4 <_malloc_r>
    5348:	1021883a 	mov	r16,r2
    534c:	10000726 	beq	r2,zero,536c <__sfmoreglue+0x48>
    5350:	11000304 	addi	r4,r2,12
    5354:	10000015 	stw	zero,0(r2)
    5358:	14800115 	stw	r18,4(r2)
    535c:	11000215 	stw	r4,8(r2)
    5360:	000b883a 	mov	r5,zero
    5364:	880d883a 	mov	r6,r17
    5368:	0006d500 	call	6d50 <memset>
    536c:	8005883a 	mov	r2,r16
    5370:	dfc00317 	ldw	ra,12(sp)
    5374:	dc800217 	ldw	r18,8(sp)
    5378:	dc400117 	ldw	r17,4(sp)
    537c:	dc000017 	ldw	r16,0(sp)
    5380:	dec00404 	addi	sp,sp,16
    5384:	f800283a 	ret

00005388 <_cleanup>:
    5388:	008000f4 	movhi	r2,3
    538c:	1088ae04 	addi	r2,r2,8888
    5390:	11000017 	ldw	r4,0(r2)
    5394:	00053181 	jmpi	5318 <_cleanup_r>

00005398 <__sinit>:
    5398:	20800e17 	ldw	r2,56(r4)
    539c:	1000401e 	bne	r2,zero,54a0 <__sinit+0x108>
    53a0:	21400117 	ldw	r5,4(r4)
    53a4:	01800034 	movhi	r6,0
    53a8:	3194c604 	addi	r6,r6,21272
    53ac:	20c00217 	ldw	r3,8(r4)
    53b0:	21800f15 	stw	r6,60(r4)
    53b4:	2080bb04 	addi	r2,r4,748
    53b8:	02400044 	movi	r9,1
    53bc:	018000c4 	movi	r6,3
    53c0:	2180b915 	stw	r6,740(r4)
    53c4:	2080ba15 	stw	r2,744(r4)
    53c8:	22400e15 	stw	r9,56(r4)
    53cc:	20800317 	ldw	r2,12(r4)
    53d0:	2000b815 	stw	zero,736(r4)
    53d4:	02000074 	movhi	r8,1
    53d8:	42219104 	addi	r8,r8,-31164
    53dc:	01c00074 	movhi	r7,1
    53e0:	39e1a604 	addi	r7,r7,-31080
    53e4:	01800074 	movhi	r6,1
    53e8:	31a1c804 	addi	r6,r6,-30944
    53ec:	01000074 	movhi	r4,1
    53f0:	2121df04 	addi	r4,r4,-30852
    53f4:	02800104 	movi	r10,4
    53f8:	28000015 	stw	zero,0(r5)
    53fc:	28000115 	stw	zero,4(r5)
    5400:	28000215 	stw	zero,8(r5)
    5404:	2a80030d 	sth	r10,12(r5)
    5408:	2800038d 	sth	zero,14(r5)
    540c:	28000415 	stw	zero,16(r5)
    5410:	28000515 	stw	zero,20(r5)
    5414:	28000615 	stw	zero,24(r5)
    5418:	29400715 	stw	r5,28(r5)
    541c:	2a000815 	stw	r8,32(r5)
    5420:	29c00915 	stw	r7,36(r5)
    5424:	29800a15 	stw	r6,40(r5)
    5428:	29000b15 	stw	r4,44(r5)
    542c:	01400284 	movi	r5,10
    5430:	18000015 	stw	zero,0(r3)
    5434:	18000115 	stw	zero,4(r3)
    5438:	18000215 	stw	zero,8(r3)
    543c:	1940030d 	sth	r5,12(r3)
    5440:	1a40038d 	sth	r9,14(r3)
    5444:	18000415 	stw	zero,16(r3)
    5448:	18000515 	stw	zero,20(r3)
    544c:	18000615 	stw	zero,24(r3)
    5450:	18c00715 	stw	r3,28(r3)
    5454:	1a000815 	stw	r8,32(r3)
    5458:	19c00915 	stw	r7,36(r3)
    545c:	19800a15 	stw	r6,40(r3)
    5460:	19000b15 	stw	r4,44(r3)
    5464:	00c00484 	movi	r3,18
    5468:	10c0030d 	sth	r3,12(r2)
    546c:	00c00084 	movi	r3,2
    5470:	10000015 	stw	zero,0(r2)
    5474:	10000115 	stw	zero,4(r2)
    5478:	10000215 	stw	zero,8(r2)
    547c:	10c0038d 	sth	r3,14(r2)
    5480:	10000415 	stw	zero,16(r2)
    5484:	10000515 	stw	zero,20(r2)
    5488:	10000615 	stw	zero,24(r2)
    548c:	10800715 	stw	r2,28(r2)
    5490:	12000815 	stw	r8,32(r2)
    5494:	11c00915 	stw	r7,36(r2)
    5498:	11800a15 	stw	r6,40(r2)
    549c:	11000b15 	stw	r4,44(r2)
    54a0:	f800283a 	ret

000054a4 <__sfp>:
    54a4:	defffc04 	addi	sp,sp,-16
    54a8:	008000f4 	movhi	r2,3
    54ac:	1088ae04 	addi	r2,r2,8888
    54b0:	dc400115 	stw	r17,4(sp)
    54b4:	14400017 	ldw	r17,0(r2)
    54b8:	dc800215 	stw	r18,8(sp)
    54bc:	dfc00315 	stw	ra,12(sp)
    54c0:	88800e17 	ldw	r2,56(r17)
    54c4:	dc000015 	stw	r16,0(sp)
    54c8:	2025883a 	mov	r18,r4
    54cc:	10002826 	beq	r2,zero,5570 <__sfp+0xcc>
    54d0:	8c40b804 	addi	r17,r17,736
    54d4:	043fffc4 	movi	r16,-1
    54d8:	89400117 	ldw	r5,4(r17)
    54dc:	88800217 	ldw	r2,8(r17)
    54e0:	297fffc4 	addi	r5,r5,-1
    54e4:	28000a16 	blt	r5,zero,5510 <__sfp+0x6c>
    54e8:	10c0030f 	ldh	r3,12(r2)
    54ec:	18000c26 	beq	r3,zero,5520 <__sfp+0x7c>
    54f0:	10c01a04 	addi	r3,r2,104
    54f4:	00000206 	br	5500 <__sfp+0x5c>
    54f8:	19bfe90f 	ldh	r6,-92(r3)
    54fc:	30000826 	beq	r6,zero,5520 <__sfp+0x7c>
    5500:	297fffc4 	addi	r5,r5,-1
    5504:	18bffd04 	addi	r2,r3,-12
    5508:	18c01704 	addi	r3,r3,92
    550c:	2c3ffa1e 	bne	r5,r16,54f8 <__alt_mem_onchip_flash_0_data+0xf0f054f8>
    5510:	88800017 	ldw	r2,0(r17)
    5514:	10001926 	beq	r2,zero,557c <__sfp+0xd8>
    5518:	1023883a 	mov	r17,r2
    551c:	003fee06 	br	54d8 <__alt_mem_onchip_flash_0_data+0xf0f054d8>
    5520:	00ffffc4 	movi	r3,-1
    5524:	10c0038d 	sth	r3,14(r2)
    5528:	00c00044 	movi	r3,1
    552c:	10c0030d 	sth	r3,12(r2)
    5530:	10000015 	stw	zero,0(r2)
    5534:	10000215 	stw	zero,8(r2)
    5538:	10000115 	stw	zero,4(r2)
    553c:	10000415 	stw	zero,16(r2)
    5540:	10000515 	stw	zero,20(r2)
    5544:	10000615 	stw	zero,24(r2)
    5548:	10000c15 	stw	zero,48(r2)
    554c:	10000d15 	stw	zero,52(r2)
    5550:	10001115 	stw	zero,68(r2)
    5554:	10001215 	stw	zero,72(r2)
    5558:	dfc00317 	ldw	ra,12(sp)
    555c:	dc800217 	ldw	r18,8(sp)
    5560:	dc400117 	ldw	r17,4(sp)
    5564:	dc000017 	ldw	r16,0(sp)
    5568:	dec00404 	addi	sp,sp,16
    556c:	f800283a 	ret
    5570:	8809883a 	mov	r4,r17
    5574:	00053980 	call	5398 <__sinit>
    5578:	003fd506 	br	54d0 <__alt_mem_onchip_flash_0_data+0xf0f054d0>
    557c:	9009883a 	mov	r4,r18
    5580:	01400104 	movi	r5,4
    5584:	00053240 	call	5324 <__sfmoreglue>
    5588:	88800015 	stw	r2,0(r17)
    558c:	103fe21e 	bne	r2,zero,5518 <__alt_mem_onchip_flash_0_data+0xf0f05518>
    5590:	00800304 	movi	r2,12
    5594:	90800015 	stw	r2,0(r18)
    5598:	0005883a 	mov	r2,zero
    559c:	003fee06 	br	5558 <__alt_mem_onchip_flash_0_data+0xf0f05558>

000055a0 <__sfp_lock_acquire>:
    55a0:	f800283a 	ret

000055a4 <__sfp_lock_release>:
    55a4:	f800283a 	ret

000055a8 <__sinit_lock_acquire>:
    55a8:	f800283a 	ret

000055ac <__sinit_lock_release>:
    55ac:	f800283a 	ret

000055b0 <__fp_lock_all>:
    55b0:	008000f4 	movhi	r2,3
    55b4:	1088af04 	addi	r2,r2,8892
    55b8:	11000017 	ldw	r4,0(r2)
    55bc:	01400034 	movhi	r5,0
    55c0:	2954c204 	addi	r5,r5,21256
    55c4:	0005ed01 	jmpi	5ed0 <_fwalk>

000055c8 <__fp_unlock_all>:
    55c8:	008000f4 	movhi	r2,3
    55cc:	1088af04 	addi	r2,r2,8892
    55d0:	11000017 	ldw	r4,0(r2)
    55d4:	01400034 	movhi	r5,0
    55d8:	2954c404 	addi	r5,r5,21264
    55dc:	0005ed01 	jmpi	5ed0 <_fwalk>

000055e0 <_malloc_trim_r>:
    55e0:	defffb04 	addi	sp,sp,-20
    55e4:	dcc00315 	stw	r19,12(sp)
    55e8:	dc800215 	stw	r18,8(sp)
    55ec:	dc400115 	stw	r17,4(sp)
    55f0:	dc000015 	stw	r16,0(sp)
    55f4:	2827883a 	mov	r19,r5
    55f8:	dfc00415 	stw	ra,16(sp)
    55fc:	044000f4 	movhi	r17,3
    5600:	8c42e104 	addi	r17,r17,2948
    5604:	2021883a 	mov	r16,r4
    5608:	000af140 	call	af14 <__malloc_lock>
    560c:	88800217 	ldw	r2,8(r17)
    5610:	14800117 	ldw	r18,4(r2)
    5614:	00bfff04 	movi	r2,-4
    5618:	90a4703a 	and	r18,r18,r2
    561c:	9083fbc4 	addi	r2,r18,4079
    5620:	14e7c83a 	sub	r19,r2,r19
    5624:	9826d33a 	srli	r19,r19,12
    5628:	0083ffc4 	movi	r2,4095
    562c:	9cffffc4 	addi	r19,r19,-1
    5630:	9826933a 	slli	r19,r19,12
    5634:	14c0060e 	bge	r2,r19,5650 <_malloc_trim_r+0x70>
    5638:	8009883a 	mov	r4,r16
    563c:	000b883a 	mov	r5,zero
    5640:	00085e00 	call	85e0 <_sbrk_r>
    5644:	88c00217 	ldw	r3,8(r17)
    5648:	1c87883a 	add	r3,r3,r18
    564c:	10c00a26 	beq	r2,r3,5678 <_malloc_trim_r+0x98>
    5650:	8009883a 	mov	r4,r16
    5654:	000af180 	call	af18 <__malloc_unlock>
    5658:	0005883a 	mov	r2,zero
    565c:	dfc00417 	ldw	ra,16(sp)
    5660:	dcc00317 	ldw	r19,12(sp)
    5664:	dc800217 	ldw	r18,8(sp)
    5668:	dc400117 	ldw	r17,4(sp)
    566c:	dc000017 	ldw	r16,0(sp)
    5670:	dec00504 	addi	sp,sp,20
    5674:	f800283a 	ret
    5678:	8009883a 	mov	r4,r16
    567c:	04cbc83a 	sub	r5,zero,r19
    5680:	00085e00 	call	85e0 <_sbrk_r>
    5684:	00ffffc4 	movi	r3,-1
    5688:	10c01326 	beq	r2,r3,56d8 <_malloc_trim_r+0xf8>
    568c:	008000f4 	movhi	r2,3
    5690:	108fbe04 	addi	r2,r2,16120
    5694:	11000017 	ldw	r4,0(r2)
    5698:	88c00217 	ldw	r3,8(r17)
    569c:	94e5c83a 	sub	r18,r18,r19
    56a0:	94800054 	ori	r18,r18,1
    56a4:	24e7c83a 	sub	r19,r4,r19
    56a8:	1c800115 	stw	r18,4(r3)
    56ac:	8009883a 	mov	r4,r16
    56b0:	14c00015 	stw	r19,0(r2)
    56b4:	000af180 	call	af18 <__malloc_unlock>
    56b8:	00800044 	movi	r2,1
    56bc:	dfc00417 	ldw	ra,16(sp)
    56c0:	dcc00317 	ldw	r19,12(sp)
    56c4:	dc800217 	ldw	r18,8(sp)
    56c8:	dc400117 	ldw	r17,4(sp)
    56cc:	dc000017 	ldw	r16,0(sp)
    56d0:	dec00504 	addi	sp,sp,20
    56d4:	f800283a 	ret
    56d8:	8009883a 	mov	r4,r16
    56dc:	000b883a 	mov	r5,zero
    56e0:	00085e00 	call	85e0 <_sbrk_r>
    56e4:	88c00217 	ldw	r3,8(r17)
    56e8:	014003c4 	movi	r5,15
    56ec:	10c9c83a 	sub	r4,r2,r3
    56f0:	293fd70e 	bge	r5,r4,5650 <__alt_mem_onchip_flash_0_data+0xf0f05650>
    56f4:	014000f4 	movhi	r5,3
    56f8:	2948b104 	addi	r5,r5,8900
    56fc:	29400017 	ldw	r5,0(r5)
    5700:	21000054 	ori	r4,r4,1
    5704:	19000115 	stw	r4,4(r3)
    5708:	1145c83a 	sub	r2,r2,r5
    570c:	014000f4 	movhi	r5,3
    5710:	294fbe04 	addi	r5,r5,16120
    5714:	28800015 	stw	r2,0(r5)
    5718:	003fcd06 	br	5650 <__alt_mem_onchip_flash_0_data+0xf0f05650>

0000571c <_free_r>:
    571c:	defffd04 	addi	sp,sp,-12
    5720:	dc400115 	stw	r17,4(sp)
    5724:	dc000015 	stw	r16,0(sp)
    5728:	dfc00215 	stw	ra,8(sp)
    572c:	2821883a 	mov	r16,r5
    5730:	2023883a 	mov	r17,r4
    5734:	28004b26 	beq	r5,zero,5864 <_free_r+0x148>
    5738:	000af140 	call	af14 <__malloc_lock>
    573c:	823fff17 	ldw	r8,-4(r16)
    5740:	00bfff84 	movi	r2,-2
    5744:	81bffe04 	addi	r6,r16,-8
    5748:	4084703a 	and	r2,r8,r2
    574c:	3087883a 	add	r3,r6,r2
    5750:	014000f4 	movhi	r5,3
    5754:	2942e104 	addi	r5,r5,2948
    5758:	1a400117 	ldw	r9,4(r3)
    575c:	29000217 	ldw	r4,8(r5)
    5760:	01ffff04 	movi	r7,-4
    5764:	49ce703a 	and	r7,r9,r7
    5768:	20c06526 	beq	r4,r3,5900 <_free_r+0x1e4>
    576c:	19c00115 	stw	r7,4(r3)
    5770:	4200004c 	andi	r8,r8,1
    5774:	40003026 	beq	r8,zero,5838 <_free_r+0x11c>
    5778:	0009883a 	mov	r4,zero
    577c:	19d1883a 	add	r8,r3,r7
    5780:	42000117 	ldw	r8,4(r8)
    5784:	4200004c 	andi	r8,r8,1
    5788:	4000061e 	bne	r8,zero,57a4 <_free_r+0x88>
    578c:	11c5883a 	add	r2,r2,r7
    5790:	19c00217 	ldw	r7,8(r3)
    5794:	20004e26 	beq	r4,zero,58d0 <_free_r+0x1b4>
    5798:	18c00317 	ldw	r3,12(r3)
    579c:	38c00315 	stw	r3,12(r7)
    57a0:	19c00215 	stw	r7,8(r3)
    57a4:	11c00054 	ori	r7,r2,1
    57a8:	3087883a 	add	r3,r6,r2
    57ac:	31c00115 	stw	r7,4(r6)
    57b0:	18800015 	stw	r2,0(r3)
    57b4:	20001a1e 	bne	r4,zero,5820 <_free_r+0x104>
    57b8:	00c07fc4 	movi	r3,511
    57bc:	18802e2e 	bgeu	r3,r2,5878 <_free_r+0x15c>
    57c0:	1006d27a 	srli	r3,r2,9
    57c4:	01000104 	movi	r4,4
    57c8:	20c06636 	bltu	r4,r3,5964 <_free_r+0x248>
    57cc:	1008d1ba 	srli	r4,r2,6
    57d0:	21000e04 	addi	r4,r4,56
    57d4:	210f883a 	add	r7,r4,r4
    57d8:	39cf883a 	add	r7,r7,r7
    57dc:	39cf883a 	add	r7,r7,r7
    57e0:	29cf883a 	add	r7,r5,r7
    57e4:	38c00217 	ldw	r3,8(r7)
    57e8:	014000f4 	movhi	r5,3
    57ec:	2942e104 	addi	r5,r5,2948
    57f0:	19c06126 	beq	r3,r7,5978 <_free_r+0x25c>
    57f4:	013fff04 	movi	r4,-4
    57f8:	19400117 	ldw	r5,4(r3)
    57fc:	290a703a 	and	r5,r5,r4
    5800:	1140022e 	bgeu	r2,r5,580c <_free_r+0xf0>
    5804:	18c00217 	ldw	r3,8(r3)
    5808:	38fffb1e 	bne	r7,r3,57f8 <__alt_mem_onchip_flash_0_data+0xf0f057f8>
    580c:	18800317 	ldw	r2,12(r3)
    5810:	30800315 	stw	r2,12(r6)
    5814:	30c00215 	stw	r3,8(r6)
    5818:	11800215 	stw	r6,8(r2)
    581c:	19800315 	stw	r6,12(r3)
    5820:	8809883a 	mov	r4,r17
    5824:	dfc00217 	ldw	ra,8(sp)
    5828:	dc400117 	ldw	r17,4(sp)
    582c:	dc000017 	ldw	r16,0(sp)
    5830:	dec00304 	addi	sp,sp,12
    5834:	000af181 	jmpi	af18 <__malloc_unlock>
    5838:	813ffe17 	ldw	r4,-8(r16)
    583c:	2a400204 	addi	r9,r5,8
    5840:	310dc83a 	sub	r6,r6,r4
    5844:	32000217 	ldw	r8,8(r6)
    5848:	1105883a 	add	r2,r2,r4
    584c:	42404326 	beq	r8,r9,595c <_free_r+0x240>
    5850:	32400317 	ldw	r9,12(r6)
    5854:	0009883a 	mov	r4,zero
    5858:	42400315 	stw	r9,12(r8)
    585c:	4a000215 	stw	r8,8(r9)
    5860:	003fc606 	br	577c <__alt_mem_onchip_flash_0_data+0xf0f0577c>
    5864:	dfc00217 	ldw	ra,8(sp)
    5868:	dc400117 	ldw	r17,4(sp)
    586c:	dc000017 	ldw	r16,0(sp)
    5870:	dec00304 	addi	sp,sp,12
    5874:	f800283a 	ret
    5878:	1004d0fa 	srli	r2,r2,3
    587c:	02000044 	movi	r8,1
    5880:	29c00117 	ldw	r7,4(r5)
    5884:	1087883a 	add	r3,r2,r2
    5888:	18c7883a 	add	r3,r3,r3
    588c:	1005d0ba 	srai	r2,r2,2
    5890:	18c7883a 	add	r3,r3,r3
    5894:	28c7883a 	add	r3,r5,r3
    5898:	19000217 	ldw	r4,8(r3)
    589c:	4084983a 	sll	r2,r8,r2
    58a0:	30c00315 	stw	r3,12(r6)
    58a4:	31000215 	stw	r4,8(r6)
    58a8:	11c4b03a 	or	r2,r2,r7
    58ac:	21800315 	stw	r6,12(r4)
    58b0:	8809883a 	mov	r4,r17
    58b4:	28800115 	stw	r2,4(r5)
    58b8:	19800215 	stw	r6,8(r3)
    58bc:	dfc00217 	ldw	ra,8(sp)
    58c0:	dc400117 	ldw	r17,4(sp)
    58c4:	dc000017 	ldw	r16,0(sp)
    58c8:	dec00304 	addi	sp,sp,12
    58cc:	000af181 	jmpi	af18 <__malloc_unlock>
    58d0:	020000f4 	movhi	r8,3
    58d4:	4202e304 	addi	r8,r8,2956
    58d8:	3a3faf1e 	bne	r7,r8,5798 <__alt_mem_onchip_flash_0_data+0xf0f05798>
    58dc:	29800515 	stw	r6,20(r5)
    58e0:	29800415 	stw	r6,16(r5)
    58e4:	11000054 	ori	r4,r2,1
    58e8:	3087883a 	add	r3,r6,r2
    58ec:	31c00315 	stw	r7,12(r6)
    58f0:	31c00215 	stw	r7,8(r6)
    58f4:	31000115 	stw	r4,4(r6)
    58f8:	18800015 	stw	r2,0(r3)
    58fc:	003fc806 	br	5820 <__alt_mem_onchip_flash_0_data+0xf0f05820>
    5900:	4200004c 	andi	r8,r8,1
    5904:	3885883a 	add	r2,r7,r2
    5908:	4000071e 	bne	r8,zero,5928 <_free_r+0x20c>
    590c:	81fffe17 	ldw	r7,-8(r16)
    5910:	31cdc83a 	sub	r6,r6,r7
    5914:	30c00317 	ldw	r3,12(r6)
    5918:	31000217 	ldw	r4,8(r6)
    591c:	11c5883a 	add	r2,r2,r7
    5920:	20c00315 	stw	r3,12(r4)
    5924:	19000215 	stw	r4,8(r3)
    5928:	00c000f4 	movhi	r3,3
    592c:	18c8b204 	addi	r3,r3,8904
    5930:	18c00017 	ldw	r3,0(r3)
    5934:	11000054 	ori	r4,r2,1
    5938:	31000115 	stw	r4,4(r6)
    593c:	29800215 	stw	r6,8(r5)
    5940:	10ffb736 	bltu	r2,r3,5820 <__alt_mem_onchip_flash_0_data+0xf0f05820>
    5944:	008000f4 	movhi	r2,3
    5948:	108fb504 	addi	r2,r2,16084
    594c:	11400017 	ldw	r5,0(r2)
    5950:	8809883a 	mov	r4,r17
    5954:	00055e00 	call	55e0 <_malloc_trim_r>
    5958:	003fb106 	br	5820 <__alt_mem_onchip_flash_0_data+0xf0f05820>
    595c:	01000044 	movi	r4,1
    5960:	003f8606 	br	577c <__alt_mem_onchip_flash_0_data+0xf0f0577c>
    5964:	01000504 	movi	r4,20
    5968:	20c00b36 	bltu	r4,r3,5998 <_free_r+0x27c>
    596c:	190016c4 	addi	r4,r3,91
    5970:	210f883a 	add	r7,r4,r4
    5974:	003f9806 	br	57d8 <__alt_mem_onchip_flash_0_data+0xf0f057d8>
    5978:	2009d0ba 	srai	r4,r4,2
    597c:	00800044 	movi	r2,1
    5980:	29c00117 	ldw	r7,4(r5)
    5984:	1108983a 	sll	r4,r2,r4
    5988:	1805883a 	mov	r2,r3
    598c:	21c8b03a 	or	r4,r4,r7
    5990:	29000115 	stw	r4,4(r5)
    5994:	003f9e06 	br	5810 <__alt_mem_onchip_flash_0_data+0xf0f05810>
    5998:	01001504 	movi	r4,84
    599c:	20c00436 	bltu	r4,r3,59b0 <_free_r+0x294>
    59a0:	1008d33a 	srli	r4,r2,12
    59a4:	21001b84 	addi	r4,r4,110
    59a8:	210f883a 	add	r7,r4,r4
    59ac:	003f8a06 	br	57d8 <__alt_mem_onchip_flash_0_data+0xf0f057d8>
    59b0:	01005504 	movi	r4,340
    59b4:	20c00436 	bltu	r4,r3,59c8 <_free_r+0x2ac>
    59b8:	1008d3fa 	srli	r4,r2,15
    59bc:	21001dc4 	addi	r4,r4,119
    59c0:	210f883a 	add	r7,r4,r4
    59c4:	003f8406 	br	57d8 <__alt_mem_onchip_flash_0_data+0xf0f057d8>
    59c8:	01015504 	movi	r4,1364
    59cc:	20c00436 	bltu	r4,r3,59e0 <_free_r+0x2c4>
    59d0:	1008d4ba 	srli	r4,r2,18
    59d4:	21001f04 	addi	r4,r4,124
    59d8:	210f883a 	add	r7,r4,r4
    59dc:	003f7e06 	br	57d8 <__alt_mem_onchip_flash_0_data+0xf0f057d8>
    59e0:	01c03f04 	movi	r7,252
    59e4:	01001f84 	movi	r4,126
    59e8:	003f7b06 	br	57d8 <__alt_mem_onchip_flash_0_data+0xf0f057d8>

000059ec <__sfvwrite_r>:
    59ec:	30800217 	ldw	r2,8(r6)
    59f0:	defff504 	addi	sp,sp,-44
    59f4:	dd400615 	stw	r21,24(sp)
    59f8:	dd000515 	stw	r20,20(sp)
    59fc:	dc000115 	stw	r16,4(sp)
    5a00:	dfc00a15 	stw	ra,40(sp)
    5a04:	df000915 	stw	fp,36(sp)
    5a08:	ddc00815 	stw	r23,32(sp)
    5a0c:	dd800715 	stw	r22,28(sp)
    5a10:	dcc00415 	stw	r19,16(sp)
    5a14:	dc800315 	stw	r18,12(sp)
    5a18:	dc400215 	stw	r17,8(sp)
    5a1c:	3029883a 	mov	r20,r6
    5a20:	202b883a 	mov	r21,r4
    5a24:	2821883a 	mov	r16,r5
    5a28:	10002126 	beq	r2,zero,5ab0 <__sfvwrite_r+0xc4>
    5a2c:	2880030b 	ldhu	r2,12(r5)
    5a30:	10c0020c 	andi	r3,r2,8
    5a34:	18ffffcc 	andi	r3,r3,65535
    5a38:	18e0001c 	xori	r3,r3,32768
    5a3c:	18e00004 	addi	r3,r3,-32768
    5a40:	18002826 	beq	r3,zero,5ae4 <__sfvwrite_r+0xf8>
    5a44:	28c00417 	ldw	r3,16(r5)
    5a48:	18002626 	beq	r3,zero,5ae4 <__sfvwrite_r+0xf8>
    5a4c:	10c0008c 	andi	r3,r2,2
    5a50:	18ffffcc 	andi	r3,r3,65535
    5a54:	18e0001c 	xori	r3,r3,32768
    5a58:	18e00004 	addi	r3,r3,-32768
    5a5c:	a4400017 	ldw	r17,0(r20)
    5a60:	18002b26 	beq	r3,zero,5b10 <__sfvwrite_r+0x124>
    5a64:	0027883a 	mov	r19,zero
    5a68:	0025883a 	mov	r18,zero
    5a6c:	05810004 	movi	r22,1024
    5a70:	980d883a 	mov	r6,r19
    5a74:	a809883a 	mov	r4,r21
    5a78:	90004f26 	beq	r18,zero,5bb8 <__sfvwrite_r+0x1cc>
    5a7c:	900f883a 	mov	r7,r18
    5a80:	81400717 	ldw	r5,28(r16)
    5a84:	b480012e 	bgeu	r22,r18,5a8c <__sfvwrite_r+0xa0>
    5a88:	01c10004 	movi	r7,1024
    5a8c:	80800917 	ldw	r2,36(r16)
    5a90:	103ee83a 	callr	r2
    5a94:	0080540e 	bge	zero,r2,5be8 <__sfvwrite_r+0x1fc>
    5a98:	a0c00217 	ldw	r3,8(r20)
    5a9c:	98a7883a 	add	r19,r19,r2
    5aa0:	90a5c83a 	sub	r18,r18,r2
    5aa4:	1885c83a 	sub	r2,r3,r2
    5aa8:	a0800215 	stw	r2,8(r20)
    5aac:	103ff01e 	bne	r2,zero,5a70 <__alt_mem_onchip_flash_0_data+0xf0f05a70>
    5ab0:	0005883a 	mov	r2,zero
    5ab4:	dfc00a17 	ldw	ra,40(sp)
    5ab8:	df000917 	ldw	fp,36(sp)
    5abc:	ddc00817 	ldw	r23,32(sp)
    5ac0:	dd800717 	ldw	r22,28(sp)
    5ac4:	dd400617 	ldw	r21,24(sp)
    5ac8:	dd000517 	ldw	r20,20(sp)
    5acc:	dcc00417 	ldw	r19,16(sp)
    5ad0:	dc800317 	ldw	r18,12(sp)
    5ad4:	dc400217 	ldw	r17,8(sp)
    5ad8:	dc000117 	ldw	r16,4(sp)
    5adc:	dec00b04 	addi	sp,sp,44
    5ae0:	f800283a 	ret
    5ae4:	a809883a 	mov	r4,r21
    5ae8:	800b883a 	mov	r5,r16
    5aec:	00037580 	call	3758 <__swsetup_r>
    5af0:	1000f01e 	bne	r2,zero,5eb4 <__sfvwrite_r+0x4c8>
    5af4:	8080030b 	ldhu	r2,12(r16)
    5af8:	a4400017 	ldw	r17,0(r20)
    5afc:	10c0008c 	andi	r3,r2,2
    5b00:	18ffffcc 	andi	r3,r3,65535
    5b04:	18e0001c 	xori	r3,r3,32768
    5b08:	18e00004 	addi	r3,r3,-32768
    5b0c:	183fd51e 	bne	r3,zero,5a64 <__alt_mem_onchip_flash_0_data+0xf0f05a64>
    5b10:	10c0004c 	andi	r3,r2,1
    5b14:	002d883a 	mov	r22,zero
    5b18:	1800381e 	bne	r3,zero,5bfc <__sfvwrite_r+0x210>
    5b1c:	0025883a 	mov	r18,zero
    5b20:	90002126 	beq	r18,zero,5ba8 <__sfvwrite_r+0x1bc>
    5b24:	10c0800c 	andi	r3,r2,512
    5b28:	18ffffcc 	andi	r3,r3,65535
    5b2c:	18e0001c 	xori	r3,r3,32768
    5b30:	18e00004 	addi	r3,r3,-32768
    5b34:	84c00217 	ldw	r19,8(r16)
    5b38:	18006b26 	beq	r3,zero,5ce8 <__sfvwrite_r+0x2fc>
    5b3c:	980f883a 	mov	r7,r19
    5b40:	94c08636 	bltu	r18,r19,5d5c <__sfvwrite_r+0x370>
    5b44:	10c1200c 	andi	r3,r2,1152
    5b48:	18009f1e 	bne	r3,zero,5dc8 <__sfvwrite_r+0x3dc>
    5b4c:	81000017 	ldw	r4,0(r16)
    5b50:	982f883a 	mov	r23,r19
    5b54:	9039883a 	mov	fp,r18
    5b58:	9027883a 	mov	r19,r18
    5b5c:	380d883a 	mov	r6,r7
    5b60:	b00b883a 	mov	r5,r22
    5b64:	d9c00015 	stw	r7,0(sp)
    5b68:	0006c280 	call	6c28 <memmove>
    5b6c:	d9c00017 	ldw	r7,0(sp)
    5b70:	81000217 	ldw	r4,8(r16)
    5b74:	80800017 	ldw	r2,0(r16)
    5b78:	25efc83a 	sub	r23,r4,r23
    5b7c:	11cf883a 	add	r7,r2,r7
    5b80:	85c00215 	stw	r23,8(r16)
    5b84:	81c00015 	stw	r7,0(r16)
    5b88:	a0800217 	ldw	r2,8(r20)
    5b8c:	b72d883a 	add	r22,r22,fp
    5b90:	9725c83a 	sub	r18,r18,fp
    5b94:	14e7c83a 	sub	r19,r2,r19
    5b98:	a4c00215 	stw	r19,8(r20)
    5b9c:	983fc426 	beq	r19,zero,5ab0 <__alt_mem_onchip_flash_0_data+0xf0f05ab0>
    5ba0:	8080030b 	ldhu	r2,12(r16)
    5ba4:	903fdf1e 	bne	r18,zero,5b24 <__alt_mem_onchip_flash_0_data+0xf0f05b24>
    5ba8:	8d800017 	ldw	r22,0(r17)
    5bac:	8c800117 	ldw	r18,4(r17)
    5bb0:	8c400204 	addi	r17,r17,8
    5bb4:	003fda06 	br	5b20 <__alt_mem_onchip_flash_0_data+0xf0f05b20>
    5bb8:	8cc00017 	ldw	r19,0(r17)
    5bbc:	8c800117 	ldw	r18,4(r17)
    5bc0:	8c400204 	addi	r17,r17,8
    5bc4:	003faa06 	br	5a70 <__alt_mem_onchip_flash_0_data+0xf0f05a70>
    5bc8:	0007f800 	call	7f80 <_realloc_r>
    5bcc:	102f883a 	mov	r23,r2
    5bd0:	10009f1e 	bne	r2,zero,5e50 <__sfvwrite_r+0x464>
    5bd4:	81400417 	ldw	r5,16(r16)
    5bd8:	a809883a 	mov	r4,r21
    5bdc:	000571c0 	call	571c <_free_r>
    5be0:	00800304 	movi	r2,12
    5be4:	a8800015 	stw	r2,0(r21)
    5be8:	80c0030b 	ldhu	r3,12(r16)
    5bec:	00bfffc4 	movi	r2,-1
    5bf0:	18c01014 	ori	r3,r3,64
    5bf4:	80c0030d 	sth	r3,12(r16)
    5bf8:	003fae06 	br	5ab4 <__alt_mem_onchip_flash_0_data+0xf0f05ab4>
    5bfc:	0007883a 	mov	r3,zero
    5c00:	0039883a 	mov	fp,zero
    5c04:	0025883a 	mov	r18,zero
    5c08:	90001e26 	beq	r18,zero,5c84 <__sfvwrite_r+0x298>
    5c0c:	18006526 	beq	r3,zero,5da4 <__sfvwrite_r+0x3b8>
    5c10:	b02f883a 	mov	r23,r22
    5c14:	9580012e 	bgeu	r18,r22,5c1c <__sfvwrite_r+0x230>
    5c18:	902f883a 	mov	r23,r18
    5c1c:	81000017 	ldw	r4,0(r16)
    5c20:	80800417 	ldw	r2,16(r16)
    5c24:	84c00217 	ldw	r19,8(r16)
    5c28:	81c00517 	ldw	r7,20(r16)
    5c2c:	1100022e 	bgeu	r2,r4,5c38 <__sfvwrite_r+0x24c>
    5c30:	99e7883a 	add	r19,r19,r7
    5c34:	9dc01816 	blt	r19,r23,5c98 <__sfvwrite_r+0x2ac>
    5c38:	b9c03b16 	blt	r23,r7,5d28 <__sfvwrite_r+0x33c>
    5c3c:	80800917 	ldw	r2,36(r16)
    5c40:	81400717 	ldw	r5,28(r16)
    5c44:	a809883a 	mov	r4,r21
    5c48:	d8c00015 	stw	r3,0(sp)
    5c4c:	e00d883a 	mov	r6,fp
    5c50:	103ee83a 	callr	r2
    5c54:	1027883a 	mov	r19,r2
    5c58:	d8c00017 	ldw	r3,0(sp)
    5c5c:	00bfe20e 	bge	zero,r2,5be8 <__alt_mem_onchip_flash_0_data+0xf0f05be8>
    5c60:	b4edc83a 	sub	r22,r22,r19
    5c64:	b0001a26 	beq	r22,zero,5cd0 <__sfvwrite_r+0x2e4>
    5c68:	a0800217 	ldw	r2,8(r20)
    5c6c:	e4f9883a 	add	fp,fp,r19
    5c70:	94e5c83a 	sub	r18,r18,r19
    5c74:	14e7c83a 	sub	r19,r2,r19
    5c78:	a4c00215 	stw	r19,8(r20)
    5c7c:	983f8c26 	beq	r19,zero,5ab0 <__alt_mem_onchip_flash_0_data+0xf0f05ab0>
    5c80:	903fe21e 	bne	r18,zero,5c0c <__alt_mem_onchip_flash_0_data+0xf0f05c0c>
    5c84:	8f000017 	ldw	fp,0(r17)
    5c88:	8c800117 	ldw	r18,4(r17)
    5c8c:	0007883a 	mov	r3,zero
    5c90:	8c400204 	addi	r17,r17,8
    5c94:	003fdc06 	br	5c08 <__alt_mem_onchip_flash_0_data+0xf0f05c08>
    5c98:	e00b883a 	mov	r5,fp
    5c9c:	980d883a 	mov	r6,r19
    5ca0:	d8c00015 	stw	r3,0(sp)
    5ca4:	0006c280 	call	6c28 <memmove>
    5ca8:	80800017 	ldw	r2,0(r16)
    5cac:	a809883a 	mov	r4,r21
    5cb0:	800b883a 	mov	r5,r16
    5cb4:	14c5883a 	add	r2,r2,r19
    5cb8:	80800015 	stw	r2,0(r16)
    5cbc:	00050f00 	call	50f0 <_fflush_r>
    5cc0:	d8c00017 	ldw	r3,0(sp)
    5cc4:	103fc81e 	bne	r2,zero,5be8 <__alt_mem_onchip_flash_0_data+0xf0f05be8>
    5cc8:	b4edc83a 	sub	r22,r22,r19
    5ccc:	b03fe61e 	bne	r22,zero,5c68 <__alt_mem_onchip_flash_0_data+0xf0f05c68>
    5cd0:	a809883a 	mov	r4,r21
    5cd4:	800b883a 	mov	r5,r16
    5cd8:	00050f00 	call	50f0 <_fflush_r>
    5cdc:	103fc21e 	bne	r2,zero,5be8 <__alt_mem_onchip_flash_0_data+0xf0f05be8>
    5ce0:	0007883a 	mov	r3,zero
    5ce4:	003fe006 	br	5c68 <__alt_mem_onchip_flash_0_data+0xf0f05c68>
    5ce8:	81000017 	ldw	r4,0(r16)
    5cec:	80800417 	ldw	r2,16(r16)
    5cf0:	1100022e 	bgeu	r2,r4,5cfc <__sfvwrite_r+0x310>
    5cf4:	9839883a 	mov	fp,r19
    5cf8:	9c806036 	bltu	r19,r18,5e7c <__sfvwrite_r+0x490>
    5cfc:	81c00517 	ldw	r7,20(r16)
    5d00:	91c01c36 	bltu	r18,r7,5d74 <__sfvwrite_r+0x388>
    5d04:	80800917 	ldw	r2,36(r16)
    5d08:	81400717 	ldw	r5,28(r16)
    5d0c:	a809883a 	mov	r4,r21
    5d10:	b00d883a 	mov	r6,r22
    5d14:	103ee83a 	callr	r2
    5d18:	1027883a 	mov	r19,r2
    5d1c:	00bfb20e 	bge	zero,r2,5be8 <__alt_mem_onchip_flash_0_data+0xf0f05be8>
    5d20:	1039883a 	mov	fp,r2
    5d24:	003f9806 	br	5b88 <__alt_mem_onchip_flash_0_data+0xf0f05b88>
    5d28:	b80d883a 	mov	r6,r23
    5d2c:	e00b883a 	mov	r5,fp
    5d30:	d8c00015 	stw	r3,0(sp)
    5d34:	0006c280 	call	6c28 <memmove>
    5d38:	80800217 	ldw	r2,8(r16)
    5d3c:	81000017 	ldw	r4,0(r16)
    5d40:	b827883a 	mov	r19,r23
    5d44:	15c5c83a 	sub	r2,r2,r23
    5d48:	25ef883a 	add	r23,r4,r23
    5d4c:	80800215 	stw	r2,8(r16)
    5d50:	85c00015 	stw	r23,0(r16)
    5d54:	d8c00017 	ldw	r3,0(sp)
    5d58:	003fc106 	br	5c60 <__alt_mem_onchip_flash_0_data+0xf0f05c60>
    5d5c:	81000017 	ldw	r4,0(r16)
    5d60:	902f883a 	mov	r23,r18
    5d64:	9039883a 	mov	fp,r18
    5d68:	9027883a 	mov	r19,r18
    5d6c:	900f883a 	mov	r7,r18
    5d70:	003f7a06 	br	5b5c <__alt_mem_onchip_flash_0_data+0xf0f05b5c>
    5d74:	b00b883a 	mov	r5,r22
    5d78:	900d883a 	mov	r6,r18
    5d7c:	0006c280 	call	6c28 <memmove>
    5d80:	80c00217 	ldw	r3,8(r16)
    5d84:	80800017 	ldw	r2,0(r16)
    5d88:	9027883a 	mov	r19,r18
    5d8c:	1c87c83a 	sub	r3,r3,r18
    5d90:	1485883a 	add	r2,r2,r18
    5d94:	80c00215 	stw	r3,8(r16)
    5d98:	80800015 	stw	r2,0(r16)
    5d9c:	9039883a 	mov	fp,r18
    5da0:	003f7906 	br	5b88 <__alt_mem_onchip_flash_0_data+0xf0f05b88>
    5da4:	e009883a 	mov	r4,fp
    5da8:	01400284 	movi	r5,10
    5dac:	900d883a 	mov	r6,r18
    5db0:	0006a380 	call	6a38 <memchr>
    5db4:	10003c26 	beq	r2,zero,5ea8 <__sfvwrite_r+0x4bc>
    5db8:	15800044 	addi	r22,r2,1
    5dbc:	b72dc83a 	sub	r22,r22,fp
    5dc0:	00c00044 	movi	r3,1
    5dc4:	003f9206 	br	5c10 <__alt_mem_onchip_flash_0_data+0xf0f05c10>
    5dc8:	81000517 	ldw	r4,20(r16)
    5dcc:	81400417 	ldw	r5,16(r16)
    5dd0:	80c00017 	ldw	r3,0(r16)
    5dd4:	210d883a 	add	r6,r4,r4
    5dd8:	3109883a 	add	r4,r6,r4
    5ddc:	2026d7fa 	srli	r19,r4,31
    5de0:	1979c83a 	sub	fp,r3,r5
    5de4:	e1800044 	addi	r6,fp,1
    5de8:	9909883a 	add	r4,r19,r4
    5dec:	2027d07a 	srai	r19,r4,1
    5df0:	3489883a 	add	r4,r6,r18
    5df4:	980d883a 	mov	r6,r19
    5df8:	9900022e 	bgeu	r19,r4,5e04 <__sfvwrite_r+0x418>
    5dfc:	2027883a 	mov	r19,r4
    5e00:	200d883a 	mov	r6,r4
    5e04:	1081000c 	andi	r2,r2,1024
    5e08:	10bfffcc 	andi	r2,r2,65535
    5e0c:	10a0001c 	xori	r2,r2,32768
    5e10:	10a00004 	addi	r2,r2,-32768
    5e14:	a809883a 	mov	r4,r21
    5e18:	103f6b26 	beq	r2,zero,5bc8 <__alt_mem_onchip_flash_0_data+0xf0f05bc8>
    5e1c:	300b883a 	mov	r5,r6
    5e20:	00062b40 	call	62b4 <_malloc_r>
    5e24:	102f883a 	mov	r23,r2
    5e28:	103f6d26 	beq	r2,zero,5be0 <__alt_mem_onchip_flash_0_data+0xf0f05be0>
    5e2c:	81400417 	ldw	r5,16(r16)
    5e30:	1009883a 	mov	r4,r2
    5e34:	e00d883a 	mov	r6,fp
    5e38:	0006b300 	call	6b30 <memcpy>
    5e3c:	8080030b 	ldhu	r2,12(r16)
    5e40:	00fedfc4 	movi	r3,-1153
    5e44:	10c4703a 	and	r2,r2,r3
    5e48:	10802014 	ori	r2,r2,128
    5e4c:	8080030d 	sth	r2,12(r16)
    5e50:	bf09883a 	add	r4,r23,fp
    5e54:	9f07c83a 	sub	r3,r19,fp
    5e58:	85c00415 	stw	r23,16(r16)
    5e5c:	84c00515 	stw	r19,20(r16)
    5e60:	81000015 	stw	r4,0(r16)
    5e64:	902f883a 	mov	r23,r18
    5e68:	80c00215 	stw	r3,8(r16)
    5e6c:	9039883a 	mov	fp,r18
    5e70:	9027883a 	mov	r19,r18
    5e74:	900f883a 	mov	r7,r18
    5e78:	003f3806 	br	5b5c <__alt_mem_onchip_flash_0_data+0xf0f05b5c>
    5e7c:	b00b883a 	mov	r5,r22
    5e80:	980d883a 	mov	r6,r19
    5e84:	0006c280 	call	6c28 <memmove>
    5e88:	80800017 	ldw	r2,0(r16)
    5e8c:	a809883a 	mov	r4,r21
    5e90:	800b883a 	mov	r5,r16
    5e94:	14c5883a 	add	r2,r2,r19
    5e98:	80800015 	stw	r2,0(r16)
    5e9c:	00050f00 	call	50f0 <_fflush_r>
    5ea0:	103f3926 	beq	r2,zero,5b88 <__alt_mem_onchip_flash_0_data+0xf0f05b88>
    5ea4:	003f5006 	br	5be8 <__alt_mem_onchip_flash_0_data+0xf0f05be8>
    5ea8:	95800044 	addi	r22,r18,1
    5eac:	00c00044 	movi	r3,1
    5eb0:	003f5706 	br	5c10 <__alt_mem_onchip_flash_0_data+0xf0f05c10>
    5eb4:	80c0030b 	ldhu	r3,12(r16)
    5eb8:	00bfffc4 	movi	r2,-1
    5ebc:	18c01014 	ori	r3,r3,64
    5ec0:	80c0030d 	sth	r3,12(r16)
    5ec4:	00c00244 	movi	r3,9
    5ec8:	a8c00015 	stw	r3,0(r21)
    5ecc:	003ef906 	br	5ab4 <__alt_mem_onchip_flash_0_data+0xf0f05ab4>

00005ed0 <_fwalk>:
    5ed0:	defff904 	addi	sp,sp,-28
    5ed4:	dcc00315 	stw	r19,12(sp)
    5ed8:	24c0b804 	addi	r19,r4,736
    5edc:	dd400515 	stw	r21,20(sp)
    5ee0:	dd000415 	stw	r20,16(sp)
    5ee4:	dfc00615 	stw	ra,24(sp)
    5ee8:	dc800215 	stw	r18,8(sp)
    5eec:	dc400115 	stw	r17,4(sp)
    5ef0:	dc000015 	stw	r16,0(sp)
    5ef4:	282b883a 	mov	r21,r5
    5ef8:	0029883a 	mov	r20,zero
    5efc:	00055a00 	call	55a0 <__sfp_lock_acquire>
    5f00:	98001226 	beq	r19,zero,5f4c <_fwalk+0x7c>
    5f04:	04bfffc4 	movi	r18,-1
    5f08:	9c400117 	ldw	r17,4(r19)
    5f0c:	9c000217 	ldw	r16,8(r19)
    5f10:	8c7fffc4 	addi	r17,r17,-1
    5f14:	88000b16 	blt	r17,zero,5f44 <_fwalk+0x74>
    5f18:	84000304 	addi	r16,r16,12
    5f1c:	80c0000f 	ldh	r3,0(r16)
    5f20:	8c7fffc4 	addi	r17,r17,-1
    5f24:	813ffd04 	addi	r4,r16,-12
    5f28:	18000426 	beq	r3,zero,5f3c <_fwalk+0x6c>
    5f2c:	80c0008f 	ldh	r3,2(r16)
    5f30:	1c800226 	beq	r3,r18,5f3c <_fwalk+0x6c>
    5f34:	a83ee83a 	callr	r21
    5f38:	a0a8b03a 	or	r20,r20,r2
    5f3c:	84001704 	addi	r16,r16,92
    5f40:	8cbff61e 	bne	r17,r18,5f1c <__alt_mem_onchip_flash_0_data+0xf0f05f1c>
    5f44:	9cc00017 	ldw	r19,0(r19)
    5f48:	983fef1e 	bne	r19,zero,5f08 <__alt_mem_onchip_flash_0_data+0xf0f05f08>
    5f4c:	00055a40 	call	55a4 <__sfp_lock_release>
    5f50:	a005883a 	mov	r2,r20
    5f54:	dfc00617 	ldw	ra,24(sp)
    5f58:	dd400517 	ldw	r21,20(sp)
    5f5c:	dd000417 	ldw	r20,16(sp)
    5f60:	dcc00317 	ldw	r19,12(sp)
    5f64:	dc800217 	ldw	r18,8(sp)
    5f68:	dc400117 	ldw	r17,4(sp)
    5f6c:	dc000017 	ldw	r16,0(sp)
    5f70:	dec00704 	addi	sp,sp,28
    5f74:	f800283a 	ret

00005f78 <_fwalk_reent>:
    5f78:	defff804 	addi	sp,sp,-32
    5f7c:	dcc00315 	stw	r19,12(sp)
    5f80:	24c0b804 	addi	r19,r4,736
    5f84:	dd800615 	stw	r22,24(sp)
    5f88:	dd400515 	stw	r21,20(sp)
    5f8c:	dd000415 	stw	r20,16(sp)
    5f90:	dfc00715 	stw	ra,28(sp)
    5f94:	dc800215 	stw	r18,8(sp)
    5f98:	dc400115 	stw	r17,4(sp)
    5f9c:	dc000015 	stw	r16,0(sp)
    5fa0:	2029883a 	mov	r20,r4
    5fa4:	282b883a 	mov	r21,r5
    5fa8:	002d883a 	mov	r22,zero
    5fac:	00055a00 	call	55a0 <__sfp_lock_acquire>
    5fb0:	98001326 	beq	r19,zero,6000 <_fwalk_reent+0x88>
    5fb4:	04bfffc4 	movi	r18,-1
    5fb8:	9c400117 	ldw	r17,4(r19)
    5fbc:	9c000217 	ldw	r16,8(r19)
    5fc0:	8c7fffc4 	addi	r17,r17,-1
    5fc4:	88000c16 	blt	r17,zero,5ff8 <_fwalk_reent+0x80>
    5fc8:	84000304 	addi	r16,r16,12
    5fcc:	80c0000f 	ldh	r3,0(r16)
    5fd0:	8c7fffc4 	addi	r17,r17,-1
    5fd4:	817ffd04 	addi	r5,r16,-12
    5fd8:	18000526 	beq	r3,zero,5ff0 <_fwalk_reent+0x78>
    5fdc:	80c0008f 	ldh	r3,2(r16)
    5fe0:	a009883a 	mov	r4,r20
    5fe4:	1c800226 	beq	r3,r18,5ff0 <_fwalk_reent+0x78>
    5fe8:	a83ee83a 	callr	r21
    5fec:	b0acb03a 	or	r22,r22,r2
    5ff0:	84001704 	addi	r16,r16,92
    5ff4:	8cbff51e 	bne	r17,r18,5fcc <__alt_mem_onchip_flash_0_data+0xf0f05fcc>
    5ff8:	9cc00017 	ldw	r19,0(r19)
    5ffc:	983fee1e 	bne	r19,zero,5fb8 <__alt_mem_onchip_flash_0_data+0xf0f05fb8>
    6000:	00055a40 	call	55a4 <__sfp_lock_release>
    6004:	b005883a 	mov	r2,r22
    6008:	dfc00717 	ldw	ra,28(sp)
    600c:	dd800617 	ldw	r22,24(sp)
    6010:	dd400517 	ldw	r21,20(sp)
    6014:	dd000417 	ldw	r20,16(sp)
    6018:	dcc00317 	ldw	r19,12(sp)
    601c:	dc800217 	ldw	r18,8(sp)
    6020:	dc400117 	ldw	r17,4(sp)
    6024:	dc000017 	ldw	r16,0(sp)
    6028:	dec00804 	addi	sp,sp,32
    602c:	f800283a 	ret

00006030 <_setlocale_r>:
    6030:	defffc04 	addi	sp,sp,-16
    6034:	dc800215 	stw	r18,8(sp)
    6038:	dc400115 	stw	r17,4(sp)
    603c:	dc000015 	stw	r16,0(sp)
    6040:	dfc00315 	stw	ra,12(sp)
    6044:	3021883a 	mov	r16,r6
    6048:	2023883a 	mov	r17,r4
    604c:	2825883a 	mov	r18,r5
    6050:	30001626 	beq	r6,zero,60ac <_setlocale_r+0x7c>
    6054:	3009883a 	mov	r4,r6
    6058:	014000f4 	movhi	r5,3
    605c:	29411804 	addi	r5,r5,1120
    6060:	00087840 	call	8784 <strcmp>
    6064:	10000a1e 	bne	r2,zero,6090 <_setlocale_r+0x60>
    6068:	8c800c15 	stw	r18,48(r17)
    606c:	8c000d15 	stw	r16,52(r17)
    6070:	008000f4 	movhi	r2,3
    6074:	10811804 	addi	r2,r2,1120
    6078:	dfc00317 	ldw	ra,12(sp)
    607c:	dc800217 	ldw	r18,8(sp)
    6080:	dc400117 	ldw	r17,4(sp)
    6084:	dc000017 	ldw	r16,0(sp)
    6088:	dec00404 	addi	sp,sp,16
    608c:	f800283a 	ret
    6090:	8009883a 	mov	r4,r16
    6094:	014000f4 	movhi	r5,3
    6098:	29404e04 	addi	r5,r5,312
    609c:	00087840 	call	8784 <strcmp>
    60a0:	103ff126 	beq	r2,zero,6068 <__alt_mem_onchip_flash_0_data+0xf0f06068>
    60a4:	0005883a 	mov	r2,zero
    60a8:	003ff306 	br	6078 <__alt_mem_onchip_flash_0_data+0xf0f06078>
    60ac:	008000f4 	movhi	r2,3
    60b0:	10811804 	addi	r2,r2,1120
    60b4:	dfc00317 	ldw	ra,12(sp)
    60b8:	dc800217 	ldw	r18,8(sp)
    60bc:	dc400117 	ldw	r17,4(sp)
    60c0:	dc000017 	ldw	r16,0(sp)
    60c4:	dec00404 	addi	sp,sp,16
    60c8:	f800283a 	ret

000060cc <__locale_charset>:
    60cc:	008000f4 	movhi	r2,3
    60d0:	10811904 	addi	r2,r2,1124
    60d4:	f800283a 	ret

000060d8 <_localeconv_r>:
    60d8:	008000f4 	movhi	r2,3
    60dc:	10811d04 	addi	r2,r2,1140
    60e0:	f800283a 	ret

000060e4 <setlocale>:
    60e4:	00c000f4 	movhi	r3,3
    60e8:	18c8af04 	addi	r3,r3,8892
    60ec:	2005883a 	mov	r2,r4
    60f0:	19000017 	ldw	r4,0(r3)
    60f4:	280d883a 	mov	r6,r5
    60f8:	100b883a 	mov	r5,r2
    60fc:	00060301 	jmpi	6030 <_setlocale_r>

00006100 <localeconv>:
    6100:	008000f4 	movhi	r2,3
    6104:	10811d04 	addi	r2,r2,1140
    6108:	f800283a 	ret

0000610c <__smakebuf_r>:
    610c:	2880030b 	ldhu	r2,12(r5)
    6110:	deffed04 	addi	sp,sp,-76
    6114:	dc401015 	stw	r17,64(sp)
    6118:	10c0008c 	andi	r3,r2,2
    611c:	18ffffcc 	andi	r3,r3,65535
    6120:	18e0001c 	xori	r3,r3,32768
    6124:	dc000f15 	stw	r16,60(sp)
    6128:	dfc01215 	stw	ra,72(sp)
    612c:	dc801115 	stw	r18,68(sp)
    6130:	18e00004 	addi	r3,r3,-32768
    6134:	2821883a 	mov	r16,r5
    6138:	2023883a 	mov	r17,r4
    613c:	1800381e 	bne	r3,zero,6220 <__smakebuf_r+0x114>
    6140:	2940038f 	ldh	r5,14(r5)
    6144:	28002d16 	blt	r5,zero,61fc <__smakebuf_r+0xf0>
    6148:	d80d883a 	mov	r6,sp
    614c:	0008c5c0 	call	8c5c <_fstat_r>
    6150:	10002916 	blt	r2,zero,61f8 <__smakebuf_r+0xec>
    6154:	d8800117 	ldw	r2,4(sp)
    6158:	00e00014 	movui	r3,32768
    615c:	10bc000c 	andi	r2,r2,61440
    6160:	10c03c26 	beq	r2,r3,6254 <__smakebuf_r+0x148>
    6164:	80c0030b 	ldhu	r3,12(r16)
    6168:	18c20014 	ori	r3,r3,2048
    616c:	80c0030d 	sth	r3,12(r16)
    6170:	00c80004 	movi	r3,8192
    6174:	10c00c1e 	bne	r2,r3,61a8 <__smakebuf_r+0x9c>
    6178:	8140038f 	ldh	r5,14(r16)
    617c:	8809883a 	mov	r4,r17
    6180:	0008cc40 	call	8cc4 <_isatty_r>
    6184:	10000826 	beq	r2,zero,61a8 <__smakebuf_r+0x9c>
    6188:	80c0030b 	ldhu	r3,12(r16)
    618c:	808010c4 	addi	r2,r16,67
    6190:	80800015 	stw	r2,0(r16)
    6194:	18c00054 	ori	r3,r3,1
    6198:	80800415 	stw	r2,16(r16)
    619c:	00800044 	movi	r2,1
    61a0:	80c0030d 	sth	r3,12(r16)
    61a4:	80800515 	stw	r2,20(r16)
    61a8:	04810004 	movi	r18,1024
    61ac:	8809883a 	mov	r4,r17
    61b0:	900b883a 	mov	r5,r18
    61b4:	00062b40 	call	62b4 <_malloc_r>
    61b8:	10003026 	beq	r2,zero,627c <__smakebuf_r+0x170>
    61bc:	80c0030b 	ldhu	r3,12(r16)
    61c0:	01000034 	movhi	r4,0
    61c4:	2114c604 	addi	r4,r4,21272
    61c8:	89000f15 	stw	r4,60(r17)
    61cc:	18c02014 	ori	r3,r3,128
    61d0:	80c0030d 	sth	r3,12(r16)
    61d4:	80800015 	stw	r2,0(r16)
    61d8:	80800415 	stw	r2,16(r16)
    61dc:	84800515 	stw	r18,20(r16)
    61e0:	dfc01217 	ldw	ra,72(sp)
    61e4:	dc801117 	ldw	r18,68(sp)
    61e8:	dc401017 	ldw	r17,64(sp)
    61ec:	dc000f17 	ldw	r16,60(sp)
    61f0:	dec01304 	addi	sp,sp,76
    61f4:	f800283a 	ret
    61f8:	8080030b 	ldhu	r2,12(r16)
    61fc:	10c0200c 	andi	r3,r2,128
    6200:	18ffffcc 	andi	r3,r3,65535
    6204:	18e0001c 	xori	r3,r3,32768
    6208:	18e00004 	addi	r3,r3,-32768
    620c:	18000f1e 	bne	r3,zero,624c <__smakebuf_r+0x140>
    6210:	04810004 	movi	r18,1024
    6214:	10820014 	ori	r2,r2,2048
    6218:	8080030d 	sth	r2,12(r16)
    621c:	003fe306 	br	61ac <__alt_mem_onchip_flash_0_data+0xf0f061ac>
    6220:	288010c4 	addi	r2,r5,67
    6224:	28800015 	stw	r2,0(r5)
    6228:	28800415 	stw	r2,16(r5)
    622c:	00800044 	movi	r2,1
    6230:	28800515 	stw	r2,20(r5)
    6234:	dfc01217 	ldw	ra,72(sp)
    6238:	dc801117 	ldw	r18,68(sp)
    623c:	dc401017 	ldw	r17,64(sp)
    6240:	dc000f17 	ldw	r16,60(sp)
    6244:	dec01304 	addi	sp,sp,76
    6248:	f800283a 	ret
    624c:	04801004 	movi	r18,64
    6250:	003ff006 	br	6214 <__alt_mem_onchip_flash_0_data+0xf0f06214>
    6254:	81000a17 	ldw	r4,40(r16)
    6258:	00c00074 	movhi	r3,1
    625c:	18e1c804 	addi	r3,r3,-30944
    6260:	20ffc01e 	bne	r4,r3,6164 <__alt_mem_onchip_flash_0_data+0xf0f06164>
    6264:	8080030b 	ldhu	r2,12(r16)
    6268:	00c10004 	movi	r3,1024
    626c:	80c01315 	stw	r3,76(r16)
    6270:	10c4b03a 	or	r2,r2,r3
    6274:	8080030d 	sth	r2,12(r16)
    6278:	003fcb06 	br	61a8 <__alt_mem_onchip_flash_0_data+0xf0f061a8>
    627c:	8080030b 	ldhu	r2,12(r16)
    6280:	10c0800c 	andi	r3,r2,512
    6284:	18ffffcc 	andi	r3,r3,65535
    6288:	18e0001c 	xori	r3,r3,32768
    628c:	18e00004 	addi	r3,r3,-32768
    6290:	183fd31e 	bne	r3,zero,61e0 <__alt_mem_onchip_flash_0_data+0xf0f061e0>
    6294:	10800094 	ori	r2,r2,2
    6298:	80c010c4 	addi	r3,r16,67
    629c:	8080030d 	sth	r2,12(r16)
    62a0:	00800044 	movi	r2,1
    62a4:	80c00015 	stw	r3,0(r16)
    62a8:	80c00415 	stw	r3,16(r16)
    62ac:	80800515 	stw	r2,20(r16)
    62b0:	003fcb06 	br	61e0 <__alt_mem_onchip_flash_0_data+0xf0f061e0>

000062b4 <_malloc_r>:
    62b4:	defff604 	addi	sp,sp,-40
    62b8:	dc800215 	stw	r18,8(sp)
    62bc:	dfc00915 	stw	ra,36(sp)
    62c0:	df000815 	stw	fp,32(sp)
    62c4:	ddc00715 	stw	r23,28(sp)
    62c8:	dd800615 	stw	r22,24(sp)
    62cc:	dd400515 	stw	r21,20(sp)
    62d0:	dd000415 	stw	r20,16(sp)
    62d4:	dcc00315 	stw	r19,12(sp)
    62d8:	dc400115 	stw	r17,4(sp)
    62dc:	dc000015 	stw	r16,0(sp)
    62e0:	288002c4 	addi	r2,r5,11
    62e4:	00c00584 	movi	r3,22
    62e8:	2025883a 	mov	r18,r4
    62ec:	18802b2e 	bgeu	r3,r2,639c <_malloc_r+0xe8>
    62f0:	047ffe04 	movi	r17,-8
    62f4:	1462703a 	and	r17,r2,r17
    62f8:	88002a16 	blt	r17,zero,63a4 <_malloc_r+0xf0>
    62fc:	89402936 	bltu	r17,r5,63a4 <_malloc_r+0xf0>
    6300:	9009883a 	mov	r4,r18
    6304:	000af140 	call	af14 <__malloc_lock>
    6308:	00807dc4 	movi	r2,503
    630c:	14402936 	bltu	r2,r17,63b4 <_malloc_r+0x100>
    6310:	8808d0fa 	srli	r4,r17,3
    6314:	04c000f4 	movhi	r19,3
    6318:	9cc2e104 	addi	r19,r19,2948
    631c:	2105883a 	add	r2,r4,r4
    6320:	1085883a 	add	r2,r2,r2
    6324:	1085883a 	add	r2,r2,r2
    6328:	9885883a 	add	r2,r19,r2
    632c:	14000317 	ldw	r16,12(r2)
    6330:	80815526 	beq	r16,r2,6888 <_malloc_r+0x5d4>
    6334:	81000117 	ldw	r4,4(r16)
    6338:	00bfff04 	movi	r2,-4
    633c:	80c00317 	ldw	r3,12(r16)
    6340:	2084703a 	and	r2,r4,r2
    6344:	8085883a 	add	r2,r16,r2
    6348:	11800117 	ldw	r6,4(r2)
    634c:	81400217 	ldw	r5,8(r16)
    6350:	9009883a 	mov	r4,r18
    6354:	31800054 	ori	r6,r6,1
    6358:	11800115 	stw	r6,4(r2)
    635c:	28c00315 	stw	r3,12(r5)
    6360:	19400215 	stw	r5,8(r3)
    6364:	000af180 	call	af18 <__malloc_unlock>
    6368:	80800204 	addi	r2,r16,8
    636c:	dfc00917 	ldw	ra,36(sp)
    6370:	df000817 	ldw	fp,32(sp)
    6374:	ddc00717 	ldw	r23,28(sp)
    6378:	dd800617 	ldw	r22,24(sp)
    637c:	dd400517 	ldw	r21,20(sp)
    6380:	dd000417 	ldw	r20,16(sp)
    6384:	dcc00317 	ldw	r19,12(sp)
    6388:	dc800217 	ldw	r18,8(sp)
    638c:	dc400117 	ldw	r17,4(sp)
    6390:	dc000017 	ldw	r16,0(sp)
    6394:	dec00a04 	addi	sp,sp,40
    6398:	f800283a 	ret
    639c:	04400404 	movi	r17,16
    63a0:	897fd72e 	bgeu	r17,r5,6300 <__alt_mem_onchip_flash_0_data+0xf0f06300>
    63a4:	00800304 	movi	r2,12
    63a8:	90800015 	stw	r2,0(r18)
    63ac:	0005883a 	mov	r2,zero
    63b0:	003fee06 	br	636c <__alt_mem_onchip_flash_0_data+0xf0f0636c>
    63b4:	8808d27a 	srli	r4,r17,9
    63b8:	20007126 	beq	r4,zero,6580 <_malloc_r+0x2cc>
    63bc:	00800104 	movi	r2,4
    63c0:	1100eb36 	bltu	r2,r4,6770 <_malloc_r+0x4bc>
    63c4:	8808d1ba 	srli	r4,r17,6
    63c8:	21000e04 	addi	r4,r4,56
    63cc:	210b883a 	add	r5,r4,r4
    63d0:	294b883a 	add	r5,r5,r5
    63d4:	294b883a 	add	r5,r5,r5
    63d8:	04c000f4 	movhi	r19,3
    63dc:	9cc2e104 	addi	r19,r19,2948
    63e0:	994b883a 	add	r5,r19,r5
    63e4:	2c000317 	ldw	r16,12(r5)
    63e8:	2c000e26 	beq	r5,r16,6424 <_malloc_r+0x170>
    63ec:	80c00117 	ldw	r3,4(r16)
    63f0:	01ffff04 	movi	r7,-4
    63f4:	018003c4 	movi	r6,15
    63f8:	19c6703a 	and	r3,r3,r7
    63fc:	1c45c83a 	sub	r2,r3,r17
    6400:	30800716 	blt	r6,r2,6420 <_malloc_r+0x16c>
    6404:	1000610e 	bge	r2,zero,658c <_malloc_r+0x2d8>
    6408:	84000317 	ldw	r16,12(r16)
    640c:	2c000526 	beq	r5,r16,6424 <_malloc_r+0x170>
    6410:	80c00117 	ldw	r3,4(r16)
    6414:	19c6703a 	and	r3,r3,r7
    6418:	1c45c83a 	sub	r2,r3,r17
    641c:	30bff90e 	bge	r6,r2,6404 <__alt_mem_onchip_flash_0_data+0xf0f06404>
    6420:	213fffc4 	addi	r4,r4,-1
    6424:	21000044 	addi	r4,r4,1
    6428:	9c000417 	ldw	r16,16(r19)
    642c:	00c000f4 	movhi	r3,3
    6430:	18c2e104 	addi	r3,r3,2948
    6434:	1a400204 	addi	r9,r3,8
    6438:	8240ff26 	beq	r16,r9,6838 <_malloc_r+0x584>
    643c:	81400117 	ldw	r5,4(r16)
    6440:	00bfff04 	movi	r2,-4
    6444:	018003c4 	movi	r6,15
    6448:	2884703a 	and	r2,r5,r2
    644c:	144bc83a 	sub	r5,r2,r17
    6450:	3140ea16 	blt	r6,r5,67fc <_malloc_r+0x548>
    6454:	1a400515 	stw	r9,20(r3)
    6458:	1a400415 	stw	r9,16(r3)
    645c:	2800570e 	bge	r5,zero,65bc <_malloc_r+0x308>
    6460:	01407fc4 	movi	r5,511
    6464:	2880ca36 	bltu	r5,r2,6790 <_malloc_r+0x4dc>
    6468:	1004d0fa 	srli	r2,r2,3
    646c:	02000044 	movi	r8,1
    6470:	19c00117 	ldw	r7,4(r3)
    6474:	108b883a 	add	r5,r2,r2
    6478:	294b883a 	add	r5,r5,r5
    647c:	1005d0ba 	srai	r2,r2,2
    6480:	294b883a 	add	r5,r5,r5
    6484:	28cb883a 	add	r5,r5,r3
    6488:	29800217 	ldw	r6,8(r5)
    648c:	4084983a 	sll	r2,r8,r2
    6490:	81400315 	stw	r5,12(r16)
    6494:	81800215 	stw	r6,8(r16)
    6498:	11c4b03a 	or	r2,r2,r7
    649c:	18800115 	stw	r2,4(r3)
    64a0:	2c000215 	stw	r16,8(r5)
    64a4:	34000315 	stw	r16,12(r6)
    64a8:	200bd0ba 	srai	r5,r4,2
    64ac:	00c00044 	movi	r3,1
    64b0:	194a983a 	sll	r5,r3,r5
    64b4:	11404936 	bltu	r2,r5,65dc <_malloc_r+0x328>
    64b8:	1146703a 	and	r3,r2,r5
    64bc:	18000a1e 	bne	r3,zero,64e8 <_malloc_r+0x234>
    64c0:	00ffff04 	movi	r3,-4
    64c4:	294b883a 	add	r5,r5,r5
    64c8:	20c8703a 	and	r4,r4,r3
    64cc:	1146703a 	and	r3,r2,r5
    64d0:	21000104 	addi	r4,r4,4
    64d4:	1800041e 	bne	r3,zero,64e8 <_malloc_r+0x234>
    64d8:	294b883a 	add	r5,r5,r5
    64dc:	1146703a 	and	r3,r2,r5
    64e0:	21000104 	addi	r4,r4,4
    64e4:	183ffc26 	beq	r3,zero,64d8 <__alt_mem_onchip_flash_0_data+0xf0f064d8>
    64e8:	023fff04 	movi	r8,-4
    64ec:	01c003c4 	movi	r7,15
    64f0:	2105883a 	add	r2,r4,r4
    64f4:	1085883a 	add	r2,r2,r2
    64f8:	1085883a 	add	r2,r2,r2
    64fc:	9899883a 	add	r12,r19,r2
    6500:	62800304 	addi	r10,r12,12
    6504:	2017883a 	mov	r11,r4
    6508:	54000017 	ldw	r16,0(r10)
    650c:	51bffd04 	addi	r6,r10,-12
    6510:	8180041e 	bne	r16,r6,6524 <_malloc_r+0x270>
    6514:	0000ca06 	br	6840 <_malloc_r+0x58c>
    6518:	10001c0e 	bge	r2,zero,658c <_malloc_r+0x2d8>
    651c:	84000317 	ldw	r16,12(r16)
    6520:	8180c726 	beq	r16,r6,6840 <_malloc_r+0x58c>
    6524:	80c00117 	ldw	r3,4(r16)
    6528:	1a06703a 	and	r3,r3,r8
    652c:	1c45c83a 	sub	r2,r3,r17
    6530:	38bff90e 	bge	r7,r2,6518 <__alt_mem_onchip_flash_0_data+0xf0f06518>
    6534:	81000317 	ldw	r4,12(r16)
    6538:	81400217 	ldw	r5,8(r16)
    653c:	8447883a 	add	r3,r16,r17
    6540:	8c400054 	ori	r17,r17,1
    6544:	29000315 	stw	r4,12(r5)
    6548:	21400215 	stw	r5,8(r4)
    654c:	84400115 	stw	r17,4(r16)
    6550:	1889883a 	add	r4,r3,r2
    6554:	11400054 	ori	r5,r2,1
    6558:	98c00515 	stw	r3,20(r19)
    655c:	98c00415 	stw	r3,16(r19)
    6560:	20800015 	stw	r2,0(r4)
    6564:	1a400315 	stw	r9,12(r3)
    6568:	1a400215 	stw	r9,8(r3)
    656c:	19400115 	stw	r5,4(r3)
    6570:	9009883a 	mov	r4,r18
    6574:	000af180 	call	af18 <__malloc_unlock>
    6578:	80800204 	addi	r2,r16,8
    657c:	003f7b06 	br	636c <__alt_mem_onchip_flash_0_data+0xf0f0636c>
    6580:	8808d0fa 	srli	r4,r17,3
    6584:	210b883a 	add	r5,r4,r4
    6588:	003f9106 	br	63d0 <__alt_mem_onchip_flash_0_data+0xf0f063d0>
    658c:	80c7883a 	add	r3,r16,r3
    6590:	19400117 	ldw	r5,4(r3)
    6594:	80800317 	ldw	r2,12(r16)
    6598:	81000217 	ldw	r4,8(r16)
    659c:	29400054 	ori	r5,r5,1
    65a0:	19400115 	stw	r5,4(r3)
    65a4:	20800315 	stw	r2,12(r4)
    65a8:	11000215 	stw	r4,8(r2)
    65ac:	9009883a 	mov	r4,r18
    65b0:	000af180 	call	af18 <__malloc_unlock>
    65b4:	80800204 	addi	r2,r16,8
    65b8:	003f6c06 	br	636c <__alt_mem_onchip_flash_0_data+0xf0f0636c>
    65bc:	8085883a 	add	r2,r16,r2
    65c0:	10c00117 	ldw	r3,4(r2)
    65c4:	9009883a 	mov	r4,r18
    65c8:	18c00054 	ori	r3,r3,1
    65cc:	10c00115 	stw	r3,4(r2)
    65d0:	000af180 	call	af18 <__malloc_unlock>
    65d4:	80800204 	addi	r2,r16,8
    65d8:	003f6406 	br	636c <__alt_mem_onchip_flash_0_data+0xf0f0636c>
    65dc:	9c000217 	ldw	r16,8(r19)
    65e0:	00bfff04 	movi	r2,-4
    65e4:	85400117 	ldw	r21,4(r16)
    65e8:	a8aa703a 	and	r21,r21,r2
    65ec:	ac400336 	bltu	r21,r17,65fc <_malloc_r+0x348>
    65f0:	ac45c83a 	sub	r2,r21,r17
    65f4:	00c003c4 	movi	r3,15
    65f8:	18805316 	blt	r3,r2,6748 <_malloc_r+0x494>
    65fc:	d5e70717 	ldw	r23,-25572(gp)
    6600:	d0e00317 	ldw	r3,-32756(gp)
    6604:	00bfffc4 	movi	r2,-1
    6608:	8579883a 	add	fp,r16,r21
    660c:	8def883a 	add	r23,r17,r23
    6610:	1880d226 	beq	r3,r2,695c <_malloc_r+0x6a8>
    6614:	bdc403c4 	addi	r23,r23,4111
    6618:	00bc0004 	movi	r2,-4096
    661c:	b8ae703a 	and	r23,r23,r2
    6620:	9009883a 	mov	r4,r18
    6624:	b80b883a 	mov	r5,r23
    6628:	00085e00 	call	85e0 <_sbrk_r>
    662c:	1029883a 	mov	r20,r2
    6630:	00bfffc4 	movi	r2,-1
    6634:	a080d126 	beq	r20,r2,697c <_malloc_r+0x6c8>
    6638:	a7009f36 	bltu	r20,fp,68b8 <_malloc_r+0x604>
    663c:	058000f4 	movhi	r22,3
    6640:	b58fbe04 	addi	r22,r22,16120
    6644:	b0800017 	ldw	r2,0(r22)
    6648:	b885883a 	add	r2,r23,r2
    664c:	b0800015 	stw	r2,0(r22)
    6650:	e500cf26 	beq	fp,r20,6990 <_malloc_r+0x6dc>
    6654:	d1200317 	ldw	r4,-32756(gp)
    6658:	00ffffc4 	movi	r3,-1
    665c:	20c0e026 	beq	r4,r3,69e0 <_malloc_r+0x72c>
    6660:	a739c83a 	sub	fp,r20,fp
    6664:	1705883a 	add	r2,r2,fp
    6668:	b0800015 	stw	r2,0(r22)
    666c:	a08001cc 	andi	r2,r20,7
    6670:	1000a526 	beq	r2,zero,6908 <_malloc_r+0x654>
    6674:	a0a9c83a 	sub	r20,r20,r2
    6678:	00c40204 	movi	r3,4104
    667c:	a5000204 	addi	r20,r20,8
    6680:	1885c83a 	sub	r2,r3,r2
    6684:	a5c7883a 	add	r3,r20,r23
    6688:	18c3ffcc 	andi	r3,r3,4095
    668c:	10efc83a 	sub	r23,r2,r3
    6690:	9009883a 	mov	r4,r18
    6694:	b80b883a 	mov	r5,r23
    6698:	00085e00 	call	85e0 <_sbrk_r>
    669c:	00ffffc4 	movi	r3,-1
    66a0:	10c0cc26 	beq	r2,r3,69d4 <_malloc_r+0x720>
    66a4:	1505c83a 	sub	r2,r2,r20
    66a8:	b887883a 	add	r3,r23,r2
    66ac:	18c00054 	ori	r3,r3,1
    66b0:	b0800017 	ldw	r2,0(r22)
    66b4:	9d000215 	stw	r20,8(r19)
    66b8:	a0c00115 	stw	r3,4(r20)
    66bc:	b885883a 	add	r2,r23,r2
    66c0:	b0800015 	stw	r2,0(r22)
    66c4:	84c00e26 	beq	r16,r19,6700 <_malloc_r+0x44c>
    66c8:	00c003c4 	movi	r3,15
    66cc:	1d40902e 	bgeu	r3,r21,6910 <_malloc_r+0x65c>
    66d0:	ad7ffd04 	addi	r21,r21,-12
    66d4:	013ffe04 	movi	r4,-8
    66d8:	a908703a 	and	r4,r21,r4
    66dc:	810b883a 	add	r5,r16,r4
    66e0:	01800144 	movi	r6,5
    66e4:	29800115 	stw	r6,4(r5)
    66e8:	29800215 	stw	r6,8(r5)
    66ec:	81400117 	ldw	r5,4(r16)
    66f0:	2940004c 	andi	r5,r5,1
    66f4:	214ab03a 	or	r5,r4,r5
    66f8:	81400115 	stw	r5,4(r16)
    66fc:	1900ae36 	bltu	r3,r4,69b8 <_malloc_r+0x704>
    6700:	d0e70617 	ldw	r3,-25576(gp)
    6704:	1880012e 	bgeu	r3,r2,670c <_malloc_r+0x458>
    6708:	d0a70615 	stw	r2,-25576(gp)
    670c:	d0e70517 	ldw	r3,-25580(gp)
    6710:	9c000217 	ldw	r16,8(r19)
    6714:	1880012e 	bgeu	r3,r2,671c <_malloc_r+0x468>
    6718:	d0a70515 	stw	r2,-25580(gp)
    671c:	80c00117 	ldw	r3,4(r16)
    6720:	00bfff04 	movi	r2,-4
    6724:	1886703a 	and	r3,r3,r2
    6728:	1c45c83a 	sub	r2,r3,r17
    672c:	1c400236 	bltu	r3,r17,6738 <_malloc_r+0x484>
    6730:	00c003c4 	movi	r3,15
    6734:	18800416 	blt	r3,r2,6748 <_malloc_r+0x494>
    6738:	9009883a 	mov	r4,r18
    673c:	000af180 	call	af18 <__malloc_unlock>
    6740:	0005883a 	mov	r2,zero
    6744:	003f0906 	br	636c <__alt_mem_onchip_flash_0_data+0xf0f0636c>
    6748:	88c00054 	ori	r3,r17,1
    674c:	10800054 	ori	r2,r2,1
    6750:	80c00115 	stw	r3,4(r16)
    6754:	8463883a 	add	r17,r16,r17
    6758:	88800115 	stw	r2,4(r17)
    675c:	9009883a 	mov	r4,r18
    6760:	9c400215 	stw	r17,8(r19)
    6764:	000af180 	call	af18 <__malloc_unlock>
    6768:	80800204 	addi	r2,r16,8
    676c:	003eff06 	br	636c <__alt_mem_onchip_flash_0_data+0xf0f0636c>
    6770:	00800504 	movi	r2,20
    6774:	1100492e 	bgeu	r2,r4,689c <_malloc_r+0x5e8>
    6778:	00801504 	movi	r2,84
    677c:	11005c36 	bltu	r2,r4,68f0 <_malloc_r+0x63c>
    6780:	8808d33a 	srli	r4,r17,12
    6784:	21001b84 	addi	r4,r4,110
    6788:	210b883a 	add	r5,r4,r4
    678c:	003f1006 	br	63d0 <__alt_mem_onchip_flash_0_data+0xf0f063d0>
    6790:	1006d27a 	srli	r3,r2,9
    6794:	01400104 	movi	r5,4
    6798:	28c0432e 	bgeu	r5,r3,68a8 <_malloc_r+0x5f4>
    679c:	01400504 	movi	r5,20
    67a0:	28c07036 	bltu	r5,r3,6964 <_malloc_r+0x6b0>
    67a4:	194016c4 	addi	r5,r3,91
    67a8:	294d883a 	add	r6,r5,r5
    67ac:	318d883a 	add	r6,r6,r6
    67b0:	318d883a 	add	r6,r6,r6
    67b4:	998d883a 	add	r6,r19,r6
    67b8:	30c00217 	ldw	r3,8(r6)
    67bc:	01c000f4 	movhi	r7,3
    67c0:	39c2e104 	addi	r7,r7,2948
    67c4:	19805726 	beq	r3,r6,6924 <_malloc_r+0x670>
    67c8:	01ffff04 	movi	r7,-4
    67cc:	19400117 	ldw	r5,4(r3)
    67d0:	29ca703a 	and	r5,r5,r7
    67d4:	1140022e 	bgeu	r2,r5,67e0 <_malloc_r+0x52c>
    67d8:	18c00217 	ldw	r3,8(r3)
    67dc:	30fffb1e 	bne	r6,r3,67cc <__alt_mem_onchip_flash_0_data+0xf0f067cc>
    67e0:	19400317 	ldw	r5,12(r3)
    67e4:	98800117 	ldw	r2,4(r19)
    67e8:	81400315 	stw	r5,12(r16)
    67ec:	80c00215 	stw	r3,8(r16)
    67f0:	2c000215 	stw	r16,8(r5)
    67f4:	1c000315 	stw	r16,12(r3)
    67f8:	003f2b06 	br	64a8 <__alt_mem_onchip_flash_0_data+0xf0f064a8>
    67fc:	8445883a 	add	r2,r16,r17
    6800:	8c400054 	ori	r17,r17,1
    6804:	18800515 	stw	r2,20(r3)
    6808:	18800415 	stw	r2,16(r3)
    680c:	29000054 	ori	r4,r5,1
    6810:	1147883a 	add	r3,r2,r5
    6814:	84400115 	stw	r17,4(r16)
    6818:	11000115 	stw	r4,4(r2)
    681c:	12400315 	stw	r9,12(r2)
    6820:	12400215 	stw	r9,8(r2)
    6824:	19400015 	stw	r5,0(r3)
    6828:	9009883a 	mov	r4,r18
    682c:	000af180 	call	af18 <__malloc_unlock>
    6830:	80800204 	addi	r2,r16,8
    6834:	003ecd06 	br	636c <__alt_mem_onchip_flash_0_data+0xf0f0636c>
    6838:	18800117 	ldw	r2,4(r3)
    683c:	003f1a06 	br	64a8 <__alt_mem_onchip_flash_0_data+0xf0f064a8>
    6840:	5ac00044 	addi	r11,r11,1
    6844:	588000cc 	andi	r2,r11,3
    6848:	52800204 	addi	r10,r10,8
    684c:	103f2e1e 	bne	r2,zero,6508 <__alt_mem_onchip_flash_0_data+0xf0f06508>
    6850:	20c000cc 	andi	r3,r4,3
    6854:	60bffe04 	addi	r2,r12,-8
    6858:	18006f26 	beq	r3,zero,6a18 <_malloc_r+0x764>
    685c:	63000017 	ldw	r12,0(r12)
    6860:	213fffc4 	addi	r4,r4,-1
    6864:	60bffa26 	beq	r12,r2,6850 <__alt_mem_onchip_flash_0_data+0xf0f06850>
    6868:	98800117 	ldw	r2,4(r19)
    686c:	294b883a 	add	r5,r5,r5
    6870:	117f5a36 	bltu	r2,r5,65dc <__alt_mem_onchip_flash_0_data+0xf0f065dc>
    6874:	283f5926 	beq	r5,zero,65dc <__alt_mem_onchip_flash_0_data+0xf0f065dc>
    6878:	1146703a 	and	r3,r2,r5
    687c:	18001626 	beq	r3,zero,68d8 <_malloc_r+0x624>
    6880:	5809883a 	mov	r4,r11
    6884:	003f1a06 	br	64f0 <__alt_mem_onchip_flash_0_data+0xf0f064f0>
    6888:	80800204 	addi	r2,r16,8
    688c:	84000517 	ldw	r16,20(r16)
    6890:	143ea81e 	bne	r2,r16,6334 <__alt_mem_onchip_flash_0_data+0xf0f06334>
    6894:	21000084 	addi	r4,r4,2
    6898:	003ee306 	br	6428 <__alt_mem_onchip_flash_0_data+0xf0f06428>
    689c:	210016c4 	addi	r4,r4,91
    68a0:	210b883a 	add	r5,r4,r4
    68a4:	003eca06 	br	63d0 <__alt_mem_onchip_flash_0_data+0xf0f063d0>
    68a8:	100ad1ba 	srli	r5,r2,6
    68ac:	29400e04 	addi	r5,r5,56
    68b0:	294d883a 	add	r6,r5,r5
    68b4:	003fbd06 	br	67ac <__alt_mem_onchip_flash_0_data+0xf0f067ac>
    68b8:	84ff6026 	beq	r16,r19,663c <__alt_mem_onchip_flash_0_data+0xf0f0663c>
    68bc:	008000f4 	movhi	r2,3
    68c0:	1082e104 	addi	r2,r2,2948
    68c4:	14000217 	ldw	r16,8(r2)
    68c8:	00bfff04 	movi	r2,-4
    68cc:	80c00117 	ldw	r3,4(r16)
    68d0:	1886703a 	and	r3,r3,r2
    68d4:	003f9406 	br	6728 <__alt_mem_onchip_flash_0_data+0xf0f06728>
    68d8:	294b883a 	add	r5,r5,r5
    68dc:	1146703a 	and	r3,r2,r5
    68e0:	5ac00104 	addi	r11,r11,4
    68e4:	183ffc26 	beq	r3,zero,68d8 <__alt_mem_onchip_flash_0_data+0xf0f068d8>
    68e8:	5809883a 	mov	r4,r11
    68ec:	003f0006 	br	64f0 <__alt_mem_onchip_flash_0_data+0xf0f064f0>
    68f0:	00805504 	movi	r2,340
    68f4:	11001336 	bltu	r2,r4,6944 <_malloc_r+0x690>
    68f8:	8808d3fa 	srli	r4,r17,15
    68fc:	21001dc4 	addi	r4,r4,119
    6900:	210b883a 	add	r5,r4,r4
    6904:	003eb206 	br	63d0 <__alt_mem_onchip_flash_0_data+0xf0f063d0>
    6908:	00840004 	movi	r2,4096
    690c:	003f5d06 	br	6684 <__alt_mem_onchip_flash_0_data+0xf0f06684>
    6910:	00800044 	movi	r2,1
    6914:	a0800115 	stw	r2,4(r20)
    6918:	a021883a 	mov	r16,r20
    691c:	0007883a 	mov	r3,zero
    6920:	003f8106 	br	6728 <__alt_mem_onchip_flash_0_data+0xf0f06728>
    6924:	280bd0ba 	srai	r5,r5,2
    6928:	01800044 	movi	r6,1
    692c:	38800117 	ldw	r2,4(r7)
    6930:	314c983a 	sll	r6,r6,r5
    6934:	180b883a 	mov	r5,r3
    6938:	3084b03a 	or	r2,r6,r2
    693c:	38800115 	stw	r2,4(r7)
    6940:	003fa906 	br	67e8 <__alt_mem_onchip_flash_0_data+0xf0f067e8>
    6944:	00815504 	movi	r2,1364
    6948:	11001836 	bltu	r2,r4,69ac <_malloc_r+0x6f8>
    694c:	8808d4ba 	srli	r4,r17,18
    6950:	21001f04 	addi	r4,r4,124
    6954:	210b883a 	add	r5,r4,r4
    6958:	003e9d06 	br	63d0 <__alt_mem_onchip_flash_0_data+0xf0f063d0>
    695c:	bdc00404 	addi	r23,r23,16
    6960:	003f2f06 	br	6620 <__alt_mem_onchip_flash_0_data+0xf0f06620>
    6964:	01401504 	movi	r5,84
    6968:	28c01f36 	bltu	r5,r3,69e8 <_malloc_r+0x734>
    696c:	100ad33a 	srli	r5,r2,12
    6970:	29401b84 	addi	r5,r5,110
    6974:	294d883a 	add	r6,r5,r5
    6978:	003f8c06 	br	67ac <__alt_mem_onchip_flash_0_data+0xf0f067ac>
    697c:	9c000217 	ldw	r16,8(r19)
    6980:	00bfff04 	movi	r2,-4
    6984:	80c00117 	ldw	r3,4(r16)
    6988:	1886703a 	and	r3,r3,r2
    698c:	003f6606 	br	6728 <__alt_mem_onchip_flash_0_data+0xf0f06728>
    6990:	e0c3ffcc 	andi	r3,fp,4095
    6994:	183f2f1e 	bne	r3,zero,6654 <__alt_mem_onchip_flash_0_data+0xf0f06654>
    6998:	98c00217 	ldw	r3,8(r19)
    699c:	bd49883a 	add	r4,r23,r21
    69a0:	21000054 	ori	r4,r4,1
    69a4:	19000115 	stw	r4,4(r3)
    69a8:	003f5506 	br	6700 <__alt_mem_onchip_flash_0_data+0xf0f06700>
    69ac:	01403f04 	movi	r5,252
    69b0:	01001f84 	movi	r4,126
    69b4:	003e8606 	br	63d0 <__alt_mem_onchip_flash_0_data+0xf0f063d0>
    69b8:	9009883a 	mov	r4,r18
    69bc:	81400204 	addi	r5,r16,8
    69c0:	000571c0 	call	571c <_free_r>
    69c4:	008000f4 	movhi	r2,3
    69c8:	108fbe04 	addi	r2,r2,16120
    69cc:	10800017 	ldw	r2,0(r2)
    69d0:	003f4b06 	br	6700 <__alt_mem_onchip_flash_0_data+0xf0f06700>
    69d4:	00c00044 	movi	r3,1
    69d8:	002f883a 	mov	r23,zero
    69dc:	003f3406 	br	66b0 <__alt_mem_onchip_flash_0_data+0xf0f066b0>
    69e0:	d5200315 	stw	r20,-32756(gp)
    69e4:	003f2106 	br	666c <__alt_mem_onchip_flash_0_data+0xf0f0666c>
    69e8:	01405504 	movi	r5,340
    69ec:	28c00436 	bltu	r5,r3,6a00 <_malloc_r+0x74c>
    69f0:	100ad3fa 	srli	r5,r2,15
    69f4:	29401dc4 	addi	r5,r5,119
    69f8:	294d883a 	add	r6,r5,r5
    69fc:	003f6b06 	br	67ac <__alt_mem_onchip_flash_0_data+0xf0f067ac>
    6a00:	01415504 	movi	r5,1364
    6a04:	28c00936 	bltu	r5,r3,6a2c <_malloc_r+0x778>
    6a08:	100ad4ba 	srli	r5,r2,18
    6a0c:	29401f04 	addi	r5,r5,124
    6a10:	294d883a 	add	r6,r5,r5
    6a14:	003f6506 	br	67ac <__alt_mem_onchip_flash_0_data+0xf0f067ac>
    6a18:	98800117 	ldw	r2,4(r19)
    6a1c:	0146303a 	nor	r3,zero,r5
    6a20:	1884703a 	and	r2,r3,r2
    6a24:	98800115 	stw	r2,4(r19)
    6a28:	003f9006 	br	686c <__alt_mem_onchip_flash_0_data+0xf0f0686c>
    6a2c:	01803f04 	movi	r6,252
    6a30:	01401f84 	movi	r5,126
    6a34:	003f5d06 	br	67ac <__alt_mem_onchip_flash_0_data+0xf0f067ac>

00006a38 <memchr>:
    6a38:	008000c4 	movi	r2,3
    6a3c:	29403fcc 	andi	r5,r5,255
    6a40:	1180282e 	bgeu	r2,r6,6ae4 <memchr+0xac>
    6a44:	2086703a 	and	r3,r4,r2
    6a48:	1800351e 	bne	r3,zero,6b20 <memchr+0xe8>
    6a4c:	2816923a 	slli	r11,r5,8
    6a50:	2093883a 	add	r9,r4,r2
    6a54:	22000084 	addi	r8,r4,2
    6a58:	5957883a 	add	r11,r11,r5
    6a5c:	5816923a 	slli	r11,r11,8
    6a60:	20c00044 	addi	r3,r4,1
    6a64:	037fbff4 	movhi	r13,65279
    6a68:	6b7fbfc4 	addi	r13,r13,-257
    6a6c:	5957883a 	add	r11,r11,r5
    6a70:	5816923a 	slli	r11,r11,8
    6a74:	03202074 	movhi	r12,32897
    6a78:	63202004 	addi	r12,r12,-32640
    6a7c:	101d883a 	mov	r14,r2
    6a80:	5957883a 	add	r11,r11,r5
    6a84:	21c00017 	ldw	r7,0(r4)
    6a88:	31bfff04 	addi	r6,r6,-4
    6a8c:	1805883a 	mov	r2,r3
    6a90:	3acef03a 	xor	r7,r7,r11
    6a94:	3b55883a 	add	r10,r7,r13
    6a98:	01ce303a 	nor	r7,zero,r7
    6a9c:	51ce703a 	and	r7,r10,r7
    6aa0:	3b0e703a 	and	r7,r7,r12
    6aa4:	38000a26 	beq	r7,zero,6ad0 <memchr+0x98>
    6aa8:	21c00003 	ldbu	r7,0(r4)
    6aac:	39401e26 	beq	r7,r5,6b28 <memchr+0xf0>
    6ab0:	19c00003 	ldbu	r7,0(r3)
    6ab4:	39401926 	beq	r7,r5,6b1c <memchr+0xe4>
    6ab8:	41c00003 	ldbu	r7,0(r8)
    6abc:	4005883a 	mov	r2,r8
    6ac0:	39401626 	beq	r7,r5,6b1c <memchr+0xe4>
    6ac4:	49c00003 	ldbu	r7,0(r9)
    6ac8:	4805883a 	mov	r2,r9
    6acc:	39401326 	beq	r7,r5,6b1c <memchr+0xe4>
    6ad0:	21000104 	addi	r4,r4,4
    6ad4:	4a400104 	addi	r9,r9,4
    6ad8:	42000104 	addi	r8,r8,4
    6adc:	18c00104 	addi	r3,r3,4
    6ae0:	71bfe836 	bltu	r14,r6,6a84 <__alt_mem_onchip_flash_0_data+0xf0f06a84>
    6ae4:	2005883a 	mov	r2,r4
    6ae8:	30000a26 	beq	r6,zero,6b14 <memchr+0xdc>
    6aec:	10c00003 	ldbu	r3,0(r2)
    6af0:	19400a26 	beq	r3,r5,6b1c <memchr+0xe4>
    6af4:	10c00044 	addi	r3,r2,1
    6af8:	118d883a 	add	r6,r2,r6
    6afc:	00000306 	br	6b0c <memchr+0xd4>
    6b00:	11000003 	ldbu	r4,0(r2)
    6b04:	18c00044 	addi	r3,r3,1
    6b08:	21400426 	beq	r4,r5,6b1c <memchr+0xe4>
    6b0c:	1805883a 	mov	r2,r3
    6b10:	19bffb1e 	bne	r3,r6,6b00 <__alt_mem_onchip_flash_0_data+0xf0f06b00>
    6b14:	0005883a 	mov	r2,zero
    6b18:	f800283a 	ret
    6b1c:	f800283a 	ret
    6b20:	2005883a 	mov	r2,r4
    6b24:	003ff106 	br	6aec <__alt_mem_onchip_flash_0_data+0xf0f06aec>
    6b28:	2005883a 	mov	r2,r4
    6b2c:	f800283a 	ret

00006b30 <memcpy>:
    6b30:	00c003c4 	movi	r3,15
    6b34:	2005883a 	mov	r2,r4
    6b38:	3009883a 	mov	r4,r6
    6b3c:	1980032e 	bgeu	r3,r6,6b4c <memcpy+0x1c>
    6b40:	2886b03a 	or	r3,r5,r2
    6b44:	18c000cc 	andi	r3,r3,3
    6b48:	18000926 	beq	r3,zero,6b70 <memcpy+0x40>
    6b4c:	1007883a 	mov	r3,r2
    6b50:	290f883a 	add	r7,r5,r4
    6b54:	20000526 	beq	r4,zero,6b6c <memcpy+0x3c>
    6b58:	29800003 	ldbu	r6,0(r5)
    6b5c:	18c00044 	addi	r3,r3,1
    6b60:	29400044 	addi	r5,r5,1
    6b64:	19bfffc5 	stb	r6,-1(r3)
    6b68:	29fffb1e 	bne	r5,r7,6b58 <__alt_mem_onchip_flash_0_data+0xf0f06b58>
    6b6c:	f800283a 	ret
    6b70:	327ffc04 	addi	r9,r6,-16
    6b74:	4812d13a 	srli	r9,r9,4
    6b78:	11000404 	addi	r4,r2,16
    6b7c:	1007883a 	mov	r3,r2
    6b80:	4810913a 	slli	r8,r9,4
    6b84:	280f883a 	mov	r7,r5
    6b88:	2209883a 	add	r4,r4,r8
    6b8c:	3a000017 	ldw	r8,0(r7)
    6b90:	18c00404 	addi	r3,r3,16
    6b94:	39c00404 	addi	r7,r7,16
    6b98:	1a3ffc15 	stw	r8,-16(r3)
    6b9c:	3a3ffd17 	ldw	r8,-12(r7)
    6ba0:	1a3ffd15 	stw	r8,-12(r3)
    6ba4:	3a3ffe17 	ldw	r8,-8(r7)
    6ba8:	1a3ffe15 	stw	r8,-8(r3)
    6bac:	3a3fff17 	ldw	r8,-4(r7)
    6bb0:	1a3fff15 	stw	r8,-4(r3)
    6bb4:	193ff51e 	bne	r3,r4,6b8c <__alt_mem_onchip_flash_0_data+0xf0f06b8c>
    6bb8:	49c00044 	addi	r7,r9,1
    6bbc:	380e913a 	slli	r7,r7,4
    6bc0:	310003cc 	andi	r4,r6,15
    6bc4:	018000c4 	movi	r6,3
    6bc8:	11c7883a 	add	r3,r2,r7
    6bcc:	29cb883a 	add	r5,r5,r7
    6bd0:	313fdf2e 	bgeu	r6,r4,6b50 <__alt_mem_onchip_flash_0_data+0xf0f06b50>
    6bd4:	213fff04 	addi	r4,r4,-4
    6bd8:	2014d0ba 	srli	r10,r4,2
    6bdc:	1a400104 	addi	r9,r3,4
    6be0:	180d883a 	mov	r6,r3
    6be4:	528f883a 	add	r7,r10,r10
    6be8:	39cf883a 	add	r7,r7,r7
    6bec:	49d3883a 	add	r9,r9,r7
    6bf0:	280f883a 	mov	r7,r5
    6bf4:	3a000017 	ldw	r8,0(r7)
    6bf8:	31800104 	addi	r6,r6,4
    6bfc:	39c00104 	addi	r7,r7,4
    6c00:	323fff15 	stw	r8,-4(r6)
    6c04:	327ffb1e 	bne	r6,r9,6bf4 <__alt_mem_onchip_flash_0_data+0xf0f06bf4>
    6c08:	51800044 	addi	r6,r10,1
    6c0c:	52bfff24 	muli	r10,r10,-4
    6c10:	318d883a 	add	r6,r6,r6
    6c14:	318d883a 	add	r6,r6,r6
    6c18:	5109883a 	add	r4,r10,r4
    6c1c:	298b883a 	add	r5,r5,r6
    6c20:	1987883a 	add	r3,r3,r6
    6c24:	003fca06 	br	6b50 <__alt_mem_onchip_flash_0_data+0xf0f06b50>

00006c28 <memmove>:
    6c28:	2005883a 	mov	r2,r4
    6c2c:	300f883a 	mov	r7,r6
    6c30:	29000b2e 	bgeu	r5,r4,6c60 <memmove+0x38>
    6c34:	2987883a 	add	r3,r5,r6
    6c38:	20c0092e 	bgeu	r4,r3,6c60 <memmove+0x38>
    6c3c:	218b883a 	add	r5,r4,r6
    6c40:	198fc83a 	sub	r7,r3,r6
    6c44:	30003f26 	beq	r6,zero,6d44 <memmove+0x11c>
    6c48:	18ffffc4 	addi	r3,r3,-1
    6c4c:	19000003 	ldbu	r4,0(r3)
    6c50:	297fffc4 	addi	r5,r5,-1
    6c54:	29000005 	stb	r4,0(r5)
    6c58:	19fffb1e 	bne	r3,r7,6c48 <__alt_mem_onchip_flash_0_data+0xf0f06c48>
    6c5c:	f800283a 	ret
    6c60:	00c003c4 	movi	r3,15
    6c64:	1980382e 	bgeu	r3,r6,6d48 <memmove+0x120>
    6c68:	2886b03a 	or	r3,r5,r2
    6c6c:	18c000cc 	andi	r3,r3,3
    6c70:	1800351e 	bne	r3,zero,6d48 <memmove+0x120>
    6c74:	327ffc04 	addi	r9,r6,-16
    6c78:	4812d13a 	srli	r9,r9,4
    6c7c:	12000404 	addi	r8,r2,16
    6c80:	1007883a 	mov	r3,r2
    6c84:	4808913a 	slli	r4,r9,4
    6c88:	280f883a 	mov	r7,r5
    6c8c:	4111883a 	add	r8,r8,r4
    6c90:	39000017 	ldw	r4,0(r7)
    6c94:	18c00404 	addi	r3,r3,16
    6c98:	39c00404 	addi	r7,r7,16
    6c9c:	193ffc15 	stw	r4,-16(r3)
    6ca0:	393ffd17 	ldw	r4,-12(r7)
    6ca4:	193ffd15 	stw	r4,-12(r3)
    6ca8:	393ffe17 	ldw	r4,-8(r7)
    6cac:	193ffe15 	stw	r4,-8(r3)
    6cb0:	393fff17 	ldw	r4,-4(r7)
    6cb4:	193fff15 	stw	r4,-4(r3)
    6cb8:	1a3ff51e 	bne	r3,r8,6c90 <__alt_mem_onchip_flash_0_data+0xf0f06c90>
    6cbc:	49000044 	addi	r4,r9,1
    6cc0:	2008913a 	slli	r4,r4,4
    6cc4:	31c003cc 	andi	r7,r6,15
    6cc8:	1107883a 	add	r3,r2,r4
    6ccc:	290b883a 	add	r5,r5,r4
    6cd0:	010000c4 	movi	r4,3
    6cd4:	21c0142e 	bgeu	r4,r7,6d28 <memmove+0x100>
    6cd8:	39ffff04 	addi	r7,r7,-4
    6cdc:	3814d0ba 	srli	r10,r7,2
    6ce0:	1a400104 	addi	r9,r3,4
    6ce4:	180d883a 	mov	r6,r3
    6ce8:	5289883a 	add	r4,r10,r10
    6cec:	2109883a 	add	r4,r4,r4
    6cf0:	4913883a 	add	r9,r9,r4
    6cf4:	2809883a 	mov	r4,r5
    6cf8:	22000017 	ldw	r8,0(r4)
    6cfc:	31800104 	addi	r6,r6,4
    6d00:	21000104 	addi	r4,r4,4
    6d04:	323fff15 	stw	r8,-4(r6)
    6d08:	327ffb1e 	bne	r6,r9,6cf8 <__alt_mem_onchip_flash_0_data+0xf0f06cf8>
    6d0c:	51000044 	addi	r4,r10,1
    6d10:	52bfff24 	muli	r10,r10,-4
    6d14:	2109883a 	add	r4,r4,r4
    6d18:	2109883a 	add	r4,r4,r4
    6d1c:	51cf883a 	add	r7,r10,r7
    6d20:	290b883a 	add	r5,r5,r4
    6d24:	1907883a 	add	r3,r3,r4
    6d28:	38000626 	beq	r7,zero,6d44 <memmove+0x11c>
    6d2c:	19cf883a 	add	r7,r3,r7
    6d30:	29800003 	ldbu	r6,0(r5)
    6d34:	18c00044 	addi	r3,r3,1
    6d38:	29400044 	addi	r5,r5,1
    6d3c:	19bfffc5 	stb	r6,-1(r3)
    6d40:	19fffb1e 	bne	r3,r7,6d30 <__alt_mem_onchip_flash_0_data+0xf0f06d30>
    6d44:	f800283a 	ret
    6d48:	1007883a 	mov	r3,r2
    6d4c:	003ff606 	br	6d28 <__alt_mem_onchip_flash_0_data+0xf0f06d28>

00006d50 <memset>:
    6d50:	00c000c4 	movi	r3,3
    6d54:	2005883a 	mov	r2,r4
    6d58:	29403fcc 	andi	r5,r5,255
    6d5c:	19802d2e 	bgeu	r3,r6,6e14 <memset+0xc4>
    6d60:	20c6703a 	and	r3,r4,r3
    6d64:	18002e1e 	bne	r3,zero,6e20 <memset+0xd0>
    6d68:	2806923a 	slli	r3,r5,8
    6d6c:	010003c4 	movi	r4,15
    6d70:	3011883a 	mov	r8,r6
    6d74:	1946b03a 	or	r3,r3,r5
    6d78:	180e943a 	slli	r7,r3,16
    6d7c:	38ceb03a 	or	r7,r7,r3
    6d80:	1007883a 	mov	r3,r2
    6d84:	21800f2e 	bgeu	r4,r6,6dc4 <memset+0x74>
    6d88:	19c00015 	stw	r7,0(r3)
    6d8c:	19c00115 	stw	r7,4(r3)
    6d90:	19c00215 	stw	r7,8(r3)
    6d94:	19c00315 	stw	r7,12(r3)
    6d98:	423ffc04 	addi	r8,r8,-16
    6d9c:	18c00404 	addi	r3,r3,16
    6da0:	223ff936 	bltu	r4,r8,6d88 <__alt_mem_onchip_flash_0_data+0xf0f06d88>
    6da4:	30fffc04 	addi	r3,r6,-16
    6da8:	1806d13a 	srli	r3,r3,4
    6dac:	318003cc 	andi	r6,r6,15
    6db0:	010000c4 	movi	r4,3
    6db4:	18c00044 	addi	r3,r3,1
    6db8:	1806913a 	slli	r3,r3,4
    6dbc:	10c7883a 	add	r3,r2,r3
    6dc0:	21800e2e 	bgeu	r4,r6,6dfc <memset+0xac>
    6dc4:	1813883a 	mov	r9,r3
    6dc8:	3011883a 	mov	r8,r6
    6dcc:	010000c4 	movi	r4,3
    6dd0:	49c00015 	stw	r7,0(r9)
    6dd4:	423fff04 	addi	r8,r8,-4
    6dd8:	4a400104 	addi	r9,r9,4
    6ddc:	223ffc36 	bltu	r4,r8,6dd0 <__alt_mem_onchip_flash_0_data+0xf0f06dd0>
    6de0:	313fff04 	addi	r4,r6,-4
    6de4:	2008d0ba 	srli	r4,r4,2
    6de8:	318000cc 	andi	r6,r6,3
    6dec:	21000044 	addi	r4,r4,1
    6df0:	2109883a 	add	r4,r4,r4
    6df4:	2109883a 	add	r4,r4,r4
    6df8:	1907883a 	add	r3,r3,r4
    6dfc:	30000a26 	beq	r6,zero,6e28 <memset+0xd8>
    6e00:	198d883a 	add	r6,r3,r6
    6e04:	19400005 	stb	r5,0(r3)
    6e08:	18c00044 	addi	r3,r3,1
    6e0c:	19bffd1e 	bne	r3,r6,6e04 <__alt_mem_onchip_flash_0_data+0xf0f06e04>
    6e10:	f800283a 	ret
    6e14:	2007883a 	mov	r3,r4
    6e18:	303ff91e 	bne	r6,zero,6e00 <__alt_mem_onchip_flash_0_data+0xf0f06e00>
    6e1c:	00000206 	br	6e28 <memset+0xd8>
    6e20:	2007883a 	mov	r3,r4
    6e24:	003ff606 	br	6e00 <__alt_mem_onchip_flash_0_data+0xf0f06e00>
    6e28:	f800283a 	ret

00006e2c <_Balloc>:
    6e2c:	20801317 	ldw	r2,76(r4)
    6e30:	defffc04 	addi	sp,sp,-16
    6e34:	dc400115 	stw	r17,4(sp)
    6e38:	dc000015 	stw	r16,0(sp)
    6e3c:	dfc00315 	stw	ra,12(sp)
    6e40:	dc800215 	stw	r18,8(sp)
    6e44:	2023883a 	mov	r17,r4
    6e48:	2821883a 	mov	r16,r5
    6e4c:	10000f26 	beq	r2,zero,6e8c <_Balloc+0x60>
    6e50:	8407883a 	add	r3,r16,r16
    6e54:	18c7883a 	add	r3,r3,r3
    6e58:	10c7883a 	add	r3,r2,r3
    6e5c:	18800017 	ldw	r2,0(r3)
    6e60:	10001126 	beq	r2,zero,6ea8 <_Balloc+0x7c>
    6e64:	11000017 	ldw	r4,0(r2)
    6e68:	19000015 	stw	r4,0(r3)
    6e6c:	10000415 	stw	zero,16(r2)
    6e70:	10000315 	stw	zero,12(r2)
    6e74:	dfc00317 	ldw	ra,12(sp)
    6e78:	dc800217 	ldw	r18,8(sp)
    6e7c:	dc400117 	ldw	r17,4(sp)
    6e80:	dc000017 	ldw	r16,0(sp)
    6e84:	dec00404 	addi	sp,sp,16
    6e88:	f800283a 	ret
    6e8c:	01400104 	movi	r5,4
    6e90:	01800404 	movi	r6,16
    6e94:	00089ec0 	call	89ec <_calloc_r>
    6e98:	88801315 	stw	r2,76(r17)
    6e9c:	103fec1e 	bne	r2,zero,6e50 <__alt_mem_onchip_flash_0_data+0xf0f06e50>
    6ea0:	0005883a 	mov	r2,zero
    6ea4:	003ff306 	br	6e74 <__alt_mem_onchip_flash_0_data+0xf0f06e74>
    6ea8:	01400044 	movi	r5,1
    6eac:	2c24983a 	sll	r18,r5,r16
    6eb0:	8809883a 	mov	r4,r17
    6eb4:	91800144 	addi	r6,r18,5
    6eb8:	318d883a 	add	r6,r6,r6
    6ebc:	318d883a 	add	r6,r6,r6
    6ec0:	00089ec0 	call	89ec <_calloc_r>
    6ec4:	103ff626 	beq	r2,zero,6ea0 <__alt_mem_onchip_flash_0_data+0xf0f06ea0>
    6ec8:	14000115 	stw	r16,4(r2)
    6ecc:	14800215 	stw	r18,8(r2)
    6ed0:	003fe606 	br	6e6c <__alt_mem_onchip_flash_0_data+0xf0f06e6c>

00006ed4 <_Bfree>:
    6ed4:	28000826 	beq	r5,zero,6ef8 <_Bfree+0x24>
    6ed8:	28c00117 	ldw	r3,4(r5)
    6edc:	20801317 	ldw	r2,76(r4)
    6ee0:	18c7883a 	add	r3,r3,r3
    6ee4:	18c7883a 	add	r3,r3,r3
    6ee8:	10c5883a 	add	r2,r2,r3
    6eec:	10c00017 	ldw	r3,0(r2)
    6ef0:	28c00015 	stw	r3,0(r5)
    6ef4:	11400015 	stw	r5,0(r2)
    6ef8:	f800283a 	ret

00006efc <__multadd>:
    6efc:	defffa04 	addi	sp,sp,-24
    6f00:	dc000115 	stw	r16,4(sp)
    6f04:	2c000417 	ldw	r16,16(r5)
    6f08:	dc800315 	stw	r18,12(sp)
    6f0c:	dc400215 	stw	r17,8(sp)
    6f10:	dfc00515 	stw	ra,20(sp)
    6f14:	dcc00415 	stw	r19,16(sp)
    6f18:	2823883a 	mov	r17,r5
    6f1c:	2025883a 	mov	r18,r4
    6f20:	28c00504 	addi	r3,r5,20
    6f24:	0011883a 	mov	r8,zero
    6f28:	1a800017 	ldw	r10,0(r3)
    6f2c:	18c00104 	addi	r3,r3,4
    6f30:	42000044 	addi	r8,r8,1
    6f34:	527fffcc 	andi	r9,r10,65535
    6f38:	4993383a 	mul	r9,r9,r6
    6f3c:	5014d43a 	srli	r10,r10,16
    6f40:	49d3883a 	add	r9,r9,r7
    6f44:	480ed43a 	srli	r7,r9,16
    6f48:	5195383a 	mul	r10,r10,r6
    6f4c:	4a7fffcc 	andi	r9,r9,65535
    6f50:	3a8f883a 	add	r7,r7,r10
    6f54:	3814943a 	slli	r10,r7,16
    6f58:	380ed43a 	srli	r7,r7,16
    6f5c:	5253883a 	add	r9,r10,r9
    6f60:	1a7fff15 	stw	r9,-4(r3)
    6f64:	443ff016 	blt	r8,r16,6f28 <__alt_mem_onchip_flash_0_data+0xf0f06f28>
    6f68:	38000926 	beq	r7,zero,6f90 <__multadd+0x94>
    6f6c:	88800217 	ldw	r2,8(r17)
    6f70:	80800f0e 	bge	r16,r2,6fb0 <__multadd+0xb4>
    6f74:	80800144 	addi	r2,r16,5
    6f78:	1085883a 	add	r2,r2,r2
    6f7c:	1085883a 	add	r2,r2,r2
    6f80:	8885883a 	add	r2,r17,r2
    6f84:	84000044 	addi	r16,r16,1
    6f88:	11c00015 	stw	r7,0(r2)
    6f8c:	8c000415 	stw	r16,16(r17)
    6f90:	8805883a 	mov	r2,r17
    6f94:	dfc00517 	ldw	ra,20(sp)
    6f98:	dcc00417 	ldw	r19,16(sp)
    6f9c:	dc800317 	ldw	r18,12(sp)
    6fa0:	dc400217 	ldw	r17,8(sp)
    6fa4:	dc000117 	ldw	r16,4(sp)
    6fa8:	dec00604 	addi	sp,sp,24
    6fac:	f800283a 	ret
    6fb0:	89400117 	ldw	r5,4(r17)
    6fb4:	9009883a 	mov	r4,r18
    6fb8:	d9c00015 	stw	r7,0(sp)
    6fbc:	29400044 	addi	r5,r5,1
    6fc0:	0006e2c0 	call	6e2c <_Balloc>
    6fc4:	89800417 	ldw	r6,16(r17)
    6fc8:	89400304 	addi	r5,r17,12
    6fcc:	11000304 	addi	r4,r2,12
    6fd0:	31800084 	addi	r6,r6,2
    6fd4:	318d883a 	add	r6,r6,r6
    6fd8:	318d883a 	add	r6,r6,r6
    6fdc:	1027883a 	mov	r19,r2
    6fe0:	0006b300 	call	6b30 <memcpy>
    6fe4:	88c00117 	ldw	r3,4(r17)
    6fe8:	90801317 	ldw	r2,76(r18)
    6fec:	d9c00017 	ldw	r7,0(sp)
    6ff0:	18c7883a 	add	r3,r3,r3
    6ff4:	18c7883a 	add	r3,r3,r3
    6ff8:	10c5883a 	add	r2,r2,r3
    6ffc:	10c00017 	ldw	r3,0(r2)
    7000:	88c00015 	stw	r3,0(r17)
    7004:	14400015 	stw	r17,0(r2)
    7008:	9823883a 	mov	r17,r19
    700c:	003fd906 	br	6f74 <__alt_mem_onchip_flash_0_data+0xf0f06f74>

00007010 <__s2b>:
    7010:	defff904 	addi	sp,sp,-28
    7014:	dd000415 	stw	r20,16(sp)
    7018:	dc400115 	stw	r17,4(sp)
    701c:	2829883a 	mov	r20,r5
    7020:	2023883a 	mov	r17,r4
    7024:	01400244 	movi	r5,9
    7028:	39000204 	addi	r4,r7,8
    702c:	dcc00315 	stw	r19,12(sp)
    7030:	dc800215 	stw	r18,8(sp)
    7034:	dfc00615 	stw	ra,24(sp)
    7038:	dd400515 	stw	r21,20(sp)
    703c:	dc000015 	stw	r16,0(sp)
    7040:	3825883a 	mov	r18,r7
    7044:	3027883a 	mov	r19,r6
    7048:	00016240 	call	1624 <__divsi3>
    704c:	00c00044 	movi	r3,1
    7050:	000b883a 	mov	r5,zero
    7054:	1880030e 	bge	r3,r2,7064 <__s2b+0x54>
    7058:	18c7883a 	add	r3,r3,r3
    705c:	29400044 	addi	r5,r5,1
    7060:	18bffd16 	blt	r3,r2,7058 <__alt_mem_onchip_flash_0_data+0xf0f07058>
    7064:	8809883a 	mov	r4,r17
    7068:	0006e2c0 	call	6e2c <_Balloc>
    706c:	d8c00717 	ldw	r3,28(sp)
    7070:	10c00515 	stw	r3,20(r2)
    7074:	00c00044 	movi	r3,1
    7078:	10c00415 	stw	r3,16(r2)
    707c:	00c00244 	movi	r3,9
    7080:	1cc0210e 	bge	r3,r19,7108 <__s2b+0xf8>
    7084:	a0eb883a 	add	r21,r20,r3
    7088:	a821883a 	mov	r16,r21
    708c:	a4e9883a 	add	r20,r20,r19
    7090:	81c00007 	ldb	r7,0(r16)
    7094:	8809883a 	mov	r4,r17
    7098:	84000044 	addi	r16,r16,1
    709c:	100b883a 	mov	r5,r2
    70a0:	01800284 	movi	r6,10
    70a4:	39fff404 	addi	r7,r7,-48
    70a8:	0006efc0 	call	6efc <__multadd>
    70ac:	853ff81e 	bne	r16,r20,7090 <__alt_mem_onchip_flash_0_data+0xf0f07090>
    70b0:	ace1883a 	add	r16,r21,r19
    70b4:	843ffe04 	addi	r16,r16,-8
    70b8:	9c800a0e 	bge	r19,r18,70e4 <__s2b+0xd4>
    70bc:	94e5c83a 	sub	r18,r18,r19
    70c0:	84a5883a 	add	r18,r16,r18
    70c4:	81c00007 	ldb	r7,0(r16)
    70c8:	8809883a 	mov	r4,r17
    70cc:	84000044 	addi	r16,r16,1
    70d0:	100b883a 	mov	r5,r2
    70d4:	01800284 	movi	r6,10
    70d8:	39fff404 	addi	r7,r7,-48
    70dc:	0006efc0 	call	6efc <__multadd>
    70e0:	84bff81e 	bne	r16,r18,70c4 <__alt_mem_onchip_flash_0_data+0xf0f070c4>
    70e4:	dfc00617 	ldw	ra,24(sp)
    70e8:	dd400517 	ldw	r21,20(sp)
    70ec:	dd000417 	ldw	r20,16(sp)
    70f0:	dcc00317 	ldw	r19,12(sp)
    70f4:	dc800217 	ldw	r18,8(sp)
    70f8:	dc400117 	ldw	r17,4(sp)
    70fc:	dc000017 	ldw	r16,0(sp)
    7100:	dec00704 	addi	sp,sp,28
    7104:	f800283a 	ret
    7108:	a4000284 	addi	r16,r20,10
    710c:	1827883a 	mov	r19,r3
    7110:	003fe906 	br	70b8 <__alt_mem_onchip_flash_0_data+0xf0f070b8>

00007114 <__hi0bits>:
    7114:	20bfffec 	andhi	r2,r4,65535
    7118:	1000141e 	bne	r2,zero,716c <__hi0bits+0x58>
    711c:	2008943a 	slli	r4,r4,16
    7120:	00800404 	movi	r2,16
    7124:	20ffc02c 	andhi	r3,r4,65280
    7128:	1800021e 	bne	r3,zero,7134 <__hi0bits+0x20>
    712c:	2008923a 	slli	r4,r4,8
    7130:	10800204 	addi	r2,r2,8
    7134:	20fc002c 	andhi	r3,r4,61440
    7138:	1800021e 	bne	r3,zero,7144 <__hi0bits+0x30>
    713c:	2008913a 	slli	r4,r4,4
    7140:	10800104 	addi	r2,r2,4
    7144:	20f0002c 	andhi	r3,r4,49152
    7148:	1800031e 	bne	r3,zero,7158 <__hi0bits+0x44>
    714c:	2109883a 	add	r4,r4,r4
    7150:	10800084 	addi	r2,r2,2
    7154:	2109883a 	add	r4,r4,r4
    7158:	20000316 	blt	r4,zero,7168 <__hi0bits+0x54>
    715c:	2110002c 	andhi	r4,r4,16384
    7160:	2000041e 	bne	r4,zero,7174 <__hi0bits+0x60>
    7164:	00800804 	movi	r2,32
    7168:	f800283a 	ret
    716c:	0005883a 	mov	r2,zero
    7170:	003fec06 	br	7124 <__alt_mem_onchip_flash_0_data+0xf0f07124>
    7174:	10800044 	addi	r2,r2,1
    7178:	f800283a 	ret

0000717c <__lo0bits>:
    717c:	20c00017 	ldw	r3,0(r4)
    7180:	188001cc 	andi	r2,r3,7
    7184:	10000826 	beq	r2,zero,71a8 <__lo0bits+0x2c>
    7188:	1880004c 	andi	r2,r3,1
    718c:	1000211e 	bne	r2,zero,7214 <__lo0bits+0x98>
    7190:	1880008c 	andi	r2,r3,2
    7194:	1000211e 	bne	r2,zero,721c <__lo0bits+0xa0>
    7198:	1806d0ba 	srli	r3,r3,2
    719c:	00800084 	movi	r2,2
    71a0:	20c00015 	stw	r3,0(r4)
    71a4:	f800283a 	ret
    71a8:	18bfffcc 	andi	r2,r3,65535
    71ac:	10001326 	beq	r2,zero,71fc <__lo0bits+0x80>
    71b0:	0005883a 	mov	r2,zero
    71b4:	19403fcc 	andi	r5,r3,255
    71b8:	2800021e 	bne	r5,zero,71c4 <__lo0bits+0x48>
    71bc:	1806d23a 	srli	r3,r3,8
    71c0:	10800204 	addi	r2,r2,8
    71c4:	194003cc 	andi	r5,r3,15
    71c8:	2800021e 	bne	r5,zero,71d4 <__lo0bits+0x58>
    71cc:	1806d13a 	srli	r3,r3,4
    71d0:	10800104 	addi	r2,r2,4
    71d4:	194000cc 	andi	r5,r3,3
    71d8:	2800021e 	bne	r5,zero,71e4 <__lo0bits+0x68>
    71dc:	1806d0ba 	srli	r3,r3,2
    71e0:	10800084 	addi	r2,r2,2
    71e4:	1940004c 	andi	r5,r3,1
    71e8:	2800081e 	bne	r5,zero,720c <__lo0bits+0x90>
    71ec:	1806d07a 	srli	r3,r3,1
    71f0:	1800051e 	bne	r3,zero,7208 <__lo0bits+0x8c>
    71f4:	00800804 	movi	r2,32
    71f8:	f800283a 	ret
    71fc:	1806d43a 	srli	r3,r3,16
    7200:	00800404 	movi	r2,16
    7204:	003feb06 	br	71b4 <__alt_mem_onchip_flash_0_data+0xf0f071b4>
    7208:	10800044 	addi	r2,r2,1
    720c:	20c00015 	stw	r3,0(r4)
    7210:	f800283a 	ret
    7214:	0005883a 	mov	r2,zero
    7218:	f800283a 	ret
    721c:	1806d07a 	srli	r3,r3,1
    7220:	00800044 	movi	r2,1
    7224:	20c00015 	stw	r3,0(r4)
    7228:	f800283a 	ret

0000722c <__i2b>:
    722c:	defffd04 	addi	sp,sp,-12
    7230:	dc000015 	stw	r16,0(sp)
    7234:	04000044 	movi	r16,1
    7238:	dc400115 	stw	r17,4(sp)
    723c:	2823883a 	mov	r17,r5
    7240:	800b883a 	mov	r5,r16
    7244:	dfc00215 	stw	ra,8(sp)
    7248:	0006e2c0 	call	6e2c <_Balloc>
    724c:	14400515 	stw	r17,20(r2)
    7250:	14000415 	stw	r16,16(r2)
    7254:	dfc00217 	ldw	ra,8(sp)
    7258:	dc400117 	ldw	r17,4(sp)
    725c:	dc000017 	ldw	r16,0(sp)
    7260:	dec00304 	addi	sp,sp,12
    7264:	f800283a 	ret

00007268 <__multiply>:
    7268:	defffa04 	addi	sp,sp,-24
    726c:	dcc00315 	stw	r19,12(sp)
    7270:	dc400115 	stw	r17,4(sp)
    7274:	34c00417 	ldw	r19,16(r6)
    7278:	2c400417 	ldw	r17,16(r5)
    727c:	dd000415 	stw	r20,16(sp)
    7280:	dc800215 	stw	r18,8(sp)
    7284:	dfc00515 	stw	ra,20(sp)
    7288:	dc000015 	stw	r16,0(sp)
    728c:	2825883a 	mov	r18,r5
    7290:	3029883a 	mov	r20,r6
    7294:	8cc0050e 	bge	r17,r19,72ac <__multiply+0x44>
    7298:	8807883a 	mov	r3,r17
    729c:	3025883a 	mov	r18,r6
    72a0:	9823883a 	mov	r17,r19
    72a4:	2829883a 	mov	r20,r5
    72a8:	1827883a 	mov	r19,r3
    72ac:	90800217 	ldw	r2,8(r18)
    72b0:	8ce1883a 	add	r16,r17,r19
    72b4:	91400117 	ldw	r5,4(r18)
    72b8:	1400010e 	bge	r2,r16,72c0 <__multiply+0x58>
    72bc:	29400044 	addi	r5,r5,1
    72c0:	0006e2c0 	call	6e2c <_Balloc>
    72c4:	83c00144 	addi	r15,r16,5
    72c8:	7bdf883a 	add	r15,r15,r15
    72cc:	7bdf883a 	add	r15,r15,r15
    72d0:	13800504 	addi	r14,r2,20
    72d4:	13df883a 	add	r15,r2,r15
    72d8:	7007883a 	mov	r3,r14
    72dc:	73c0032e 	bgeu	r14,r15,72ec <__multiply+0x84>
    72e0:	18000015 	stw	zero,0(r3)
    72e4:	18c00104 	addi	r3,r3,4
    72e8:	1bfffd36 	bltu	r3,r15,72e0 <__alt_mem_onchip_flash_0_data+0xf0f072e0>
    72ec:	99800144 	addi	r6,r19,5
    72f0:	8b000144 	addi	r12,r17,5
    72f4:	318d883a 	add	r6,r6,r6
    72f8:	6319883a 	add	r12,r12,r12
    72fc:	318d883a 	add	r6,r6,r6
    7300:	6319883a 	add	r12,r12,r12
    7304:	a3400504 	addi	r13,r20,20
    7308:	a18d883a 	add	r6,r20,r6
    730c:	94400504 	addi	r17,r18,20
    7310:	9319883a 	add	r12,r18,r12
    7314:	6980392e 	bgeu	r13,r6,73fc <__multiply+0x194>
    7318:	6a800017 	ldw	r10,0(r13)
    731c:	52ffffcc 	andi	r11,r10,65535
    7320:	58001826 	beq	r11,zero,7384 <__multiply+0x11c>
    7324:	7007883a 	mov	r3,r14
    7328:	8809883a 	mov	r4,r17
    732c:	000b883a 	mov	r5,zero
    7330:	22400017 	ldw	r9,0(r4)
    7334:	1a000017 	ldw	r8,0(r3)
    7338:	21000104 	addi	r4,r4,4
    733c:	49ffffcc 	andi	r7,r9,65535
    7340:	3acf383a 	mul	r7,r7,r11
    7344:	4812d43a 	srli	r9,r9,16
    7348:	42bfffcc 	andi	r10,r8,65535
    734c:	3a8f883a 	add	r7,r7,r10
    7350:	394f883a 	add	r7,r7,r5
    7354:	4010d43a 	srli	r8,r8,16
    7358:	4acb383a 	mul	r5,r9,r11
    735c:	3814d43a 	srli	r10,r7,16
    7360:	19c0000d 	sth	r7,0(r3)
    7364:	2a0b883a 	add	r5,r5,r8
    7368:	2a8b883a 	add	r5,r5,r10
    736c:	1940008d 	sth	r5,2(r3)
    7370:	280ad43a 	srli	r5,r5,16
    7374:	18c00104 	addi	r3,r3,4
    7378:	233fed36 	bltu	r4,r12,7330 <__alt_mem_onchip_flash_0_data+0xf0f07330>
    737c:	19400015 	stw	r5,0(r3)
    7380:	6a800017 	ldw	r10,0(r13)
    7384:	5014d43a 	srli	r10,r10,16
    7388:	50001926 	beq	r10,zero,73f0 <__multiply+0x188>
    738c:	71400017 	ldw	r5,0(r14)
    7390:	7007883a 	mov	r3,r14
    7394:	8809883a 	mov	r4,r17
    7398:	280f883a 	mov	r7,r5
    739c:	0017883a 	mov	r11,zero
    73a0:	22400017 	ldw	r9,0(r4)
    73a4:	380ed43a 	srli	r7,r7,16
    73a8:	1940000d 	sth	r5,0(r3)
    73ac:	4a3fffcc 	andi	r8,r9,65535
    73b0:	4291383a 	mul	r8,r8,r10
    73b4:	4812d43a 	srli	r9,r9,16
    73b8:	18c00104 	addi	r3,r3,4
    73bc:	41d1883a 	add	r8,r8,r7
    73c0:	19c00017 	ldw	r7,0(r3)
    73c4:	42d1883a 	add	r8,r8,r11
    73c8:	4a93383a 	mul	r9,r9,r10
    73cc:	1a3fff8d 	sth	r8,-2(r3)
    73d0:	4010d43a 	srli	r8,r8,16
    73d4:	397fffcc 	andi	r5,r7,65535
    73d8:	2a4b883a 	add	r5,r5,r9
    73dc:	2a0b883a 	add	r5,r5,r8
    73e0:	21000104 	addi	r4,r4,4
    73e4:	2816d43a 	srli	r11,r5,16
    73e8:	233fed36 	bltu	r4,r12,73a0 <__alt_mem_onchip_flash_0_data+0xf0f073a0>
    73ec:	19400015 	stw	r5,0(r3)
    73f0:	6b400104 	addi	r13,r13,4
    73f4:	73800104 	addi	r14,r14,4
    73f8:	69bfc736 	bltu	r13,r6,7318 <__alt_mem_onchip_flash_0_data+0xf0f07318>
    73fc:	0400090e 	bge	zero,r16,7424 <__multiply+0x1bc>
    7400:	78ffff17 	ldw	r3,-4(r15)
    7404:	7bffff04 	addi	r15,r15,-4
    7408:	18000326 	beq	r3,zero,7418 <__multiply+0x1b0>
    740c:	00000506 	br	7424 <__multiply+0x1bc>
    7410:	78c00017 	ldw	r3,0(r15)
    7414:	1800031e 	bne	r3,zero,7424 <__multiply+0x1bc>
    7418:	843fffc4 	addi	r16,r16,-1
    741c:	7bffff04 	addi	r15,r15,-4
    7420:	803ffb1e 	bne	r16,zero,7410 <__alt_mem_onchip_flash_0_data+0xf0f07410>
    7424:	14000415 	stw	r16,16(r2)
    7428:	dfc00517 	ldw	ra,20(sp)
    742c:	dd000417 	ldw	r20,16(sp)
    7430:	dcc00317 	ldw	r19,12(sp)
    7434:	dc800217 	ldw	r18,8(sp)
    7438:	dc400117 	ldw	r17,4(sp)
    743c:	dc000017 	ldw	r16,0(sp)
    7440:	dec00604 	addi	sp,sp,24
    7444:	f800283a 	ret

00007448 <__pow5mult>:
    7448:	defffb04 	addi	sp,sp,-20
    744c:	dcc00315 	stw	r19,12(sp)
    7450:	dc800215 	stw	r18,8(sp)
    7454:	dc000015 	stw	r16,0(sp)
    7458:	dfc00415 	stw	ra,16(sp)
    745c:	dc400115 	stw	r17,4(sp)
    7460:	308000cc 	andi	r2,r6,3
    7464:	3021883a 	mov	r16,r6
    7468:	2027883a 	mov	r19,r4
    746c:	2825883a 	mov	r18,r5
    7470:	10002e1e 	bne	r2,zero,752c <__pow5mult+0xe4>
    7474:	8021d0ba 	srai	r16,r16,2
    7478:	80001a26 	beq	r16,zero,74e4 <__pow5mult+0x9c>
    747c:	9c401217 	ldw	r17,72(r19)
    7480:	8800061e 	bne	r17,zero,749c <__pow5mult+0x54>
    7484:	00003406 	br	7558 <__pow5mult+0x110>
    7488:	8021d07a 	srai	r16,r16,1
    748c:	80001526 	beq	r16,zero,74e4 <__pow5mult+0x9c>
    7490:	88c00017 	ldw	r3,0(r17)
    7494:	18001b26 	beq	r3,zero,7504 <__pow5mult+0xbc>
    7498:	1823883a 	mov	r17,r3
    749c:	80c0004c 	andi	r3,r16,1
    74a0:	183ff926 	beq	r3,zero,7488 <__alt_mem_onchip_flash_0_data+0xf0f07488>
    74a4:	900b883a 	mov	r5,r18
    74a8:	880d883a 	mov	r6,r17
    74ac:	9809883a 	mov	r4,r19
    74b0:	00072680 	call	7268 <__multiply>
    74b4:	90001b26 	beq	r18,zero,7524 <__pow5mult+0xdc>
    74b8:	91000117 	ldw	r4,4(r18)
    74bc:	98c01317 	ldw	r3,76(r19)
    74c0:	8021d07a 	srai	r16,r16,1
    74c4:	2109883a 	add	r4,r4,r4
    74c8:	2109883a 	add	r4,r4,r4
    74cc:	1907883a 	add	r3,r3,r4
    74d0:	19000017 	ldw	r4,0(r3)
    74d4:	91000015 	stw	r4,0(r18)
    74d8:	1c800015 	stw	r18,0(r3)
    74dc:	1025883a 	mov	r18,r2
    74e0:	803feb1e 	bne	r16,zero,7490 <__alt_mem_onchip_flash_0_data+0xf0f07490>
    74e4:	9005883a 	mov	r2,r18
    74e8:	dfc00417 	ldw	ra,16(sp)
    74ec:	dcc00317 	ldw	r19,12(sp)
    74f0:	dc800217 	ldw	r18,8(sp)
    74f4:	dc400117 	ldw	r17,4(sp)
    74f8:	dc000017 	ldw	r16,0(sp)
    74fc:	dec00504 	addi	sp,sp,20
    7500:	f800283a 	ret
    7504:	880b883a 	mov	r5,r17
    7508:	880d883a 	mov	r6,r17
    750c:	9809883a 	mov	r4,r19
    7510:	00072680 	call	7268 <__multiply>
    7514:	88800015 	stw	r2,0(r17)
    7518:	10000015 	stw	zero,0(r2)
    751c:	1023883a 	mov	r17,r2
    7520:	003fde06 	br	749c <__alt_mem_onchip_flash_0_data+0xf0f0749c>
    7524:	1025883a 	mov	r18,r2
    7528:	003fd706 	br	7488 <__alt_mem_onchip_flash_0_data+0xf0f07488>
    752c:	10bfffc4 	addi	r2,r2,-1
    7530:	1085883a 	add	r2,r2,r2
    7534:	00c000f4 	movhi	r3,3
    7538:	18c16f04 	addi	r3,r3,1468
    753c:	1085883a 	add	r2,r2,r2
    7540:	1885883a 	add	r2,r3,r2
    7544:	11800017 	ldw	r6,0(r2)
    7548:	000f883a 	mov	r7,zero
    754c:	0006efc0 	call	6efc <__multadd>
    7550:	1025883a 	mov	r18,r2
    7554:	003fc706 	br	7474 <__alt_mem_onchip_flash_0_data+0xf0f07474>
    7558:	9809883a 	mov	r4,r19
    755c:	01409c44 	movi	r5,625
    7560:	000722c0 	call	722c <__i2b>
    7564:	98801215 	stw	r2,72(r19)
    7568:	1023883a 	mov	r17,r2
    756c:	10000015 	stw	zero,0(r2)
    7570:	003fca06 	br	749c <__alt_mem_onchip_flash_0_data+0xf0f0749c>

00007574 <__lshift>:
    7574:	defff904 	addi	sp,sp,-28
    7578:	dd400515 	stw	r21,20(sp)
    757c:	dc400115 	stw	r17,4(sp)
    7580:	2d400417 	ldw	r21,16(r5)
    7584:	3023d17a 	srai	r17,r6,5
    7588:	28800217 	ldw	r2,8(r5)
    758c:	dd000415 	stw	r20,16(sp)
    7590:	8d6b883a 	add	r21,r17,r21
    7594:	dcc00315 	stw	r19,12(sp)
    7598:	dc800215 	stw	r18,8(sp)
    759c:	dc000015 	stw	r16,0(sp)
    75a0:	dfc00615 	stw	ra,24(sp)
    75a4:	ac000044 	addi	r16,r21,1
    75a8:	2825883a 	mov	r18,r5
    75ac:	3029883a 	mov	r20,r6
    75b0:	2027883a 	mov	r19,r4
    75b4:	29400117 	ldw	r5,4(r5)
    75b8:	1400030e 	bge	r2,r16,75c8 <__lshift+0x54>
    75bc:	1085883a 	add	r2,r2,r2
    75c0:	29400044 	addi	r5,r5,1
    75c4:	143ffd16 	blt	r2,r16,75bc <__alt_mem_onchip_flash_0_data+0xf0f075bc>
    75c8:	9809883a 	mov	r4,r19
    75cc:	0006e2c0 	call	6e2c <_Balloc>
    75d0:	10c00504 	addi	r3,r2,20
    75d4:	0440090e 	bge	zero,r17,75fc <__lshift+0x88>
    75d8:	000f883a 	mov	r7,zero
    75dc:	18000015 	stw	zero,0(r3)
    75e0:	39c00044 	addi	r7,r7,1
    75e4:	18c00104 	addi	r3,r3,4
    75e8:	3c7ffc1e 	bne	r7,r17,75dc <__alt_mem_onchip_flash_0_data+0xf0f075dc>
    75ec:	38c00144 	addi	r3,r7,5
    75f0:	18c7883a 	add	r3,r3,r3
    75f4:	18c7883a 	add	r3,r3,r3
    75f8:	10c7883a 	add	r3,r2,r3
    75fc:	92000417 	ldw	r8,16(r18)
    7600:	a18007cc 	andi	r6,r20,31
    7604:	91c00504 	addi	r7,r18,20
    7608:	42000144 	addi	r8,r8,5
    760c:	4211883a 	add	r8,r8,r8
    7610:	4211883a 	add	r8,r8,r8
    7614:	9211883a 	add	r8,r18,r8
    7618:	30002226 	beq	r6,zero,76a4 <__lshift+0x130>
    761c:	02800804 	movi	r10,32
    7620:	5195c83a 	sub	r10,r10,r6
    7624:	000b883a 	mov	r5,zero
    7628:	3a400017 	ldw	r9,0(r7)
    762c:	18c00104 	addi	r3,r3,4
    7630:	39c00104 	addi	r7,r7,4
    7634:	4992983a 	sll	r9,r9,r6
    7638:	2a4ab03a 	or	r5,r5,r9
    763c:	197fff15 	stw	r5,-4(r3)
    7640:	397fff17 	ldw	r5,-4(r7)
    7644:	2a8ad83a 	srl	r5,r5,r10
    7648:	3a3ff736 	bltu	r7,r8,7628 <__alt_mem_onchip_flash_0_data+0xf0f07628>
    764c:	19400015 	stw	r5,0(r3)
    7650:	28000126 	beq	r5,zero,7658 <__lshift+0xe4>
    7654:	ac000084 	addi	r16,r21,2
    7658:	91000117 	ldw	r4,4(r18)
    765c:	98c01317 	ldw	r3,76(r19)
    7660:	843fffc4 	addi	r16,r16,-1
    7664:	2109883a 	add	r4,r4,r4
    7668:	2109883a 	add	r4,r4,r4
    766c:	1907883a 	add	r3,r3,r4
    7670:	19000017 	ldw	r4,0(r3)
    7674:	14000415 	stw	r16,16(r2)
    7678:	91000015 	stw	r4,0(r18)
    767c:	1c800015 	stw	r18,0(r3)
    7680:	dfc00617 	ldw	ra,24(sp)
    7684:	dd400517 	ldw	r21,20(sp)
    7688:	dd000417 	ldw	r20,16(sp)
    768c:	dcc00317 	ldw	r19,12(sp)
    7690:	dc800217 	ldw	r18,8(sp)
    7694:	dc400117 	ldw	r17,4(sp)
    7698:	dc000017 	ldw	r16,0(sp)
    769c:	dec00704 	addi	sp,sp,28
    76a0:	f800283a 	ret
    76a4:	39400017 	ldw	r5,0(r7)
    76a8:	18c00104 	addi	r3,r3,4
    76ac:	39c00104 	addi	r7,r7,4
    76b0:	197fff15 	stw	r5,-4(r3)
    76b4:	3a3fe82e 	bgeu	r7,r8,7658 <__alt_mem_onchip_flash_0_data+0xf0f07658>
    76b8:	39400017 	ldw	r5,0(r7)
    76bc:	18c00104 	addi	r3,r3,4
    76c0:	39c00104 	addi	r7,r7,4
    76c4:	197fff15 	stw	r5,-4(r3)
    76c8:	3a3ff636 	bltu	r7,r8,76a4 <__alt_mem_onchip_flash_0_data+0xf0f076a4>
    76cc:	003fe206 	br	7658 <__alt_mem_onchip_flash_0_data+0xf0f07658>

000076d0 <__mcmp>:
    76d0:	20800417 	ldw	r2,16(r4)
    76d4:	28c00417 	ldw	r3,16(r5)
    76d8:	10c5c83a 	sub	r2,r2,r3
    76dc:	10000f1e 	bne	r2,zero,771c <__mcmp+0x4c>
    76e0:	18c00144 	addi	r3,r3,5
    76e4:	18c7883a 	add	r3,r3,r3
    76e8:	18c7883a 	add	r3,r3,r3
    76ec:	21c00504 	addi	r7,r4,20
    76f0:	28cb883a 	add	r5,r5,r3
    76f4:	20c9883a 	add	r4,r4,r3
    76f8:	213fff04 	addi	r4,r4,-4
    76fc:	297fff04 	addi	r5,r5,-4
    7700:	21800017 	ldw	r6,0(r4)
    7704:	28c00017 	ldw	r3,0(r5)
    7708:	30c0021e 	bne	r6,r3,7714 <__mcmp+0x44>
    770c:	393ffa36 	bltu	r7,r4,76f8 <__alt_mem_onchip_flash_0_data+0xf0f076f8>
    7710:	f800283a 	ret
    7714:	30c00236 	bltu	r6,r3,7720 <__mcmp+0x50>
    7718:	00800044 	movi	r2,1
    771c:	f800283a 	ret
    7720:	00bfffc4 	movi	r2,-1
    7724:	f800283a 	ret

00007728 <__mdiff>:
    7728:	defffb04 	addi	sp,sp,-20
    772c:	dc000015 	stw	r16,0(sp)
    7730:	2821883a 	mov	r16,r5
    7734:	dc800215 	stw	r18,8(sp)
    7738:	300b883a 	mov	r5,r6
    773c:	2025883a 	mov	r18,r4
    7740:	8009883a 	mov	r4,r16
    7744:	dc400115 	stw	r17,4(sp)
    7748:	dfc00415 	stw	ra,16(sp)
    774c:	dcc00315 	stw	r19,12(sp)
    7750:	3023883a 	mov	r17,r6
    7754:	00076d00 	call	76d0 <__mcmp>
    7758:	10005026 	beq	r2,zero,789c <__mdiff+0x174>
    775c:	10004a16 	blt	r2,zero,7888 <__mdiff+0x160>
    7760:	0027883a 	mov	r19,zero
    7764:	81400117 	ldw	r5,4(r16)
    7768:	9009883a 	mov	r4,r18
    776c:	0006e2c0 	call	6e2c <_Balloc>
    7770:	82400417 	ldw	r9,16(r16)
    7774:	89800417 	ldw	r6,16(r17)
    7778:	14c00315 	stw	r19,12(r2)
    777c:	4b800144 	addi	r14,r9,5
    7780:	31800144 	addi	r6,r6,5
    7784:	739d883a 	add	r14,r14,r14
    7788:	318d883a 	add	r6,r6,r6
    778c:	739d883a 	add	r14,r14,r14
    7790:	318d883a 	add	r6,r6,r6
    7794:	81c00504 	addi	r7,r16,20
    7798:	839d883a 	add	r14,r16,r14
    779c:	8a000504 	addi	r8,r17,20
    77a0:	898d883a 	add	r6,r17,r6
    77a4:	10c00504 	addi	r3,r2,20
    77a8:	0009883a 	mov	r4,zero
    77ac:	3b000017 	ldw	r12,0(r7)
    77b0:	42c00017 	ldw	r11,0(r8)
    77b4:	42000104 	addi	r8,r8,4
    77b8:	62bfffcc 	andi	r10,r12,65535
    77bc:	5b7fffcc 	andi	r13,r11,65535
    77c0:	5109883a 	add	r4,r10,r4
    77c4:	2355c83a 	sub	r10,r4,r13
    77c8:	5816d43a 	srli	r11,r11,16
    77cc:	6008d43a 	srli	r4,r12,16
    77d0:	501bd43a 	srai	r13,r10,16
    77d4:	1a80000d 	sth	r10,0(r3)
    77d8:	22c9c83a 	sub	r4,r4,r11
    77dc:	2349883a 	add	r4,r4,r13
    77e0:	1900008d 	sth	r4,2(r3)
    77e4:	39c00104 	addi	r7,r7,4
    77e8:	2009d43a 	srai	r4,r4,16
    77ec:	18c00104 	addi	r3,r3,4
    77f0:	41bfee36 	bltu	r8,r6,77ac <__alt_mem_onchip_flash_0_data+0xf0f077ac>
    77f4:	180b883a 	mov	r5,r3
    77f8:	3815883a 	mov	r10,r7
    77fc:	3b80132e 	bgeu	r7,r14,784c <__mdiff+0x124>
    7800:	3a000017 	ldw	r8,0(r7)
    7804:	18c00104 	addi	r3,r3,4
    7808:	39c00104 	addi	r7,r7,4
    780c:	41bfffcc 	andi	r6,r8,65535
    7810:	310d883a 	add	r6,r6,r4
    7814:	3009d43a 	srai	r4,r6,16
    7818:	4010d43a 	srli	r8,r8,16
    781c:	19bfff0d 	sth	r6,-4(r3)
    7820:	2209883a 	add	r4,r4,r8
    7824:	193fff8d 	sth	r4,-2(r3)
    7828:	2009d43a 	srai	r4,r4,16
    782c:	3bbff436 	bltu	r7,r14,7800 <__alt_mem_onchip_flash_0_data+0xf0f07800>
    7830:	0286303a 	nor	r3,zero,r10
    7834:	1b87883a 	add	r3,r3,r14
    7838:	1806d0ba 	srli	r3,r3,2
    783c:	18c00044 	addi	r3,r3,1
    7840:	18c7883a 	add	r3,r3,r3
    7844:	18c7883a 	add	r3,r3,r3
    7848:	28c7883a 	add	r3,r5,r3
    784c:	193fff17 	ldw	r4,-4(r3)
    7850:	18ffff04 	addi	r3,r3,-4
    7854:	2000041e 	bne	r4,zero,7868 <__mdiff+0x140>
    7858:	18ffff04 	addi	r3,r3,-4
    785c:	19000017 	ldw	r4,0(r3)
    7860:	4a7fffc4 	addi	r9,r9,-1
    7864:	203ffc26 	beq	r4,zero,7858 <__alt_mem_onchip_flash_0_data+0xf0f07858>
    7868:	12400415 	stw	r9,16(r2)
    786c:	dfc00417 	ldw	ra,16(sp)
    7870:	dcc00317 	ldw	r19,12(sp)
    7874:	dc800217 	ldw	r18,8(sp)
    7878:	dc400117 	ldw	r17,4(sp)
    787c:	dc000017 	ldw	r16,0(sp)
    7880:	dec00504 	addi	sp,sp,20
    7884:	f800283a 	ret
    7888:	8005883a 	mov	r2,r16
    788c:	04c00044 	movi	r19,1
    7890:	8821883a 	mov	r16,r17
    7894:	1023883a 	mov	r17,r2
    7898:	003fb206 	br	7764 <__alt_mem_onchip_flash_0_data+0xf0f07764>
    789c:	9009883a 	mov	r4,r18
    78a0:	000b883a 	mov	r5,zero
    78a4:	0006e2c0 	call	6e2c <_Balloc>
    78a8:	00c00044 	movi	r3,1
    78ac:	10c00415 	stw	r3,16(r2)
    78b0:	10000515 	stw	zero,20(r2)
    78b4:	dfc00417 	ldw	ra,16(sp)
    78b8:	dcc00317 	ldw	r19,12(sp)
    78bc:	dc800217 	ldw	r18,8(sp)
    78c0:	dc400117 	ldw	r17,4(sp)
    78c4:	dc000017 	ldw	r16,0(sp)
    78c8:	dec00504 	addi	sp,sp,20
    78cc:	f800283a 	ret

000078d0 <__ulp>:
    78d0:	295ffc2c 	andhi	r5,r5,32752
    78d4:	00bf3034 	movhi	r2,64704
    78d8:	2887883a 	add	r3,r5,r2
    78dc:	00c0020e 	bge	zero,r3,78e8 <__ulp+0x18>
    78e0:	0005883a 	mov	r2,zero
    78e4:	f800283a 	ret
    78e8:	00c7c83a 	sub	r3,zero,r3
    78ec:	1805d53a 	srai	r2,r3,20
    78f0:	00c004c4 	movi	r3,19
    78f4:	18800a0e 	bge	r3,r2,7920 <__ulp+0x50>
    78f8:	01000c84 	movi	r4,50
    78fc:	0007883a 	mov	r3,zero
    7900:	20800516 	blt	r4,r2,7918 <__ulp+0x48>
    7904:	01000cc4 	movi	r4,51
    7908:	2085c83a 	sub	r2,r4,r2
    790c:	01000044 	movi	r4,1
    7910:	2084983a 	sll	r2,r4,r2
    7914:	f800283a 	ret
    7918:	00800044 	movi	r2,1
    791c:	f800283a 	ret
    7920:	00c00234 	movhi	r3,8
    7924:	1887d83a 	sra	r3,r3,r2
    7928:	0005883a 	mov	r2,zero
    792c:	f800283a 	ret

00007930 <__b2d>:
    7930:	defffa04 	addi	sp,sp,-24
    7934:	dc000015 	stw	r16,0(sp)
    7938:	24000417 	ldw	r16,16(r4)
    793c:	dc400115 	stw	r17,4(sp)
    7940:	dcc00315 	stw	r19,12(sp)
    7944:	84000144 	addi	r16,r16,5
    7948:	8421883a 	add	r16,r16,r16
    794c:	8421883a 	add	r16,r16,r16
    7950:	2421883a 	add	r16,r4,r16
    7954:	847fff17 	ldw	r17,-4(r16)
    7958:	24c00504 	addi	r19,r4,20
    795c:	dd000415 	stw	r20,16(sp)
    7960:	8809883a 	mov	r4,r17
    7964:	dc800215 	stw	r18,8(sp)
    7968:	2829883a 	mov	r20,r5
    796c:	dfc00515 	stw	ra,20(sp)
    7970:	00071140 	call	7114 <__hi0bits>
    7974:	00c00804 	movi	r3,32
    7978:	1887c83a 	sub	r3,r3,r2
    797c:	a0c00015 	stw	r3,0(r20)
    7980:	00c00284 	movi	r3,10
    7984:	84bfff04 	addi	r18,r16,-4
    7988:	18801216 	blt	r3,r2,79d4 <__b2d+0xa4>
    798c:	010002c4 	movi	r4,11
    7990:	2089c83a 	sub	r4,r4,r2
    7994:	8906d83a 	srl	r3,r17,r4
    7998:	18cffc34 	orhi	r3,r3,16368
    799c:	9c80322e 	bgeu	r19,r18,7a68 <__b2d+0x138>
    79a0:	817ffe17 	ldw	r5,-8(r16)
    79a4:	2908d83a 	srl	r4,r5,r4
    79a8:	10800544 	addi	r2,r2,21
    79ac:	88a2983a 	sll	r17,r17,r2
    79b0:	2444b03a 	or	r2,r4,r17
    79b4:	dfc00517 	ldw	ra,20(sp)
    79b8:	dd000417 	ldw	r20,16(sp)
    79bc:	dcc00317 	ldw	r19,12(sp)
    79c0:	dc800217 	ldw	r18,8(sp)
    79c4:	dc400117 	ldw	r17,4(sp)
    79c8:	dc000017 	ldw	r16,0(sp)
    79cc:	dec00604 	addi	sp,sp,24
    79d0:	f800283a 	ret
    79d4:	9c801636 	bltu	r19,r18,7a30 <__b2d+0x100>
    79d8:	113ffd44 	addi	r4,r2,-11
    79dc:	000b883a 	mov	r5,zero
    79e0:	20001726 	beq	r4,zero,7a40 <__b2d+0x110>
    79e4:	00c00ac4 	movi	r3,43
    79e8:	1885c83a 	sub	r2,r3,r2
    79ec:	8906983a 	sll	r3,r17,r4
    79f0:	288cd83a 	srl	r6,r5,r2
    79f4:	18cffc34 	orhi	r3,r3,16368
    79f8:	1986b03a 	or	r3,r3,r6
    79fc:	9c801c2e 	bgeu	r19,r18,7a70 <__b2d+0x140>
    7a00:	91bfff17 	ldw	r6,-4(r18)
    7a04:	3084d83a 	srl	r2,r6,r2
    7a08:	2908983a 	sll	r4,r5,r4
    7a0c:	1104b03a 	or	r2,r2,r4
    7a10:	dfc00517 	ldw	ra,20(sp)
    7a14:	dd000417 	ldw	r20,16(sp)
    7a18:	dcc00317 	ldw	r19,12(sp)
    7a1c:	dc800217 	ldw	r18,8(sp)
    7a20:	dc400117 	ldw	r17,4(sp)
    7a24:	dc000017 	ldw	r16,0(sp)
    7a28:	dec00604 	addi	sp,sp,24
    7a2c:	f800283a 	ret
    7a30:	113ffd44 	addi	r4,r2,-11
    7a34:	84bffe04 	addi	r18,r16,-8
    7a38:	817ffe17 	ldw	r5,-8(r16)
    7a3c:	203fe91e 	bne	r4,zero,79e4 <__alt_mem_onchip_flash_0_data+0xf0f079e4>
    7a40:	88cffc34 	orhi	r3,r17,16368
    7a44:	2805883a 	mov	r2,r5
    7a48:	dfc00517 	ldw	ra,20(sp)
    7a4c:	dd000417 	ldw	r20,16(sp)
    7a50:	dcc00317 	ldw	r19,12(sp)
    7a54:	dc800217 	ldw	r18,8(sp)
    7a58:	dc400117 	ldw	r17,4(sp)
    7a5c:	dc000017 	ldw	r16,0(sp)
    7a60:	dec00604 	addi	sp,sp,24
    7a64:	f800283a 	ret
    7a68:	0009883a 	mov	r4,zero
    7a6c:	003fce06 	br	79a8 <__alt_mem_onchip_flash_0_data+0xf0f079a8>
    7a70:	0005883a 	mov	r2,zero
    7a74:	003fe406 	br	7a08 <__alt_mem_onchip_flash_0_data+0xf0f07a08>

00007a78 <__d2b>:
    7a78:	defff804 	addi	sp,sp,-32
    7a7c:	dc400315 	stw	r17,12(sp)
    7a80:	3023883a 	mov	r17,r6
    7a84:	dc800415 	stw	r18,16(sp)
    7a88:	8824907a 	slli	r18,r17,1
    7a8c:	dcc00515 	stw	r19,20(sp)
    7a90:	2827883a 	mov	r19,r5
    7a94:	9024d57a 	srli	r18,r18,21
    7a98:	01400044 	movi	r5,1
    7a9c:	dd000615 	stw	r20,24(sp)
    7aa0:	dc000215 	stw	r16,8(sp)
    7aa4:	dfc00715 	stw	ra,28(sp)
    7aa8:	3829883a 	mov	r20,r7
    7aac:	0006e2c0 	call	6e2c <_Balloc>
    7ab0:	1021883a 	mov	r16,r2
    7ab4:	00800434 	movhi	r2,16
    7ab8:	10bfffc4 	addi	r2,r2,-1
    7abc:	88a2703a 	and	r17,r17,r2
    7ac0:	90000126 	beq	r18,zero,7ac8 <__d2b+0x50>
    7ac4:	8c400434 	orhi	r17,r17,16
    7ac8:	dc400015 	stw	r17,0(sp)
    7acc:	98002226 	beq	r19,zero,7b58 <__d2b+0xe0>
    7ad0:	d9000104 	addi	r4,sp,4
    7ad4:	dcc00115 	stw	r19,4(sp)
    7ad8:	000717c0 	call	717c <__lo0bits>
    7adc:	d8c00017 	ldw	r3,0(sp)
    7ae0:	10002d1e 	bne	r2,zero,7b98 <__d2b+0x120>
    7ae4:	d9000117 	ldw	r4,4(sp)
    7ae8:	81000515 	stw	r4,20(r16)
    7aec:	1823003a 	cmpeq	r17,r3,zero
    7af0:	01000084 	movi	r4,2
    7af4:	2463c83a 	sub	r17,r4,r17
    7af8:	80c00615 	stw	r3,24(r16)
    7afc:	84400415 	stw	r17,16(r16)
    7b00:	90001d1e 	bne	r18,zero,7b78 <__d2b+0x100>
    7b04:	88c00104 	addi	r3,r17,4
    7b08:	18c7883a 	add	r3,r3,r3
    7b0c:	18c7883a 	add	r3,r3,r3
    7b10:	80c7883a 	add	r3,r16,r3
    7b14:	19000017 	ldw	r4,0(r3)
    7b18:	10bef384 	addi	r2,r2,-1074
    7b1c:	a0800015 	stw	r2,0(r20)
    7b20:	00071140 	call	7114 <__hi0bits>
    7b24:	8822917a 	slli	r17,r17,5
    7b28:	d8c00817 	ldw	r3,32(sp)
    7b2c:	8885c83a 	sub	r2,r17,r2
    7b30:	18800015 	stw	r2,0(r3)
    7b34:	8005883a 	mov	r2,r16
    7b38:	dfc00717 	ldw	ra,28(sp)
    7b3c:	dd000617 	ldw	r20,24(sp)
    7b40:	dcc00517 	ldw	r19,20(sp)
    7b44:	dc800417 	ldw	r18,16(sp)
    7b48:	dc400317 	ldw	r17,12(sp)
    7b4c:	dc000217 	ldw	r16,8(sp)
    7b50:	dec00804 	addi	sp,sp,32
    7b54:	f800283a 	ret
    7b58:	d809883a 	mov	r4,sp
    7b5c:	000717c0 	call	717c <__lo0bits>
    7b60:	d8c00017 	ldw	r3,0(sp)
    7b64:	04400044 	movi	r17,1
    7b68:	84400415 	stw	r17,16(r16)
    7b6c:	80c00515 	stw	r3,20(r16)
    7b70:	10800804 	addi	r2,r2,32
    7b74:	903fe326 	beq	r18,zero,7b04 <__alt_mem_onchip_flash_0_data+0xf0f07b04>
    7b78:	00c00d44 	movi	r3,53
    7b7c:	94bef344 	addi	r18,r18,-1075
    7b80:	90a5883a 	add	r18,r18,r2
    7b84:	1885c83a 	sub	r2,r3,r2
    7b88:	d8c00817 	ldw	r3,32(sp)
    7b8c:	a4800015 	stw	r18,0(r20)
    7b90:	18800015 	stw	r2,0(r3)
    7b94:	003fe706 	br	7b34 <__alt_mem_onchip_flash_0_data+0xf0f07b34>
    7b98:	01000804 	movi	r4,32
    7b9c:	2089c83a 	sub	r4,r4,r2
    7ba0:	1908983a 	sll	r4,r3,r4
    7ba4:	d9400117 	ldw	r5,4(sp)
    7ba8:	1886d83a 	srl	r3,r3,r2
    7bac:	2148b03a 	or	r4,r4,r5
    7bb0:	81000515 	stw	r4,20(r16)
    7bb4:	d8c00015 	stw	r3,0(sp)
    7bb8:	003fcc06 	br	7aec <__alt_mem_onchip_flash_0_data+0xf0f07aec>

00007bbc <__ratio>:
    7bbc:	defff904 	addi	sp,sp,-28
    7bc0:	dc400315 	stw	r17,12(sp)
    7bc4:	2823883a 	mov	r17,r5
    7bc8:	d9400104 	addi	r5,sp,4
    7bcc:	dfc00615 	stw	ra,24(sp)
    7bd0:	dcc00515 	stw	r19,20(sp)
    7bd4:	dc800415 	stw	r18,16(sp)
    7bd8:	2027883a 	mov	r19,r4
    7bdc:	dc000215 	stw	r16,8(sp)
    7be0:	00079300 	call	7930 <__b2d>
    7be4:	8809883a 	mov	r4,r17
    7be8:	d80b883a 	mov	r5,sp
    7bec:	1025883a 	mov	r18,r2
    7bf0:	1821883a 	mov	r16,r3
    7bf4:	00079300 	call	7930 <__b2d>
    7bf8:	99400417 	ldw	r5,16(r19)
    7bfc:	89000417 	ldw	r4,16(r17)
    7c00:	d9800117 	ldw	r6,4(sp)
    7c04:	2909c83a 	sub	r4,r5,r4
    7c08:	d9400017 	ldw	r5,0(sp)
    7c0c:	2008917a 	slli	r4,r4,5
    7c10:	314bc83a 	sub	r5,r6,r5
    7c14:	290b883a 	add	r5,r5,r4
    7c18:	01400e0e 	bge	zero,r5,7c54 <__ratio+0x98>
    7c1c:	280a953a 	slli	r5,r5,20
    7c20:	2c21883a 	add	r16,r5,r16
    7c24:	9009883a 	mov	r4,r18
    7c28:	800b883a 	mov	r5,r16
    7c2c:	100d883a 	mov	r6,r2
    7c30:	180f883a 	mov	r7,r3
    7c34:	0009fbc0 	call	9fbc <__divdf3>
    7c38:	dfc00617 	ldw	ra,24(sp)
    7c3c:	dcc00517 	ldw	r19,20(sp)
    7c40:	dc800417 	ldw	r18,16(sp)
    7c44:	dc400317 	ldw	r17,12(sp)
    7c48:	dc000217 	ldw	r16,8(sp)
    7c4c:	dec00704 	addi	sp,sp,28
    7c50:	f800283a 	ret
    7c54:	280a953a 	slli	r5,r5,20
    7c58:	1947c83a 	sub	r3,r3,r5
    7c5c:	003ff106 	br	7c24 <__alt_mem_onchip_flash_0_data+0xf0f07c24>

00007c60 <_mprec_log10>:
    7c60:	defffe04 	addi	sp,sp,-8
    7c64:	dc000015 	stw	r16,0(sp)
    7c68:	dfc00115 	stw	ra,4(sp)
    7c6c:	008005c4 	movi	r2,23
    7c70:	2021883a 	mov	r16,r4
    7c74:	11000d0e 	bge	r2,r4,7cac <_mprec_log10+0x4c>
    7c78:	0005883a 	mov	r2,zero
    7c7c:	00cffc34 	movhi	r3,16368
    7c80:	843fffc4 	addi	r16,r16,-1
    7c84:	1009883a 	mov	r4,r2
    7c88:	180b883a 	mov	r5,r3
    7c8c:	000d883a 	mov	r6,zero
    7c90:	01d00934 	movhi	r7,16420
    7c94:	0009d5c0 	call	9d5c <__muldf3>
    7c98:	803ff91e 	bne	r16,zero,7c80 <__alt_mem_onchip_flash_0_data+0xf0f07c80>
    7c9c:	dfc00117 	ldw	ra,4(sp)
    7ca0:	dc000017 	ldw	r16,0(sp)
    7ca4:	dec00204 	addi	sp,sp,8
    7ca8:	f800283a 	ret
    7cac:	202090fa 	slli	r16,r4,3
    7cb0:	008000f4 	movhi	r2,3
    7cb4:	10813d04 	addi	r2,r2,1268
    7cb8:	1421883a 	add	r16,r2,r16
    7cbc:	80800017 	ldw	r2,0(r16)
    7cc0:	80c00117 	ldw	r3,4(r16)
    7cc4:	dfc00117 	ldw	ra,4(sp)
    7cc8:	dc000017 	ldw	r16,0(sp)
    7ccc:	dec00204 	addi	sp,sp,8
    7cd0:	f800283a 	ret

00007cd4 <__copybits>:
    7cd4:	297fffc4 	addi	r5,r5,-1
    7cd8:	31c00417 	ldw	r7,16(r6)
    7cdc:	2811d17a 	srai	r8,r5,5
    7ce0:	30800504 	addi	r2,r6,20
    7ce4:	39c00144 	addi	r7,r7,5
    7ce8:	42000044 	addi	r8,r8,1
    7cec:	39cf883a 	add	r7,r7,r7
    7cf0:	4211883a 	add	r8,r8,r8
    7cf4:	39cf883a 	add	r7,r7,r7
    7cf8:	4211883a 	add	r8,r8,r8
    7cfc:	31cf883a 	add	r7,r6,r7
    7d00:	2211883a 	add	r8,r4,r8
    7d04:	11c00d2e 	bgeu	r2,r7,7d3c <__copybits+0x68>
    7d08:	2007883a 	mov	r3,r4
    7d0c:	11400017 	ldw	r5,0(r2)
    7d10:	18c00104 	addi	r3,r3,4
    7d14:	10800104 	addi	r2,r2,4
    7d18:	197fff15 	stw	r5,-4(r3)
    7d1c:	11fffb36 	bltu	r2,r7,7d0c <__alt_mem_onchip_flash_0_data+0xf0f07d0c>
    7d20:	3985c83a 	sub	r2,r7,r6
    7d24:	10bffac4 	addi	r2,r2,-21
    7d28:	1004d0ba 	srli	r2,r2,2
    7d2c:	10800044 	addi	r2,r2,1
    7d30:	1085883a 	add	r2,r2,r2
    7d34:	1085883a 	add	r2,r2,r2
    7d38:	2089883a 	add	r4,r4,r2
    7d3c:	2200032e 	bgeu	r4,r8,7d4c <__copybits+0x78>
    7d40:	20000015 	stw	zero,0(r4)
    7d44:	21000104 	addi	r4,r4,4
    7d48:	223ffd36 	bltu	r4,r8,7d40 <__alt_mem_onchip_flash_0_data+0xf0f07d40>
    7d4c:	f800283a 	ret

00007d50 <__any_on>:
    7d50:	21800417 	ldw	r6,16(r4)
    7d54:	2805d17a 	srai	r2,r5,5
    7d58:	20c00504 	addi	r3,r4,20
    7d5c:	30800f0e 	bge	r6,r2,7d9c <__any_on+0x4c>
    7d60:	3005883a 	mov	r2,r6
    7d64:	10800144 	addi	r2,r2,5
    7d68:	1085883a 	add	r2,r2,r2
    7d6c:	1085883a 	add	r2,r2,r2
    7d70:	2089883a 	add	r4,r4,r2
    7d74:	1900152e 	bgeu	r3,r4,7dcc <__any_on+0x7c>
    7d78:	20bfff17 	ldw	r2,-4(r4)
    7d7c:	213fff04 	addi	r4,r4,-4
    7d80:	1000041e 	bne	r2,zero,7d94 <__any_on+0x44>
    7d84:	1900112e 	bgeu	r3,r4,7dcc <__any_on+0x7c>
    7d88:	213fff04 	addi	r4,r4,-4
    7d8c:	20800017 	ldw	r2,0(r4)
    7d90:	103ffc26 	beq	r2,zero,7d84 <__alt_mem_onchip_flash_0_data+0xf0f07d84>
    7d94:	00800044 	movi	r2,1
    7d98:	f800283a 	ret
    7d9c:	11bff10e 	bge	r2,r6,7d64 <__alt_mem_onchip_flash_0_data+0xf0f07d64>
    7da0:	294007cc 	andi	r5,r5,31
    7da4:	283fef26 	beq	r5,zero,7d64 <__alt_mem_onchip_flash_0_data+0xf0f07d64>
    7da8:	11800144 	addi	r6,r2,5
    7dac:	318d883a 	add	r6,r6,r6
    7db0:	318d883a 	add	r6,r6,r6
    7db4:	218d883a 	add	r6,r4,r6
    7db8:	31800017 	ldw	r6,0(r6)
    7dbc:	314ed83a 	srl	r7,r6,r5
    7dc0:	394a983a 	sll	r5,r7,r5
    7dc4:	29bff31e 	bne	r5,r6,7d94 <__alt_mem_onchip_flash_0_data+0xf0f07d94>
    7dc8:	003fe606 	br	7d64 <__alt_mem_onchip_flash_0_data+0xf0f07d64>
    7dcc:	0005883a 	mov	r2,zero
    7dd0:	f800283a 	ret

00007dd4 <_putc_r>:
    7dd4:	defffc04 	addi	sp,sp,-16
    7dd8:	dc000215 	stw	r16,8(sp)
    7ddc:	dfc00315 	stw	ra,12(sp)
    7de0:	2021883a 	mov	r16,r4
    7de4:	20000226 	beq	r4,zero,7df0 <_putc_r+0x1c>
    7de8:	20800e17 	ldw	r2,56(r4)
    7dec:	10001d26 	beq	r2,zero,7e64 <_putc_r+0x90>
    7df0:	30800217 	ldw	r2,8(r6)
    7df4:	10bfffc4 	addi	r2,r2,-1
    7df8:	30800215 	stw	r2,8(r6)
    7dfc:	10000a16 	blt	r2,zero,7e28 <_putc_r+0x54>
    7e00:	30800017 	ldw	r2,0(r6)
    7e04:	11400005 	stb	r5,0(r2)
    7e08:	30800017 	ldw	r2,0(r6)
    7e0c:	10c00044 	addi	r3,r2,1
    7e10:	10800003 	ldbu	r2,0(r2)
    7e14:	30c00015 	stw	r3,0(r6)
    7e18:	dfc00317 	ldw	ra,12(sp)
    7e1c:	dc000217 	ldw	r16,8(sp)
    7e20:	dec00404 	addi	sp,sp,16
    7e24:	f800283a 	ret
    7e28:	30c00617 	ldw	r3,24(r6)
    7e2c:	10c01316 	blt	r2,r3,7e7c <_putc_r+0xa8>
    7e30:	30800017 	ldw	r2,0(r6)
    7e34:	01000284 	movi	r4,10
    7e38:	11400005 	stb	r5,0(r2)
    7e3c:	30c00017 	ldw	r3,0(r6)
    7e40:	19400003 	ldbu	r5,0(r3)
    7e44:	29000d26 	beq	r5,r4,7e7c <_putc_r+0xa8>
    7e48:	18c00044 	addi	r3,r3,1
    7e4c:	2805883a 	mov	r2,r5
    7e50:	30c00015 	stw	r3,0(r6)
    7e54:	dfc00317 	ldw	ra,12(sp)
    7e58:	dc000217 	ldw	r16,8(sp)
    7e5c:	dec00404 	addi	sp,sp,16
    7e60:	f800283a 	ret
    7e64:	d9400015 	stw	r5,0(sp)
    7e68:	d9800115 	stw	r6,4(sp)
    7e6c:	00053980 	call	5398 <__sinit>
    7e70:	d9800117 	ldw	r6,4(sp)
    7e74:	d9400017 	ldw	r5,0(sp)
    7e78:	003fdd06 	br	7df0 <__alt_mem_onchip_flash_0_data+0xf0f07df0>
    7e7c:	8009883a 	mov	r4,r16
    7e80:	dfc00317 	ldw	ra,12(sp)
    7e84:	dc000217 	ldw	r16,8(sp)
    7e88:	dec00404 	addi	sp,sp,16
    7e8c:	00088281 	jmpi	8828 <__swbuf_r>

00007e90 <putc>:
    7e90:	defffc04 	addi	sp,sp,-16
    7e94:	dc400115 	stw	r17,4(sp)
    7e98:	044000f4 	movhi	r17,3
    7e9c:	8c48af04 	addi	r17,r17,8892
    7ea0:	88800017 	ldw	r2,0(r17)
    7ea4:	dc800215 	stw	r18,8(sp)
    7ea8:	dc000015 	stw	r16,0(sp)
    7eac:	dfc00315 	stw	ra,12(sp)
    7eb0:	2025883a 	mov	r18,r4
    7eb4:	2821883a 	mov	r16,r5
    7eb8:	10000226 	beq	r2,zero,7ec4 <putc+0x34>
    7ebc:	10c00e17 	ldw	r3,56(r2)
    7ec0:	18002126 	beq	r3,zero,7f48 <putc+0xb8>
    7ec4:	80800217 	ldw	r2,8(r16)
    7ec8:	10bfffc4 	addi	r2,r2,-1
    7ecc:	80800215 	stw	r2,8(r16)
    7ed0:	10000c16 	blt	r2,zero,7f04 <putc+0x74>
    7ed4:	80800017 	ldw	r2,0(r16)
    7ed8:	14800005 	stb	r18,0(r2)
    7edc:	80800017 	ldw	r2,0(r16)
    7ee0:	10c00044 	addi	r3,r2,1
    7ee4:	10800003 	ldbu	r2,0(r2)
    7ee8:	80c00015 	stw	r3,0(r16)
    7eec:	dfc00317 	ldw	ra,12(sp)
    7ef0:	dc800217 	ldw	r18,8(sp)
    7ef4:	dc400117 	ldw	r17,4(sp)
    7ef8:	dc000017 	ldw	r16,0(sp)
    7efc:	dec00404 	addi	sp,sp,16
    7f00:	f800283a 	ret
    7f04:	80c00617 	ldw	r3,24(r16)
    7f08:	10c01216 	blt	r2,r3,7f54 <putc+0xc4>
    7f0c:	80800017 	ldw	r2,0(r16)
    7f10:	01000284 	movi	r4,10
    7f14:	14800005 	stb	r18,0(r2)
    7f18:	80c00017 	ldw	r3,0(r16)
    7f1c:	19400003 	ldbu	r5,0(r3)
    7f20:	29001526 	beq	r5,r4,7f78 <putc+0xe8>
    7f24:	18c00044 	addi	r3,r3,1
    7f28:	2805883a 	mov	r2,r5
    7f2c:	80c00015 	stw	r3,0(r16)
    7f30:	dfc00317 	ldw	ra,12(sp)
    7f34:	dc800217 	ldw	r18,8(sp)
    7f38:	dc400117 	ldw	r17,4(sp)
    7f3c:	dc000017 	ldw	r16,0(sp)
    7f40:	dec00404 	addi	sp,sp,16
    7f44:	f800283a 	ret
    7f48:	1009883a 	mov	r4,r2
    7f4c:	00053980 	call	5398 <__sinit>
    7f50:	003fdc06 	br	7ec4 <__alt_mem_onchip_flash_0_data+0xf0f07ec4>
    7f54:	89000017 	ldw	r4,0(r17)
    7f58:	900b883a 	mov	r5,r18
    7f5c:	800d883a 	mov	r6,r16
    7f60:	dfc00317 	ldw	ra,12(sp)
    7f64:	dc800217 	ldw	r18,8(sp)
    7f68:	dc400117 	ldw	r17,4(sp)
    7f6c:	dc000017 	ldw	r16,0(sp)
    7f70:	dec00404 	addi	sp,sp,16
    7f74:	00088281 	jmpi	8828 <__swbuf_r>
    7f78:	89000017 	ldw	r4,0(r17)
    7f7c:	003ff706 	br	7f5c <__alt_mem_onchip_flash_0_data+0xf0f07f5c>

00007f80 <_realloc_r>:
    7f80:	defff504 	addi	sp,sp,-44
    7f84:	dd400615 	stw	r21,24(sp)
    7f88:	dc800315 	stw	r18,12(sp)
    7f8c:	dc000115 	stw	r16,4(sp)
    7f90:	dfc00a15 	stw	ra,40(sp)
    7f94:	df000915 	stw	fp,36(sp)
    7f98:	ddc00815 	stw	r23,32(sp)
    7f9c:	dd800715 	stw	r22,28(sp)
    7fa0:	dd000515 	stw	r20,20(sp)
    7fa4:	dcc00415 	stw	r19,16(sp)
    7fa8:	dc400215 	stw	r17,8(sp)
    7fac:	2821883a 	mov	r16,r5
    7fb0:	202b883a 	mov	r21,r4
    7fb4:	3025883a 	mov	r18,r6
    7fb8:	28009626 	beq	r5,zero,8214 <_realloc_r+0x294>
    7fbc:	000af140 	call	af14 <__malloc_lock>
    7fc0:	80bfff17 	ldw	r2,-4(r16)
    7fc4:	04ffff04 	movi	r19,-4
    7fc8:	90c002c4 	addi	r3,r18,11
    7fcc:	01000584 	movi	r4,22
    7fd0:	85bffe04 	addi	r22,r16,-8
    7fd4:	14e6703a 	and	r19,r2,r19
    7fd8:	20c0372e 	bgeu	r4,r3,80b8 <_realloc_r+0x138>
    7fdc:	047ffe04 	movi	r17,-8
    7fe0:	1c62703a 	and	r17,r3,r17
    7fe4:	8807883a 	mov	r3,r17
    7fe8:	88005a16 	blt	r17,zero,8154 <_realloc_r+0x1d4>
    7fec:	8c805936 	bltu	r17,r18,8154 <_realloc_r+0x1d4>
    7ff0:	98c0340e 	bge	r19,r3,80c4 <_realloc_r+0x144>
    7ff4:	070000f4 	movhi	fp,3
    7ff8:	e702e104 	addi	fp,fp,2948
    7ffc:	e1400217 	ldw	r5,8(fp)
    8000:	b4c9883a 	add	r4,r22,r19
    8004:	29009026 	beq	r5,r4,8248 <_realloc_r+0x2c8>
    8008:	21800117 	ldw	r6,4(r4)
    800c:	01ffff84 	movi	r7,-2
    8010:	31ce703a 	and	r7,r6,r7
    8014:	21cf883a 	add	r7,r4,r7
    8018:	39c00117 	ldw	r7,4(r7)
    801c:	39c0004c 	andi	r7,r7,1
    8020:	38004326 	beq	r7,zero,8130 <_realloc_r+0x1b0>
    8024:	000d883a 	mov	r6,zero
    8028:	0009883a 	mov	r4,zero
    802c:	1080004c 	andi	r2,r2,1
    8030:	10005a1e 	bne	r2,zero,819c <_realloc_r+0x21c>
    8034:	85fffe17 	ldw	r23,-8(r16)
    8038:	00bfff04 	movi	r2,-4
    803c:	b5efc83a 	sub	r23,r22,r23
    8040:	b9c00117 	ldw	r7,4(r23)
    8044:	388e703a 	and	r7,r7,r2
    8048:	3ccf883a 	add	r7,r7,r19
    804c:	20005226 	beq	r4,zero,8198 <_realloc_r+0x218>
    8050:	31e9883a 	add	r20,r6,r7
    8054:	2140c726 	beq	r4,r5,8374 <_realloc_r+0x3f4>
    8058:	a0c04f16 	blt	r20,r3,8198 <_realloc_r+0x218>
    805c:	20800317 	ldw	r2,12(r4)
    8060:	20c00217 	ldw	r3,8(r4)
    8064:	99bfff04 	addi	r6,r19,-4
    8068:	01000904 	movi	r4,36
    806c:	18800315 	stw	r2,12(r3)
    8070:	10c00215 	stw	r3,8(r2)
    8074:	b8c00217 	ldw	r3,8(r23)
    8078:	b8800317 	ldw	r2,12(r23)
    807c:	bc800204 	addi	r18,r23,8
    8080:	18800315 	stw	r2,12(r3)
    8084:	10c00215 	stw	r3,8(r2)
    8088:	2180ed36 	bltu	r4,r6,8440 <_realloc_r+0x4c0>
    808c:	008004c4 	movi	r2,19
    8090:	11809b2e 	bgeu	r2,r6,8300 <_realloc_r+0x380>
    8094:	80800017 	ldw	r2,0(r16)
    8098:	b8800215 	stw	r2,8(r23)
    809c:	80800117 	ldw	r2,4(r16)
    80a0:	b8800315 	stw	r2,12(r23)
    80a4:	008006c4 	movi	r2,27
    80a8:	1180f936 	bltu	r2,r6,8490 <_realloc_r+0x510>
    80ac:	b8800404 	addi	r2,r23,16
    80b0:	80c00204 	addi	r3,r16,8
    80b4:	00009406 	br	8308 <_realloc_r+0x388>
    80b8:	00c00404 	movi	r3,16
    80bc:	1823883a 	mov	r17,r3
    80c0:	003fca06 	br	7fec <__alt_mem_onchip_flash_0_data+0xf0f07fec>
    80c4:	9829883a 	mov	r20,r19
    80c8:	a447c83a 	sub	r3,r20,r17
    80cc:	010003c4 	movi	r4,15
    80d0:	1080004c 	andi	r2,r2,1
    80d4:	20c02336 	bltu	r4,r3,8164 <_realloc_r+0x1e4>
    80d8:	1504b03a 	or	r2,r2,r20
    80dc:	b0800115 	stw	r2,4(r22)
    80e0:	b52d883a 	add	r22,r22,r20
    80e4:	b0800117 	ldw	r2,4(r22)
    80e8:	10800054 	ori	r2,r2,1
    80ec:	b0800115 	stw	r2,4(r22)
    80f0:	a809883a 	mov	r4,r21
    80f4:	000af180 	call	af18 <__malloc_unlock>
    80f8:	8025883a 	mov	r18,r16
    80fc:	9005883a 	mov	r2,r18
    8100:	dfc00a17 	ldw	ra,40(sp)
    8104:	df000917 	ldw	fp,36(sp)
    8108:	ddc00817 	ldw	r23,32(sp)
    810c:	dd800717 	ldw	r22,28(sp)
    8110:	dd400617 	ldw	r21,24(sp)
    8114:	dd000517 	ldw	r20,20(sp)
    8118:	dcc00417 	ldw	r19,16(sp)
    811c:	dc800317 	ldw	r18,12(sp)
    8120:	dc400217 	ldw	r17,8(sp)
    8124:	dc000117 	ldw	r16,4(sp)
    8128:	dec00b04 	addi	sp,sp,44
    812c:	f800283a 	ret
    8130:	01ffff04 	movi	r7,-4
    8134:	31cc703a 	and	r6,r6,r7
    8138:	34e9883a 	add	r20,r6,r19
    813c:	a0ffbb16 	blt	r20,r3,802c <__alt_mem_onchip_flash_0_data+0xf0f0802c>
    8140:	20c00317 	ldw	r3,12(r4)
    8144:	21000217 	ldw	r4,8(r4)
    8148:	20c00315 	stw	r3,12(r4)
    814c:	19000215 	stw	r4,8(r3)
    8150:	003fdd06 	br	80c8 <__alt_mem_onchip_flash_0_data+0xf0f080c8>
    8154:	00800304 	movi	r2,12
    8158:	a8800015 	stw	r2,0(r21)
    815c:	0025883a 	mov	r18,zero
    8160:	003fe606 	br	80fc <__alt_mem_onchip_flash_0_data+0xf0f080fc>
    8164:	1444b03a 	or	r2,r2,r17
    8168:	b0800115 	stw	r2,4(r22)
    816c:	b44b883a 	add	r5,r22,r17
    8170:	18800054 	ori	r2,r3,1
    8174:	28800115 	stw	r2,4(r5)
    8178:	28c7883a 	add	r3,r5,r3
    817c:	18800117 	ldw	r2,4(r3)
    8180:	a809883a 	mov	r4,r21
    8184:	29400204 	addi	r5,r5,8
    8188:	10800054 	ori	r2,r2,1
    818c:	18800115 	stw	r2,4(r3)
    8190:	000571c0 	call	571c <_free_r>
    8194:	003fd606 	br	80f0 <__alt_mem_onchip_flash_0_data+0xf0f080f0>
    8198:	38c0330e 	bge	r7,r3,8268 <_realloc_r+0x2e8>
    819c:	900b883a 	mov	r5,r18
    81a0:	a809883a 	mov	r4,r21
    81a4:	00062b40 	call	62b4 <_malloc_r>
    81a8:	1025883a 	mov	r18,r2
    81ac:	10001626 	beq	r2,zero,8208 <_realloc_r+0x288>
    81b0:	80bfff17 	ldw	r2,-4(r16)
    81b4:	00ffff84 	movi	r3,-2
    81b8:	913ffe04 	addi	r4,r18,-8
    81bc:	10c6703a 	and	r3,r2,r3
    81c0:	b0c7883a 	add	r3,r22,r3
    81c4:	20c09926 	beq	r4,r3,842c <_realloc_r+0x4ac>
    81c8:	99bfff04 	addi	r6,r19,-4
    81cc:	00800904 	movi	r2,36
    81d0:	11806436 	bltu	r2,r6,8364 <_realloc_r+0x3e4>
    81d4:	00c004c4 	movi	r3,19
    81d8:	19804036 	bltu	r3,r6,82dc <_realloc_r+0x35c>
    81dc:	9005883a 	mov	r2,r18
    81e0:	8007883a 	mov	r3,r16
    81e4:	19000017 	ldw	r4,0(r3)
    81e8:	11000015 	stw	r4,0(r2)
    81ec:	19000117 	ldw	r4,4(r3)
    81f0:	11000115 	stw	r4,4(r2)
    81f4:	18c00217 	ldw	r3,8(r3)
    81f8:	10c00215 	stw	r3,8(r2)
    81fc:	a809883a 	mov	r4,r21
    8200:	800b883a 	mov	r5,r16
    8204:	000571c0 	call	571c <_free_r>
    8208:	a809883a 	mov	r4,r21
    820c:	000af180 	call	af18 <__malloc_unlock>
    8210:	003fba06 	br	80fc <__alt_mem_onchip_flash_0_data+0xf0f080fc>
    8214:	300b883a 	mov	r5,r6
    8218:	dfc00a17 	ldw	ra,40(sp)
    821c:	df000917 	ldw	fp,36(sp)
    8220:	ddc00817 	ldw	r23,32(sp)
    8224:	dd800717 	ldw	r22,28(sp)
    8228:	dd400617 	ldw	r21,24(sp)
    822c:	dd000517 	ldw	r20,20(sp)
    8230:	dcc00417 	ldw	r19,16(sp)
    8234:	dc800317 	ldw	r18,12(sp)
    8238:	dc400217 	ldw	r17,8(sp)
    823c:	dc000117 	ldw	r16,4(sp)
    8240:	dec00b04 	addi	sp,sp,44
    8244:	00062b41 	jmpi	62b4 <_malloc_r>
    8248:	29800117 	ldw	r6,4(r5)
    824c:	013fff04 	movi	r4,-4
    8250:	89c00404 	addi	r7,r17,16
    8254:	310c703a 	and	r6,r6,r4
    8258:	34c9883a 	add	r4,r6,r19
    825c:	21c0340e 	bge	r4,r7,8330 <_realloc_r+0x3b0>
    8260:	2809883a 	mov	r4,r5
    8264:	003f7106 	br	802c <__alt_mem_onchip_flash_0_data+0xf0f0802c>
    8268:	b8800317 	ldw	r2,12(r23)
    826c:	b8c00217 	ldw	r3,8(r23)
    8270:	99bfff04 	addi	r6,r19,-4
    8274:	01000904 	movi	r4,36
    8278:	18800315 	stw	r2,12(r3)
    827c:	10c00215 	stw	r3,8(r2)
    8280:	bc800204 	addi	r18,r23,8
    8284:	21807836 	bltu	r4,r6,8468 <_realloc_r+0x4e8>
    8288:	008004c4 	movi	r2,19
    828c:	1180732e 	bgeu	r2,r6,845c <_realloc_r+0x4dc>
    8290:	80800017 	ldw	r2,0(r16)
    8294:	b8800215 	stw	r2,8(r23)
    8298:	80800117 	ldw	r2,4(r16)
    829c:	b8800315 	stw	r2,12(r23)
    82a0:	008006c4 	movi	r2,27
    82a4:	11808936 	bltu	r2,r6,84cc <_realloc_r+0x54c>
    82a8:	b8800404 	addi	r2,r23,16
    82ac:	80c00204 	addi	r3,r16,8
    82b0:	19000017 	ldw	r4,0(r3)
    82b4:	9021883a 	mov	r16,r18
    82b8:	3829883a 	mov	r20,r7
    82bc:	11000015 	stw	r4,0(r2)
    82c0:	19000117 	ldw	r4,4(r3)
    82c4:	b82d883a 	mov	r22,r23
    82c8:	11000115 	stw	r4,4(r2)
    82cc:	18c00217 	ldw	r3,8(r3)
    82d0:	10c00215 	stw	r3,8(r2)
    82d4:	b8800117 	ldw	r2,4(r23)
    82d8:	003f7b06 	br	80c8 <__alt_mem_onchip_flash_0_data+0xf0f080c8>
    82dc:	80c00017 	ldw	r3,0(r16)
    82e0:	90c00015 	stw	r3,0(r18)
    82e4:	80c00117 	ldw	r3,4(r16)
    82e8:	90c00115 	stw	r3,4(r18)
    82ec:	00c006c4 	movi	r3,27
    82f0:	19804636 	bltu	r3,r6,840c <_realloc_r+0x48c>
    82f4:	90800204 	addi	r2,r18,8
    82f8:	80c00204 	addi	r3,r16,8
    82fc:	003fb906 	br	81e4 <__alt_mem_onchip_flash_0_data+0xf0f081e4>
    8300:	9005883a 	mov	r2,r18
    8304:	8007883a 	mov	r3,r16
    8308:	19000017 	ldw	r4,0(r3)
    830c:	9021883a 	mov	r16,r18
    8310:	b82d883a 	mov	r22,r23
    8314:	11000015 	stw	r4,0(r2)
    8318:	19000117 	ldw	r4,4(r3)
    831c:	11000115 	stw	r4,4(r2)
    8320:	18c00217 	ldw	r3,8(r3)
    8324:	10c00215 	stw	r3,8(r2)
    8328:	b8800117 	ldw	r2,4(r23)
    832c:	003f6606 	br	80c8 <__alt_mem_onchip_flash_0_data+0xf0f080c8>
    8330:	2445c83a 	sub	r2,r4,r17
    8334:	b46d883a 	add	r22,r22,r17
    8338:	10800054 	ori	r2,r2,1
    833c:	b0800115 	stw	r2,4(r22)
    8340:	80bfff17 	ldw	r2,-4(r16)
    8344:	a809883a 	mov	r4,r21
    8348:	e5800215 	stw	r22,8(fp)
    834c:	1080004c 	andi	r2,r2,1
    8350:	88a2b03a 	or	r17,r17,r2
    8354:	847fff15 	stw	r17,-4(r16)
    8358:	000af180 	call	af18 <__malloc_unlock>
    835c:	8025883a 	mov	r18,r16
    8360:	003f6606 	br	80fc <__alt_mem_onchip_flash_0_data+0xf0f080fc>
    8364:	9009883a 	mov	r4,r18
    8368:	800b883a 	mov	r5,r16
    836c:	0006c280 	call	6c28 <memmove>
    8370:	003fa206 	br	81fc <__alt_mem_onchip_flash_0_data+0xf0f081fc>
    8374:	88800404 	addi	r2,r17,16
    8378:	a0bf8716 	blt	r20,r2,8198 <__alt_mem_onchip_flash_0_data+0xf0f08198>
    837c:	b8800317 	ldw	r2,12(r23)
    8380:	b8c00217 	ldw	r3,8(r23)
    8384:	99bfff04 	addi	r6,r19,-4
    8388:	01000904 	movi	r4,36
    838c:	18800315 	stw	r2,12(r3)
    8390:	10c00215 	stw	r3,8(r2)
    8394:	bc800204 	addi	r18,r23,8
    8398:	21806536 	bltu	r4,r6,8530 <_realloc_r+0x5b0>
    839c:	008004c4 	movi	r2,19
    83a0:	1180592e 	bgeu	r2,r6,8508 <_realloc_r+0x588>
    83a4:	80800017 	ldw	r2,0(r16)
    83a8:	b8800215 	stw	r2,8(r23)
    83ac:	80800117 	ldw	r2,4(r16)
    83b0:	b8800315 	stw	r2,12(r23)
    83b4:	008006c4 	movi	r2,27
    83b8:	11806136 	bltu	r2,r6,8540 <_realloc_r+0x5c0>
    83bc:	b8800404 	addi	r2,r23,16
    83c0:	80c00204 	addi	r3,r16,8
    83c4:	19000017 	ldw	r4,0(r3)
    83c8:	11000015 	stw	r4,0(r2)
    83cc:	19000117 	ldw	r4,4(r3)
    83d0:	11000115 	stw	r4,4(r2)
    83d4:	18c00217 	ldw	r3,8(r3)
    83d8:	10c00215 	stw	r3,8(r2)
    83dc:	a447c83a 	sub	r3,r20,r17
    83e0:	bc45883a 	add	r2,r23,r17
    83e4:	18c00054 	ori	r3,r3,1
    83e8:	10c00115 	stw	r3,4(r2)
    83ec:	b8c00117 	ldw	r3,4(r23)
    83f0:	e0800215 	stw	r2,8(fp)
    83f4:	a809883a 	mov	r4,r21
    83f8:	1880004c 	andi	r2,r3,1
    83fc:	88a2b03a 	or	r17,r17,r2
    8400:	bc400115 	stw	r17,4(r23)
    8404:	000af180 	call	af18 <__malloc_unlock>
    8408:	003f3c06 	br	80fc <__alt_mem_onchip_flash_0_data+0xf0f080fc>
    840c:	80c00217 	ldw	r3,8(r16)
    8410:	90c00215 	stw	r3,8(r18)
    8414:	80c00317 	ldw	r3,12(r16)
    8418:	90c00315 	stw	r3,12(r18)
    841c:	30802426 	beq	r6,r2,84b0 <_realloc_r+0x530>
    8420:	90800404 	addi	r2,r18,16
    8424:	80c00404 	addi	r3,r16,16
    8428:	003f6e06 	br	81e4 <__alt_mem_onchip_flash_0_data+0xf0f081e4>
    842c:	953fff17 	ldw	r20,-4(r18)
    8430:	00ffff04 	movi	r3,-4
    8434:	a0e8703a 	and	r20,r20,r3
    8438:	a4e9883a 	add	r20,r20,r19
    843c:	003f2206 	br	80c8 <__alt_mem_onchip_flash_0_data+0xf0f080c8>
    8440:	800b883a 	mov	r5,r16
    8444:	9009883a 	mov	r4,r18
    8448:	0006c280 	call	6c28 <memmove>
    844c:	9021883a 	mov	r16,r18
    8450:	b8800117 	ldw	r2,4(r23)
    8454:	b82d883a 	mov	r22,r23
    8458:	003f1b06 	br	80c8 <__alt_mem_onchip_flash_0_data+0xf0f080c8>
    845c:	9005883a 	mov	r2,r18
    8460:	8007883a 	mov	r3,r16
    8464:	003f9206 	br	82b0 <__alt_mem_onchip_flash_0_data+0xf0f082b0>
    8468:	800b883a 	mov	r5,r16
    846c:	9009883a 	mov	r4,r18
    8470:	d9c00015 	stw	r7,0(sp)
    8474:	0006c280 	call	6c28 <memmove>
    8478:	d9c00017 	ldw	r7,0(sp)
    847c:	9021883a 	mov	r16,r18
    8480:	b8800117 	ldw	r2,4(r23)
    8484:	3829883a 	mov	r20,r7
    8488:	b82d883a 	mov	r22,r23
    848c:	003f0e06 	br	80c8 <__alt_mem_onchip_flash_0_data+0xf0f080c8>
    8490:	80800217 	ldw	r2,8(r16)
    8494:	b8800415 	stw	r2,16(r23)
    8498:	80800317 	ldw	r2,12(r16)
    849c:	b8800515 	stw	r2,20(r23)
    84a0:	31001226 	beq	r6,r4,84ec <_realloc_r+0x56c>
    84a4:	b8800604 	addi	r2,r23,24
    84a8:	80c00404 	addi	r3,r16,16
    84ac:	003f9606 	br	8308 <__alt_mem_onchip_flash_0_data+0xf0f08308>
    84b0:	81000417 	ldw	r4,16(r16)
    84b4:	90800604 	addi	r2,r18,24
    84b8:	80c00604 	addi	r3,r16,24
    84bc:	91000415 	stw	r4,16(r18)
    84c0:	81000517 	ldw	r4,20(r16)
    84c4:	91000515 	stw	r4,20(r18)
    84c8:	003f4606 	br	81e4 <__alt_mem_onchip_flash_0_data+0xf0f081e4>
    84cc:	80800217 	ldw	r2,8(r16)
    84d0:	b8800415 	stw	r2,16(r23)
    84d4:	80800317 	ldw	r2,12(r16)
    84d8:	b8800515 	stw	r2,20(r23)
    84dc:	31000d26 	beq	r6,r4,8514 <_realloc_r+0x594>
    84e0:	b8800604 	addi	r2,r23,24
    84e4:	80c00404 	addi	r3,r16,16
    84e8:	003f7106 	br	82b0 <__alt_mem_onchip_flash_0_data+0xf0f082b0>
    84ec:	81000417 	ldw	r4,16(r16)
    84f0:	b8800804 	addi	r2,r23,32
    84f4:	80c00604 	addi	r3,r16,24
    84f8:	b9000615 	stw	r4,24(r23)
    84fc:	81000517 	ldw	r4,20(r16)
    8500:	b9000715 	stw	r4,28(r23)
    8504:	003f8006 	br	8308 <__alt_mem_onchip_flash_0_data+0xf0f08308>
    8508:	9005883a 	mov	r2,r18
    850c:	8007883a 	mov	r3,r16
    8510:	003fac06 	br	83c4 <__alt_mem_onchip_flash_0_data+0xf0f083c4>
    8514:	81000417 	ldw	r4,16(r16)
    8518:	b8800804 	addi	r2,r23,32
    851c:	80c00604 	addi	r3,r16,24
    8520:	b9000615 	stw	r4,24(r23)
    8524:	81000517 	ldw	r4,20(r16)
    8528:	b9000715 	stw	r4,28(r23)
    852c:	003f6006 	br	82b0 <__alt_mem_onchip_flash_0_data+0xf0f082b0>
    8530:	9009883a 	mov	r4,r18
    8534:	800b883a 	mov	r5,r16
    8538:	0006c280 	call	6c28 <memmove>
    853c:	003fa706 	br	83dc <__alt_mem_onchip_flash_0_data+0xf0f083dc>
    8540:	80800217 	ldw	r2,8(r16)
    8544:	b8800415 	stw	r2,16(r23)
    8548:	80800317 	ldw	r2,12(r16)
    854c:	b8800515 	stw	r2,20(r23)
    8550:	31000326 	beq	r6,r4,8560 <_realloc_r+0x5e0>
    8554:	b8800604 	addi	r2,r23,24
    8558:	80c00404 	addi	r3,r16,16
    855c:	003f9906 	br	83c4 <__alt_mem_onchip_flash_0_data+0xf0f083c4>
    8560:	81000417 	ldw	r4,16(r16)
    8564:	b8800804 	addi	r2,r23,32
    8568:	80c00604 	addi	r3,r16,24
    856c:	b9000615 	stw	r4,24(r23)
    8570:	81000517 	ldw	r4,20(r16)
    8574:	b9000715 	stw	r4,28(r23)
    8578:	003f9206 	br	83c4 <__alt_mem_onchip_flash_0_data+0xf0f083c4>

0000857c <__isinfd>:
    857c:	0105c83a 	sub	r2,zero,r4
    8580:	1108b03a 	or	r4,r2,r4
    8584:	2004d7fa 	srli	r2,r4,31
    8588:	00e00034 	movhi	r3,32768
    858c:	18ffffc4 	addi	r3,r3,-1
    8590:	28ca703a 	and	r5,r5,r3
    8594:	1144b03a 	or	r2,r2,r5
    8598:	00dffc34 	movhi	r3,32752
    859c:	1885c83a 	sub	r2,r3,r2
    85a0:	0087c83a 	sub	r3,zero,r2
    85a4:	1884b03a 	or	r2,r3,r2
    85a8:	1005d7fa 	srai	r2,r2,31
    85ac:	10800044 	addi	r2,r2,1
    85b0:	f800283a 	ret

000085b4 <__isnand>:
    85b4:	0105c83a 	sub	r2,zero,r4
    85b8:	1108b03a 	or	r4,r2,r4
    85bc:	2004d7fa 	srli	r2,r4,31
    85c0:	00e00034 	movhi	r3,32768
    85c4:	18ffffc4 	addi	r3,r3,-1
    85c8:	28ca703a 	and	r5,r5,r3
    85cc:	1144b03a 	or	r2,r2,r5
    85d0:	00dffc34 	movhi	r3,32752
    85d4:	1885c83a 	sub	r2,r3,r2
    85d8:	1004d7fa 	srli	r2,r2,31
    85dc:	f800283a 	ret

000085e0 <_sbrk_r>:
    85e0:	defffd04 	addi	sp,sp,-12
    85e4:	dc400115 	stw	r17,4(sp)
    85e8:	dc000015 	stw	r16,0(sp)
    85ec:	2023883a 	mov	r17,r4
    85f0:	040000f4 	movhi	r16,3
    85f4:	840fb604 	addi	r16,r16,16088
    85f8:	2809883a 	mov	r4,r5
    85fc:	dfc00215 	stw	ra,8(sp)
    8600:	80000015 	stw	zero,0(r16)
    8604:	000b02c0 	call	b02c <sbrk>
    8608:	00ffffc4 	movi	r3,-1
    860c:	10c00526 	beq	r2,r3,8624 <_sbrk_r+0x44>
    8610:	dfc00217 	ldw	ra,8(sp)
    8614:	dc400117 	ldw	r17,4(sp)
    8618:	dc000017 	ldw	r16,0(sp)
    861c:	dec00304 	addi	sp,sp,12
    8620:	f800283a 	ret
    8624:	80c00017 	ldw	r3,0(r16)
    8628:	183ff926 	beq	r3,zero,8610 <__alt_mem_onchip_flash_0_data+0xf0f08610>
    862c:	88c00015 	stw	r3,0(r17)
    8630:	dfc00217 	ldw	ra,8(sp)
    8634:	dc400117 	ldw	r17,4(sp)
    8638:	dc000017 	ldw	r16,0(sp)
    863c:	dec00304 	addi	sp,sp,12
    8640:	f800283a 	ret

00008644 <__sread>:
    8644:	defffe04 	addi	sp,sp,-8
    8648:	dc000015 	stw	r16,0(sp)
    864c:	2821883a 	mov	r16,r5
    8650:	2940038f 	ldh	r5,14(r5)
    8654:	dfc00115 	stw	ra,4(sp)
    8658:	0008d940 	call	8d94 <_read_r>
    865c:	10000716 	blt	r2,zero,867c <__sread+0x38>
    8660:	80c01417 	ldw	r3,80(r16)
    8664:	1887883a 	add	r3,r3,r2
    8668:	80c01415 	stw	r3,80(r16)
    866c:	dfc00117 	ldw	ra,4(sp)
    8670:	dc000017 	ldw	r16,0(sp)
    8674:	dec00204 	addi	sp,sp,8
    8678:	f800283a 	ret
    867c:	80c0030b 	ldhu	r3,12(r16)
    8680:	18fbffcc 	andi	r3,r3,61439
    8684:	80c0030d 	sth	r3,12(r16)
    8688:	dfc00117 	ldw	ra,4(sp)
    868c:	dc000017 	ldw	r16,0(sp)
    8690:	dec00204 	addi	sp,sp,8
    8694:	f800283a 	ret

00008698 <__swrite>:
    8698:	2880030b 	ldhu	r2,12(r5)
    869c:	defffb04 	addi	sp,sp,-20
    86a0:	dcc00315 	stw	r19,12(sp)
    86a4:	10c0400c 	andi	r3,r2,256
    86a8:	18ffffcc 	andi	r3,r3,65535
    86ac:	18e0001c 	xori	r3,r3,32768
    86b0:	dc800215 	stw	r18,8(sp)
    86b4:	dc400115 	stw	r17,4(sp)
    86b8:	dc000015 	stw	r16,0(sp)
    86bc:	dfc00415 	stw	ra,16(sp)
    86c0:	18e00004 	addi	r3,r3,-32768
    86c4:	2821883a 	mov	r16,r5
    86c8:	2027883a 	mov	r19,r4
    86cc:	3025883a 	mov	r18,r6
    86d0:	3823883a 	mov	r17,r7
    86d4:	18000526 	beq	r3,zero,86ec <__swrite+0x54>
    86d8:	2940038f 	ldh	r5,14(r5)
    86dc:	000d883a 	mov	r6,zero
    86e0:	01c00084 	movi	r7,2
    86e4:	0008d280 	call	8d28 <_lseek_r>
    86e8:	8080030b 	ldhu	r2,12(r16)
    86ec:	8140038f 	ldh	r5,14(r16)
    86f0:	10bbffcc 	andi	r2,r2,61439
    86f4:	9809883a 	mov	r4,r19
    86f8:	900d883a 	mov	r6,r18
    86fc:	880f883a 	mov	r7,r17
    8700:	8080030d 	sth	r2,12(r16)
    8704:	dfc00417 	ldw	ra,16(sp)
    8708:	dcc00317 	ldw	r19,12(sp)
    870c:	dc800217 	ldw	r18,8(sp)
    8710:	dc400117 	ldw	r17,4(sp)
    8714:	dc000017 	ldw	r16,0(sp)
    8718:	dec00504 	addi	sp,sp,20
    871c:	00089801 	jmpi	8980 <_write_r>

00008720 <__sseek>:
    8720:	defffe04 	addi	sp,sp,-8
    8724:	dc000015 	stw	r16,0(sp)
    8728:	2821883a 	mov	r16,r5
    872c:	2940038f 	ldh	r5,14(r5)
    8730:	dfc00115 	stw	ra,4(sp)
    8734:	0008d280 	call	8d28 <_lseek_r>
    8738:	00ffffc4 	movi	r3,-1
    873c:	10c00826 	beq	r2,r3,8760 <__sseek+0x40>
    8740:	80c0030b 	ldhu	r3,12(r16)
    8744:	80801415 	stw	r2,80(r16)
    8748:	18c40014 	ori	r3,r3,4096
    874c:	80c0030d 	sth	r3,12(r16)
    8750:	dfc00117 	ldw	ra,4(sp)
    8754:	dc000017 	ldw	r16,0(sp)
    8758:	dec00204 	addi	sp,sp,8
    875c:	f800283a 	ret
    8760:	80c0030b 	ldhu	r3,12(r16)
    8764:	18fbffcc 	andi	r3,r3,61439
    8768:	80c0030d 	sth	r3,12(r16)
    876c:	dfc00117 	ldw	ra,4(sp)
    8770:	dc000017 	ldw	r16,0(sp)
    8774:	dec00204 	addi	sp,sp,8
    8778:	f800283a 	ret

0000877c <__sclose>:
    877c:	2940038f 	ldh	r5,14(r5)
    8780:	0008aa81 	jmpi	8aa8 <_close_r>

00008784 <strcmp>:
    8784:	2904b03a 	or	r2,r5,r4
    8788:	108000cc 	andi	r2,r2,3
    878c:	1000171e 	bne	r2,zero,87ec <strcmp+0x68>
    8790:	20800017 	ldw	r2,0(r4)
    8794:	28c00017 	ldw	r3,0(r5)
    8798:	10c0141e 	bne	r2,r3,87ec <strcmp+0x68>
    879c:	027fbff4 	movhi	r9,65279
    87a0:	4a7fbfc4 	addi	r9,r9,-257
    87a4:	1247883a 	add	r3,r2,r9
    87a8:	0084303a 	nor	r2,zero,r2
    87ac:	1884703a 	and	r2,r3,r2
    87b0:	02202074 	movhi	r8,32897
    87b4:	42202004 	addi	r8,r8,-32640
    87b8:	1204703a 	and	r2,r2,r8
    87bc:	10000226 	beq	r2,zero,87c8 <strcmp+0x44>
    87c0:	00001706 	br	8820 <strcmp+0x9c>
    87c4:	3000161e 	bne	r6,zero,8820 <strcmp+0x9c>
    87c8:	21000104 	addi	r4,r4,4
    87cc:	20800017 	ldw	r2,0(r4)
    87d0:	29400104 	addi	r5,r5,4
    87d4:	28c00017 	ldw	r3,0(r5)
    87d8:	124f883a 	add	r7,r2,r9
    87dc:	008c303a 	nor	r6,zero,r2
    87e0:	398c703a 	and	r6,r7,r6
    87e4:	320c703a 	and	r6,r6,r8
    87e8:	10fff626 	beq	r2,r3,87c4 <__alt_mem_onchip_flash_0_data+0xf0f087c4>
    87ec:	20800007 	ldb	r2,0(r4)
    87f0:	1000051e 	bne	r2,zero,8808 <strcmp+0x84>
    87f4:	00000606 	br	8810 <strcmp+0x8c>
    87f8:	21000044 	addi	r4,r4,1
    87fc:	20800007 	ldb	r2,0(r4)
    8800:	29400044 	addi	r5,r5,1
    8804:	10000226 	beq	r2,zero,8810 <strcmp+0x8c>
    8808:	28c00007 	ldb	r3,0(r5)
    880c:	10fffa26 	beq	r2,r3,87f8 <__alt_mem_onchip_flash_0_data+0xf0f087f8>
    8810:	20c00003 	ldbu	r3,0(r4)
    8814:	28800003 	ldbu	r2,0(r5)
    8818:	1885c83a 	sub	r2,r3,r2
    881c:	f800283a 	ret
    8820:	0005883a 	mov	r2,zero
    8824:	f800283a 	ret

00008828 <__swbuf_r>:
    8828:	defffc04 	addi	sp,sp,-16
    882c:	dc800215 	stw	r18,8(sp)
    8830:	dc400115 	stw	r17,4(sp)
    8834:	dc000015 	stw	r16,0(sp)
    8838:	dfc00315 	stw	ra,12(sp)
    883c:	2023883a 	mov	r17,r4
    8840:	2825883a 	mov	r18,r5
    8844:	3021883a 	mov	r16,r6
    8848:	20000226 	beq	r4,zero,8854 <__swbuf_r+0x2c>
    884c:	20800e17 	ldw	r2,56(r4)
    8850:	10003b26 	beq	r2,zero,8940 <__swbuf_r+0x118>
    8854:	8080030b 	ldhu	r2,12(r16)
    8858:	80c00617 	ldw	r3,24(r16)
    885c:	1080020c 	andi	r2,r2,8
    8860:	10bfffcc 	andi	r2,r2,65535
    8864:	10a0001c 	xori	r2,r2,32768
    8868:	80c00215 	stw	r3,8(r16)
    886c:	10a00004 	addi	r2,r2,-32768
    8870:	10002226 	beq	r2,zero,88fc <__swbuf_r+0xd4>
    8874:	80800417 	ldw	r2,16(r16)
    8878:	10002026 	beq	r2,zero,88fc <__swbuf_r+0xd4>
    887c:	80c00017 	ldw	r3,0(r16)
    8880:	81000517 	ldw	r4,20(r16)
    8884:	94803fcc 	andi	r18,r18,255
    8888:	1885c83a 	sub	r2,r3,r2
    888c:	1100250e 	bge	r2,r4,8924 <__swbuf_r+0xfc>
    8890:	10800044 	addi	r2,r2,1
    8894:	81400217 	ldw	r5,8(r16)
    8898:	19000044 	addi	r4,r3,1
    889c:	297fffc4 	addi	r5,r5,-1
    88a0:	81400215 	stw	r5,8(r16)
    88a4:	1c800005 	stb	r18,0(r3)
    88a8:	80c00517 	ldw	r3,20(r16)
    88ac:	81000015 	stw	r4,0(r16)
    88b0:	18800c26 	beq	r3,r2,88e4 <__swbuf_r+0xbc>
    88b4:	8080030b 	ldhu	r2,12(r16)
    88b8:	1080004c 	andi	r2,r2,1
    88bc:	10000226 	beq	r2,zero,88c8 <__swbuf_r+0xa0>
    88c0:	00800284 	movi	r2,10
    88c4:	90800726 	beq	r18,r2,88e4 <__swbuf_r+0xbc>
    88c8:	9005883a 	mov	r2,r18
    88cc:	dfc00317 	ldw	ra,12(sp)
    88d0:	dc800217 	ldw	r18,8(sp)
    88d4:	dc400117 	ldw	r17,4(sp)
    88d8:	dc000017 	ldw	r16,0(sp)
    88dc:	dec00404 	addi	sp,sp,16
    88e0:	f800283a 	ret
    88e4:	8809883a 	mov	r4,r17
    88e8:	800b883a 	mov	r5,r16
    88ec:	00050f00 	call	50f0 <_fflush_r>
    88f0:	103ff526 	beq	r2,zero,88c8 <__alt_mem_onchip_flash_0_data+0xf0f088c8>
    88f4:	04bfffc4 	movi	r18,-1
    88f8:	003ff306 	br	88c8 <__alt_mem_onchip_flash_0_data+0xf0f088c8>
    88fc:	8809883a 	mov	r4,r17
    8900:	800b883a 	mov	r5,r16
    8904:	00037580 	call	3758 <__swsetup_r>
    8908:	10000f1e 	bne	r2,zero,8948 <__swbuf_r+0x120>
    890c:	80800417 	ldw	r2,16(r16)
    8910:	80c00017 	ldw	r3,0(r16)
    8914:	81000517 	ldw	r4,20(r16)
    8918:	94803fcc 	andi	r18,r18,255
    891c:	1885c83a 	sub	r2,r3,r2
    8920:	113fdb16 	blt	r2,r4,8890 <__alt_mem_onchip_flash_0_data+0xf0f08890>
    8924:	8809883a 	mov	r4,r17
    8928:	800b883a 	mov	r5,r16
    892c:	00050f00 	call	50f0 <_fflush_r>
    8930:	103ff01e 	bne	r2,zero,88f4 <__alt_mem_onchip_flash_0_data+0xf0f088f4>
    8934:	80c00017 	ldw	r3,0(r16)
    8938:	00800044 	movi	r2,1
    893c:	003fd506 	br	8894 <__alt_mem_onchip_flash_0_data+0xf0f08894>
    8940:	00053980 	call	5398 <__sinit>
    8944:	003fc306 	br	8854 <__alt_mem_onchip_flash_0_data+0xf0f08854>
    8948:	8080030b 	ldhu	r2,12(r16)
    894c:	04bfffc4 	movi	r18,-1
    8950:	10801014 	ori	r2,r2,64
    8954:	8080030d 	sth	r2,12(r16)
    8958:	00800244 	movi	r2,9
    895c:	88800015 	stw	r2,0(r17)
    8960:	003fd906 	br	88c8 <__alt_mem_onchip_flash_0_data+0xf0f088c8>

00008964 <__swbuf>:
    8964:	00c000f4 	movhi	r3,3
    8968:	18c8af04 	addi	r3,r3,8892
    896c:	2005883a 	mov	r2,r4
    8970:	19000017 	ldw	r4,0(r3)
    8974:	280d883a 	mov	r6,r5
    8978:	100b883a 	mov	r5,r2
    897c:	00088281 	jmpi	8828 <__swbuf_r>

00008980 <_write_r>:
    8980:	defffd04 	addi	sp,sp,-12
    8984:	dc400115 	stw	r17,4(sp)
    8988:	dc000015 	stw	r16,0(sp)
    898c:	2023883a 	mov	r17,r4
    8990:	040000f4 	movhi	r16,3
    8994:	840fb604 	addi	r16,r16,16088
    8998:	2809883a 	mov	r4,r5
    899c:	300b883a 	mov	r5,r6
    89a0:	380d883a 	mov	r6,r7
    89a4:	dfc00215 	stw	ra,8(sp)
    89a8:	80000015 	stw	zero,0(r16)
    89ac:	000b0d40 	call	b0d4 <write>
    89b0:	00ffffc4 	movi	r3,-1
    89b4:	10c00526 	beq	r2,r3,89cc <_write_r+0x4c>
    89b8:	dfc00217 	ldw	ra,8(sp)
    89bc:	dc400117 	ldw	r17,4(sp)
    89c0:	dc000017 	ldw	r16,0(sp)
    89c4:	dec00304 	addi	sp,sp,12
    89c8:	f800283a 	ret
    89cc:	80c00017 	ldw	r3,0(r16)
    89d0:	183ff926 	beq	r3,zero,89b8 <__alt_mem_onchip_flash_0_data+0xf0f089b8>
    89d4:	88c00015 	stw	r3,0(r17)
    89d8:	dfc00217 	ldw	ra,8(sp)
    89dc:	dc400117 	ldw	r17,4(sp)
    89e0:	dc000017 	ldw	r16,0(sp)
    89e4:	dec00304 	addi	sp,sp,12
    89e8:	f800283a 	ret

000089ec <_calloc_r>:
    89ec:	314b383a 	mul	r5,r6,r5
    89f0:	defffe04 	addi	sp,sp,-8
    89f4:	dc000015 	stw	r16,0(sp)
    89f8:	dfc00115 	stw	ra,4(sp)
    89fc:	00062b40 	call	62b4 <_malloc_r>
    8a00:	1021883a 	mov	r16,r2
    8a04:	10000c26 	beq	r2,zero,8a38 <_calloc_r+0x4c>
    8a08:	11bfff17 	ldw	r6,-4(r2)
    8a0c:	00ffff04 	movi	r3,-4
    8a10:	00800904 	movi	r2,36
    8a14:	30cc703a 	and	r6,r6,r3
    8a18:	30cd883a 	add	r6,r6,r3
    8a1c:	11801436 	bltu	r2,r6,8a70 <_calloc_r+0x84>
    8a20:	00c004c4 	movi	r3,19
    8a24:	19800936 	bltu	r3,r6,8a4c <_calloc_r+0x60>
    8a28:	8005883a 	mov	r2,r16
    8a2c:	10000015 	stw	zero,0(r2)
    8a30:	10000115 	stw	zero,4(r2)
    8a34:	10000215 	stw	zero,8(r2)
    8a38:	8005883a 	mov	r2,r16
    8a3c:	dfc00117 	ldw	ra,4(sp)
    8a40:	dc000017 	ldw	r16,0(sp)
    8a44:	dec00204 	addi	sp,sp,8
    8a48:	f800283a 	ret
    8a4c:	80000015 	stw	zero,0(r16)
    8a50:	80000115 	stw	zero,4(r16)
    8a54:	00c006c4 	movi	r3,27
    8a58:	19800d2e 	bgeu	r3,r6,8a90 <_calloc_r+0xa4>
    8a5c:	80000215 	stw	zero,8(r16)
    8a60:	80000315 	stw	zero,12(r16)
    8a64:	30800c26 	beq	r6,r2,8a98 <_calloc_r+0xac>
    8a68:	80800404 	addi	r2,r16,16
    8a6c:	003fef06 	br	8a2c <__alt_mem_onchip_flash_0_data+0xf0f08a2c>
    8a70:	8009883a 	mov	r4,r16
    8a74:	000b883a 	mov	r5,zero
    8a78:	0006d500 	call	6d50 <memset>
    8a7c:	8005883a 	mov	r2,r16
    8a80:	dfc00117 	ldw	ra,4(sp)
    8a84:	dc000017 	ldw	r16,0(sp)
    8a88:	dec00204 	addi	sp,sp,8
    8a8c:	f800283a 	ret
    8a90:	80800204 	addi	r2,r16,8
    8a94:	003fe506 	br	8a2c <__alt_mem_onchip_flash_0_data+0xf0f08a2c>
    8a98:	80000415 	stw	zero,16(r16)
    8a9c:	80000515 	stw	zero,20(r16)
    8aa0:	80800604 	addi	r2,r16,24
    8aa4:	003fe106 	br	8a2c <__alt_mem_onchip_flash_0_data+0xf0f08a2c>

00008aa8 <_close_r>:
    8aa8:	defffd04 	addi	sp,sp,-12
    8aac:	dc400115 	stw	r17,4(sp)
    8ab0:	dc000015 	stw	r16,0(sp)
    8ab4:	2023883a 	mov	r17,r4
    8ab8:	040000f4 	movhi	r16,3
    8abc:	840fb604 	addi	r16,r16,16088
    8ac0:	2809883a 	mov	r4,r5
    8ac4:	dfc00215 	stw	ra,8(sp)
    8ac8:	80000015 	stw	zero,0(r16)
    8acc:	000ab2c0 	call	ab2c <close>
    8ad0:	00ffffc4 	movi	r3,-1
    8ad4:	10c00526 	beq	r2,r3,8aec <_close_r+0x44>
    8ad8:	dfc00217 	ldw	ra,8(sp)
    8adc:	dc400117 	ldw	r17,4(sp)
    8ae0:	dc000017 	ldw	r16,0(sp)
    8ae4:	dec00304 	addi	sp,sp,12
    8ae8:	f800283a 	ret
    8aec:	80c00017 	ldw	r3,0(r16)
    8af0:	183ff926 	beq	r3,zero,8ad8 <__alt_mem_onchip_flash_0_data+0xf0f08ad8>
    8af4:	88c00015 	stw	r3,0(r17)
    8af8:	dfc00217 	ldw	ra,8(sp)
    8afc:	dc400117 	ldw	r17,4(sp)
    8b00:	dc000017 	ldw	r16,0(sp)
    8b04:	dec00304 	addi	sp,sp,12
    8b08:	f800283a 	ret

00008b0c <_fclose_r>:
    8b0c:	defffc04 	addi	sp,sp,-16
    8b10:	dc400115 	stw	r17,4(sp)
    8b14:	dc000015 	stw	r16,0(sp)
    8b18:	dfc00315 	stw	ra,12(sp)
    8b1c:	dc800215 	stw	r18,8(sp)
    8b20:	2821883a 	mov	r16,r5
    8b24:	2023883a 	mov	r17,r4
    8b28:	28003426 	beq	r5,zero,8bfc <_fclose_r+0xf0>
    8b2c:	00055a00 	call	55a0 <__sfp_lock_acquire>
    8b30:	88000226 	beq	r17,zero,8b3c <_fclose_r+0x30>
    8b34:	88800e17 	ldw	r2,56(r17)
    8b38:	10003826 	beq	r2,zero,8c1c <_fclose_r+0x110>
    8b3c:	8080030f 	ldh	r2,12(r16)
    8b40:	10002526 	beq	r2,zero,8bd8 <_fclose_r+0xcc>
    8b44:	8809883a 	mov	r4,r17
    8b48:	800b883a 	mov	r5,r16
    8b4c:	00050f00 	call	50f0 <_fflush_r>
    8b50:	1025883a 	mov	r18,r2
    8b54:	80800b17 	ldw	r2,44(r16)
    8b58:	10000426 	beq	r2,zero,8b6c <_fclose_r+0x60>
    8b5c:	81400717 	ldw	r5,28(r16)
    8b60:	8809883a 	mov	r4,r17
    8b64:	103ee83a 	callr	r2
    8b68:	10003516 	blt	r2,zero,8c40 <_fclose_r+0x134>
    8b6c:	8080030b 	ldhu	r2,12(r16)
    8b70:	1080200c 	andi	r2,r2,128
    8b74:	10bfffcc 	andi	r2,r2,65535
    8b78:	10a0001c 	xori	r2,r2,32768
    8b7c:	10a00004 	addi	r2,r2,-32768
    8b80:	10002b1e 	bne	r2,zero,8c30 <_fclose_r+0x124>
    8b84:	81400c17 	ldw	r5,48(r16)
    8b88:	28000526 	beq	r5,zero,8ba0 <_fclose_r+0x94>
    8b8c:	80801004 	addi	r2,r16,64
    8b90:	28800226 	beq	r5,r2,8b9c <_fclose_r+0x90>
    8b94:	8809883a 	mov	r4,r17
    8b98:	000571c0 	call	571c <_free_r>
    8b9c:	80000c15 	stw	zero,48(r16)
    8ba0:	81401117 	ldw	r5,68(r16)
    8ba4:	28000326 	beq	r5,zero,8bb4 <_fclose_r+0xa8>
    8ba8:	8809883a 	mov	r4,r17
    8bac:	000571c0 	call	571c <_free_r>
    8bb0:	80001115 	stw	zero,68(r16)
    8bb4:	8000030d 	sth	zero,12(r16)
    8bb8:	00055a40 	call	55a4 <__sfp_lock_release>
    8bbc:	9005883a 	mov	r2,r18
    8bc0:	dfc00317 	ldw	ra,12(sp)
    8bc4:	dc800217 	ldw	r18,8(sp)
    8bc8:	dc400117 	ldw	r17,4(sp)
    8bcc:	dc000017 	ldw	r16,0(sp)
    8bd0:	dec00404 	addi	sp,sp,16
    8bd4:	f800283a 	ret
    8bd8:	00055a40 	call	55a4 <__sfp_lock_release>
    8bdc:	0025883a 	mov	r18,zero
    8be0:	9005883a 	mov	r2,r18
    8be4:	dfc00317 	ldw	ra,12(sp)
    8be8:	dc800217 	ldw	r18,8(sp)
    8bec:	dc400117 	ldw	r17,4(sp)
    8bf0:	dc000017 	ldw	r16,0(sp)
    8bf4:	dec00404 	addi	sp,sp,16
    8bf8:	f800283a 	ret
    8bfc:	0025883a 	mov	r18,zero
    8c00:	9005883a 	mov	r2,r18
    8c04:	dfc00317 	ldw	ra,12(sp)
    8c08:	dc800217 	ldw	r18,8(sp)
    8c0c:	dc400117 	ldw	r17,4(sp)
    8c10:	dc000017 	ldw	r16,0(sp)
    8c14:	dec00404 	addi	sp,sp,16
    8c18:	f800283a 	ret
    8c1c:	8809883a 	mov	r4,r17
    8c20:	00053980 	call	5398 <__sinit>
    8c24:	8080030f 	ldh	r2,12(r16)
    8c28:	103fc61e 	bne	r2,zero,8b44 <__alt_mem_onchip_flash_0_data+0xf0f08b44>
    8c2c:	003fea06 	br	8bd8 <__alt_mem_onchip_flash_0_data+0xf0f08bd8>
    8c30:	81400417 	ldw	r5,16(r16)
    8c34:	8809883a 	mov	r4,r17
    8c38:	000571c0 	call	571c <_free_r>
    8c3c:	003fd106 	br	8b84 <__alt_mem_onchip_flash_0_data+0xf0f08b84>
    8c40:	04bfffc4 	movi	r18,-1
    8c44:	003fc906 	br	8b6c <__alt_mem_onchip_flash_0_data+0xf0f08b6c>

00008c48 <fclose>:
    8c48:	008000f4 	movhi	r2,3
    8c4c:	1088af04 	addi	r2,r2,8892
    8c50:	200b883a 	mov	r5,r4
    8c54:	11000017 	ldw	r4,0(r2)
    8c58:	0008b0c1 	jmpi	8b0c <_fclose_r>

00008c5c <_fstat_r>:
    8c5c:	defffd04 	addi	sp,sp,-12
    8c60:	dc400115 	stw	r17,4(sp)
    8c64:	dc000015 	stw	r16,0(sp)
    8c68:	2023883a 	mov	r17,r4
    8c6c:	040000f4 	movhi	r16,3
    8c70:	840fb604 	addi	r16,r16,16088
    8c74:	2809883a 	mov	r4,r5
    8c78:	300b883a 	mov	r5,r6
    8c7c:	dfc00215 	stw	ra,8(sp)
    8c80:	80000015 	stw	zero,0(r16)
    8c84:	000ac140 	call	ac14 <fstat>
    8c88:	00ffffc4 	movi	r3,-1
    8c8c:	10c00526 	beq	r2,r3,8ca4 <_fstat_r+0x48>
    8c90:	dfc00217 	ldw	ra,8(sp)
    8c94:	dc400117 	ldw	r17,4(sp)
    8c98:	dc000017 	ldw	r16,0(sp)
    8c9c:	dec00304 	addi	sp,sp,12
    8ca0:	f800283a 	ret
    8ca4:	80c00017 	ldw	r3,0(r16)
    8ca8:	183ff926 	beq	r3,zero,8c90 <__alt_mem_onchip_flash_0_data+0xf0f08c90>
    8cac:	88c00015 	stw	r3,0(r17)
    8cb0:	dfc00217 	ldw	ra,8(sp)
    8cb4:	dc400117 	ldw	r17,4(sp)
    8cb8:	dc000017 	ldw	r16,0(sp)
    8cbc:	dec00304 	addi	sp,sp,12
    8cc0:	f800283a 	ret

00008cc4 <_isatty_r>:
    8cc4:	defffd04 	addi	sp,sp,-12
    8cc8:	dc400115 	stw	r17,4(sp)
    8ccc:	dc000015 	stw	r16,0(sp)
    8cd0:	2023883a 	mov	r17,r4
    8cd4:	040000f4 	movhi	r16,3
    8cd8:	840fb604 	addi	r16,r16,16088
    8cdc:	2809883a 	mov	r4,r5
    8ce0:	dfc00215 	stw	ra,8(sp)
    8ce4:	80000015 	stw	zero,0(r16)
    8ce8:	000ac900 	call	ac90 <isatty>
    8cec:	00ffffc4 	movi	r3,-1
    8cf0:	10c00526 	beq	r2,r3,8d08 <_isatty_r+0x44>
    8cf4:	dfc00217 	ldw	ra,8(sp)
    8cf8:	dc400117 	ldw	r17,4(sp)
    8cfc:	dc000017 	ldw	r16,0(sp)
    8d00:	dec00304 	addi	sp,sp,12
    8d04:	f800283a 	ret
    8d08:	80c00017 	ldw	r3,0(r16)
    8d0c:	183ff926 	beq	r3,zero,8cf4 <__alt_mem_onchip_flash_0_data+0xf0f08cf4>
    8d10:	88c00015 	stw	r3,0(r17)
    8d14:	dfc00217 	ldw	ra,8(sp)
    8d18:	dc400117 	ldw	r17,4(sp)
    8d1c:	dc000017 	ldw	r16,0(sp)
    8d20:	dec00304 	addi	sp,sp,12
    8d24:	f800283a 	ret

00008d28 <_lseek_r>:
    8d28:	defffd04 	addi	sp,sp,-12
    8d2c:	dc400115 	stw	r17,4(sp)
    8d30:	dc000015 	stw	r16,0(sp)
    8d34:	2023883a 	mov	r17,r4
    8d38:	040000f4 	movhi	r16,3
    8d3c:	840fb604 	addi	r16,r16,16088
    8d40:	2809883a 	mov	r4,r5
    8d44:	300b883a 	mov	r5,r6
    8d48:	380d883a 	mov	r6,r7
    8d4c:	dfc00215 	stw	ra,8(sp)
    8d50:	80000015 	stw	zero,0(r16)
    8d54:	000ae300 	call	ae30 <lseek>
    8d58:	00ffffc4 	movi	r3,-1
    8d5c:	10c00526 	beq	r2,r3,8d74 <_lseek_r+0x4c>
    8d60:	dfc00217 	ldw	ra,8(sp)
    8d64:	dc400117 	ldw	r17,4(sp)
    8d68:	dc000017 	ldw	r16,0(sp)
    8d6c:	dec00304 	addi	sp,sp,12
    8d70:	f800283a 	ret
    8d74:	80c00017 	ldw	r3,0(r16)
    8d78:	183ff926 	beq	r3,zero,8d60 <__alt_mem_onchip_flash_0_data+0xf0f08d60>
    8d7c:	88c00015 	stw	r3,0(r17)
    8d80:	dfc00217 	ldw	ra,8(sp)
    8d84:	dc400117 	ldw	r17,4(sp)
    8d88:	dc000017 	ldw	r16,0(sp)
    8d8c:	dec00304 	addi	sp,sp,12
    8d90:	f800283a 	ret

00008d94 <_read_r>:
    8d94:	defffd04 	addi	sp,sp,-12
    8d98:	dc400115 	stw	r17,4(sp)
    8d9c:	dc000015 	stw	r16,0(sp)
    8da0:	2023883a 	mov	r17,r4
    8da4:	040000f4 	movhi	r16,3
    8da8:	840fb604 	addi	r16,r16,16088
    8dac:	2809883a 	mov	r4,r5
    8db0:	300b883a 	mov	r5,r6
    8db4:	380d883a 	mov	r6,r7
    8db8:	dfc00215 	stw	ra,8(sp)
    8dbc:	80000015 	stw	zero,0(r16)
    8dc0:	000af1c0 	call	af1c <read>
    8dc4:	00ffffc4 	movi	r3,-1
    8dc8:	10c00526 	beq	r2,r3,8de0 <_read_r+0x4c>
    8dcc:	dfc00217 	ldw	ra,8(sp)
    8dd0:	dc400117 	ldw	r17,4(sp)
    8dd4:	dc000017 	ldw	r16,0(sp)
    8dd8:	dec00304 	addi	sp,sp,12
    8ddc:	f800283a 	ret
    8de0:	80c00017 	ldw	r3,0(r16)
    8de4:	183ff926 	beq	r3,zero,8dcc <__alt_mem_onchip_flash_0_data+0xf0f08dcc>
    8de8:	88c00015 	stw	r3,0(r17)
    8dec:	dfc00217 	ldw	ra,8(sp)
    8df0:	dc400117 	ldw	r17,4(sp)
    8df4:	dc000017 	ldw	r16,0(sp)
    8df8:	dec00304 	addi	sp,sp,12
    8dfc:	f800283a 	ret

00008e00 <__udivdi3>:
    8e00:	defff504 	addi	sp,sp,-44
    8e04:	dd000515 	stw	r20,20(sp)
    8e08:	dcc00415 	stw	r19,16(sp)
    8e0c:	dc800315 	stw	r18,12(sp)
    8e10:	dc400215 	stw	r17,8(sp)
    8e14:	dc000115 	stw	r16,4(sp)
    8e18:	dfc00a15 	stw	ra,40(sp)
    8e1c:	df000915 	stw	fp,36(sp)
    8e20:	ddc00815 	stw	r23,32(sp)
    8e24:	dd800715 	stw	r22,28(sp)
    8e28:	dd400615 	stw	r21,24(sp)
    8e2c:	2025883a 	mov	r18,r4
    8e30:	2823883a 	mov	r17,r5
    8e34:	3021883a 	mov	r16,r6
    8e38:	2027883a 	mov	r19,r4
    8e3c:	2829883a 	mov	r20,r5
    8e40:	3800401e 	bne	r7,zero,8f44 <__udivdi3+0x144>
    8e44:	2980602e 	bgeu	r5,r6,8fc8 <__udivdi3+0x1c8>
    8e48:	00bfffd4 	movui	r2,65535
    8e4c:	1180aa36 	bltu	r2,r6,90f8 <__udivdi3+0x2f8>
    8e50:	00803fc4 	movi	r2,255
    8e54:	11814436 	bltu	r2,r6,9368 <__udivdi3+0x568>
    8e58:	0005883a 	mov	r2,zero
    8e5c:	0007883a 	mov	r3,zero
    8e60:	3084d83a 	srl	r2,r6,r2
    8e64:	010000f4 	movhi	r4,3
    8e68:	21017704 	addi	r4,r4,1500
    8e6c:	2085883a 	add	r2,r4,r2
    8e70:	10800003 	ldbu	r2,0(r2)
    8e74:	10c7883a 	add	r3,r2,r3
    8e78:	00800804 	movi	r2,32
    8e7c:	10c5c83a 	sub	r2,r2,r3
    8e80:	10000526 	beq	r2,zero,8e98 <__udivdi3+0x98>
    8e84:	88a2983a 	sll	r17,r17,r2
    8e88:	90c6d83a 	srl	r3,r18,r3
    8e8c:	30a0983a 	sll	r16,r6,r2
    8e90:	90a6983a 	sll	r19,r18,r2
    8e94:	88e8b03a 	or	r20,r17,r3
    8e98:	8022d43a 	srli	r17,r16,16
    8e9c:	a009883a 	mov	r4,r20
    8ea0:	857fffcc 	andi	r21,r16,65535
    8ea4:	880b883a 	mov	r5,r17
    8ea8:	00016d80 	call	16d8 <__umodsi3>
    8eac:	a009883a 	mov	r4,r20
    8eb0:	880b883a 	mov	r5,r17
    8eb4:	102d883a 	mov	r22,r2
    8eb8:	00016d00 	call	16d0 <__udivsi3>
    8ebc:	b02c943a 	slli	r22,r22,16
    8ec0:	9806d43a 	srli	r3,r19,16
    8ec4:	1549383a 	mul	r4,r2,r21
    8ec8:	1025883a 	mov	r18,r2
    8ecc:	b0c6b03a 	or	r3,r22,r3
    8ed0:	1900052e 	bgeu	r3,r4,8ee8 <__udivdi3+0xe8>
    8ed4:	1c07883a 	add	r3,r3,r16
    8ed8:	10bfffc4 	addi	r2,r2,-1
    8edc:	1c000136 	bltu	r3,r16,8ee4 <__udivdi3+0xe4>
    8ee0:	19013636 	bltu	r3,r4,93bc <__udivdi3+0x5bc>
    8ee4:	1025883a 	mov	r18,r2
    8ee8:	1929c83a 	sub	r20,r3,r4
    8eec:	a009883a 	mov	r4,r20
    8ef0:	880b883a 	mov	r5,r17
    8ef4:	00016d80 	call	16d8 <__umodsi3>
    8ef8:	102d883a 	mov	r22,r2
    8efc:	a009883a 	mov	r4,r20
    8f00:	880b883a 	mov	r5,r17
    8f04:	00016d00 	call	16d0 <__udivsi3>
    8f08:	b02c943a 	slli	r22,r22,16
    8f0c:	156b383a 	mul	r21,r2,r21
    8f10:	9cffffcc 	andi	r19,r19,65535
    8f14:	b4e6b03a 	or	r19,r22,r19
    8f18:	1009883a 	mov	r4,r2
    8f1c:	9d40052e 	bgeu	r19,r21,8f34 <__udivdi3+0x134>
    8f20:	9c27883a 	add	r19,r19,r16
    8f24:	10bfffc4 	addi	r2,r2,-1
    8f28:	9c00f736 	bltu	r19,r16,9308 <__udivdi3+0x508>
    8f2c:	9d40f62e 	bgeu	r19,r21,9308 <__udivdi3+0x508>
    8f30:	213fff84 	addi	r4,r4,-2
    8f34:	9004943a 	slli	r2,r18,16
    8f38:	0007883a 	mov	r3,zero
    8f3c:	2084b03a 	or	r2,r4,r2
    8f40:	00001506 	br	8f98 <__udivdi3+0x198>
    8f44:	29c06536 	bltu	r5,r7,90dc <__udivdi3+0x2dc>
    8f48:	00bfffd4 	movui	r2,65535
    8f4c:	11c0652e 	bgeu	r2,r7,90e4 <__udivdi3+0x2e4>
    8f50:	00804034 	movhi	r2,256
    8f54:	10bfffc4 	addi	r2,r2,-1
    8f58:	11c0f736 	bltu	r2,r7,9338 <__udivdi3+0x538>
    8f5c:	00c00404 	movi	r3,16
    8f60:	180b883a 	mov	r5,r3
    8f64:	38c6d83a 	srl	r3,r7,r3
    8f68:	010000f4 	movhi	r4,3
    8f6c:	21017704 	addi	r4,r4,1500
    8f70:	04000804 	movi	r16,32
    8f74:	20c7883a 	add	r3,r4,r3
    8f78:	18800003 	ldbu	r2,0(r3)
    8f7c:	1145883a 	add	r2,r2,r5
    8f80:	80a1c83a 	sub	r16,r16,r2
    8f84:	8000691e 	bne	r16,zero,912c <__udivdi3+0x32c>
    8f88:	0007883a 	mov	r3,zero
    8f8c:	3c406536 	bltu	r7,r17,9124 <__udivdi3+0x324>
    8f90:	9180642e 	bgeu	r18,r6,9124 <__udivdi3+0x324>
    8f94:	0005883a 	mov	r2,zero
    8f98:	dfc00a17 	ldw	ra,40(sp)
    8f9c:	df000917 	ldw	fp,36(sp)
    8fa0:	ddc00817 	ldw	r23,32(sp)
    8fa4:	dd800717 	ldw	r22,28(sp)
    8fa8:	dd400617 	ldw	r21,24(sp)
    8fac:	dd000517 	ldw	r20,20(sp)
    8fb0:	dcc00417 	ldw	r19,16(sp)
    8fb4:	dc800317 	ldw	r18,12(sp)
    8fb8:	dc400217 	ldw	r17,8(sp)
    8fbc:	dc000117 	ldw	r16,4(sp)
    8fc0:	dec00b04 	addi	sp,sp,44
    8fc4:	f800283a 	ret
    8fc8:	3000041e 	bne	r6,zero,8fdc <__udivdi3+0x1dc>
    8fcc:	01000044 	movi	r4,1
    8fd0:	000b883a 	mov	r5,zero
    8fd4:	00016d00 	call	16d0 <__udivsi3>
    8fd8:	1021883a 	mov	r16,r2
    8fdc:	00bfffd4 	movui	r2,65535
    8fe0:	14004b2e 	bgeu	r2,r16,9110 <__udivdi3+0x310>
    8fe4:	00804034 	movhi	r2,256
    8fe8:	10bfffc4 	addi	r2,r2,-1
    8fec:	1400d836 	bltu	r2,r16,9350 <__udivdi3+0x550>
    8ff0:	00800404 	movi	r2,16
    8ff4:	1007883a 	mov	r3,r2
    8ff8:	8084d83a 	srl	r2,r16,r2
    8ffc:	010000f4 	movhi	r4,3
    9000:	21017704 	addi	r4,r4,1500
    9004:	2085883a 	add	r2,r4,r2
    9008:	10800003 	ldbu	r2,0(r2)
    900c:	10c7883a 	add	r3,r2,r3
    9010:	00800804 	movi	r2,32
    9014:	10c5c83a 	sub	r2,r2,r3
    9018:	1000891e 	bne	r2,zero,9240 <__udivdi3+0x440>
    901c:	8028d43a 	srli	r20,r16,16
    9020:	8c23c83a 	sub	r17,r17,r16
    9024:	84bfffcc 	andi	r18,r16,65535
    9028:	00c00044 	movi	r3,1
    902c:	8809883a 	mov	r4,r17
    9030:	a00b883a 	mov	r5,r20
    9034:	d8c00015 	stw	r3,0(sp)
    9038:	00016d80 	call	16d8 <__umodsi3>
    903c:	8809883a 	mov	r4,r17
    9040:	a00b883a 	mov	r5,r20
    9044:	102b883a 	mov	r21,r2
    9048:	00016d00 	call	16d0 <__udivsi3>
    904c:	a82a943a 	slli	r21,r21,16
    9050:	9808d43a 	srli	r4,r19,16
    9054:	148b383a 	mul	r5,r2,r18
    9058:	1023883a 	mov	r17,r2
    905c:	a908b03a 	or	r4,r21,r4
    9060:	d8c00017 	ldw	r3,0(sp)
    9064:	2140052e 	bgeu	r4,r5,907c <__udivdi3+0x27c>
    9068:	2409883a 	add	r4,r4,r16
    906c:	10bfffc4 	addi	r2,r2,-1
    9070:	24000136 	bltu	r4,r16,9078 <__udivdi3+0x278>
    9074:	2140ce36 	bltu	r4,r5,93b0 <__udivdi3+0x5b0>
    9078:	1023883a 	mov	r17,r2
    907c:	216bc83a 	sub	r21,r4,r5
    9080:	a809883a 	mov	r4,r21
    9084:	a00b883a 	mov	r5,r20
    9088:	d8c00015 	stw	r3,0(sp)
    908c:	00016d80 	call	16d8 <__umodsi3>
    9090:	102d883a 	mov	r22,r2
    9094:	a809883a 	mov	r4,r21
    9098:	a00b883a 	mov	r5,r20
    909c:	00016d00 	call	16d0 <__udivsi3>
    90a0:	b02c943a 	slli	r22,r22,16
    90a4:	14a5383a 	mul	r18,r2,r18
    90a8:	9cffffcc 	andi	r19,r19,65535
    90ac:	b4e6b03a 	or	r19,r22,r19
    90b0:	1009883a 	mov	r4,r2
    90b4:	d8c00017 	ldw	r3,0(sp)
    90b8:	9c80052e 	bgeu	r19,r18,90d0 <__udivdi3+0x2d0>
    90bc:	9c27883a 	add	r19,r19,r16
    90c0:	10bfffc4 	addi	r2,r2,-1
    90c4:	9c009236 	bltu	r19,r16,9310 <__udivdi3+0x510>
    90c8:	9c80912e 	bgeu	r19,r18,9310 <__udivdi3+0x510>
    90cc:	213fff84 	addi	r4,r4,-2
    90d0:	8804943a 	slli	r2,r17,16
    90d4:	2084b03a 	or	r2,r4,r2
    90d8:	003faf06 	br	8f98 <__alt_mem_onchip_flash_0_data+0xf0f08f98>
    90dc:	0007883a 	mov	r3,zero
    90e0:	003fac06 	br	8f94 <__alt_mem_onchip_flash_0_data+0xf0f08f94>
    90e4:	00803fc4 	movi	r2,255
    90e8:	11c09636 	bltu	r2,r7,9344 <__udivdi3+0x544>
    90ec:	0007883a 	mov	r3,zero
    90f0:	000b883a 	mov	r5,zero
    90f4:	003f9b06 	br	8f64 <__alt_mem_onchip_flash_0_data+0xf0f08f64>
    90f8:	00804034 	movhi	r2,256
    90fc:	10bfffc4 	addi	r2,r2,-1
    9100:	11809636 	bltu	r2,r6,935c <__udivdi3+0x55c>
    9104:	00800404 	movi	r2,16
    9108:	1007883a 	mov	r3,r2
    910c:	003f5406 	br	8e60 <__alt_mem_onchip_flash_0_data+0xf0f08e60>
    9110:	00803fc4 	movi	r2,255
    9114:	14009736 	bltu	r2,r16,9374 <__udivdi3+0x574>
    9118:	0005883a 	mov	r2,zero
    911c:	0007883a 	mov	r3,zero
    9120:	003fb506 	br	8ff8 <__alt_mem_onchip_flash_0_data+0xf0f08ff8>
    9124:	00800044 	movi	r2,1
    9128:	003f9b06 	br	8f98 <__alt_mem_onchip_flash_0_data+0xf0f08f98>
    912c:	3086d83a 	srl	r3,r6,r2
    9130:	3c0e983a 	sll	r7,r7,r16
    9134:	88aad83a 	srl	r21,r17,r2
    9138:	9084d83a 	srl	r2,r18,r2
    913c:	38e6b03a 	or	r19,r7,r3
    9140:	9828d43a 	srli	r20,r19,16
    9144:	8c22983a 	sll	r17,r17,r16
    9148:	a809883a 	mov	r4,r21
    914c:	a00b883a 	mov	r5,r20
    9150:	342c983a 	sll	r22,r6,r16
    9154:	88a2b03a 	or	r17,r17,r2
    9158:	00016d80 	call	16d8 <__umodsi3>
    915c:	a809883a 	mov	r4,r21
    9160:	a00b883a 	mov	r5,r20
    9164:	1039883a 	mov	fp,r2
    9168:	00016d00 	call	16d0 <__udivsi3>
    916c:	102b883a 	mov	r21,r2
    9170:	9dffffcc 	andi	r23,r19,65535
    9174:	e008943a 	slli	r4,fp,16
    9178:	8804d43a 	srli	r2,r17,16
    917c:	adcd383a 	mul	r6,r21,r23
    9180:	2088b03a 	or	r4,r4,r2
    9184:	2180042e 	bgeu	r4,r6,9198 <__udivdi3+0x398>
    9188:	24c9883a 	add	r4,r4,r19
    918c:	a8bfffc4 	addi	r2,r21,-1
    9190:	24c07f2e 	bgeu	r4,r19,9390 <__udivdi3+0x590>
    9194:	102b883a 	mov	r21,r2
    9198:	21b9c83a 	sub	fp,r4,r6
    919c:	e009883a 	mov	r4,fp
    91a0:	a00b883a 	mov	r5,r20
    91a4:	00016d80 	call	16d8 <__umodsi3>
    91a8:	e009883a 	mov	r4,fp
    91ac:	a00b883a 	mov	r5,r20
    91b0:	d8800015 	stw	r2,0(sp)
    91b4:	00016d00 	call	16d0 <__udivsi3>
    91b8:	d8c00017 	ldw	r3,0(sp)
    91bc:	15cb383a 	mul	r5,r2,r23
    91c0:	8c7fffcc 	andi	r17,r17,65535
    91c4:	1806943a 	slli	r3,r3,16
    91c8:	1009883a 	mov	r4,r2
    91cc:	1c46b03a 	or	r3,r3,r17
    91d0:	1940042e 	bgeu	r3,r5,91e4 <__udivdi3+0x3e4>
    91d4:	1cc7883a 	add	r3,r3,r19
    91d8:	10bfffc4 	addi	r2,r2,-1
    91dc:	1cc0682e 	bgeu	r3,r19,9380 <__udivdi3+0x580>
    91e0:	1009883a 	mov	r4,r2
    91e4:	a804943a 	slli	r2,r21,16
    91e8:	b1ffffcc 	andi	r7,r22,65535
    91ec:	b02cd43a 	srli	r22,r22,16
    91f0:	2084b03a 	or	r2,r4,r2
    91f4:	113fffcc 	andi	r4,r2,65535
    91f8:	100cd43a 	srli	r6,r2,16
    91fc:	21d1383a 	mul	r8,r4,r7
    9200:	2589383a 	mul	r4,r4,r22
    9204:	31cf383a 	mul	r7,r6,r7
    9208:	4012d43a 	srli	r9,r8,16
    920c:	1947c83a 	sub	r3,r3,r5
    9210:	3909883a 	add	r4,r7,r4
    9214:	2249883a 	add	r4,r4,r9
    9218:	35ad383a 	mul	r22,r6,r22
    921c:	21c0022e 	bgeu	r4,r7,9228 <__udivdi3+0x428>
    9220:	01400074 	movhi	r5,1
    9224:	b16d883a 	add	r22,r22,r5
    9228:	200ad43a 	srli	r5,r4,16
    922c:	b16d883a 	add	r22,r22,r5
    9230:	1d803e36 	bltu	r3,r22,932c <__udivdi3+0x52c>
    9234:	1d803826 	beq	r3,r22,9318 <__udivdi3+0x518>
    9238:	0007883a 	mov	r3,zero
    923c:	003f5606 	br	8f98 <__alt_mem_onchip_flash_0_data+0xf0f08f98>
    9240:	80a0983a 	sll	r16,r16,r2
    9244:	88ead83a 	srl	r21,r17,r3
    9248:	90c6d83a 	srl	r3,r18,r3
    924c:	8028d43a 	srli	r20,r16,16
    9250:	88a2983a 	sll	r17,r17,r2
    9254:	a809883a 	mov	r4,r21
    9258:	a00b883a 	mov	r5,r20
    925c:	88ecb03a 	or	r22,r17,r3
    9260:	90a6983a 	sll	r19,r18,r2
    9264:	00016d80 	call	16d8 <__umodsi3>
    9268:	a809883a 	mov	r4,r21
    926c:	a00b883a 	mov	r5,r20
    9270:	1023883a 	mov	r17,r2
    9274:	00016d00 	call	16d0 <__udivsi3>
    9278:	102b883a 	mov	r21,r2
    927c:	84bfffcc 	andi	r18,r16,65535
    9280:	8808943a 	slli	r4,r17,16
    9284:	b004d43a 	srli	r2,r22,16
    9288:	ac87383a 	mul	r3,r21,r18
    928c:	2088b03a 	or	r4,r4,r2
    9290:	20c0062e 	bgeu	r4,r3,92ac <__udivdi3+0x4ac>
    9294:	2409883a 	add	r4,r4,r16
    9298:	a8bfffc4 	addi	r2,r21,-1
    929c:	24004236 	bltu	r4,r16,93a8 <__udivdi3+0x5a8>
    92a0:	20c0412e 	bgeu	r4,r3,93a8 <__udivdi3+0x5a8>
    92a4:	ad7fff84 	addi	r21,r21,-2
    92a8:	2409883a 	add	r4,r4,r16
    92ac:	20efc83a 	sub	r23,r4,r3
    92b0:	b809883a 	mov	r4,r23
    92b4:	a00b883a 	mov	r5,r20
    92b8:	00016d80 	call	16d8 <__umodsi3>
    92bc:	1023883a 	mov	r17,r2
    92c0:	a00b883a 	mov	r5,r20
    92c4:	b809883a 	mov	r4,r23
    92c8:	00016d00 	call	16d0 <__udivsi3>
    92cc:	8822943a 	slli	r17,r17,16
    92d0:	148b383a 	mul	r5,r2,r18
    92d4:	b5bfffcc 	andi	r22,r22,65535
    92d8:	8da2b03a 	or	r17,r17,r22
    92dc:	8940062e 	bgeu	r17,r5,92f8 <__udivdi3+0x4f8>
    92e0:	8c23883a 	add	r17,r17,r16
    92e4:	10ffffc4 	addi	r3,r2,-1
    92e8:	8c002d36 	bltu	r17,r16,93a0 <__udivdi3+0x5a0>
    92ec:	89402c2e 	bgeu	r17,r5,93a0 <__udivdi3+0x5a0>
    92f0:	10bfff84 	addi	r2,r2,-2
    92f4:	8c23883a 	add	r17,r17,r16
    92f8:	a806943a 	slli	r3,r21,16
    92fc:	8963c83a 	sub	r17,r17,r5
    9300:	10c6b03a 	or	r3,r2,r3
    9304:	003f4906 	br	902c <__alt_mem_onchip_flash_0_data+0xf0f0902c>
    9308:	1009883a 	mov	r4,r2
    930c:	003f0906 	br	8f34 <__alt_mem_onchip_flash_0_data+0xf0f08f34>
    9310:	1009883a 	mov	r4,r2
    9314:	003f6e06 	br	90d0 <__alt_mem_onchip_flash_0_data+0xf0f090d0>
    9318:	2008943a 	slli	r4,r4,16
    931c:	9420983a 	sll	r16,r18,r16
    9320:	423fffcc 	andi	r8,r8,65535
    9324:	2209883a 	add	r4,r4,r8
    9328:	813fc32e 	bgeu	r16,r4,9238 <__alt_mem_onchip_flash_0_data+0xf0f09238>
    932c:	10bfffc4 	addi	r2,r2,-1
    9330:	0007883a 	mov	r3,zero
    9334:	003f1806 	br	8f98 <__alt_mem_onchip_flash_0_data+0xf0f08f98>
    9338:	00c00604 	movi	r3,24
    933c:	180b883a 	mov	r5,r3
    9340:	003f0806 	br	8f64 <__alt_mem_onchip_flash_0_data+0xf0f08f64>
    9344:	00c00204 	movi	r3,8
    9348:	180b883a 	mov	r5,r3
    934c:	003f0506 	br	8f64 <__alt_mem_onchip_flash_0_data+0xf0f08f64>
    9350:	00800604 	movi	r2,24
    9354:	1007883a 	mov	r3,r2
    9358:	003f2706 	br	8ff8 <__alt_mem_onchip_flash_0_data+0xf0f08ff8>
    935c:	00800604 	movi	r2,24
    9360:	1007883a 	mov	r3,r2
    9364:	003ebe06 	br	8e60 <__alt_mem_onchip_flash_0_data+0xf0f08e60>
    9368:	00800204 	movi	r2,8
    936c:	1007883a 	mov	r3,r2
    9370:	003ebb06 	br	8e60 <__alt_mem_onchip_flash_0_data+0xf0f08e60>
    9374:	00800204 	movi	r2,8
    9378:	1007883a 	mov	r3,r2
    937c:	003f1e06 	br	8ff8 <__alt_mem_onchip_flash_0_data+0xf0f08ff8>
    9380:	197f972e 	bgeu	r3,r5,91e0 <__alt_mem_onchip_flash_0_data+0xf0f091e0>
    9384:	213fff84 	addi	r4,r4,-2
    9388:	1cc7883a 	add	r3,r3,r19
    938c:	003f9506 	br	91e4 <__alt_mem_onchip_flash_0_data+0xf0f091e4>
    9390:	21bf802e 	bgeu	r4,r6,9194 <__alt_mem_onchip_flash_0_data+0xf0f09194>
    9394:	ad7fff84 	addi	r21,r21,-2
    9398:	24c9883a 	add	r4,r4,r19
    939c:	003f7e06 	br	9198 <__alt_mem_onchip_flash_0_data+0xf0f09198>
    93a0:	1805883a 	mov	r2,r3
    93a4:	003fd406 	br	92f8 <__alt_mem_onchip_flash_0_data+0xf0f092f8>
    93a8:	102b883a 	mov	r21,r2
    93ac:	003fbf06 	br	92ac <__alt_mem_onchip_flash_0_data+0xf0f092ac>
    93b0:	8c7fff84 	addi	r17,r17,-2
    93b4:	2409883a 	add	r4,r4,r16
    93b8:	003f3006 	br	907c <__alt_mem_onchip_flash_0_data+0xf0f0907c>
    93bc:	94bfff84 	addi	r18,r18,-2
    93c0:	1c07883a 	add	r3,r3,r16
    93c4:	003ec806 	br	8ee8 <__alt_mem_onchip_flash_0_data+0xf0f08ee8>

000093c8 <__umoddi3>:
    93c8:	defff504 	addi	sp,sp,-44
    93cc:	dd000515 	stw	r20,20(sp)
    93d0:	dcc00415 	stw	r19,16(sp)
    93d4:	dc800315 	stw	r18,12(sp)
    93d8:	dc400215 	stw	r17,8(sp)
    93dc:	dc000115 	stw	r16,4(sp)
    93e0:	dfc00a15 	stw	ra,40(sp)
    93e4:	df000915 	stw	fp,36(sp)
    93e8:	ddc00815 	stw	r23,32(sp)
    93ec:	dd800715 	stw	r22,28(sp)
    93f0:	dd400615 	stw	r21,24(sp)
    93f4:	2025883a 	mov	r18,r4
    93f8:	2823883a 	mov	r17,r5
    93fc:	3021883a 	mov	r16,r6
    9400:	2027883a 	mov	r19,r4
    9404:	2829883a 	mov	r20,r5
    9408:	3800351e 	bne	r7,zero,94e0 <__umoddi3+0x118>
    940c:	29804d2e 	bgeu	r5,r6,9544 <__umoddi3+0x17c>
    9410:	00bfffd4 	movui	r2,65535
    9414:	11809a36 	bltu	r2,r6,9680 <__umoddi3+0x2b8>
    9418:	00803fc4 	movi	r2,255
    941c:	11813936 	bltu	r2,r6,9904 <__umoddi3+0x53c>
    9420:	0005883a 	mov	r2,zero
    9424:	0009883a 	mov	r4,zero
    9428:	3084d83a 	srl	r2,r6,r2
    942c:	00c000f4 	movhi	r3,3
    9430:	18c17704 	addi	r3,r3,1500
    9434:	05400804 	movi	r21,32
    9438:	1885883a 	add	r2,r3,r2
    943c:	10800003 	ldbu	r2,0(r2)
    9440:	1109883a 	add	r4,r2,r4
    9444:	a92bc83a 	sub	r21,r21,r4
    9448:	a800ec26 	beq	r21,zero,97fc <__umoddi3+0x434>
    944c:	8d62983a 	sll	r17,r17,r21
    9450:	9108d83a 	srl	r4,r18,r4
    9454:	3560983a 	sll	r16,r6,r21
    9458:	9566983a 	sll	r19,r18,r21
    945c:	8928b03a 	or	r20,r17,r4
    9460:	8022d43a 	srli	r17,r16,16
    9464:	a009883a 	mov	r4,r20
    9468:	84bfffcc 	andi	r18,r16,65535
    946c:	880b883a 	mov	r5,r17
    9470:	00016d80 	call	16d8 <__umodsi3>
    9474:	a009883a 	mov	r4,r20
    9478:	880b883a 	mov	r5,r17
    947c:	102d883a 	mov	r22,r2
    9480:	00016d00 	call	16d0 <__udivsi3>
    9484:	b02c943a 	slli	r22,r22,16
    9488:	9806d43a 	srli	r3,r19,16
    948c:	1485383a 	mul	r2,r2,r18
    9490:	b0c6b03a 	or	r3,r22,r3
    9494:	1880042e 	bgeu	r3,r2,94a8 <__umoddi3+0xe0>
    9498:	1c07883a 	add	r3,r3,r16
    949c:	1c000236 	bltu	r3,r16,94a8 <__umoddi3+0xe0>
    94a0:	1880012e 	bgeu	r3,r2,94a8 <__umoddi3+0xe0>
    94a4:	1c07883a 	add	r3,r3,r16
    94a8:	18a9c83a 	sub	r20,r3,r2
    94ac:	a009883a 	mov	r4,r20
    94b0:	880b883a 	mov	r5,r17
    94b4:	00016d80 	call	16d8 <__umodsi3>
    94b8:	102d883a 	mov	r22,r2
    94bc:	a009883a 	mov	r4,r20
    94c0:	880b883a 	mov	r5,r17
    94c4:	00016d00 	call	16d0 <__udivsi3>
    94c8:	b02c943a 	slli	r22,r22,16
    94cc:	1485383a 	mul	r2,r2,r18
    94d0:	9cffffcc 	andi	r19,r19,65535
    94d4:	b4e6b03a 	or	r19,r22,r19
    94d8:	9880522e 	bgeu	r19,r2,9624 <__umoddi3+0x25c>
    94dc:	00004d06 	br	9614 <__umoddi3+0x24c>
    94e0:	29c05436 	bltu	r5,r7,9634 <__umoddi3+0x26c>
    94e4:	00bfffd4 	movui	r2,65535
    94e8:	11c0602e 	bgeu	r2,r7,966c <__umoddi3+0x2a4>
    94ec:	00804034 	movhi	r2,256
    94f0:	10bfffc4 	addi	r2,r2,-1
    94f4:	11c0f736 	bltu	r2,r7,98d4 <__umoddi3+0x50c>
    94f8:	00c00404 	movi	r3,16
    94fc:	1827883a 	mov	r19,r3
    9500:	38c6d83a 	srl	r3,r7,r3
    9504:	010000f4 	movhi	r4,3
    9508:	21017704 	addi	r4,r4,1500
    950c:	04000804 	movi	r16,32
    9510:	20c7883a 	add	r3,r4,r3
    9514:	18800003 	ldbu	r2,0(r3)
    9518:	14e7883a 	add	r19,r2,r19
    951c:	84e1c83a 	sub	r16,r16,r19
    9520:	8000621e 	bne	r16,zero,96ac <__umoddi3+0x2e4>
    9524:	3c400136 	bltu	r7,r17,952c <__umoddi3+0x164>
    9528:	91810336 	bltu	r18,r6,9938 <__umoddi3+0x570>
    952c:	9185c83a 	sub	r2,r18,r6
    9530:	89e3c83a 	sub	r17,r17,r7
    9534:	90a5803a 	cmpltu	r18,r18,r2
    9538:	8ca9c83a 	sub	r20,r17,r18
    953c:	a007883a 	mov	r3,r20
    9540:	00003e06 	br	963c <__umoddi3+0x274>
    9544:	3000041e 	bne	r6,zero,9558 <__umoddi3+0x190>
    9548:	01000044 	movi	r4,1
    954c:	000b883a 	mov	r5,zero
    9550:	00016d00 	call	16d0 <__udivsi3>
    9554:	1021883a 	mov	r16,r2
    9558:	00bfffd4 	movui	r2,65535
    955c:	14004e2e 	bgeu	r2,r16,9698 <__umoddi3+0x2d0>
    9560:	00804034 	movhi	r2,256
    9564:	10bfffc4 	addi	r2,r2,-1
    9568:	1400e336 	bltu	r2,r16,98f8 <__umoddi3+0x530>
    956c:	00800404 	movi	r2,16
    9570:	1007883a 	mov	r3,r2
    9574:	8084d83a 	srl	r2,r16,r2
    9578:	010000f4 	movhi	r4,3
    957c:	21017704 	addi	r4,r4,1500
    9580:	05400804 	movi	r21,32
    9584:	2085883a 	add	r2,r4,r2
    9588:	10800003 	ldbu	r2,0(r2)
    958c:	10c7883a 	add	r3,r2,r3
    9590:	a8ebc83a 	sub	r21,r21,r3
    9594:	a8009b1e 	bne	r21,zero,9804 <__umoddi3+0x43c>
    9598:	8028d43a 	srli	r20,r16,16
    959c:	8c23c83a 	sub	r17,r17,r16
    95a0:	85bfffcc 	andi	r22,r16,65535
    95a4:	8809883a 	mov	r4,r17
    95a8:	a00b883a 	mov	r5,r20
    95ac:	00016d80 	call	16d8 <__umodsi3>
    95b0:	8809883a 	mov	r4,r17
    95b4:	a00b883a 	mov	r5,r20
    95b8:	1025883a 	mov	r18,r2
    95bc:	00016d00 	call	16d0 <__udivsi3>
    95c0:	9024943a 	slli	r18,r18,16
    95c4:	9806d43a 	srli	r3,r19,16
    95c8:	1585383a 	mul	r2,r2,r22
    95cc:	90c6b03a 	or	r3,r18,r3
    95d0:	1880032e 	bgeu	r3,r2,95e0 <__umoddi3+0x218>
    95d4:	1c07883a 	add	r3,r3,r16
    95d8:	1c000136 	bltu	r3,r16,95e0 <__umoddi3+0x218>
    95dc:	1880d436 	bltu	r3,r2,9930 <__umoddi3+0x568>
    95e0:	18a3c83a 	sub	r17,r3,r2
    95e4:	8809883a 	mov	r4,r17
    95e8:	a00b883a 	mov	r5,r20
    95ec:	00016d80 	call	16d8 <__umodsi3>
    95f0:	1025883a 	mov	r18,r2
    95f4:	8809883a 	mov	r4,r17
    95f8:	a00b883a 	mov	r5,r20
    95fc:	00016d00 	call	16d0 <__udivsi3>
    9600:	9024943a 	slli	r18,r18,16
    9604:	1585383a 	mul	r2,r2,r22
    9608:	9cffffcc 	andi	r19,r19,65535
    960c:	94e6b03a 	or	r19,r18,r19
    9610:	9880042e 	bgeu	r19,r2,9624 <__umoddi3+0x25c>
    9614:	9c27883a 	add	r19,r19,r16
    9618:	9c000236 	bltu	r19,r16,9624 <__umoddi3+0x25c>
    961c:	9880012e 	bgeu	r19,r2,9624 <__umoddi3+0x25c>
    9620:	9c27883a 	add	r19,r19,r16
    9624:	98a7c83a 	sub	r19,r19,r2
    9628:	9d44d83a 	srl	r2,r19,r21
    962c:	0007883a 	mov	r3,zero
    9630:	00000206 	br	963c <__umoddi3+0x274>
    9634:	2005883a 	mov	r2,r4
    9638:	2807883a 	mov	r3,r5
    963c:	dfc00a17 	ldw	ra,40(sp)
    9640:	df000917 	ldw	fp,36(sp)
    9644:	ddc00817 	ldw	r23,32(sp)
    9648:	dd800717 	ldw	r22,28(sp)
    964c:	dd400617 	ldw	r21,24(sp)
    9650:	dd000517 	ldw	r20,20(sp)
    9654:	dcc00417 	ldw	r19,16(sp)
    9658:	dc800317 	ldw	r18,12(sp)
    965c:	dc400217 	ldw	r17,8(sp)
    9660:	dc000117 	ldw	r16,4(sp)
    9664:	dec00b04 	addi	sp,sp,44
    9668:	f800283a 	ret
    966c:	00803fc4 	movi	r2,255
    9670:	11c09536 	bltu	r2,r7,98c8 <__umoddi3+0x500>
    9674:	0007883a 	mov	r3,zero
    9678:	0027883a 	mov	r19,zero
    967c:	003fa006 	br	9500 <__alt_mem_onchip_flash_0_data+0xf0f09500>
    9680:	00804034 	movhi	r2,256
    9684:	10bfffc4 	addi	r2,r2,-1
    9688:	11809536 	bltu	r2,r6,98e0 <__umoddi3+0x518>
    968c:	00800404 	movi	r2,16
    9690:	1009883a 	mov	r4,r2
    9694:	003f6406 	br	9428 <__alt_mem_onchip_flash_0_data+0xf0f09428>
    9698:	00803fc4 	movi	r2,255
    969c:	14009336 	bltu	r2,r16,98ec <__umoddi3+0x524>
    96a0:	0005883a 	mov	r2,zero
    96a4:	0007883a 	mov	r3,zero
    96a8:	003fb206 	br	9574 <__alt_mem_onchip_flash_0_data+0xf0f09574>
    96ac:	34c4d83a 	srl	r2,r6,r19
    96b0:	3c0e983a 	sll	r7,r7,r16
    96b4:	8ceed83a 	srl	r23,r17,r19
    96b8:	8c22983a 	sll	r17,r17,r16
    96bc:	38a8b03a 	or	r20,r7,r2
    96c0:	a02ad43a 	srli	r21,r20,16
    96c4:	94c4d83a 	srl	r2,r18,r19
    96c8:	b809883a 	mov	r4,r23
    96cc:	a80b883a 	mov	r5,r21
    96d0:	88a2b03a 	or	r17,r17,r2
    96d4:	342c983a 	sll	r22,r6,r16
    96d8:	00016d80 	call	16d8 <__umodsi3>
    96dc:	b809883a 	mov	r4,r23
    96e0:	a80b883a 	mov	r5,r21
    96e4:	d8800015 	stw	r2,0(sp)
    96e8:	00016d00 	call	16d0 <__udivsi3>
    96ec:	d8c00017 	ldw	r3,0(sp)
    96f0:	102f883a 	mov	r23,r2
    96f4:	a73fffcc 	andi	fp,r20,65535
    96f8:	180a943a 	slli	r5,r3,16
    96fc:	8804d43a 	srli	r2,r17,16
    9700:	bf09383a 	mul	r4,r23,fp
    9704:	9424983a 	sll	r18,r18,r16
    9708:	288ab03a 	or	r5,r5,r2
    970c:	2900042e 	bgeu	r5,r4,9720 <__umoddi3+0x358>
    9710:	2d0b883a 	add	r5,r5,r20
    9714:	b8bfffc4 	addi	r2,r23,-1
    9718:	2d00812e 	bgeu	r5,r20,9920 <__umoddi3+0x558>
    971c:	102f883a 	mov	r23,r2
    9720:	2907c83a 	sub	r3,r5,r4
    9724:	1809883a 	mov	r4,r3
    9728:	a80b883a 	mov	r5,r21
    972c:	d8c00015 	stw	r3,0(sp)
    9730:	00016d80 	call	16d8 <__umodsi3>
    9734:	d8c00017 	ldw	r3,0(sp)
    9738:	a80b883a 	mov	r5,r21
    973c:	d8800015 	stw	r2,0(sp)
    9740:	1809883a 	mov	r4,r3
    9744:	00016d00 	call	16d0 <__udivsi3>
    9748:	d9800017 	ldw	r6,0(sp)
    974c:	8c7fffcc 	andi	r17,r17,65535
    9750:	3008943a 	slli	r4,r6,16
    9754:	170d383a 	mul	r6,r2,fp
    9758:	2448b03a 	or	r4,r4,r17
    975c:	2180042e 	bgeu	r4,r6,9770 <__umoddi3+0x3a8>
    9760:	2509883a 	add	r4,r4,r20
    9764:	10ffffc4 	addi	r3,r2,-1
    9768:	2500692e 	bgeu	r4,r20,9910 <__umoddi3+0x548>
    976c:	1805883a 	mov	r2,r3
    9770:	b82e943a 	slli	r23,r23,16
    9774:	b010d43a 	srli	r8,r22,16
    9778:	b1ffffcc 	andi	r7,r22,65535
    977c:	15eeb03a 	or	r23,r2,r23
    9780:	b8bfffcc 	andi	r2,r23,65535
    9784:	b82ed43a 	srli	r23,r23,16
    9788:	11c7383a 	mul	r3,r2,r7
    978c:	1205383a 	mul	r2,r2,r8
    9790:	b9cf383a 	mul	r7,r23,r7
    9794:	400b883a 	mov	r5,r8
    9798:	1810d43a 	srli	r8,r3,16
    979c:	3885883a 	add	r2,r7,r2
    97a0:	2189c83a 	sub	r4,r4,r6
    97a4:	1205883a 	add	r2,r2,r8
    97a8:	b94b383a 	mul	r5,r23,r5
    97ac:	11c0022e 	bgeu	r2,r7,97b8 <__umoddi3+0x3f0>
    97b0:	01800074 	movhi	r6,1
    97b4:	298b883a 	add	r5,r5,r6
    97b8:	100cd43a 	srli	r6,r2,16
    97bc:	1004943a 	slli	r2,r2,16
    97c0:	18ffffcc 	andi	r3,r3,65535
    97c4:	298b883a 	add	r5,r5,r6
    97c8:	10c5883a 	add	r2,r2,r3
    97cc:	21403836 	bltu	r4,r5,98b0 <__umoddi3+0x4e8>
    97d0:	21405c26 	beq	r4,r5,9944 <__umoddi3+0x57c>
    97d4:	2147c83a 	sub	r3,r4,r5
    97d8:	102d883a 	mov	r22,r2
    97dc:	95adc83a 	sub	r22,r18,r22
    97e0:	95a5803a 	cmpltu	r18,r18,r22
    97e4:	1c87c83a 	sub	r3,r3,r18
    97e8:	1cc4983a 	sll	r2,r3,r19
    97ec:	b42cd83a 	srl	r22,r22,r16
    97f0:	1c06d83a 	srl	r3,r3,r16
    97f4:	1584b03a 	or	r2,r2,r22
    97f8:	003f9006 	br	963c <__alt_mem_onchip_flash_0_data+0xf0f0963c>
    97fc:	002b883a 	mov	r21,zero
    9800:	003f1706 	br	9460 <__alt_mem_onchip_flash_0_data+0xf0f09460>
    9804:	8560983a 	sll	r16,r16,r21
    9808:	88e6d83a 	srl	r19,r17,r3
    980c:	90c6d83a 	srl	r3,r18,r3
    9810:	8028d43a 	srli	r20,r16,16
    9814:	8d62983a 	sll	r17,r17,r21
    9818:	9809883a 	mov	r4,r19
    981c:	a00b883a 	mov	r5,r20
    9820:	88eeb03a 	or	r23,r17,r3
    9824:	00016d80 	call	16d8 <__umodsi3>
    9828:	9809883a 	mov	r4,r19
    982c:	a00b883a 	mov	r5,r20
    9830:	1023883a 	mov	r17,r2
    9834:	00016d00 	call	16d0 <__udivsi3>
    9838:	85bfffcc 	andi	r22,r16,65535
    983c:	880a943a 	slli	r5,r17,16
    9840:	b806d43a 	srli	r3,r23,16
    9844:	1585383a 	mul	r2,r2,r22
    9848:	9566983a 	sll	r19,r18,r21
    984c:	28cab03a 	or	r5,r5,r3
    9850:	2880042e 	bgeu	r5,r2,9864 <__umoddi3+0x49c>
    9854:	2c0b883a 	add	r5,r5,r16
    9858:	2c000236 	bltu	r5,r16,9864 <__umoddi3+0x49c>
    985c:	2880012e 	bgeu	r5,r2,9864 <__umoddi3+0x49c>
    9860:	2c0b883a 	add	r5,r5,r16
    9864:	28a5c83a 	sub	r18,r5,r2
    9868:	9009883a 	mov	r4,r18
    986c:	a00b883a 	mov	r5,r20
    9870:	00016d80 	call	16d8 <__umodsi3>
    9874:	1023883a 	mov	r17,r2
    9878:	9009883a 	mov	r4,r18
    987c:	a00b883a 	mov	r5,r20
    9880:	00016d00 	call	16d0 <__udivsi3>
    9884:	8822943a 	slli	r17,r17,16
    9888:	1585383a 	mul	r2,r2,r22
    988c:	bdffffcc 	andi	r23,r23,65535
    9890:	8de2b03a 	or	r17,r17,r23
    9894:	8880042e 	bgeu	r17,r2,98a8 <__umoddi3+0x4e0>
    9898:	8c23883a 	add	r17,r17,r16
    989c:	8c000236 	bltu	r17,r16,98a8 <__umoddi3+0x4e0>
    98a0:	8880012e 	bgeu	r17,r2,98a8 <__umoddi3+0x4e0>
    98a4:	8c23883a 	add	r17,r17,r16
    98a8:	88a3c83a 	sub	r17,r17,r2
    98ac:	003f3d06 	br	95a4 <__alt_mem_onchip_flash_0_data+0xf0f095a4>
    98b0:	15adc83a 	sub	r22,r2,r22
    98b4:	2d07c83a 	sub	r3,r5,r20
    98b8:	1585803a 	cmpltu	r2,r2,r22
    98bc:	1887c83a 	sub	r3,r3,r2
    98c0:	20c7c83a 	sub	r3,r4,r3
    98c4:	003fc506 	br	97dc <__alt_mem_onchip_flash_0_data+0xf0f097dc>
    98c8:	00c00204 	movi	r3,8
    98cc:	1827883a 	mov	r19,r3
    98d0:	003f0b06 	br	9500 <__alt_mem_onchip_flash_0_data+0xf0f09500>
    98d4:	00c00604 	movi	r3,24
    98d8:	1827883a 	mov	r19,r3
    98dc:	003f0806 	br	9500 <__alt_mem_onchip_flash_0_data+0xf0f09500>
    98e0:	00800604 	movi	r2,24
    98e4:	1009883a 	mov	r4,r2
    98e8:	003ecf06 	br	9428 <__alt_mem_onchip_flash_0_data+0xf0f09428>
    98ec:	00800204 	movi	r2,8
    98f0:	1007883a 	mov	r3,r2
    98f4:	003f1f06 	br	9574 <__alt_mem_onchip_flash_0_data+0xf0f09574>
    98f8:	00800604 	movi	r2,24
    98fc:	1007883a 	mov	r3,r2
    9900:	003f1c06 	br	9574 <__alt_mem_onchip_flash_0_data+0xf0f09574>
    9904:	00800204 	movi	r2,8
    9908:	1009883a 	mov	r4,r2
    990c:	003ec606 	br	9428 <__alt_mem_onchip_flash_0_data+0xf0f09428>
    9910:	21bf962e 	bgeu	r4,r6,976c <__alt_mem_onchip_flash_0_data+0xf0f0976c>
    9914:	10bfff84 	addi	r2,r2,-2
    9918:	2509883a 	add	r4,r4,r20
    991c:	003f9406 	br	9770 <__alt_mem_onchip_flash_0_data+0xf0f09770>
    9920:	293f7e2e 	bgeu	r5,r4,971c <__alt_mem_onchip_flash_0_data+0xf0f0971c>
    9924:	bdffff84 	addi	r23,r23,-2
    9928:	2d0b883a 	add	r5,r5,r20
    992c:	003f7c06 	br	9720 <__alt_mem_onchip_flash_0_data+0xf0f09720>
    9930:	1c07883a 	add	r3,r3,r16
    9934:	003f2a06 	br	95e0 <__alt_mem_onchip_flash_0_data+0xf0f095e0>
    9938:	9005883a 	mov	r2,r18
    993c:	a007883a 	mov	r3,r20
    9940:	003f3e06 	br	963c <__alt_mem_onchip_flash_0_data+0xf0f0963c>
    9944:	90bfda36 	bltu	r18,r2,98b0 <__alt_mem_onchip_flash_0_data+0xf0f098b0>
    9948:	102d883a 	mov	r22,r2
    994c:	0007883a 	mov	r3,zero
    9950:	003fa206 	br	97dc <__alt_mem_onchip_flash_0_data+0xf0f097dc>

00009954 <_fpadd_parts>:
    9954:	2005883a 	mov	r2,r4
    9958:	21000017 	ldw	r4,0(r4)
    995c:	01c00044 	movi	r7,1
    9960:	3900622e 	bgeu	r7,r4,9aec <_fpadd_parts+0x198>
    9964:	28c00017 	ldw	r3,0(r5)
    9968:	38c05f2e 	bgeu	r7,r3,9ae8 <_fpadd_parts+0x194>
    996c:	01c00104 	movi	r7,4
    9970:	21c0c626 	beq	r4,r7,9c8c <_fpadd_parts+0x338>
    9974:	19c05c26 	beq	r3,r7,9ae8 <_fpadd_parts+0x194>
    9978:	01c00084 	movi	r7,2
    997c:	19c06b26 	beq	r3,r7,9b2c <_fpadd_parts+0x1d8>
    9980:	21c05926 	beq	r4,r7,9ae8 <_fpadd_parts+0x194>
    9984:	11c00217 	ldw	r7,8(r2)
    9988:	2ac00217 	ldw	r11,8(r5)
    998c:	13000317 	ldw	r12,12(r2)
    9990:	13400417 	ldw	r13,16(r2)
    9994:	3ac9c83a 	sub	r4,r7,r11
    9998:	2a000317 	ldw	r8,12(r5)
    999c:	2a400417 	ldw	r9,16(r5)
    99a0:	2015883a 	mov	r10,r4
    99a4:	20007516 	blt	r4,zero,9b7c <_fpadd_parts+0x228>
    99a8:	00c00fc4 	movi	r3,63
    99ac:	1a805016 	blt	r3,r10,9af0 <_fpadd_parts+0x19c>
    99b0:	0100870e 	bge	zero,r4,9bd0 <_fpadd_parts+0x27c>
    99b4:	50fff804 	addi	r3,r10,-32
    99b8:	18009916 	blt	r3,zero,9c20 <_fpadd_parts+0x2cc>
    99bc:	48d6d83a 	srl	r11,r9,r3
    99c0:	001d883a 	mov	r14,zero
    99c4:	18009e16 	blt	r3,zero,9c40 <_fpadd_parts+0x2ec>
    99c8:	01000044 	movi	r4,1
    99cc:	20c6983a 	sll	r3,r4,r3
    99d0:	0015883a 	mov	r10,zero
    99d4:	513fffc4 	addi	r4,r10,-1
    99d8:	2295403a 	cmpgeu	r10,r4,r10
    99dc:	1a87c83a 	sub	r3,r3,r10
    99e0:	1a52703a 	and	r9,r3,r9
    99e4:	2210703a 	and	r8,r4,r8
    99e8:	4250b03a 	or	r8,r8,r9
    99ec:	4010c03a 	cmpne	r8,r8,zero
    99f0:	42d0b03a 	or	r8,r8,r11
    99f4:	7013883a 	mov	r9,r14
    99f8:	11000117 	ldw	r4,4(r2)
    99fc:	28800117 	ldw	r2,4(r5)
    9a00:	20804126 	beq	r4,r2,9b08 <_fpadd_parts+0x1b4>
    9a04:	20006326 	beq	r4,zero,9b94 <_fpadd_parts+0x240>
    9a08:	4305c83a 	sub	r2,r8,r12
    9a0c:	4091803a 	cmpltu	r8,r8,r2
    9a10:	4b47c83a 	sub	r3,r9,r13
    9a14:	1a07c83a 	sub	r3,r3,r8
    9a18:	18006316 	blt	r3,zero,9ba8 <_fpadd_parts+0x254>
    9a1c:	30000115 	stw	zero,4(r6)
    9a20:	31c00215 	stw	r7,8(r6)
    9a24:	30800315 	stw	r2,12(r6)
    9a28:	30c00415 	stw	r3,16(r6)
    9a2c:	11ffffc4 	addi	r7,r2,-1
    9a30:	388b403a 	cmpgeu	r5,r7,r2
    9a34:	194bc83a 	sub	r5,r3,r5
    9a38:	01040034 	movhi	r4,4096
    9a3c:	213fffc4 	addi	r4,r4,-1
    9a40:	21401736 	bltu	r4,r5,9aa0 <_fpadd_parts+0x14c>
    9a44:	29008226 	beq	r5,r4,9c50 <_fpadd_parts+0x2fc>
    9a48:	31400217 	ldw	r5,8(r6)
    9a4c:	02840034 	movhi	r10,4096
    9a50:	52bfffc4 	addi	r10,r10,-1
    9a54:	033fff84 	movi	r12,-2
    9a58:	297fffc4 	addi	r5,r5,-1
    9a5c:	00000106 	br	9a64 <_fpadd_parts+0x110>
    9a60:	3a804a26 	beq	r7,r10,9b8c <_fpadd_parts+0x238>
    9a64:	1089883a 	add	r4,r2,r2
    9a68:	2091803a 	cmpltu	r8,r4,r2
    9a6c:	18c7883a 	add	r3,r3,r3
    9a70:	227fffc4 	addi	r9,r4,-1
    9a74:	40d1883a 	add	r8,r8,r3
    9a78:	490f403a 	cmpgeu	r7,r9,r4
    9a7c:	41cfc83a 	sub	r7,r8,r7
    9a80:	2817883a 	mov	r11,r5
    9a84:	2005883a 	mov	r2,r4
    9a88:	4007883a 	mov	r3,r8
    9a8c:	297fffc4 	addi	r5,r5,-1
    9a90:	51fff32e 	bgeu	r10,r7,9a60 <__alt_mem_onchip_flash_0_data+0xf0f09a60>
    9a94:	31000315 	stw	r4,12(r6)
    9a98:	32000415 	stw	r8,16(r6)
    9a9c:	32c00215 	stw	r11,8(r6)
    9aa0:	010000c4 	movi	r4,3
    9aa4:	31000015 	stw	r4,0(r6)
    9aa8:	01080034 	movhi	r4,8192
    9aac:	213fffc4 	addi	r4,r4,-1
    9ab0:	20c00b2e 	bgeu	r4,r3,9ae0 <_fpadd_parts+0x18c>
    9ab4:	180e97fa 	slli	r7,r3,31
    9ab8:	1008d07a 	srli	r4,r2,1
    9abc:	31400217 	ldw	r5,8(r6)
    9ac0:	1806d07a 	srli	r3,r3,1
    9ac4:	1080004c 	andi	r2,r2,1
    9ac8:	3908b03a 	or	r4,r7,r4
    9acc:	1108b03a 	or	r4,r2,r4
    9ad0:	29400044 	addi	r5,r5,1
    9ad4:	31000315 	stw	r4,12(r6)
    9ad8:	30c00415 	stw	r3,16(r6)
    9adc:	31400215 	stw	r5,8(r6)
    9ae0:	3005883a 	mov	r2,r6
    9ae4:	f800283a 	ret
    9ae8:	2805883a 	mov	r2,r5
    9aec:	f800283a 	ret
    9af0:	59c01e0e 	bge	r11,r7,9b6c <_fpadd_parts+0x218>
    9af4:	11000117 	ldw	r4,4(r2)
    9af8:	28800117 	ldw	r2,4(r5)
    9afc:	0011883a 	mov	r8,zero
    9b00:	0013883a 	mov	r9,zero
    9b04:	20bfbf1e 	bne	r4,r2,9a04 <__alt_mem_onchip_flash_0_data+0xf0f09a04>
    9b08:	4305883a 	add	r2,r8,r12
    9b0c:	1207803a 	cmpltu	r3,r2,r8
    9b10:	4b53883a 	add	r9,r9,r13
    9b14:	1a47883a 	add	r3,r3,r9
    9b18:	31000115 	stw	r4,4(r6)
    9b1c:	31c00215 	stw	r7,8(r6)
    9b20:	30800315 	stw	r2,12(r6)
    9b24:	30c00415 	stw	r3,16(r6)
    9b28:	003fdd06 	br	9aa0 <__alt_mem_onchip_flash_0_data+0xf0f09aa0>
    9b2c:	20ffef1e 	bne	r4,r3,9aec <__alt_mem_onchip_flash_0_data+0xf0f09aec>
    9b30:	31000015 	stw	r4,0(r6)
    9b34:	10c00117 	ldw	r3,4(r2)
    9b38:	30c00115 	stw	r3,4(r6)
    9b3c:	10c00217 	ldw	r3,8(r2)
    9b40:	11000117 	ldw	r4,4(r2)
    9b44:	29400117 	ldw	r5,4(r5)
    9b48:	30c00215 	stw	r3,8(r6)
    9b4c:	10c00317 	ldw	r3,12(r2)
    9b50:	2908703a 	and	r4,r5,r4
    9b54:	30c00315 	stw	r3,12(r6)
    9b58:	10c00417 	ldw	r3,16(r2)
    9b5c:	31000115 	stw	r4,4(r6)
    9b60:	3005883a 	mov	r2,r6
    9b64:	30c00415 	stw	r3,16(r6)
    9b68:	f800283a 	ret
    9b6c:	580f883a 	mov	r7,r11
    9b70:	0019883a 	mov	r12,zero
    9b74:	001b883a 	mov	r13,zero
    9b78:	003f9f06 	br	99f8 <__alt_mem_onchip_flash_0_data+0xf0f099f8>
    9b7c:	0115c83a 	sub	r10,zero,r4
    9b80:	00c00fc4 	movi	r3,63
    9b84:	1abfda16 	blt	r3,r10,9af0 <__alt_mem_onchip_flash_0_data+0xf0f09af0>
    9b88:	003f8906 	br	99b0 <__alt_mem_onchip_flash_0_data+0xf0f099b0>
    9b8c:	627fb52e 	bgeu	r12,r9,9a64 <__alt_mem_onchip_flash_0_data+0xf0f09a64>
    9b90:	003fc006 	br	9a94 <__alt_mem_onchip_flash_0_data+0xf0f09a94>
    9b94:	6205c83a 	sub	r2,r12,r8
    9b98:	6099803a 	cmpltu	r12,r12,r2
    9b9c:	6a47c83a 	sub	r3,r13,r9
    9ba0:	1b07c83a 	sub	r3,r3,r12
    9ba4:	183f9d0e 	bge	r3,zero,9a1c <__alt_mem_onchip_flash_0_data+0xf0f09a1c>
    9ba8:	0085c83a 	sub	r2,zero,r2
    9bac:	1008c03a 	cmpne	r4,r2,zero
    9bb0:	00c7c83a 	sub	r3,zero,r3
    9bb4:	1907c83a 	sub	r3,r3,r4
    9bb8:	01000044 	movi	r4,1
    9bbc:	31000115 	stw	r4,4(r6)
    9bc0:	31c00215 	stw	r7,8(r6)
    9bc4:	30800315 	stw	r2,12(r6)
    9bc8:	30c00415 	stw	r3,16(r6)
    9bcc:	003f9706 	br	9a2c <__alt_mem_onchip_flash_0_data+0xf0f09a2c>
    9bd0:	203f8926 	beq	r4,zero,99f8 <__alt_mem_onchip_flash_0_data+0xf0f099f8>
    9bd4:	50fff804 	addi	r3,r10,-32
    9bd8:	3a8f883a 	add	r7,r7,r10
    9bdc:	18002316 	blt	r3,zero,9c6c <_fpadd_parts+0x318>
    9be0:	68d6d83a 	srl	r11,r13,r3
    9be4:	001d883a 	mov	r14,zero
    9be8:	18001c16 	blt	r3,zero,9c5c <_fpadd_parts+0x308>
    9bec:	01000044 	movi	r4,1
    9bf0:	20c6983a 	sll	r3,r4,r3
    9bf4:	0015883a 	mov	r10,zero
    9bf8:	513fffc4 	addi	r4,r10,-1
    9bfc:	2295403a 	cmpgeu	r10,r4,r10
    9c00:	1a87c83a 	sub	r3,r3,r10
    9c04:	1b5a703a 	and	r13,r3,r13
    9c08:	2318703a 	and	r12,r4,r12
    9c0c:	6358b03a 	or	r12,r12,r13
    9c10:	6018c03a 	cmpne	r12,r12,zero
    9c14:	62d8b03a 	or	r12,r12,r11
    9c18:	701b883a 	mov	r13,r14
    9c1c:	003f7606 	br	99f8 <__alt_mem_onchip_flash_0_data+0xf0f099f8>
    9c20:	4808907a 	slli	r4,r9,1
    9c24:	02c007c4 	movi	r11,31
    9c28:	5a97c83a 	sub	r11,r11,r10
    9c2c:	22c8983a 	sll	r4,r4,r11
    9c30:	4296d83a 	srl	r11,r8,r10
    9c34:	4a9cd83a 	srl	r14,r9,r10
    9c38:	22d6b03a 	or	r11,r4,r11
    9c3c:	003f6106 	br	99c4 <__alt_mem_onchip_flash_0_data+0xf0f099c4>
    9c40:	00c00044 	movi	r3,1
    9c44:	1a94983a 	sll	r10,r3,r10
    9c48:	0007883a 	mov	r3,zero
    9c4c:	003f6106 	br	99d4 <__alt_mem_onchip_flash_0_data+0xf0f099d4>
    9c50:	013fff84 	movi	r4,-2
    9c54:	21ff7c2e 	bgeu	r4,r7,9a48 <__alt_mem_onchip_flash_0_data+0xf0f09a48>
    9c58:	003f9106 	br	9aa0 <__alt_mem_onchip_flash_0_data+0xf0f09aa0>
    9c5c:	00c00044 	movi	r3,1
    9c60:	1a94983a 	sll	r10,r3,r10
    9c64:	0007883a 	mov	r3,zero
    9c68:	003fe306 	br	9bf8 <__alt_mem_onchip_flash_0_data+0xf0f09bf8>
    9c6c:	6816907a 	slli	r11,r13,1
    9c70:	010007c4 	movi	r4,31
    9c74:	2289c83a 	sub	r4,r4,r10
    9c78:	5908983a 	sll	r4,r11,r4
    9c7c:	6296d83a 	srl	r11,r12,r10
    9c80:	6a9cd83a 	srl	r14,r13,r10
    9c84:	22d6b03a 	or	r11,r4,r11
    9c88:	003fd706 	br	9be8 <__alt_mem_onchip_flash_0_data+0xf0f09be8>
    9c8c:	193f971e 	bne	r3,r4,9aec <__alt_mem_onchip_flash_0_data+0xf0f09aec>
    9c90:	11000117 	ldw	r4,4(r2)
    9c94:	28c00117 	ldw	r3,4(r5)
    9c98:	20ff9426 	beq	r4,r3,9aec <__alt_mem_onchip_flash_0_data+0xf0f09aec>
    9c9c:	008000f4 	movhi	r2,3
    9ca0:	10817204 	addi	r2,r2,1480
    9ca4:	f800283a 	ret

00009ca8 <__adddf3>:
    9ca8:	deffec04 	addi	sp,sp,-80
    9cac:	d9001115 	stw	r4,68(sp)
    9cb0:	d9401215 	stw	r5,72(sp)
    9cb4:	d9001104 	addi	r4,sp,68
    9cb8:	d9400a04 	addi	r5,sp,40
    9cbc:	dfc01315 	stw	ra,76(sp)
    9cc0:	d9c01015 	stw	r7,64(sp)
    9cc4:	d9800f15 	stw	r6,60(sp)
    9cc8:	000a8d00 	call	a8d0 <__unpack_d>
    9ccc:	d9000f04 	addi	r4,sp,60
    9cd0:	d9400504 	addi	r5,sp,20
    9cd4:	000a8d00 	call	a8d0 <__unpack_d>
    9cd8:	d9000a04 	addi	r4,sp,40
    9cdc:	d9400504 	addi	r5,sp,20
    9ce0:	d80d883a 	mov	r6,sp
    9ce4:	00099540 	call	9954 <_fpadd_parts>
    9ce8:	1009883a 	mov	r4,r2
    9cec:	000a6ac0 	call	a6ac <__pack_d>
    9cf0:	dfc01317 	ldw	ra,76(sp)
    9cf4:	dec01404 	addi	sp,sp,80
    9cf8:	f800283a 	ret

00009cfc <__subdf3>:
    9cfc:	deffec04 	addi	sp,sp,-80
    9d00:	d9001115 	stw	r4,68(sp)
    9d04:	d9401215 	stw	r5,72(sp)
    9d08:	d9001104 	addi	r4,sp,68
    9d0c:	d9400a04 	addi	r5,sp,40
    9d10:	dfc01315 	stw	ra,76(sp)
    9d14:	d9c01015 	stw	r7,64(sp)
    9d18:	d9800f15 	stw	r6,60(sp)
    9d1c:	000a8d00 	call	a8d0 <__unpack_d>
    9d20:	d9000f04 	addi	r4,sp,60
    9d24:	d9400504 	addi	r5,sp,20
    9d28:	000a8d00 	call	a8d0 <__unpack_d>
    9d2c:	d8800617 	ldw	r2,24(sp)
    9d30:	d9000a04 	addi	r4,sp,40
    9d34:	d9400504 	addi	r5,sp,20
    9d38:	d80d883a 	mov	r6,sp
    9d3c:	1080005c 	xori	r2,r2,1
    9d40:	d8800615 	stw	r2,24(sp)
    9d44:	00099540 	call	9954 <_fpadd_parts>
    9d48:	1009883a 	mov	r4,r2
    9d4c:	000a6ac0 	call	a6ac <__pack_d>
    9d50:	dfc01317 	ldw	ra,76(sp)
    9d54:	dec01404 	addi	sp,sp,80
    9d58:	f800283a 	ret

00009d5c <__muldf3>:
    9d5c:	deffec04 	addi	sp,sp,-80
    9d60:	d9001115 	stw	r4,68(sp)
    9d64:	d9401215 	stw	r5,72(sp)
    9d68:	d9001104 	addi	r4,sp,68
    9d6c:	d9400a04 	addi	r5,sp,40
    9d70:	dfc01315 	stw	ra,76(sp)
    9d74:	d9800f15 	stw	r6,60(sp)
    9d78:	d9c01015 	stw	r7,64(sp)
    9d7c:	000a8d00 	call	a8d0 <__unpack_d>
    9d80:	d9000f04 	addi	r4,sp,60
    9d84:	d9400504 	addi	r5,sp,20
    9d88:	000a8d00 	call	a8d0 <__unpack_d>
    9d8c:	d8c00a17 	ldw	r3,40(sp)
    9d90:	00800044 	movi	r2,1
    9d94:	10c00936 	bltu	r2,r3,9dbc <__muldf3+0x60>
    9d98:	d8c00b17 	ldw	r3,44(sp)
    9d9c:	d8800617 	ldw	r2,24(sp)
    9da0:	d9000a04 	addi	r4,sp,40
    9da4:	1884c03a 	cmpne	r2,r3,r2
    9da8:	d8800b15 	stw	r2,44(sp)
    9dac:	000a6ac0 	call	a6ac <__pack_d>
    9db0:	dfc01317 	ldw	ra,76(sp)
    9db4:	dec01404 	addi	sp,sp,80
    9db8:	f800283a 	ret
    9dbc:	d9000517 	ldw	r4,20(sp)
    9dc0:	11000936 	bltu	r2,r4,9de8 <__muldf3+0x8c>
    9dc4:	d8800617 	ldw	r2,24(sp)
    9dc8:	d8c00b17 	ldw	r3,44(sp)
    9dcc:	d9000504 	addi	r4,sp,20
    9dd0:	1884c03a 	cmpne	r2,r3,r2
    9dd4:	d8800615 	stw	r2,24(sp)
    9dd8:	000a6ac0 	call	a6ac <__pack_d>
    9ddc:	dfc01317 	ldw	ra,76(sp)
    9de0:	dec01404 	addi	sp,sp,80
    9de4:	f800283a 	ret
    9de8:	00800104 	movi	r2,4
    9dec:	1880051e 	bne	r3,r2,9e04 <__muldf3+0xa8>
    9df0:	00800084 	movi	r2,2
    9df4:	20bfe81e 	bne	r4,r2,9d98 <__alt_mem_onchip_flash_0_data+0xf0f09d98>
    9df8:	010000f4 	movhi	r4,3
    9dfc:	21017204 	addi	r4,r4,1480
    9e00:	003fea06 	br	9dac <__alt_mem_onchip_flash_0_data+0xf0f09dac>
    9e04:	2080031e 	bne	r4,r2,9e14 <__muldf3+0xb8>
    9e08:	00800084 	movi	r2,2
    9e0c:	18bffa26 	beq	r3,r2,9df8 <__alt_mem_onchip_flash_0_data+0xf0f09df8>
    9e10:	003fec06 	br	9dc4 <__alt_mem_onchip_flash_0_data+0xf0f09dc4>
    9e14:	00800084 	movi	r2,2
    9e18:	18bfdf26 	beq	r3,r2,9d98 <__alt_mem_onchip_flash_0_data+0xf0f09d98>
    9e1c:	20bfe926 	beq	r4,r2,9dc4 <__alt_mem_onchip_flash_0_data+0xf0f09dc4>
    9e20:	d9800d17 	ldw	r6,52(sp)
    9e24:	d8c00e17 	ldw	r3,56(sp)
    9e28:	d9400817 	ldw	r5,32(sp)
    9e2c:	d8800917 	ldw	r2,36(sp)
    9e30:	194f383a 	mul	r7,r3,r5
    9e34:	1195383a 	mul	r10,r2,r6
    9e38:	1952383a 	mulxuu	r9,r3,r5
    9e3c:	1190383a 	mulxuu	r8,r2,r6
    9e40:	3a89883a 	add	r4,r7,r10
    9e44:	21cf803a 	cmpltu	r7,r4,r7
    9e48:	4a13883a 	add	r9,r9,r8
    9e4c:	3a4f883a 	add	r7,r7,r9
    9e50:	1896383a 	mulxuu	r11,r3,r2
    9e54:	3152383a 	mulxuu	r9,r6,r5
    9e58:	1887383a 	mul	r3,r3,r2
    9e5c:	314b383a 	mul	r5,r6,r5
    9e60:	3a004936 	bltu	r7,r8,9f88 <__muldf3+0x22c>
    9e64:	41c0011e 	bne	r8,r7,9e6c <__muldf3+0x110>
    9e68:	22804736 	bltu	r4,r10,9f88 <__muldf3+0x22c>
    9e6c:	0005883a 	mov	r2,zero
    9e70:	0011883a 	mov	r8,zero
    9e74:	2249883a 	add	r4,r4,r9
    9e78:	2240012e 	bgeu	r4,r9,9e80 <__muldf3+0x124>
    9e7c:	00800044 	movi	r2,1
    9e80:	38c7883a 	add	r3,r7,r3
    9e84:	19cf803a 	cmpltu	r7,r3,r7
    9e88:	3ad3883a 	add	r9,r7,r11
    9e8c:	d9800717 	ldw	r6,28(sp)
    9e90:	d9c00c17 	ldw	r7,48(sp)
    9e94:	da800b17 	ldw	r10,44(sp)
    9e98:	1885883a 	add	r2,r3,r2
    9e9c:	398d883a 	add	r6,r7,r6
    9ea0:	d9c00617 	ldw	r7,24(sp)
    9ea4:	4a13883a 	add	r9,r9,r8
    9ea8:	10c7803a 	cmpltu	r3,r2,r3
    9eac:	32000104 	addi	r8,r6,4
    9eb0:	51cec03a 	cmpne	r7,r10,r7
    9eb4:	1a47883a 	add	r3,r3,r9
    9eb8:	da000215 	stw	r8,8(sp)
    9ebc:	d9c00115 	stw	r7,4(sp)
    9ec0:	03480034 	movhi	r13,8192
    9ec4:	6b7fffc4 	addi	r13,r13,-1
    9ec8:	68c0102e 	bgeu	r13,r3,9f0c <__muldf3+0x1b0>
    9ecc:	31800144 	addi	r6,r6,5
    9ed0:	100ed07a 	srli	r7,r2,1
    9ed4:	1080004c 	andi	r2,r2,1
    9ed8:	181097fa 	slli	r8,r3,31
    9edc:	201697fa 	slli	r11,r4,31
    9ee0:	1806d07a 	srli	r3,r3,1
    9ee4:	2814d07a 	srli	r10,r5,1
    9ee8:	2012d07a 	srli	r9,r4,1
    9eec:	3019883a 	mov	r12,r6
    9ef0:	10000226 	beq	r2,zero,9efc <__muldf3+0x1a0>
    9ef4:	5a8ab03a 	or	r5,r11,r10
    9ef8:	49200034 	orhi	r4,r9,32768
    9efc:	41c4b03a 	or	r2,r8,r7
    9f00:	31800044 	addi	r6,r6,1
    9f04:	68fff236 	bltu	r13,r3,9ed0 <__alt_mem_onchip_flash_0_data+0xf0f09ed0>
    9f08:	db000215 	stw	r12,8(sp)
    9f0c:	03440034 	movhi	r13,4096
    9f10:	6b7fffc4 	addi	r13,r13,-1
    9f14:	68c01336 	bltu	r13,r3,9f64 <__muldf3+0x208>
    9f18:	d9800217 	ldw	r6,8(sp)
    9f1c:	31bfffc4 	addi	r6,r6,-1
    9f20:	1093883a 	add	r9,r2,r2
    9f24:	4885803a 	cmpltu	r2,r9,r2
    9f28:	18c7883a 	add	r3,r3,r3
    9f2c:	10cf883a 	add	r7,r2,r3
    9f30:	2951883a 	add	r8,r5,r5
    9f34:	4157803a 	cmpltu	r11,r8,r5
    9f38:	2115883a 	add	r10,r4,r4
    9f3c:	3019883a 	mov	r12,r6
    9f40:	4805883a 	mov	r2,r9
    9f44:	3807883a 	mov	r3,r7
    9f48:	2000010e 	bge	r4,zero,9f50 <__muldf3+0x1f4>
    9f4c:	48800054 	ori	r2,r9,1
    9f50:	400b883a 	mov	r5,r8
    9f54:	5a89883a 	add	r4,r11,r10
    9f58:	31bfffc4 	addi	r6,r6,-1
    9f5c:	69fff02e 	bgeu	r13,r7,9f20 <__alt_mem_onchip_flash_0_data+0xf0f09f20>
    9f60:	db000215 	stw	r12,8(sp)
    9f64:	11803fcc 	andi	r6,r2,255
    9f68:	01c02004 	movi	r7,128
    9f6c:	31c00926 	beq	r6,r7,9f94 <__muldf3+0x238>
    9f70:	d8800315 	stw	r2,12(sp)
    9f74:	008000c4 	movi	r2,3
    9f78:	d8c00415 	stw	r3,16(sp)
    9f7c:	d8800015 	stw	r2,0(sp)
    9f80:	d809883a 	mov	r4,sp
    9f84:	003f8906 	br	9dac <__alt_mem_onchip_flash_0_data+0xf0f09dac>
    9f88:	0005883a 	mov	r2,zero
    9f8c:	02000044 	movi	r8,1
    9f90:	003fb806 	br	9e74 <__alt_mem_onchip_flash_0_data+0xf0f09e74>
    9f94:	11c0400c 	andi	r7,r2,256
    9f98:	383ff51e 	bne	r7,zero,9f70 <__alt_mem_onchip_flash_0_data+0xf0f09f70>
    9f9c:	2908b03a 	or	r4,r5,r4
    9fa0:	203ff326 	beq	r4,zero,9f70 <__alt_mem_onchip_flash_0_data+0xf0f09f70>
    9fa4:	118d883a 	add	r6,r2,r6
    9fa8:	3089803a 	cmpltu	r4,r6,r2
    9fac:	00bfc004 	movi	r2,-256
    9fb0:	3084703a 	and	r2,r6,r2
    9fb4:	20c7883a 	add	r3,r4,r3
    9fb8:	003fed06 	br	9f70 <__alt_mem_onchip_flash_0_data+0xf0f09f70>

00009fbc <__divdf3>:
    9fbc:	defff104 	addi	sp,sp,-60
    9fc0:	d9000c15 	stw	r4,48(sp)
    9fc4:	d9400d15 	stw	r5,52(sp)
    9fc8:	d9000c04 	addi	r4,sp,48
    9fcc:	d9400504 	addi	r5,sp,20
    9fd0:	dfc00e15 	stw	ra,56(sp)
    9fd4:	d9800a15 	stw	r6,40(sp)
    9fd8:	d9c00b15 	stw	r7,44(sp)
    9fdc:	000a8d00 	call	a8d0 <__unpack_d>
    9fe0:	d9000a04 	addi	r4,sp,40
    9fe4:	d80b883a 	mov	r5,sp
    9fe8:	000a8d00 	call	a8d0 <__unpack_d>
    9fec:	d8c00517 	ldw	r3,20(sp)
    9ff0:	00800044 	movi	r2,1
    9ff4:	10c00536 	bltu	r2,r3,a00c <__divdf3+0x50>
    9ff8:	d9000504 	addi	r4,sp,20
    9ffc:	000a6ac0 	call	a6ac <__pack_d>
    a000:	dfc00e17 	ldw	ra,56(sp)
    a004:	dec00f04 	addi	sp,sp,60
    a008:	f800283a 	ret
    a00c:	d9000017 	ldw	r4,0(sp)
    a010:	11000536 	bltu	r2,r4,a028 <__divdf3+0x6c>
    a014:	d809883a 	mov	r4,sp
    a018:	000a6ac0 	call	a6ac <__pack_d>
    a01c:	dfc00e17 	ldw	ra,56(sp)
    a020:	dec00f04 	addi	sp,sp,60
    a024:	f800283a 	ret
    a028:	d9800617 	ldw	r6,24(sp)
    a02c:	d9400117 	ldw	r5,4(sp)
    a030:	00800104 	movi	r2,4
    a034:	314af03a 	xor	r5,r6,r5
    a038:	d9400615 	stw	r5,24(sp)
    a03c:	18800226 	beq	r3,r2,a048 <__divdf3+0x8c>
    a040:	01400084 	movi	r5,2
    a044:	1940041e 	bne	r3,r5,a058 <__divdf3+0x9c>
    a048:	193feb1e 	bne	r3,r4,9ff8 <__alt_mem_onchip_flash_0_data+0xf0f09ff8>
    a04c:	010000f4 	movhi	r4,3
    a050:	21017204 	addi	r4,r4,1480
    a054:	003fe906 	br	9ffc <__alt_mem_onchip_flash_0_data+0xf0f09ffc>
    a058:	20803326 	beq	r4,r2,a128 <__divdf3+0x16c>
    a05c:	21403726 	beq	r4,r5,a13c <__divdf3+0x180>
    a060:	d8800217 	ldw	r2,8(sp)
    a064:	d9000717 	ldw	r4,28(sp)
    a068:	d8c00917 	ldw	r3,36(sp)
    a06c:	da000417 	ldw	r8,16(sp)
    a070:	2089c83a 	sub	r4,r4,r2
    a074:	d9000715 	stw	r4,28(sp)
    a078:	d8800817 	ldw	r2,32(sp)
    a07c:	dbc00317 	ldw	r15,12(sp)
    a080:	1a000236 	bltu	r3,r8,a08c <__divdf3+0xd0>
    a084:	40c0081e 	bne	r8,r3,a0a8 <__divdf3+0xec>
    a088:	13c0072e 	bgeu	r2,r15,a0a8 <__divdf3+0xec>
    a08c:	108b883a 	add	r5,r2,r2
    a090:	288d803a 	cmpltu	r6,r5,r2
    a094:	18c7883a 	add	r3,r3,r3
    a098:	213fffc4 	addi	r4,r4,-1
    a09c:	2805883a 	mov	r2,r5
    a0a0:	30c7883a 	add	r3,r6,r3
    a0a4:	d9000715 	stw	r4,28(sp)
    a0a8:	01400f44 	movi	r5,61
    a0ac:	000f883a 	mov	r7,zero
    a0b0:	01040034 	movhi	r4,4096
    a0b4:	0019883a 	mov	r12,zero
    a0b8:	001b883a 	mov	r13,zero
    a0bc:	201697fa 	slli	r11,r4,31
    a0c0:	3814d07a 	srli	r10,r7,1
    a0c4:	297fffc4 	addi	r5,r5,-1
    a0c8:	1a000936 	bltu	r3,r8,a0f0 <__divdf3+0x134>
    a0cc:	13cdc83a 	sub	r6,r2,r15
    a0d0:	1193803a 	cmpltu	r9,r2,r6
    a0d4:	1a1dc83a 	sub	r14,r3,r8
    a0d8:	40c0011e 	bne	r8,r3,a0e0 <__divdf3+0x124>
    a0dc:	13c00436 	bltu	r2,r15,a0f0 <__divdf3+0x134>
    a0e0:	3005883a 	mov	r2,r6
    a0e4:	7247c83a 	sub	r3,r14,r9
    a0e8:	61d8b03a 	or	r12,r12,r7
    a0ec:	691ab03a 	or	r13,r13,r4
    a0f0:	108d883a 	add	r6,r2,r2
    a0f4:	3093803a 	cmpltu	r9,r6,r2
    a0f8:	18c7883a 	add	r3,r3,r3
    a0fc:	5a8eb03a 	or	r7,r11,r10
    a100:	2008d07a 	srli	r4,r4,1
    a104:	3005883a 	mov	r2,r6
    a108:	48c7883a 	add	r3,r9,r3
    a10c:	283feb1e 	bne	r5,zero,a0bc <__alt_mem_onchip_flash_0_data+0xf0f0a0bc>
    a110:	61003fcc 	andi	r4,r12,255
    a114:	01402004 	movi	r5,128
    a118:	21400b26 	beq	r4,r5,a148 <__divdf3+0x18c>
    a11c:	db000815 	stw	r12,32(sp)
    a120:	db400915 	stw	r13,36(sp)
    a124:	003fb406 	br	9ff8 <__alt_mem_onchip_flash_0_data+0xf0f09ff8>
    a128:	d8000815 	stw	zero,32(sp)
    a12c:	d8000915 	stw	zero,36(sp)
    a130:	d8000715 	stw	zero,28(sp)
    a134:	d9000504 	addi	r4,sp,20
    a138:	003fb006 	br	9ffc <__alt_mem_onchip_flash_0_data+0xf0f09ffc>
    a13c:	d8800515 	stw	r2,20(sp)
    a140:	d9000504 	addi	r4,sp,20
    a144:	003fad06 	br	9ffc <__alt_mem_onchip_flash_0_data+0xf0f09ffc>
    a148:	6140400c 	andi	r5,r12,256
    a14c:	283ff31e 	bne	r5,zero,a11c <__alt_mem_onchip_flash_0_data+0xf0f0a11c>
    a150:	30c4b03a 	or	r2,r6,r3
    a154:	103ff126 	beq	r2,zero,a11c <__alt_mem_onchip_flash_0_data+0xf0f0a11c>
    a158:	6109883a 	add	r4,r12,r4
    a15c:	2305803a 	cmpltu	r2,r4,r12
    a160:	033fc004 	movi	r12,-256
    a164:	2318703a 	and	r12,r4,r12
    a168:	135b883a 	add	r13,r2,r13
    a16c:	003feb06 	br	a11c <__alt_mem_onchip_flash_0_data+0xf0f0a11c>

0000a170 <__eqdf2>:
    a170:	defff104 	addi	sp,sp,-60
    a174:	d9000c15 	stw	r4,48(sp)
    a178:	d9400d15 	stw	r5,52(sp)
    a17c:	d9000c04 	addi	r4,sp,48
    a180:	d9400504 	addi	r5,sp,20
    a184:	dfc00e15 	stw	ra,56(sp)
    a188:	d9800a15 	stw	r6,40(sp)
    a18c:	d9c00b15 	stw	r7,44(sp)
    a190:	000a8d00 	call	a8d0 <__unpack_d>
    a194:	d9000a04 	addi	r4,sp,40
    a198:	d80b883a 	mov	r5,sp
    a19c:	000a8d00 	call	a8d0 <__unpack_d>
    a1a0:	d8c00517 	ldw	r3,20(sp)
    a1a4:	00800044 	movi	r2,1
    a1a8:	10c0052e 	bgeu	r2,r3,a1c0 <__eqdf2+0x50>
    a1ac:	d8c00017 	ldw	r3,0(sp)
    a1b0:	10c0032e 	bgeu	r2,r3,a1c0 <__eqdf2+0x50>
    a1b4:	d9000504 	addi	r4,sp,20
    a1b8:	d80b883a 	mov	r5,sp
    a1bc:	000a9d40 	call	a9d4 <__fpcmp_parts_d>
    a1c0:	dfc00e17 	ldw	ra,56(sp)
    a1c4:	dec00f04 	addi	sp,sp,60
    a1c8:	f800283a 	ret

0000a1cc <__nedf2>:
    a1cc:	defff104 	addi	sp,sp,-60
    a1d0:	d9000c15 	stw	r4,48(sp)
    a1d4:	d9400d15 	stw	r5,52(sp)
    a1d8:	d9000c04 	addi	r4,sp,48
    a1dc:	d9400504 	addi	r5,sp,20
    a1e0:	dfc00e15 	stw	ra,56(sp)
    a1e4:	d9800a15 	stw	r6,40(sp)
    a1e8:	d9c00b15 	stw	r7,44(sp)
    a1ec:	000a8d00 	call	a8d0 <__unpack_d>
    a1f0:	d9000a04 	addi	r4,sp,40
    a1f4:	d80b883a 	mov	r5,sp
    a1f8:	000a8d00 	call	a8d0 <__unpack_d>
    a1fc:	d8c00517 	ldw	r3,20(sp)
    a200:	00800044 	movi	r2,1
    a204:	10c0052e 	bgeu	r2,r3,a21c <__nedf2+0x50>
    a208:	d8c00017 	ldw	r3,0(sp)
    a20c:	10c0032e 	bgeu	r2,r3,a21c <__nedf2+0x50>
    a210:	d9000504 	addi	r4,sp,20
    a214:	d80b883a 	mov	r5,sp
    a218:	000a9d40 	call	a9d4 <__fpcmp_parts_d>
    a21c:	dfc00e17 	ldw	ra,56(sp)
    a220:	dec00f04 	addi	sp,sp,60
    a224:	f800283a 	ret

0000a228 <__gtdf2>:
    a228:	defff104 	addi	sp,sp,-60
    a22c:	d9000c15 	stw	r4,48(sp)
    a230:	d9400d15 	stw	r5,52(sp)
    a234:	d9000c04 	addi	r4,sp,48
    a238:	d9400504 	addi	r5,sp,20
    a23c:	dfc00e15 	stw	ra,56(sp)
    a240:	d9800a15 	stw	r6,40(sp)
    a244:	d9c00b15 	stw	r7,44(sp)
    a248:	000a8d00 	call	a8d0 <__unpack_d>
    a24c:	d9000a04 	addi	r4,sp,40
    a250:	d80b883a 	mov	r5,sp
    a254:	000a8d00 	call	a8d0 <__unpack_d>
    a258:	d8c00517 	ldw	r3,20(sp)
    a25c:	00800044 	movi	r2,1
    a260:	10c0082e 	bgeu	r2,r3,a284 <__gtdf2+0x5c>
    a264:	d8c00017 	ldw	r3,0(sp)
    a268:	10c0062e 	bgeu	r2,r3,a284 <__gtdf2+0x5c>
    a26c:	d9000504 	addi	r4,sp,20
    a270:	d80b883a 	mov	r5,sp
    a274:	000a9d40 	call	a9d4 <__fpcmp_parts_d>
    a278:	dfc00e17 	ldw	ra,56(sp)
    a27c:	dec00f04 	addi	sp,sp,60
    a280:	f800283a 	ret
    a284:	00bfffc4 	movi	r2,-1
    a288:	003ffb06 	br	a278 <__alt_mem_onchip_flash_0_data+0xf0f0a278>

0000a28c <__gedf2>:
    a28c:	defff104 	addi	sp,sp,-60
    a290:	d9000c15 	stw	r4,48(sp)
    a294:	d9400d15 	stw	r5,52(sp)
    a298:	d9000c04 	addi	r4,sp,48
    a29c:	d9400504 	addi	r5,sp,20
    a2a0:	dfc00e15 	stw	ra,56(sp)
    a2a4:	d9800a15 	stw	r6,40(sp)
    a2a8:	d9c00b15 	stw	r7,44(sp)
    a2ac:	000a8d00 	call	a8d0 <__unpack_d>
    a2b0:	d9000a04 	addi	r4,sp,40
    a2b4:	d80b883a 	mov	r5,sp
    a2b8:	000a8d00 	call	a8d0 <__unpack_d>
    a2bc:	d8c00517 	ldw	r3,20(sp)
    a2c0:	00800044 	movi	r2,1
    a2c4:	10c0082e 	bgeu	r2,r3,a2e8 <__gedf2+0x5c>
    a2c8:	d8c00017 	ldw	r3,0(sp)
    a2cc:	10c0062e 	bgeu	r2,r3,a2e8 <__gedf2+0x5c>
    a2d0:	d9000504 	addi	r4,sp,20
    a2d4:	d80b883a 	mov	r5,sp
    a2d8:	000a9d40 	call	a9d4 <__fpcmp_parts_d>
    a2dc:	dfc00e17 	ldw	ra,56(sp)
    a2e0:	dec00f04 	addi	sp,sp,60
    a2e4:	f800283a 	ret
    a2e8:	00bfffc4 	movi	r2,-1
    a2ec:	003ffb06 	br	a2dc <__alt_mem_onchip_flash_0_data+0xf0f0a2dc>

0000a2f0 <__ltdf2>:
    a2f0:	defff104 	addi	sp,sp,-60
    a2f4:	d9000c15 	stw	r4,48(sp)
    a2f8:	d9400d15 	stw	r5,52(sp)
    a2fc:	d9000c04 	addi	r4,sp,48
    a300:	d9400504 	addi	r5,sp,20
    a304:	dfc00e15 	stw	ra,56(sp)
    a308:	d9800a15 	stw	r6,40(sp)
    a30c:	d9c00b15 	stw	r7,44(sp)
    a310:	000a8d00 	call	a8d0 <__unpack_d>
    a314:	d9000a04 	addi	r4,sp,40
    a318:	d80b883a 	mov	r5,sp
    a31c:	000a8d00 	call	a8d0 <__unpack_d>
    a320:	d8c00517 	ldw	r3,20(sp)
    a324:	00800044 	movi	r2,1
    a328:	10c0052e 	bgeu	r2,r3,a340 <__ltdf2+0x50>
    a32c:	d8c00017 	ldw	r3,0(sp)
    a330:	10c0032e 	bgeu	r2,r3,a340 <__ltdf2+0x50>
    a334:	d9000504 	addi	r4,sp,20
    a338:	d80b883a 	mov	r5,sp
    a33c:	000a9d40 	call	a9d4 <__fpcmp_parts_d>
    a340:	dfc00e17 	ldw	ra,56(sp)
    a344:	dec00f04 	addi	sp,sp,60
    a348:	f800283a 	ret

0000a34c <__floatsidf>:
    a34c:	2004d7fa 	srli	r2,r4,31
    a350:	defff904 	addi	sp,sp,-28
    a354:	00c000c4 	movi	r3,3
    a358:	dfc00615 	stw	ra,24(sp)
    a35c:	dc000515 	stw	r16,20(sp)
    a360:	d8c00015 	stw	r3,0(sp)
    a364:	d8800115 	stw	r2,4(sp)
    a368:	2000081e 	bne	r4,zero,a38c <__floatsidf+0x40>
    a36c:	00800084 	movi	r2,2
    a370:	d8800015 	stw	r2,0(sp)
    a374:	d809883a 	mov	r4,sp
    a378:	000a6ac0 	call	a6ac <__pack_d>
    a37c:	dfc00617 	ldw	ra,24(sp)
    a380:	dc000517 	ldw	r16,20(sp)
    a384:	dec00704 	addi	sp,sp,28
    a388:	f800283a 	ret
    a38c:	00c00f04 	movi	r3,60
    a390:	d8c00215 	stw	r3,8(sp)
    a394:	10000f1e 	bne	r2,zero,a3d4 <__floatsidf+0x88>
    a398:	2021883a 	mov	r16,r4
    a39c:	8009883a 	mov	r4,r16
    a3a0:	000a6000 	call	a600 <__clzsi2>
    a3a4:	11000744 	addi	r4,r2,29
    a3a8:	0100110e 	bge	zero,r4,a3f0 <__floatsidf+0xa4>
    a3ac:	10ffff44 	addi	r3,r2,-3
    a3b0:	18001216 	blt	r3,zero,a3fc <__floatsidf+0xb0>
    a3b4:	80c6983a 	sll	r3,r16,r3
    a3b8:	0009883a 	mov	r4,zero
    a3bc:	014007c4 	movi	r5,31
    a3c0:	2885c83a 	sub	r2,r5,r2
    a3c4:	d9000315 	stw	r4,12(sp)
    a3c8:	d8c00415 	stw	r3,16(sp)
    a3cc:	d8800215 	stw	r2,8(sp)
    a3d0:	003fe806 	br	a374 <__alt_mem_onchip_flash_0_data+0xf0f0a374>
    a3d4:	00a00034 	movhi	r2,32768
    a3d8:	20800e26 	beq	r4,r2,a414 <__floatsidf+0xc8>
    a3dc:	0121c83a 	sub	r16,zero,r4
    a3e0:	8009883a 	mov	r4,r16
    a3e4:	000a6000 	call	a600 <__clzsi2>
    a3e8:	11000744 	addi	r4,r2,29
    a3ec:	013fef16 	blt	zero,r4,a3ac <__alt_mem_onchip_flash_0_data+0xf0f0a3ac>
    a3f0:	dc000315 	stw	r16,12(sp)
    a3f4:	d8000415 	stw	zero,16(sp)
    a3f8:	003fde06 	br	a374 <__alt_mem_onchip_flash_0_data+0xf0f0a374>
    a3fc:	800ad07a 	srli	r5,r16,1
    a400:	00c007c4 	movi	r3,31
    a404:	1907c83a 	sub	r3,r3,r4
    a408:	28c6d83a 	srl	r3,r5,r3
    a40c:	8108983a 	sll	r4,r16,r4
    a410:	003fea06 	br	a3bc <__alt_mem_onchip_flash_0_data+0xf0f0a3bc>
    a414:	0005883a 	mov	r2,zero
    a418:	00f07834 	movhi	r3,49632
    a41c:	003fd706 	br	a37c <__alt_mem_onchip_flash_0_data+0xf0f0a37c>

0000a420 <__fixdfsi>:
    a420:	defff804 	addi	sp,sp,-32
    a424:	d9000515 	stw	r4,20(sp)
    a428:	d9400615 	stw	r5,24(sp)
    a42c:	d9000504 	addi	r4,sp,20
    a430:	d80b883a 	mov	r5,sp
    a434:	dfc00715 	stw	ra,28(sp)
    a438:	000a8d00 	call	a8d0 <__unpack_d>
    a43c:	d8800017 	ldw	r2,0(sp)
    a440:	00c00084 	movi	r3,2
    a444:	10c01c26 	beq	r2,r3,a4b8 <__fixdfsi+0x98>
    a448:	00c00044 	movi	r3,1
    a44c:	18801a2e 	bgeu	r3,r2,a4b8 <__fixdfsi+0x98>
    a450:	00c00104 	movi	r3,4
    a454:	10c01126 	beq	r2,r3,a49c <__fixdfsi+0x7c>
    a458:	d8800217 	ldw	r2,8(sp)
    a45c:	10001616 	blt	r2,zero,a4b8 <__fixdfsi+0x98>
    a460:	00c00784 	movi	r3,30
    a464:	18800d16 	blt	r3,r2,a49c <__fixdfsi+0x7c>
    a468:	00c00f04 	movi	r3,60
    a46c:	1885c83a 	sub	r2,r3,r2
    a470:	10fff804 	addi	r3,r2,-32
    a474:	d9400317 	ldw	r5,12(sp)
    a478:	d9000417 	ldw	r4,16(sp)
    a47c:	18001216 	blt	r3,zero,a4c8 <__fixdfsi+0xa8>
    a480:	20c4d83a 	srl	r2,r4,r3
    a484:	d8c00117 	ldw	r3,4(sp)
    a488:	18000826 	beq	r3,zero,a4ac <__fixdfsi+0x8c>
    a48c:	0085c83a 	sub	r2,zero,r2
    a490:	dfc00717 	ldw	ra,28(sp)
    a494:	dec00804 	addi	sp,sp,32
    a498:	f800283a 	ret
    a49c:	d8800117 	ldw	r2,4(sp)
    a4a0:	00e00034 	movhi	r3,32768
    a4a4:	1005003a 	cmpeq	r2,r2,zero
    a4a8:	1885c83a 	sub	r2,r3,r2
    a4ac:	dfc00717 	ldw	ra,28(sp)
    a4b0:	dec00804 	addi	sp,sp,32
    a4b4:	f800283a 	ret
    a4b8:	0005883a 	mov	r2,zero
    a4bc:	dfc00717 	ldw	ra,28(sp)
    a4c0:	dec00804 	addi	sp,sp,32
    a4c4:	f800283a 	ret
    a4c8:	2008907a 	slli	r4,r4,1
    a4cc:	018007c4 	movi	r6,31
    a4d0:	308dc83a 	sub	r6,r6,r2
    a4d4:	2188983a 	sll	r4,r4,r6
    a4d8:	2884d83a 	srl	r2,r5,r2
    a4dc:	2084b03a 	or	r2,r4,r2
    a4e0:	003fe806 	br	a484 <__alt_mem_onchip_flash_0_data+0xf0f0a484>

0000a4e4 <__floatunsidf>:
    a4e4:	defff904 	addi	sp,sp,-28
    a4e8:	dc000515 	stw	r16,20(sp)
    a4ec:	dfc00615 	stw	ra,24(sp)
    a4f0:	d8000115 	stw	zero,4(sp)
    a4f4:	2021883a 	mov	r16,r4
    a4f8:	20001726 	beq	r4,zero,a558 <__floatunsidf+0x74>
    a4fc:	008000c4 	movi	r2,3
    a500:	d8800015 	stw	r2,0(sp)
    a504:	00800f04 	movi	r2,60
    a508:	d8800215 	stw	r2,8(sp)
    a50c:	000a6000 	call	a600 <__clzsi2>
    a510:	10c00744 	addi	r3,r2,29
    a514:	18001816 	blt	r3,zero,a578 <__floatunsidf+0x94>
    a518:	18002d26 	beq	r3,zero,a5d0 <__floatunsidf+0xec>
    a51c:	113fff44 	addi	r4,r2,-3
    a520:	20002e16 	blt	r4,zero,a5dc <__floatunsidf+0xf8>
    a524:	8108983a 	sll	r4,r16,r4
    a528:	0021883a 	mov	r16,zero
    a52c:	014007c4 	movi	r5,31
    a530:	2885c83a 	sub	r2,r5,r2
    a534:	dc000315 	stw	r16,12(sp)
    a538:	d9000415 	stw	r4,16(sp)
    a53c:	d8800215 	stw	r2,8(sp)
    a540:	d809883a 	mov	r4,sp
    a544:	000a6ac0 	call	a6ac <__pack_d>
    a548:	dfc00617 	ldw	ra,24(sp)
    a54c:	dc000517 	ldw	r16,20(sp)
    a550:	dec00704 	addi	sp,sp,28
    a554:	f800283a 	ret
    a558:	00800084 	movi	r2,2
    a55c:	d809883a 	mov	r4,sp
    a560:	d8800015 	stw	r2,0(sp)
    a564:	000a6ac0 	call	a6ac <__pack_d>
    a568:	dfc00617 	ldw	ra,24(sp)
    a56c:	dc000517 	ldw	r16,20(sp)
    a570:	dec00704 	addi	sp,sp,28
    a574:	f800283a 	ret
    a578:	00c7c83a 	sub	r3,zero,r3
    a57c:	193ff804 	addi	r4,r3,-32
    a580:	20001c16 	blt	r4,zero,a5f4 <__floatunsidf+0x110>
    a584:	000b883a 	mov	r5,zero
    a588:	2009d7fa 	srai	r4,r4,31
    a58c:	80c6d83a 	srl	r3,r16,r3
    a590:	297fffc4 	addi	r5,r5,-1
    a594:	2c20703a 	and	r16,r5,r16
    a598:	8020c03a 	cmpne	r16,r16,zero
    a59c:	1906703a 	and	r3,r3,r4
    a5a0:	010007c4 	movi	r4,31
    a5a4:	80c6b03a 	or	r3,r16,r3
    a5a8:	2085c83a 	sub	r2,r4,r2
    a5ac:	d809883a 	mov	r4,sp
    a5b0:	d8c00315 	stw	r3,12(sp)
    a5b4:	d8000415 	stw	zero,16(sp)
    a5b8:	d8800215 	stw	r2,8(sp)
    a5bc:	000a6ac0 	call	a6ac <__pack_d>
    a5c0:	dfc00617 	ldw	ra,24(sp)
    a5c4:	dc000517 	ldw	r16,20(sp)
    a5c8:	dec00704 	addi	sp,sp,28
    a5cc:	f800283a 	ret
    a5d0:	dc000315 	stw	r16,12(sp)
    a5d4:	d8000415 	stw	zero,16(sp)
    a5d8:	003fd906 	br	a540 <__alt_mem_onchip_flash_0_data+0xf0f0a540>
    a5dc:	800ad07a 	srli	r5,r16,1
    a5e0:	010007c4 	movi	r4,31
    a5e4:	20c9c83a 	sub	r4,r4,r3
    a5e8:	2908d83a 	srl	r4,r5,r4
    a5ec:	80e0983a 	sll	r16,r16,r3
    a5f0:	003fce06 	br	a52c <__alt_mem_onchip_flash_0_data+0xf0f0a52c>
    a5f4:	01400044 	movi	r5,1
    a5f8:	28ca983a 	sll	r5,r5,r3
    a5fc:	003fe206 	br	a588 <__alt_mem_onchip_flash_0_data+0xf0f0a588>

0000a600 <__clzsi2>:
    a600:	00bfffd4 	movui	r2,65535
    a604:	11000b36 	bltu	r2,r4,a634 <__clzsi2+0x34>
    a608:	00803fc4 	movi	r2,255
    a60c:	11001e2e 	bgeu	r2,r4,a688 <__clzsi2+0x88>
    a610:	00c00204 	movi	r3,8
    a614:	20c8d83a 	srl	r4,r4,r3
    a618:	00c000f4 	movhi	r3,3
    a61c:	18c17704 	addi	r3,r3,1500
    a620:	00800604 	movi	r2,24
    a624:	1909883a 	add	r4,r3,r4
    a628:	20c00003 	ldbu	r3,0(r4)
    a62c:	10c5c83a 	sub	r2,r2,r3
    a630:	f800283a 	ret
    a634:	00804034 	movhi	r2,256
    a638:	10bfffc4 	addi	r2,r2,-1
    a63c:	11000936 	bltu	r2,r4,a664 <__clzsi2+0x64>
    a640:	00800404 	movi	r2,16
    a644:	1007883a 	mov	r3,r2
    a648:	20c8d83a 	srl	r4,r4,r3
    a64c:	00c000f4 	movhi	r3,3
    a650:	18c17704 	addi	r3,r3,1500
    a654:	1909883a 	add	r4,r3,r4
    a658:	20c00003 	ldbu	r3,0(r4)
    a65c:	10c5c83a 	sub	r2,r2,r3
    a660:	f800283a 	ret
    a664:	00c00604 	movi	r3,24
    a668:	20c8d83a 	srl	r4,r4,r3
    a66c:	00c000f4 	movhi	r3,3
    a670:	18c17704 	addi	r3,r3,1500
    a674:	00800204 	movi	r2,8
    a678:	1909883a 	add	r4,r3,r4
    a67c:	20c00003 	ldbu	r3,0(r4)
    a680:	10c5c83a 	sub	r2,r2,r3
    a684:	f800283a 	ret
    a688:	0007883a 	mov	r3,zero
    a68c:	20c8d83a 	srl	r4,r4,r3
    a690:	00c000f4 	movhi	r3,3
    a694:	18c17704 	addi	r3,r3,1500
    a698:	00800804 	movi	r2,32
    a69c:	1909883a 	add	r4,r3,r4
    a6a0:	20c00003 	ldbu	r3,0(r4)
    a6a4:	10c5c83a 	sub	r2,r2,r3
    a6a8:	f800283a 	ret

0000a6ac <__pack_d>:
    a6ac:	20800017 	ldw	r2,0(r4)
    a6b0:	defff804 	addi	sp,sp,-32
    a6b4:	dcc00315 	stw	r19,12(sp)
    a6b8:	dc800215 	stw	r18,8(sp)
    a6bc:	dfc00715 	stw	ra,28(sp)
    a6c0:	dd800615 	stw	r22,24(sp)
    a6c4:	dd400515 	stw	r21,20(sp)
    a6c8:	dd000415 	stw	r20,16(sp)
    a6cc:	dc400115 	stw	r17,4(sp)
    a6d0:	dc000015 	stw	r16,0(sp)
    a6d4:	04800044 	movi	r18,1
    a6d8:	24400317 	ldw	r17,12(r4)
    a6dc:	24000417 	ldw	r16,16(r4)
    a6e0:	24c00117 	ldw	r19,4(r4)
    a6e4:	9080422e 	bgeu	r18,r2,a7f0 <__pack_d+0x144>
    a6e8:	00c00104 	movi	r3,4
    a6ec:	10c03c26 	beq	r2,r3,a7e0 <__pack_d+0x134>
    a6f0:	00c00084 	movi	r3,2
    a6f4:	10c01926 	beq	r2,r3,a75c <__pack_d+0xb0>
    a6f8:	8c04b03a 	or	r2,r17,r16
    a6fc:	10001726 	beq	r2,zero,a75c <__pack_d+0xb0>
    a700:	21000217 	ldw	r4,8(r4)
    a704:	00bf0084 	movi	r2,-1022
    a708:	20804016 	blt	r4,r2,a80c <__pack_d+0x160>
    a70c:	0080ffc4 	movi	r2,1023
    a710:	11003316 	blt	r2,r4,a7e0 <__pack_d+0x134>
    a714:	88803fcc 	andi	r2,r17,255
    a718:	00c02004 	movi	r3,128
    a71c:	10c02926 	beq	r2,r3,a7c4 <__pack_d+0x118>
    a720:	88801fc4 	addi	r2,r17,127
    a724:	1463803a 	cmpltu	r17,r2,r17
    a728:	8c21883a 	add	r16,r17,r16
    a72c:	1023883a 	mov	r17,r2
    a730:	00880034 	movhi	r2,8192
    a734:	10bfffc4 	addi	r2,r2,-1
    a738:	14001c36 	bltu	r2,r16,a7ac <__pack_d+0x100>
    a73c:	2100ffc4 	addi	r4,r4,1023
    a740:	8006963a 	slli	r3,r16,24
    a744:	8804d23a 	srli	r2,r17,8
    a748:	8020913a 	slli	r16,r16,4
    a74c:	2101ffcc 	andi	r4,r4,2047
    a750:	1884b03a 	or	r2,r3,r2
    a754:	8020d33a 	srli	r16,r16,12
    a758:	00000306 	br	a768 <__pack_d+0xbc>
    a75c:	0009883a 	mov	r4,zero
    a760:	0005883a 	mov	r2,zero
    a764:	0021883a 	mov	r16,zero
    a768:	2008953a 	slli	r4,r4,20
    a76c:	982697fa 	slli	r19,r19,31
    a770:	00c00434 	movhi	r3,16
    a774:	18ffffc4 	addi	r3,r3,-1
    a778:	80e0703a 	and	r16,r16,r3
    a77c:	8106b03a 	or	r3,r16,r4
    a780:	1cc6b03a 	or	r3,r3,r19
    a784:	dfc00717 	ldw	ra,28(sp)
    a788:	dd800617 	ldw	r22,24(sp)
    a78c:	dd400517 	ldw	r21,20(sp)
    a790:	dd000417 	ldw	r20,16(sp)
    a794:	dcc00317 	ldw	r19,12(sp)
    a798:	dc800217 	ldw	r18,8(sp)
    a79c:	dc400117 	ldw	r17,4(sp)
    a7a0:	dc000017 	ldw	r16,0(sp)
    a7a4:	dec00804 	addi	sp,sp,32
    a7a8:	f800283a 	ret
    a7ac:	800697fa 	slli	r3,r16,31
    a7b0:	8804d07a 	srli	r2,r17,1
    a7b4:	21010004 	addi	r4,r4,1024
    a7b8:	8020d07a 	srli	r16,r16,1
    a7bc:	18a2b03a 	or	r17,r3,r2
    a7c0:	003fdf06 	br	a740 <__alt_mem_onchip_flash_0_data+0xf0f0a740>
    a7c4:	88c0400c 	andi	r3,r17,256
    a7c8:	183fd926 	beq	r3,zero,a730 <__alt_mem_onchip_flash_0_data+0xf0f0a730>
    a7cc:	8885883a 	add	r2,r17,r2
    a7d0:	1463803a 	cmpltu	r17,r2,r17
    a7d4:	8c21883a 	add	r16,r17,r16
    a7d8:	1023883a 	mov	r17,r2
    a7dc:	003fd406 	br	a730 <__alt_mem_onchip_flash_0_data+0xf0f0a730>
    a7e0:	0101ffc4 	movi	r4,2047
    a7e4:	0005883a 	mov	r2,zero
    a7e8:	0021883a 	mov	r16,zero
    a7ec:	003fde06 	br	a768 <__alt_mem_onchip_flash_0_data+0xf0f0a768>
    a7f0:	84000234 	orhi	r16,r16,8
    a7f4:	00c00434 	movhi	r3,16
    a7f8:	18ffffc4 	addi	r3,r3,-1
    a7fc:	8805883a 	mov	r2,r17
    a800:	80e0703a 	and	r16,r16,r3
    a804:	0101ffc4 	movi	r4,2047
    a808:	003fd706 	br	a768 <__alt_mem_onchip_flash_0_data+0xf0f0a768>
    a80c:	1129c83a 	sub	r20,r2,r4
    a810:	00800e04 	movi	r2,56
    a814:	15002716 	blt	r2,r20,a8b4 <__pack_d+0x208>
    a818:	800b883a 	mov	r5,r16
    a81c:	a00d883a 	mov	r6,r20
    a820:	8809883a 	mov	r4,r17
    a824:	000aaa40 	call	aaa4 <__lshrdi3>
    a828:	9009883a 	mov	r4,r18
    a82c:	000b883a 	mov	r5,zero
    a830:	a00d883a 	mov	r6,r20
    a834:	102d883a 	mov	r22,r2
    a838:	182b883a 	mov	r21,r3
    a83c:	000aae80 	call	aae8 <__ashldi3>
    a840:	1009003a 	cmpeq	r4,r2,zero
    a844:	1907c83a 	sub	r3,r3,r4
    a848:	10bfffc4 	addi	r2,r2,-1
    a84c:	1c20703a 	and	r16,r3,r16
    a850:	1444703a 	and	r2,r2,r17
    a854:	1404b03a 	or	r2,r2,r16
    a858:	1004c03a 	cmpne	r2,r2,zero
    a85c:	1584b03a 	or	r2,r2,r22
    a860:	11003fcc 	andi	r4,r2,255
    a864:	01402004 	movi	r5,128
    a868:	a807883a 	mov	r3,r21
    a86c:	2140131e 	bne	r4,r5,a8bc <__pack_d+0x210>
    a870:	1140400c 	andi	r5,r2,256
    a874:	28000426 	beq	r5,zero,a888 <__pack_d+0x1dc>
    a878:	1109883a 	add	r4,r2,r4
    a87c:	2085803a 	cmpltu	r2,r4,r2
    a880:	1547883a 	add	r3,r2,r21
    a884:	2005883a 	mov	r2,r4
    a888:	1808963a 	slli	r4,r3,24
    a88c:	1004d23a 	srli	r2,r2,8
    a890:	1820913a 	slli	r16,r3,4
    a894:	01440034 	movhi	r5,4096
    a898:	297fffc4 	addi	r5,r5,-1
    a89c:	2084b03a 	or	r2,r4,r2
    a8a0:	8020d33a 	srli	r16,r16,12
    a8a4:	01000044 	movi	r4,1
    a8a8:	28ffaf36 	bltu	r5,r3,a768 <__alt_mem_onchip_flash_0_data+0xf0f0a768>
    a8ac:	0009883a 	mov	r4,zero
    a8b0:	003fad06 	br	a768 <__alt_mem_onchip_flash_0_data+0xf0f0a768>
    a8b4:	0005883a 	mov	r2,zero
    a8b8:	0007883a 	mov	r3,zero
    a8bc:	11001fc4 	addi	r4,r2,127
    a8c0:	2085803a 	cmpltu	r2,r4,r2
    a8c4:	10c7883a 	add	r3,r2,r3
    a8c8:	2005883a 	mov	r2,r4
    a8cc:	003fee06 	br	a888 <__alt_mem_onchip_flash_0_data+0xf0f0a888>

0000a8d0 <__unpack_d>:
    a8d0:	21800117 	ldw	r6,4(r4)
    a8d4:	20c00017 	ldw	r3,0(r4)
    a8d8:	3004d7fa 	srli	r2,r6,31
    a8dc:	3008d53a 	srli	r4,r6,20
    a8e0:	28800115 	stw	r2,4(r5)
    a8e4:	2101ffcc 	andi	r4,r4,2047
    a8e8:	00800434 	movhi	r2,16
    a8ec:	10bfffc4 	addi	r2,r2,-1
    a8f0:	3084703a 	and	r2,r6,r2
    a8f4:	20001a1e 	bne	r4,zero,a960 <__unpack_d+0x90>
    a8f8:	1888b03a 	or	r4,r3,r2
    a8fc:	20002626 	beq	r4,zero,a998 <__unpack_d+0xc8>
    a900:	1808d63a 	srli	r4,r3,24
    a904:	1004923a 	slli	r2,r2,8
    a908:	01bf0084 	movi	r6,-1022
    a90c:	29800215 	stw	r6,8(r5)
    a910:	2084b03a 	or	r2,r4,r2
    a914:	010000c4 	movi	r4,3
    a918:	29000015 	stw	r4,0(r5)
    a91c:	02040034 	movhi	r8,4096
    a920:	423fffc4 	addi	r8,r8,-1
    a924:	1806923a 	slli	r3,r3,8
    a928:	40801836 	bltu	r8,r2,a98c <__unpack_d+0xbc>
    a92c:	013f0044 	movi	r4,-1023
    a930:	18cd883a 	add	r6,r3,r3
    a934:	30c7803a 	cmpltu	r3,r6,r3
    a938:	1085883a 	add	r2,r2,r2
    a93c:	1885883a 	add	r2,r3,r2
    a940:	200f883a 	mov	r7,r4
    a944:	3007883a 	mov	r3,r6
    a948:	213fffc4 	addi	r4,r4,-1
    a94c:	40bff82e 	bgeu	r8,r2,a930 <__alt_mem_onchip_flash_0_data+0xf0f0a930>
    a950:	29c00215 	stw	r7,8(r5)
    a954:	28c00315 	stw	r3,12(r5)
    a958:	28800415 	stw	r2,16(r5)
    a95c:	f800283a 	ret
    a960:	01c1ffc4 	movi	r7,2047
    a964:	21c00f26 	beq	r4,r7,a9a4 <__unpack_d+0xd4>
    a968:	180cd63a 	srli	r6,r3,24
    a96c:	1004923a 	slli	r2,r2,8
    a970:	213f0044 	addi	r4,r4,-1023
    a974:	1806923a 	slli	r3,r3,8
    a978:	3084b03a 	or	r2,r6,r2
    a97c:	29000215 	stw	r4,8(r5)
    a980:	010000c4 	movi	r4,3
    a984:	10840034 	orhi	r2,r2,4096
    a988:	29000015 	stw	r4,0(r5)
    a98c:	28c00315 	stw	r3,12(r5)
    a990:	28800415 	stw	r2,16(r5)
    a994:	f800283a 	ret
    a998:	00800084 	movi	r2,2
    a99c:	28800015 	stw	r2,0(r5)
    a9a0:	f800283a 	ret
    a9a4:	1888b03a 	or	r4,r3,r2
    a9a8:	20000526 	beq	r4,zero,a9c0 <__unpack_d+0xf0>
    a9ac:	3180022c 	andhi	r6,r6,8
    a9b0:	30000626 	beq	r6,zero,a9cc <__unpack_d+0xfc>
    a9b4:	01000044 	movi	r4,1
    a9b8:	29000015 	stw	r4,0(r5)
    a9bc:	003ff306 	br	a98c <__alt_mem_onchip_flash_0_data+0xf0f0a98c>
    a9c0:	00800104 	movi	r2,4
    a9c4:	28800015 	stw	r2,0(r5)
    a9c8:	f800283a 	ret
    a9cc:	28000015 	stw	zero,0(r5)
    a9d0:	003fee06 	br	a98c <__alt_mem_onchip_flash_0_data+0xf0f0a98c>

0000a9d4 <__fpcmp_parts_d>:
    a9d4:	20c00017 	ldw	r3,0(r4)
    a9d8:	00800044 	movi	r2,1
    a9dc:	10c0142e 	bgeu	r2,r3,aa30 <__fpcmp_parts_d+0x5c>
    a9e0:	29800017 	ldw	r6,0(r5)
    a9e4:	1180122e 	bgeu	r2,r6,aa30 <__fpcmp_parts_d+0x5c>
    a9e8:	01c00104 	movi	r7,4
    a9ec:	19c02826 	beq	r3,r7,aa90 <__fpcmp_parts_d+0xbc>
    a9f0:	31c00926 	beq	r6,r7,aa18 <__fpcmp_parts_d+0x44>
    a9f4:	01c00084 	movi	r7,2
    a9f8:	19c00626 	beq	r3,r7,aa14 <__fpcmp_parts_d+0x40>
    a9fc:	31c00a26 	beq	r6,r7,aa28 <__fpcmp_parts_d+0x54>
    aa00:	20c00117 	ldw	r3,4(r4)
    aa04:	29800117 	ldw	r6,4(r5)
    aa08:	19800b26 	beq	r3,r6,aa38 <__fpcmp_parts_d+0x64>
    aa0c:	1800041e 	bne	r3,zero,aa20 <__fpcmp_parts_d+0x4c>
    aa10:	f800283a 	ret
    aa14:	30c01a26 	beq	r6,r3,aa80 <__fpcmp_parts_d+0xac>
    aa18:	28800117 	ldw	r2,4(r5)
    aa1c:	1000041e 	bne	r2,zero,aa30 <__fpcmp_parts_d+0x5c>
    aa20:	00bfffc4 	movi	r2,-1
    aa24:	f800283a 	ret
    aa28:	20800117 	ldw	r2,4(r4)
    aa2c:	103ffc1e 	bne	r2,zero,aa20 <__alt_mem_onchip_flash_0_data+0xf0f0aa20>
    aa30:	00800044 	movi	r2,1
    aa34:	f800283a 	ret
    aa38:	21c00217 	ldw	r7,8(r4)
    aa3c:	29800217 	ldw	r6,8(r5)
    aa40:	31c0020e 	bge	r6,r7,aa4c <__fpcmp_parts_d+0x78>
    aa44:	183ff61e 	bne	r3,zero,aa20 <__alt_mem_onchip_flash_0_data+0xf0f0aa20>
    aa48:	f800283a 	ret
    aa4c:	39800a16 	blt	r7,r6,aa78 <__fpcmp_parts_d+0xa4>
    aa50:	20800417 	ldw	r2,16(r4)
    aa54:	29800417 	ldw	r6,16(r5)
    aa58:	21c00317 	ldw	r7,12(r4)
    aa5c:	29000317 	ldw	r4,12(r5)
    aa60:	30800936 	bltu	r6,r2,aa88 <__fpcmp_parts_d+0xb4>
    aa64:	1180011e 	bne	r2,r6,aa6c <__fpcmp_parts_d+0x98>
    aa68:	21c00736 	bltu	r4,r7,aa88 <__fpcmp_parts_d+0xb4>
    aa6c:	11800236 	bltu	r2,r6,aa78 <__fpcmp_parts_d+0xa4>
    aa70:	3080031e 	bne	r6,r2,aa80 <__fpcmp_parts_d+0xac>
    aa74:	3900022e 	bgeu	r7,r4,aa80 <__fpcmp_parts_d+0xac>
    aa78:	183fe926 	beq	r3,zero,aa20 <__alt_mem_onchip_flash_0_data+0xf0f0aa20>
    aa7c:	003fec06 	br	aa30 <__alt_mem_onchip_flash_0_data+0xf0f0aa30>
    aa80:	0005883a 	mov	r2,zero
    aa84:	f800283a 	ret
    aa88:	183fe926 	beq	r3,zero,aa30 <__alt_mem_onchip_flash_0_data+0xf0f0aa30>
    aa8c:	003fe406 	br	aa20 <__alt_mem_onchip_flash_0_data+0xf0f0aa20>
    aa90:	30ffe51e 	bne	r6,r3,aa28 <__alt_mem_onchip_flash_0_data+0xf0f0aa28>
    aa94:	28c00117 	ldw	r3,4(r5)
    aa98:	20800117 	ldw	r2,4(r4)
    aa9c:	1885c83a 	sub	r2,r3,r2
    aaa0:	f800283a 	ret

0000aaa4 <__lshrdi3>:
    aaa4:	2005883a 	mov	r2,r4
    aaa8:	2807883a 	mov	r3,r5
    aaac:	30000826 	beq	r6,zero,aad0 <__lshrdi3+0x2c>
    aab0:	01000804 	movi	r4,32
    aab4:	2189c83a 	sub	r4,r4,r6
    aab8:	0100060e 	bge	zero,r4,aad4 <__lshrdi3+0x30>
    aabc:	1184d83a 	srl	r2,r2,r6
    aac0:	2908983a 	sll	r4,r5,r4
    aac4:	298cd83a 	srl	r6,r5,r6
    aac8:	2084b03a 	or	r2,r4,r2
    aacc:	3007883a 	mov	r3,r6
    aad0:	f800283a 	ret
    aad4:	0105c83a 	sub	r2,zero,r4
    aad8:	000d883a 	mov	r6,zero
    aadc:	2884d83a 	srl	r2,r5,r2
    aae0:	3007883a 	mov	r3,r6
    aae4:	003ffa06 	br	aad0 <__alt_mem_onchip_flash_0_data+0xf0f0aad0>

0000aae8 <__ashldi3>:
    aae8:	2005883a 	mov	r2,r4
    aaec:	2807883a 	mov	r3,r5
    aaf0:	30000826 	beq	r6,zero,ab14 <__ashldi3+0x2c>
    aaf4:	01000804 	movi	r4,32
    aaf8:	2189c83a 	sub	r4,r4,r6
    aafc:	0100060e 	bge	zero,r4,ab18 <__ashldi3+0x30>
    ab00:	1108d83a 	srl	r4,r2,r4
    ab04:	2986983a 	sll	r3,r5,r6
    ab08:	118c983a 	sll	r6,r2,r6
    ab0c:	20c6b03a 	or	r3,r4,r3
    ab10:	3005883a 	mov	r2,r6
    ab14:	f800283a 	ret
    ab18:	0107c83a 	sub	r3,zero,r4
    ab1c:	000d883a 	mov	r6,zero
    ab20:	10c6983a 	sll	r3,r2,r3
    ab24:	3005883a 	mov	r2,r6
    ab28:	003ffa06 	br	ab14 <__alt_mem_onchip_flash_0_data+0xf0f0ab14>

0000ab2c <close>:
    ab2c:	defffd04 	addi	sp,sp,-12
    ab30:	dc000015 	stw	r16,0(sp)
    ab34:	dfc00215 	stw	ra,8(sp)
    ab38:	dc400115 	stw	r17,4(sp)
    ab3c:	2021883a 	mov	r16,r4
    ab40:	20001a16 	blt	r4,zero,abac <close+0x80>
    ab44:	20c00324 	muli	r3,r4,12
    ab48:	008000f4 	movhi	r2,3
    ab4c:	1083e304 	addi	r2,r2,3980
    ab50:	1887883a 	add	r3,r3,r2
    ab54:	18800017 	ldw	r2,0(r3)
    ab58:	10800417 	ldw	r2,16(r2)
    ab5c:	10000c26 	beq	r2,zero,ab90 <close+0x64>
    ab60:	1809883a 	mov	r4,r3
    ab64:	103ee83a 	callr	r2
    ab68:	8009883a 	mov	r4,r16
    ab6c:	1023883a 	mov	r17,r2
    ab70:	000b0080 	call	b008 <alt_release_fd>
    ab74:	0005883a 	mov	r2,zero
    ab78:	88001816 	blt	r17,zero,abdc <close+0xb0>
    ab7c:	dfc00217 	ldw	ra,8(sp)
    ab80:	dc400117 	ldw	r17,4(sp)
    ab84:	dc000017 	ldw	r16,0(sp)
    ab88:	dec00304 	addi	sp,sp,12
    ab8c:	f800283a 	ret
    ab90:	000b0080 	call	b008 <alt_release_fd>
    ab94:	0005883a 	mov	r2,zero
    ab98:	dfc00217 	ldw	ra,8(sp)
    ab9c:	dc400117 	ldw	r17,4(sp)
    aba0:	dc000017 	ldw	r16,0(sp)
    aba4:	dec00304 	addi	sp,sp,12
    aba8:	f800283a 	ret
    abac:	008000f4 	movhi	r2,3
    abb0:	1088b804 	addi	r2,r2,8928
    abb4:	10800017 	ldw	r2,0(r2)
    abb8:	10000226 	beq	r2,zero,abc4 <close+0x98>
    abbc:	103ee83a 	callr	r2
    abc0:	00000206 	br	abcc <close+0xa0>
    abc4:	008000f4 	movhi	r2,3
    abc8:	108fb604 	addi	r2,r2,16088
    abcc:	00c01444 	movi	r3,81
    abd0:	10c00015 	stw	r3,0(r2)
    abd4:	00bfffc4 	movi	r2,-1
    abd8:	003fe806 	br	ab7c <__alt_mem_onchip_flash_0_data+0xf0f0ab7c>
    abdc:	008000f4 	movhi	r2,3
    abe0:	1088b804 	addi	r2,r2,8928
    abe4:	10800017 	ldw	r2,0(r2)
    abe8:	10000526 	beq	r2,zero,ac00 <close+0xd4>
    abec:	103ee83a 	callr	r2
    abf0:	0463c83a 	sub	r17,zero,r17
    abf4:	14400015 	stw	r17,0(r2)
    abf8:	00bfffc4 	movi	r2,-1
    abfc:	003fdf06 	br	ab7c <__alt_mem_onchip_flash_0_data+0xf0f0ab7c>
    ac00:	008000f4 	movhi	r2,3
    ac04:	108fb604 	addi	r2,r2,16088
    ac08:	003ff906 	br	abf0 <__alt_mem_onchip_flash_0_data+0xf0f0abf0>

0000ac0c <alt_dev_null_write>:
    ac0c:	3005883a 	mov	r2,r6
    ac10:	f800283a 	ret

0000ac14 <fstat>:
    ac14:	deffff04 	addi	sp,sp,-4
    ac18:	dfc00015 	stw	ra,0(sp)
    ac1c:	20001016 	blt	r4,zero,ac60 <fstat+0x4c>
    ac20:	21000324 	muli	r4,r4,12
    ac24:	008000f4 	movhi	r2,3
    ac28:	1083e304 	addi	r2,r2,3980
    ac2c:	2089883a 	add	r4,r4,r2
    ac30:	20800017 	ldw	r2,0(r4)
    ac34:	10800817 	ldw	r2,32(r2)
    ac38:	10000326 	beq	r2,zero,ac48 <fstat+0x34>
    ac3c:	dfc00017 	ldw	ra,0(sp)
    ac40:	dec00104 	addi	sp,sp,4
    ac44:	1000683a 	jmp	r2
    ac48:	00880004 	movi	r2,8192
    ac4c:	28800115 	stw	r2,4(r5)
    ac50:	0005883a 	mov	r2,zero
    ac54:	dfc00017 	ldw	ra,0(sp)
    ac58:	dec00104 	addi	sp,sp,4
    ac5c:	f800283a 	ret
    ac60:	008000f4 	movhi	r2,3
    ac64:	1088b804 	addi	r2,r2,8928
    ac68:	10800017 	ldw	r2,0(r2)
    ac6c:	10000226 	beq	r2,zero,ac78 <fstat+0x64>
    ac70:	103ee83a 	callr	r2
    ac74:	00000206 	br	ac80 <fstat+0x6c>
    ac78:	008000f4 	movhi	r2,3
    ac7c:	108fb604 	addi	r2,r2,16088
    ac80:	00c01444 	movi	r3,81
    ac84:	10c00015 	stw	r3,0(r2)
    ac88:	00bfffc4 	movi	r2,-1
    ac8c:	003ff106 	br	ac54 <__alt_mem_onchip_flash_0_data+0xf0f0ac54>

0000ac90 <isatty>:
    ac90:	defff004 	addi	sp,sp,-64
    ac94:	dfc00f15 	stw	ra,60(sp)
    ac98:	20000e16 	blt	r4,zero,acd4 <isatty+0x44>
    ac9c:	20800324 	muli	r2,r4,12
    aca0:	00c000f4 	movhi	r3,3
    aca4:	18c3e304 	addi	r3,r3,3980
    aca8:	10c5883a 	add	r2,r2,r3
    acac:	10800017 	ldw	r2,0(r2)
    acb0:	10800817 	ldw	r2,32(r2)
    acb4:	10001226 	beq	r2,zero,ad00 <isatty+0x70>
    acb8:	d80b883a 	mov	r5,sp
    acbc:	000ac140 	call	ac14 <fstat>
    acc0:	d8800117 	ldw	r2,4(sp)
    acc4:	10880020 	cmpeqi	r2,r2,8192
    acc8:	dfc00f17 	ldw	ra,60(sp)
    accc:	dec01004 	addi	sp,sp,64
    acd0:	f800283a 	ret
    acd4:	008000f4 	movhi	r2,3
    acd8:	1088b804 	addi	r2,r2,8928
    acdc:	10800017 	ldw	r2,0(r2)
    ace0:	10000b26 	beq	r2,zero,ad10 <isatty+0x80>
    ace4:	103ee83a 	callr	r2
    ace8:	00c01444 	movi	r3,81
    acec:	10c00015 	stw	r3,0(r2)
    acf0:	0005883a 	mov	r2,zero
    acf4:	dfc00f17 	ldw	ra,60(sp)
    acf8:	dec01004 	addi	sp,sp,64
    acfc:	f800283a 	ret
    ad00:	00800044 	movi	r2,1
    ad04:	dfc00f17 	ldw	ra,60(sp)
    ad08:	dec01004 	addi	sp,sp,64
    ad0c:	f800283a 	ret
    ad10:	008000f4 	movhi	r2,3
    ad14:	108fb604 	addi	r2,r2,16088
    ad18:	003ff306 	br	ace8 <__alt_mem_onchip_flash_0_data+0xf0f0ace8>

0000ad1c <alt_load>:
    ad1c:	deffff04 	addi	sp,sp,-4
    ad20:	dfc00015 	stw	ra,0(sp)
    ad24:	014000f4 	movhi	r5,3
    ad28:	2941de04 	addi	r5,r5,1912
    ad2c:	018000f4 	movhi	r6,3
    ad30:	3188c304 	addi	r6,r6,8972
    ad34:	29801026 	beq	r5,r6,ad78 <alt_load+0x5c>
    ad38:	008000f4 	movhi	r2,3
    ad3c:	1088c304 	addi	r2,r2,8972
    ad40:	28800d26 	beq	r5,r2,ad78 <alt_load+0x5c>
    ad44:	29c00104 	addi	r7,r5,4
    ad48:	11cfc83a 	sub	r7,r2,r7
    ad4c:	380ed0ba 	srli	r7,r7,2
    ad50:	0005883a 	mov	r2,zero
    ad54:	39c00044 	addi	r7,r7,1
    ad58:	39cf883a 	add	r7,r7,r7
    ad5c:	39cf883a 	add	r7,r7,r7
    ad60:	3087883a 	add	r3,r6,r2
    ad64:	19000017 	ldw	r4,0(r3)
    ad68:	2887883a 	add	r3,r5,r2
    ad6c:	10800104 	addi	r2,r2,4
    ad70:	19000015 	stw	r4,0(r3)
    ad74:	11fffa1e 	bne	r2,r7,ad60 <__alt_mem_onchip_flash_0_data+0xf0f0ad60>
    ad78:	01400034 	movhi	r5,0
    ad7c:	29400804 	addi	r5,r5,32
    ad80:	01800034 	movhi	r6,0
    ad84:	31800804 	addi	r6,r6,32
    ad88:	29801026 	beq	r5,r6,adcc <alt_load+0xb0>
    ad8c:	00800034 	movhi	r2,0
    ad90:	10806304 	addi	r2,r2,396
    ad94:	28800d26 	beq	r5,r2,adcc <alt_load+0xb0>
    ad98:	29c00104 	addi	r7,r5,4
    ad9c:	11cfc83a 	sub	r7,r2,r7
    ada0:	380ed0ba 	srli	r7,r7,2
    ada4:	0005883a 	mov	r2,zero
    ada8:	39c00044 	addi	r7,r7,1
    adac:	39cf883a 	add	r7,r7,r7
    adb0:	39cf883a 	add	r7,r7,r7
    adb4:	3087883a 	add	r3,r6,r2
    adb8:	19000017 	ldw	r4,0(r3)
    adbc:	2887883a 	add	r3,r5,r2
    adc0:	10800104 	addi	r2,r2,4
    adc4:	19000015 	stw	r4,0(r3)
    adc8:	11fffa1e 	bne	r2,r7,adb4 <__alt_mem_onchip_flash_0_data+0xf0f0adb4>
    adcc:	01400074 	movhi	r5,1
    add0:	29742004 	addi	r5,r5,-12160
    add4:	01800074 	movhi	r6,1
    add8:	31b42004 	addi	r6,r6,-12160
    addc:	29801026 	beq	r5,r6,ae20 <alt_load+0x104>
    ade0:	008000f4 	movhi	r2,3
    ade4:	1081de04 	addi	r2,r2,1912
    ade8:	28800d26 	beq	r5,r2,ae20 <alt_load+0x104>
    adec:	29c00104 	addi	r7,r5,4
    adf0:	11cfc83a 	sub	r7,r2,r7
    adf4:	380ed0ba 	srli	r7,r7,2
    adf8:	0005883a 	mov	r2,zero
    adfc:	39c00044 	addi	r7,r7,1
    ae00:	39cf883a 	add	r7,r7,r7
    ae04:	39cf883a 	add	r7,r7,r7
    ae08:	3087883a 	add	r3,r6,r2
    ae0c:	19000017 	ldw	r4,0(r3)
    ae10:	2887883a 	add	r3,r5,r2
    ae14:	10800104 	addi	r2,r2,4
    ae18:	19000015 	stw	r4,0(r3)
    ae1c:	11fffa1e 	bne	r2,r7,ae08 <__alt_mem_onchip_flash_0_data+0xf0f0ae08>
    ae20:	000c2840 	call	c284 <alt_dcache_flush_all>
    ae24:	dfc00017 	ldw	ra,0(sp)
    ae28:	dec00104 	addi	sp,sp,4
    ae2c:	000c4c41 	jmpi	c4c4 <alt_icache_flush_all>

0000ae30 <lseek>:
    ae30:	defffe04 	addi	sp,sp,-8
    ae34:	dfc00115 	stw	ra,4(sp)
    ae38:	dc000015 	stw	r16,0(sp)
    ae3c:	20000d16 	blt	r4,zero,ae74 <lseek+0x44>
    ae40:	21000324 	muli	r4,r4,12
    ae44:	008000f4 	movhi	r2,3
    ae48:	1083e304 	addi	r2,r2,3980
    ae4c:	2089883a 	add	r4,r4,r2
    ae50:	20800017 	ldw	r2,0(r4)
    ae54:	10800717 	ldw	r2,28(r2)
    ae58:	10000f26 	beq	r2,zero,ae98 <lseek+0x68>
    ae5c:	103ee83a 	callr	r2
    ae60:	10001216 	blt	r2,zero,aeac <lseek+0x7c>
    ae64:	dfc00117 	ldw	ra,4(sp)
    ae68:	dc000017 	ldw	r16,0(sp)
    ae6c:	dec00204 	addi	sp,sp,8
    ae70:	f800283a 	ret
    ae74:	04001444 	movi	r16,81
    ae78:	008000f4 	movhi	r2,3
    ae7c:	1088b804 	addi	r2,r2,8928
    ae80:	10800017 	ldw	r2,0(r2)
    ae84:	10000626 	beq	r2,zero,aea0 <lseek+0x70>
    ae88:	103ee83a 	callr	r2
    ae8c:	14000015 	stw	r16,0(r2)
    ae90:	00bfffc4 	movi	r2,-1
    ae94:	003ff306 	br	ae64 <__alt_mem_onchip_flash_0_data+0xf0f0ae64>
    ae98:	04002184 	movi	r16,134
    ae9c:	003ff606 	br	ae78 <__alt_mem_onchip_flash_0_data+0xf0f0ae78>
    aea0:	008000f4 	movhi	r2,3
    aea4:	108fb604 	addi	r2,r2,16088
    aea8:	003ff806 	br	ae8c <__alt_mem_onchip_flash_0_data+0xf0f0ae8c>
    aeac:	00a1c83a 	sub	r16,zero,r2
    aeb0:	003ff106 	br	ae78 <__alt_mem_onchip_flash_0_data+0xf0f0ae78>

0000aeb4 <alt_main>:
    aeb4:	defffe04 	addi	sp,sp,-8
    aeb8:	0009883a 	mov	r4,zero
    aebc:	dfc00115 	stw	ra,4(sp)
    aec0:	dc000015 	stw	r16,0(sp)
    aec4:	000b1bc0 	call	b1bc <alt_irq_init>
    aec8:	000b1dc0 	call	b1dc <alt_sys_init>
    aecc:	010000f4 	movhi	r4,3
    aed0:	2101ba04 	addi	r4,r4,1768
    aed4:	200b883a 	mov	r5,r4
    aed8:	200d883a 	mov	r6,r4
    aedc:	000c6440 	call	c644 <alt_io_redirect>
    aee0:	000c3080 	call	c308 <_do_ctors>
    aee4:	01000074 	movhi	r4,1
    aee8:	2130db04 	addi	r4,r4,-15508
    aeec:	000caec0 	call	caec <atexit>
    aef0:	d1270b17 	ldw	r4,-25556(gp)
    aef4:	d1670a17 	ldw	r5,-25560(gp)
    aef8:	d1a70917 	ldw	r6,-25564(gp)
    aefc:	00003e00 	call	3e0 <main>
    af00:	01000044 	movi	r4,1
    af04:	1021883a 	mov	r16,r2
    af08:	000ab2c0 	call	ab2c <close>
    af0c:	8009883a 	mov	r4,r16
    af10:	000cb000 	call	cb00 <exit>

0000af14 <__malloc_lock>:
    af14:	f800283a 	ret

0000af18 <__malloc_unlock>:
    af18:	f800283a 	ret

0000af1c <read>:
    af1c:	defffe04 	addi	sp,sp,-8
    af20:	dfc00115 	stw	ra,4(sp)
    af24:	dc000015 	stw	r16,0(sp)
    af28:	20001316 	blt	r4,zero,af78 <read+0x5c>
    af2c:	21000324 	muli	r4,r4,12
    af30:	008000f4 	movhi	r2,3
    af34:	1083e304 	addi	r2,r2,3980
    af38:	2089883a 	add	r4,r4,r2
    af3c:	20c00217 	ldw	r3,8(r4)
    af40:	00800044 	movi	r2,1
    af44:	18c000cc 	andi	r3,r3,3
    af48:	18801726 	beq	r3,r2,afa8 <read+0x8c>
    af4c:	20800017 	ldw	r2,0(r4)
    af50:	10800517 	ldw	r2,20(r2)
    af54:	10001426 	beq	r2,zero,afa8 <read+0x8c>
    af58:	103ee83a 	callr	r2
    af5c:	1021883a 	mov	r16,r2
    af60:	10001a16 	blt	r2,zero,afcc <read+0xb0>
    af64:	8005883a 	mov	r2,r16
    af68:	dfc00117 	ldw	ra,4(sp)
    af6c:	dc000017 	ldw	r16,0(sp)
    af70:	dec00204 	addi	sp,sp,8
    af74:	f800283a 	ret
    af78:	008000f4 	movhi	r2,3
    af7c:	1088b804 	addi	r2,r2,8928
    af80:	10800017 	ldw	r2,0(r2)
    af84:	10000226 	beq	r2,zero,af90 <read+0x74>
    af88:	103ee83a 	callr	r2
    af8c:	00000206 	br	af98 <read+0x7c>
    af90:	008000f4 	movhi	r2,3
    af94:	108fb604 	addi	r2,r2,16088
    af98:	00c01444 	movi	r3,81
    af9c:	10c00015 	stw	r3,0(r2)
    afa0:	043fffc4 	movi	r16,-1
    afa4:	003fef06 	br	af64 <__alt_mem_onchip_flash_0_data+0xf0f0af64>
    afa8:	008000f4 	movhi	r2,3
    afac:	1088b804 	addi	r2,r2,8928
    afb0:	10800017 	ldw	r2,0(r2)
    afb4:	10000e26 	beq	r2,zero,aff0 <read+0xd4>
    afb8:	103ee83a 	callr	r2
    afbc:	00c00344 	movi	r3,13
    afc0:	10c00015 	stw	r3,0(r2)
    afc4:	043fffc4 	movi	r16,-1
    afc8:	003fe606 	br	af64 <__alt_mem_onchip_flash_0_data+0xf0f0af64>
    afcc:	008000f4 	movhi	r2,3
    afd0:	1088b804 	addi	r2,r2,8928
    afd4:	10800017 	ldw	r2,0(r2)
    afd8:	10000826 	beq	r2,zero,affc <read+0xe0>
    afdc:	103ee83a 	callr	r2
    afe0:	0421c83a 	sub	r16,zero,r16
    afe4:	14000015 	stw	r16,0(r2)
    afe8:	043fffc4 	movi	r16,-1
    afec:	003fdd06 	br	af64 <__alt_mem_onchip_flash_0_data+0xf0f0af64>
    aff0:	008000f4 	movhi	r2,3
    aff4:	108fb604 	addi	r2,r2,16088
    aff8:	003ff006 	br	afbc <__alt_mem_onchip_flash_0_data+0xf0f0afbc>
    affc:	008000f4 	movhi	r2,3
    b000:	108fb604 	addi	r2,r2,16088
    b004:	003ff606 	br	afe0 <__alt_mem_onchip_flash_0_data+0xf0f0afe0>

0000b008 <alt_release_fd>:
    b008:	00800084 	movi	r2,2
    b00c:	1100060e 	bge	r2,r4,b028 <alt_release_fd+0x20>
    b010:	21000324 	muli	r4,r4,12
    b014:	008000f4 	movhi	r2,3
    b018:	1083e304 	addi	r2,r2,3980
    b01c:	1109883a 	add	r4,r2,r4
    b020:	20000215 	stw	zero,8(r4)
    b024:	20000015 	stw	zero,0(r4)
    b028:	f800283a 	ret

0000b02c <sbrk>:
    b02c:	0007303a 	rdctl	r3,status
    b030:	00bfff84 	movi	r2,-2
    b034:	1884703a 	and	r2,r3,r2
    b038:	1001703a 	wrctl	status,r2
    b03c:	d0a00b17 	ldw	r2,-32724(gp)
    b040:	017fff04 	movi	r5,-4
    b044:	108000c4 	addi	r2,r2,3
    b048:	1144703a 	and	r2,r2,r5
    b04c:	d0a00b15 	stw	r2,-32724(gp)
    b050:	1109883a 	add	r4,r2,r4
    b054:	01408034 	movhi	r5,512
    b058:	29400004 	addi	r5,r5,0
    b05c:	29000336 	bltu	r5,r4,b06c <sbrk+0x40>
    b060:	d1200b15 	stw	r4,-32724(gp)
    b064:	1801703a 	wrctl	status,r3
    b068:	f800283a 	ret
    b06c:	1801703a 	wrctl	status,r3
    b070:	00bfffc4 	movi	r2,-1
    b074:	f800283a 	ret

0000b078 <alt_uncached_malloc>:
    b078:	defffd04 	addi	sp,sp,-12
    b07c:	210007c4 	addi	r4,r4,31
    b080:	dc400115 	stw	r17,4(sp)
    b084:	2022d17a 	srli	r17,r4,5
    b088:	01000804 	movi	r4,32
    b08c:	dc000015 	stw	r16,0(sp)
    b090:	8822917a 	slli	r17,r17,5
    b094:	dfc00215 	stw	ra,8(sp)
    b098:	880b883a 	mov	r5,r17
    b09c:	000cb380 	call	cb38 <memalign>
    b0a0:	1021883a 	mov	r16,r2
    b0a4:	10000926 	beq	r2,zero,b0cc <alt_uncached_malloc+0x54>
    b0a8:	1009883a 	mov	r4,r2
    b0ac:	880b883a 	mov	r5,r17
    b0b0:	000c2440 	call	c244 <alt_dcache_flush>
    b0b4:	80a00034 	orhi	r2,r16,32768
    b0b8:	dfc00217 	ldw	ra,8(sp)
    b0bc:	dc400117 	ldw	r17,4(sp)
    b0c0:	dc000017 	ldw	r16,0(sp)
    b0c4:	dec00304 	addi	sp,sp,12
    b0c8:	f800283a 	ret
    b0cc:	0005883a 	mov	r2,zero
    b0d0:	003ff906 	br	b0b8 <__alt_mem_onchip_flash_0_data+0xf0f0b0b8>

0000b0d4 <write>:
    b0d4:	defffe04 	addi	sp,sp,-8
    b0d8:	dfc00115 	stw	ra,4(sp)
    b0dc:	dc000015 	stw	r16,0(sp)
    b0e0:	20001216 	blt	r4,zero,b12c <write+0x58>
    b0e4:	21000324 	muli	r4,r4,12
    b0e8:	008000f4 	movhi	r2,3
    b0ec:	1083e304 	addi	r2,r2,3980
    b0f0:	2089883a 	add	r4,r4,r2
    b0f4:	20800217 	ldw	r2,8(r4)
    b0f8:	108000cc 	andi	r2,r2,3
    b0fc:	10001726 	beq	r2,zero,b15c <write+0x88>
    b100:	20800017 	ldw	r2,0(r4)
    b104:	10800617 	ldw	r2,24(r2)
    b108:	10001426 	beq	r2,zero,b15c <write+0x88>
    b10c:	103ee83a 	callr	r2
    b110:	1021883a 	mov	r16,r2
    b114:	10001d16 	blt	r2,zero,b18c <write+0xb8>
    b118:	8005883a 	mov	r2,r16
    b11c:	dfc00117 	ldw	ra,4(sp)
    b120:	dc000017 	ldw	r16,0(sp)
    b124:	dec00204 	addi	sp,sp,8
    b128:	f800283a 	ret
    b12c:	008000f4 	movhi	r2,3
    b130:	1088b804 	addi	r2,r2,8928
    b134:	10800017 	ldw	r2,0(r2)
    b138:	10000226 	beq	r2,zero,b144 <write+0x70>
    b13c:	103ee83a 	callr	r2
    b140:	00000206 	br	b14c <write+0x78>
    b144:	008000f4 	movhi	r2,3
    b148:	108fb604 	addi	r2,r2,16088
    b14c:	00c01444 	movi	r3,81
    b150:	10c00015 	stw	r3,0(r2)
    b154:	043fffc4 	movi	r16,-1
    b158:	003fef06 	br	b118 <__alt_mem_onchip_flash_0_data+0xf0f0b118>
    b15c:	008000f4 	movhi	r2,3
    b160:	1088b804 	addi	r2,r2,8928
    b164:	10800017 	ldw	r2,0(r2)
    b168:	10000526 	beq	r2,zero,b180 <write+0xac>
    b16c:	103ee83a 	callr	r2
    b170:	00c00344 	movi	r3,13
    b174:	10c00015 	stw	r3,0(r2)
    b178:	043fffc4 	movi	r16,-1
    b17c:	003fe606 	br	b118 <__alt_mem_onchip_flash_0_data+0xf0f0b118>
    b180:	008000f4 	movhi	r2,3
    b184:	108fb604 	addi	r2,r2,16088
    b188:	003ff906 	br	b170 <__alt_mem_onchip_flash_0_data+0xf0f0b170>
    b18c:	008000f4 	movhi	r2,3
    b190:	1088b804 	addi	r2,r2,8928
    b194:	10800017 	ldw	r2,0(r2)
    b198:	10000526 	beq	r2,zero,b1b0 <write+0xdc>
    b19c:	103ee83a 	callr	r2
    b1a0:	0421c83a 	sub	r16,zero,r16
    b1a4:	14000015 	stw	r16,0(r2)
    b1a8:	043fffc4 	movi	r16,-1
    b1ac:	003fda06 	br	b118 <__alt_mem_onchip_flash_0_data+0xf0f0b118>
    b1b0:	008000f4 	movhi	r2,3
    b1b4:	108fb604 	addi	r2,r2,16088
    b1b8:	003ff906 	br	b1a0 <__alt_mem_onchip_flash_0_data+0xf0f0b1a0>

0000b1bc <alt_irq_init>:
    b1bc:	deffff04 	addi	sp,sp,-4
    b1c0:	dfc00015 	stw	ra,0(sp)
    b1c4:	000c9600 	call	c960 <altera_nios2_gen2_irq_init>
    b1c8:	00800044 	movi	r2,1
    b1cc:	1001703a 	wrctl	status,r2
    b1d0:	dfc00017 	ldw	ra,0(sp)
    b1d4:	dec00104 	addi	sp,sp,4
    b1d8:	f800283a 	ret

0000b1dc <alt_sys_init>:
    b1dc:	defffe04 	addi	sp,sp,-8
    b1e0:	01c0fa04 	movi	r7,1000
    b1e4:	01040034 	movhi	r4,4096
    b1e8:	21000804 	addi	r4,r4,32
    b1ec:	000b883a 	mov	r5,zero
    b1f0:	000d883a 	mov	r6,zero
    b1f4:	dfc00115 	stw	ra,4(sp)
    b1f8:	dc000015 	stw	r16,0(sp)
    b1fc:	000b8040 	call	b804 <alt_avalon_timer_sc_init>
    b200:	040000f4 	movhi	r16,3
    b204:	84045704 	addi	r16,r16,4444
    b208:	01800044 	movi	r6,1
    b20c:	8009883a 	mov	r4,r16
    b210:	000b883a 	mov	r5,zero
    b214:	000b3e80 	call	b3e8 <altera_avalon_jtag_uart_init>
    b218:	813ff604 	addi	r4,r16,-40
    b21c:	014000f4 	movhi	r5,3
    b220:	2948b404 	addi	r5,r5,8912
    b224:	000c29c0 	call	c29c <alt_dev_llist_insert>
    b228:	010000f4 	movhi	r4,3
    b22c:	21086504 	addi	r4,r4,8596
    b230:	000b8540 	call	b854 <altera_modular_adc_init>
    b234:	010000f4 	movhi	r4,3
    b238:	21086f04 	addi	r4,r4,8636
    b23c:	dfc00117 	ldw	ra,4(sp)
    b240:	dc000017 	ldw	r16,0(sp)
    b244:	dec00204 	addi	sp,sp,8
    b248:	000be541 	jmpi	be54 <altera_onchip_flash_init>

0000b24c <altera_avalon_jtag_uart_read_fd>:
    b24c:	20800017 	ldw	r2,0(r4)
    b250:	21c00217 	ldw	r7,8(r4)
    b254:	11000a04 	addi	r4,r2,40
    b258:	000b5101 	jmpi	b510 <altera_avalon_jtag_uart_read>

0000b25c <altera_avalon_jtag_uart_write_fd>:
    b25c:	20800017 	ldw	r2,0(r4)
    b260:	21c00217 	ldw	r7,8(r4)
    b264:	11000a04 	addi	r4,r2,40
    b268:	000b6441 	jmpi	b644 <altera_avalon_jtag_uart_write>

0000b26c <altera_avalon_jtag_uart_close_fd>:
    b26c:	20800017 	ldw	r2,0(r4)
    b270:	21400217 	ldw	r5,8(r4)
    b274:	11000a04 	addi	r4,r2,40
    b278:	000b4681 	jmpi	b468 <altera_avalon_jtag_uart_close>

0000b27c <altera_avalon_jtag_uart_ioctl_fd>:
    b27c:	21000017 	ldw	r4,0(r4)
    b280:	21000a04 	addi	r4,r4,40
    b284:	000b49c1 	jmpi	b49c <altera_avalon_jtag_uart_ioctl>

0000b288 <altera_avalon_jtag_uart_timeout>:
    b288:	20800017 	ldw	r2,0(r4)
    b28c:	10800104 	addi	r2,r2,4
    b290:	10c00037 	ldwio	r3,0(r2)
    b294:	18c1000c 	andi	r3,r3,1024
    b298:	18000a1e 	bne	r3,zero,b2c4 <altera_avalon_jtag_uart_timeout+0x3c>
    b29c:	20800917 	ldw	r2,36(r4)
    b2a0:	00e00034 	movhi	r3,32768
    b2a4:	18ffff04 	addi	r3,r3,-4
    b2a8:	18800236 	bltu	r3,r2,b2b4 <altera_avalon_jtag_uart_timeout+0x2c>
    b2ac:	10800044 	addi	r2,r2,1
    b2b0:	20800915 	stw	r2,36(r4)
    b2b4:	008000f4 	movhi	r2,3
    b2b8:	108fbc04 	addi	r2,r2,16112
    b2bc:	10800017 	ldw	r2,0(r2)
    b2c0:	f800283a 	ret
    b2c4:	20c00817 	ldw	r3,32(r4)
    b2c8:	18c10014 	ori	r3,r3,1024
    b2cc:	10c00035 	stwio	r3,0(r2)
    b2d0:	008000f4 	movhi	r2,3
    b2d4:	108fbc04 	addi	r2,r2,16112
    b2d8:	20000915 	stw	zero,36(r4)
    b2dc:	10800017 	ldw	r2,0(r2)
    b2e0:	f800283a 	ret

0000b2e4 <altera_avalon_jtag_uart_irq>:
    b2e4:	21800017 	ldw	r6,0(r4)
    b2e8:	02bfff84 	movi	r10,-2
    b2ec:	02ffff44 	movi	r11,-3
    b2f0:	32400104 	addi	r9,r6,4
    b2f4:	4a000037 	ldwio	r8,0(r9)
    b2f8:	4080c00c 	andi	r2,r8,768
    b2fc:	10003326 	beq	r2,zero,b3cc <altera_avalon_jtag_uart_irq+0xe8>
    b300:	4080400c 	andi	r2,r8,256
    b304:	10001626 	beq	r2,zero,b360 <altera_avalon_jtag_uart_irq+0x7c>
    b308:	20800a17 	ldw	r2,40(r4)
    b30c:	21c00b17 	ldw	r7,44(r4)
    b310:	10800044 	addi	r2,r2,1
    b314:	1081ffcc 	andi	r2,r2,2047
    b318:	38800c1e 	bne	r7,r2,b34c <altera_avalon_jtag_uart_irq+0x68>
    b31c:	00002c06 	br	b3d0 <altera_avalon_jtag_uart_irq+0xec>
    b320:	21400a17 	ldw	r5,40(r4)
    b324:	20c00a17 	ldw	r3,40(r4)
    b328:	214b883a 	add	r5,r4,r5
    b32c:	18c00044 	addi	r3,r3,1
    b330:	18c1ffcc 	andi	r3,r3,2047
    b334:	20c00a15 	stw	r3,40(r4)
    b338:	20c00a17 	ldw	r3,40(r4)
    b33c:	28800e05 	stb	r2,56(r5)
    b340:	18c00044 	addi	r3,r3,1
    b344:	18c1ffcc 	andi	r3,r3,2047
    b348:	38c00326 	beq	r7,r3,b358 <altera_avalon_jtag_uart_irq+0x74>
    b34c:	30800037 	ldwio	r2,0(r6)
    b350:	10e0000c 	andi	r3,r2,32768
    b354:	183ff21e 	bne	r3,zero,b320 <__alt_mem_onchip_flash_0_data+0xf0f0b320>
    b358:	10bfffec 	andhi	r2,r2,65535
    b35c:	10001c1e 	bne	r2,zero,b3d0 <altera_avalon_jtag_uart_irq+0xec>
    b360:	4080800c 	andi	r2,r8,512
    b364:	103fe326 	beq	r2,zero,b2f4 <__alt_mem_onchip_flash_0_data+0xf0f0b2f4>
    b368:	4004d43a 	srli	r2,r8,16
    b36c:	10000b1e 	bne	r2,zero,b39c <altera_avalon_jtag_uart_irq+0xb8>
    b370:	003fe006 	br	b2f4 <__alt_mem_onchip_flash_0_data+0xf0f0b2f4>
    b374:	20c00d17 	ldw	r3,52(r4)
    b378:	20c7883a 	add	r3,r4,r3
    b37c:	18c20e07 	ldb	r3,2104(r3)
    b380:	30c00035 	stwio	r3,0(r6)
    b384:	20c00d17 	ldw	r3,52(r4)
    b388:	10bfffc4 	addi	r2,r2,-1
    b38c:	18c00044 	addi	r3,r3,1
    b390:	18c1ffcc 	andi	r3,r3,2047
    b394:	20c00d15 	stw	r3,52(r4)
    b398:	103fd626 	beq	r2,zero,b2f4 <__alt_mem_onchip_flash_0_data+0xf0f0b2f4>
    b39c:	21400d17 	ldw	r5,52(r4)
    b3a0:	20c00c17 	ldw	r3,48(r4)
    b3a4:	28fff31e 	bne	r5,r3,b374 <__alt_mem_onchip_flash_0_data+0xf0f0b374>
    b3a8:	20800817 	ldw	r2,32(r4)
    b3ac:	20c00017 	ldw	r3,0(r4)
    b3b0:	12c4703a 	and	r2,r2,r11
    b3b4:	20800815 	stw	r2,32(r4)
    b3b8:	18800135 	stwio	r2,4(r3)
    b3bc:	48800037 	ldwio	r2,0(r9)
    b3c0:	4a000037 	ldwio	r8,0(r9)
    b3c4:	4080c00c 	andi	r2,r8,768
    b3c8:	103fcd1e 	bne	r2,zero,b300 <__alt_mem_onchip_flash_0_data+0xf0f0b300>
    b3cc:	f800283a 	ret
    b3d0:	20800817 	ldw	r2,32(r4)
    b3d4:	1284703a 	and	r2,r2,r10
    b3d8:	20800815 	stw	r2,32(r4)
    b3dc:	48800035 	stwio	r2,0(r9)
    b3e0:	48800037 	ldwio	r2,0(r9)
    b3e4:	003fde06 	br	b360 <__alt_mem_onchip_flash_0_data+0xf0f0b360>

0000b3e8 <altera_avalon_jtag_uart_init>:
    b3e8:	defffd04 	addi	sp,sp,-12
    b3ec:	20c00017 	ldw	r3,0(r4)
    b3f0:	dc000115 	stw	r16,4(sp)
    b3f4:	dfc00215 	stw	ra,8(sp)
    b3f8:	00800044 	movi	r2,1
    b3fc:	2021883a 	mov	r16,r4
    b400:	20800815 	stw	r2,32(r4)
    b404:	2809883a 	mov	r4,r5
    b408:	300b883a 	mov	r5,r6
    b40c:	18800135 	stwio	r2,4(r3)
    b410:	01800074 	movhi	r6,1
    b414:	31acb904 	addi	r6,r6,-19740
    b418:	800f883a 	mov	r7,r16
    b41c:	d8000015 	stw	zero,0(sp)
    b420:	000c4d00 	call	c4d0 <alt_ic_isr_register>
    b424:	008000f4 	movhi	r2,3
    b428:	108fbc04 	addi	r2,r2,16112
    b42c:	11400017 	ldw	r5,0(r2)
    b430:	80000915 	stw	zero,36(r16)
    b434:	81000204 	addi	r4,r16,8
    b438:	01800074 	movhi	r6,1
    b43c:	31aca204 	addi	r6,r6,-19832
    b440:	800f883a 	mov	r7,r16
    b444:	000c1b00 	call	c1b0 <alt_alarm_start>
    b448:	1000030e 	bge	r2,zero,b458 <altera_avalon_jtag_uart_init+0x70>
    b44c:	00a00034 	movhi	r2,32768
    b450:	10bfffc4 	addi	r2,r2,-1
    b454:	80800115 	stw	r2,4(r16)
    b458:	dfc00217 	ldw	ra,8(sp)
    b45c:	dc000117 	ldw	r16,4(sp)
    b460:	dec00304 	addi	sp,sp,12
    b464:	f800283a 	ret

0000b468 <altera_avalon_jtag_uart_close>:
    b468:	21800c17 	ldw	r6,48(r4)
    b46c:	2950000c 	andi	r5,r5,16384
    b470:	00000406 	br	b484 <altera_avalon_jtag_uart_close+0x1c>
    b474:	20c00917 	ldw	r3,36(r4)
    b478:	20800117 	ldw	r2,4(r4)
    b47c:	1880032e 	bgeu	r3,r2,b48c <altera_avalon_jtag_uart_close+0x24>
    b480:	2800041e 	bne	r5,zero,b494 <altera_avalon_jtag_uart_close+0x2c>
    b484:	20800d17 	ldw	r2,52(r4)
    b488:	11bffa1e 	bne	r2,r6,b474 <__alt_mem_onchip_flash_0_data+0xf0f0b474>
    b48c:	0005883a 	mov	r2,zero
    b490:	f800283a 	ret
    b494:	00bffd44 	movi	r2,-11
    b498:	f800283a 	ret

0000b49c <altera_avalon_jtag_uart_ioctl>:
    b49c:	009a8044 	movi	r2,27137
    b4a0:	28800426 	beq	r5,r2,b4b4 <altera_avalon_jtag_uart_ioctl+0x18>
    b4a4:	009a8084 	movi	r2,27138
    b4a8:	28801026 	beq	r5,r2,b4ec <altera_avalon_jtag_uart_ioctl+0x50>
    b4ac:	00bff9c4 	movi	r2,-25
    b4b0:	f800283a 	ret
    b4b4:	20c00117 	ldw	r3,4(r4)
    b4b8:	00a00034 	movhi	r2,32768
    b4bc:	10bfffc4 	addi	r2,r2,-1
    b4c0:	18bffa26 	beq	r3,r2,b4ac <__alt_mem_onchip_flash_0_data+0xf0f0b4ac>
    b4c4:	30800017 	ldw	r2,0(r6)
    b4c8:	01600034 	movhi	r5,32768
    b4cc:	297fff04 	addi	r5,r5,-4
    b4d0:	10ffff84 	addi	r3,r2,-2
    b4d4:	28c0022e 	bgeu	r5,r3,b4e0 <altera_avalon_jtag_uart_ioctl+0x44>
    b4d8:	00a00034 	movhi	r2,32768
    b4dc:	10bfff84 	addi	r2,r2,-2
    b4e0:	20800115 	stw	r2,4(r4)
    b4e4:	0005883a 	mov	r2,zero
    b4e8:	f800283a 	ret
    b4ec:	20c00117 	ldw	r3,4(r4)
    b4f0:	00a00034 	movhi	r2,32768
    b4f4:	10bfffc4 	addi	r2,r2,-1
    b4f8:	18bfec26 	beq	r3,r2,b4ac <__alt_mem_onchip_flash_0_data+0xf0f0b4ac>
    b4fc:	21000917 	ldw	r4,36(r4)
    b500:	0005883a 	mov	r2,zero
    b504:	20c7803a 	cmpltu	r3,r4,r3
    b508:	30c00015 	stw	r3,0(r6)
    b50c:	f800283a 	ret

0000b510 <altera_avalon_jtag_uart_read>:
    b510:	defff604 	addi	sp,sp,-40
    b514:	dd800615 	stw	r22,24(sp)
    b518:	dcc00315 	stw	r19,12(sp)
    b51c:	dc800215 	stw	r18,8(sp)
    b520:	dfc00915 	stw	ra,36(sp)
    b524:	df000815 	stw	fp,32(sp)
    b528:	ddc00715 	stw	r23,28(sp)
    b52c:	dd400515 	stw	r21,20(sp)
    b530:	dd000415 	stw	r20,16(sp)
    b534:	dc400115 	stw	r17,4(sp)
    b538:	dc000015 	stw	r16,0(sp)
    b53c:	3027883a 	mov	r19,r6
    b540:	2025883a 	mov	r18,r4
    b544:	282d883a 	mov	r22,r5
    b548:	01803a0e 	bge	zero,r6,b634 <altera_avalon_jtag_uart_read+0x124>
    b54c:	05420004 	movi	r21,2048
    b550:	3dd0000c 	andi	r23,r7,16384
    b554:	94000b17 	ldw	r16,44(r18)
    b558:	b039883a 	mov	fp,r22
    b55c:	95000a17 	ldw	r20,40(r18)
    b560:	ac07c83a 	sub	r3,r21,r16
    b564:	a4000136 	bltu	r20,r16,b56c <altera_avalon_jtag_uart_read+0x5c>
    b568:	a407c83a 	sub	r3,r20,r16
    b56c:	81400e04 	addi	r5,r16,56
    b570:	e009883a 	mov	r4,fp
    b574:	914b883a 	add	r5,r18,r5
    b578:	1823883a 	mov	r17,r3
    b57c:	18000a26 	beq	r3,zero,b5a8 <altera_avalon_jtag_uart_read+0x98>
    b580:	98c0012e 	bgeu	r19,r3,b588 <altera_avalon_jtag_uart_read+0x78>
    b584:	9823883a 	mov	r17,r19
    b588:	8c21883a 	add	r16,r17,r16
    b58c:	880d883a 	mov	r6,r17
    b590:	8401ffcc 	andi	r16,r16,2047
    b594:	0006b300 	call	6b30 <memcpy>
    b598:	9c67c83a 	sub	r19,r19,r17
    b59c:	94000b15 	stw	r16,44(r18)
    b5a0:	e479883a 	add	fp,fp,r17
    b5a4:	04ffed16 	blt	zero,r19,b55c <__alt_mem_onchip_flash_0_data+0xf0f0b55c>
    b5a8:	e580161e 	bne	fp,r22,b604 <altera_avalon_jtag_uart_read+0xf4>
    b5ac:	b800231e 	bne	r23,zero,b63c <altera_avalon_jtag_uart_read+0x12c>
    b5b0:	90800a17 	ldw	r2,40(r18)
    b5b4:	a080031e 	bne	r20,r2,b5c4 <altera_avalon_jtag_uart_read+0xb4>
    b5b8:	90c00917 	ldw	r3,36(r18)
    b5bc:	90800117 	ldw	r2,4(r18)
    b5c0:	18bffb36 	bltu	r3,r2,b5b0 <__alt_mem_onchip_flash_0_data+0xf0f0b5b0>
    b5c4:	90800a17 	ldw	r2,40(r18)
    b5c8:	a0800126 	beq	r20,r2,b5d0 <altera_avalon_jtag_uart_read+0xc0>
    b5cc:	04ffe116 	blt	zero,r19,b554 <__alt_mem_onchip_flash_0_data+0xf0f0b554>
    b5d0:	00bffec4 	movi	r2,-5
    b5d4:	dfc00917 	ldw	ra,36(sp)
    b5d8:	df000817 	ldw	fp,32(sp)
    b5dc:	ddc00717 	ldw	r23,28(sp)
    b5e0:	dd800617 	ldw	r22,24(sp)
    b5e4:	dd400517 	ldw	r21,20(sp)
    b5e8:	dd000417 	ldw	r20,16(sp)
    b5ec:	dcc00317 	ldw	r19,12(sp)
    b5f0:	dc800217 	ldw	r18,8(sp)
    b5f4:	dc400117 	ldw	r17,4(sp)
    b5f8:	dc000017 	ldw	r16,0(sp)
    b5fc:	dec00a04 	addi	sp,sp,40
    b600:	f800283a 	ret
    b604:	0005303a 	rdctl	r2,status
    b608:	00ffff84 	movi	r3,-2
    b60c:	10c6703a 	and	r3,r2,r3
    b610:	1801703a 	wrctl	status,r3
    b614:	90c00817 	ldw	r3,32(r18)
    b618:	91000017 	ldw	r4,0(r18)
    b61c:	18c00054 	ori	r3,r3,1
    b620:	90c00815 	stw	r3,32(r18)
    b624:	20c00135 	stwio	r3,4(r4)
    b628:	1001703a 	wrctl	status,r2
    b62c:	e585c83a 	sub	r2,fp,r22
    b630:	003fe806 	br	b5d4 <__alt_mem_onchip_flash_0_data+0xf0f0b5d4>
    b634:	39d0000c 	andi	r7,r7,16384
    b638:	383fe526 	beq	r7,zero,b5d0 <__alt_mem_onchip_flash_0_data+0xf0f0b5d0>
    b63c:	00bffd44 	movi	r2,-11
    b640:	003fe406 	br	b5d4 <__alt_mem_onchip_flash_0_data+0xf0f0b5d4>

0000b644 <altera_avalon_jtag_uart_write>:
    b644:	defff404 	addi	sp,sp,-48
    b648:	dd400715 	stw	r21,28(sp)
    b64c:	dc000215 	stw	r16,8(sp)
    b650:	dfc00b15 	stw	ra,44(sp)
    b654:	df000a15 	stw	fp,40(sp)
    b658:	ddc00915 	stw	r23,36(sp)
    b65c:	dd800815 	stw	r22,32(sp)
    b660:	dd000615 	stw	r20,24(sp)
    b664:	dcc00515 	stw	r19,20(sp)
    b668:	dc800415 	stw	r18,16(sp)
    b66c:	dc400315 	stw	r17,12(sp)
    b670:	d9400015 	stw	r5,0(sp)
    b674:	d9c00115 	stw	r7,4(sp)
    b678:	302b883a 	mov	r21,r6
    b67c:	2021883a 	mov	r16,r4
    b680:	01804d0e 	bge	zero,r6,b7b8 <altera_avalon_jtag_uart_write+0x174>
    b684:	282d883a 	mov	r22,r5
    b688:	0501ffc4 	movi	r20,2047
    b68c:	04c20004 	movi	r19,2048
    b690:	04bfff84 	movi	r18,-2
    b694:	3c50000c 	andi	r17,r7,16384
    b698:	85c00c17 	ldw	r23,48(r16)
    b69c:	81000d17 	ldw	r4,52(r16)
    b6a0:	b900402e 	bgeu	r23,r4,b7a4 <altera_avalon_jtag_uart_write+0x160>
    b6a4:	273fffc4 	addi	fp,r4,-1
    b6a8:	e5f9c83a 	sub	fp,fp,r23
    b6ac:	e0002626 	beq	fp,zero,b748 <altera_avalon_jtag_uart_write+0x104>
    b6b0:	af00012e 	bgeu	r21,fp,b6b8 <altera_avalon_jtag_uart_write+0x74>
    b6b4:	a839883a 	mov	fp,r21
    b6b8:	b9020e04 	addi	r4,r23,2104
    b6bc:	e5ef883a 	add	r23,fp,r23
    b6c0:	b00b883a 	mov	r5,r22
    b6c4:	8109883a 	add	r4,r16,r4
    b6c8:	e00d883a 	mov	r6,fp
    b6cc:	bdc1ffcc 	andi	r23,r23,2047
    b6d0:	0006b300 	call	6b30 <memcpy>
    b6d4:	af2bc83a 	sub	r21,r21,fp
    b6d8:	85c00c15 	stw	r23,48(r16)
    b6dc:	b72d883a 	add	r22,r22,fp
    b6e0:	057fed16 	blt	zero,r21,b698 <__alt_mem_onchip_flash_0_data+0xf0f0b698>
    b6e4:	0005303a 	rdctl	r2,status
    b6e8:	00ffff84 	movi	r3,-2
    b6ec:	10c6703a 	and	r3,r2,r3
    b6f0:	1801703a 	wrctl	status,r3
    b6f4:	80c00817 	ldw	r3,32(r16)
    b6f8:	81000017 	ldw	r4,0(r16)
    b6fc:	18c00094 	ori	r3,r3,2
    b700:	80c00815 	stw	r3,32(r16)
    b704:	20c00135 	stwio	r3,4(r4)
    b708:	1001703a 	wrctl	status,r2
    b70c:	d8800017 	ldw	r2,0(sp)
    b710:	b0801f26 	beq	r22,r2,b790 <altera_avalon_jtag_uart_write+0x14c>
    b714:	b085c83a 	sub	r2,r22,r2
    b718:	dfc00b17 	ldw	ra,44(sp)
    b71c:	df000a17 	ldw	fp,40(sp)
    b720:	ddc00917 	ldw	r23,36(sp)
    b724:	dd800817 	ldw	r22,32(sp)
    b728:	dd400717 	ldw	r21,28(sp)
    b72c:	dd000617 	ldw	r20,24(sp)
    b730:	dcc00517 	ldw	r19,20(sp)
    b734:	dc800417 	ldw	r18,16(sp)
    b738:	dc400317 	ldw	r17,12(sp)
    b73c:	dc000217 	ldw	r16,8(sp)
    b740:	dec00c04 	addi	sp,sp,48
    b744:	f800283a 	ret
    b748:	0005303a 	rdctl	r2,status
    b74c:	1486703a 	and	r3,r2,r18
    b750:	1801703a 	wrctl	status,r3
    b754:	80c00817 	ldw	r3,32(r16)
    b758:	81400017 	ldw	r5,0(r16)
    b75c:	18c00094 	ori	r3,r3,2
    b760:	80c00815 	stw	r3,32(r16)
    b764:	28c00135 	stwio	r3,4(r5)
    b768:	1001703a 	wrctl	status,r2
    b76c:	883fe71e 	bne	r17,zero,b70c <__alt_mem_onchip_flash_0_data+0xf0f0b70c>
    b770:	81c00917 	ldw	r7,36(r16)
    b774:	80c00d17 	ldw	r3,52(r16)
    b778:	20c0021e 	bne	r4,r3,b784 <altera_avalon_jtag_uart_write+0x140>
    b77c:	80c00117 	ldw	r3,4(r16)
    b780:	38fffc36 	bltu	r7,r3,b774 <__alt_mem_onchip_flash_0_data+0xf0f0b774>
    b784:	383fe11e 	bne	r7,zero,b70c <__alt_mem_onchip_flash_0_data+0xf0f0b70c>
    b788:	057fc316 	blt	zero,r21,b698 <__alt_mem_onchip_flash_0_data+0xf0f0b698>
    b78c:	003fd506 	br	b6e4 <__alt_mem_onchip_flash_0_data+0xf0f0b6e4>
    b790:	d8c00117 	ldw	r3,4(sp)
    b794:	1d90000c 	andi	r22,r3,16384
    b798:	b0000926 	beq	r22,zero,b7c0 <altera_avalon_jtag_uart_write+0x17c>
    b79c:	00bffd44 	movi	r2,-11
    b7a0:	003fdd06 	br	b718 <__alt_mem_onchip_flash_0_data+0xf0f0b718>
    b7a4:	20000226 	beq	r4,zero,b7b0 <altera_avalon_jtag_uart_write+0x16c>
    b7a8:	9df9c83a 	sub	fp,r19,r23
    b7ac:	003fbf06 	br	b6ac <__alt_mem_onchip_flash_0_data+0xf0f0b6ac>
    b7b0:	a5f9c83a 	sub	fp,r20,r23
    b7b4:	003fbd06 	br	b6ac <__alt_mem_onchip_flash_0_data+0xf0f0b6ac>
    b7b8:	dd800017 	ldw	r22,0(sp)
    b7bc:	003fc906 	br	b6e4 <__alt_mem_onchip_flash_0_data+0xf0f0b6e4>
    b7c0:	00bffec4 	movi	r2,-5
    b7c4:	003fd406 	br	b718 <__alt_mem_onchip_flash_0_data+0xf0f0b718>

0000b7c8 <alt_avalon_timer_sc_irq>:
    b7c8:	defffe04 	addi	sp,sp,-8
    b7cc:	dfc00115 	stw	ra,4(sp)
    b7d0:	dc000015 	stw	r16,0(sp)
    b7d4:	20000035 	stwio	zero,0(r4)
    b7d8:	20800137 	ldwio	r2,4(r4)
    b7dc:	0021303a 	rdctl	r16,status
    b7e0:	00bfff84 	movi	r2,-2
    b7e4:	8084703a 	and	r2,r16,r2
    b7e8:	1001703a 	wrctl	status,r2
    b7ec:	000c86c0 	call	c86c <alt_tick>
    b7f0:	8001703a 	wrctl	status,r16
    b7f4:	dfc00117 	ldw	ra,4(sp)
    b7f8:	dc000017 	ldw	r16,0(sp)
    b7fc:	dec00204 	addi	sp,sp,8
    b800:	f800283a 	ret

0000b804 <alt_avalon_timer_sc_init>:
    b804:	00c000f4 	movhi	r3,3
    b808:	18cfbc04 	addi	r3,r3,16112
    b80c:	1a000017 	ldw	r8,0(r3)
    b810:	defffe04 	addi	sp,sp,-8
    b814:	dfc00115 	stw	ra,4(sp)
    b818:	2005883a 	mov	r2,r4
    b81c:	2809883a 	mov	r4,r5
    b820:	300b883a 	mov	r5,r6
    b824:	4000011e 	bne	r8,zero,b82c <alt_avalon_timer_sc_init+0x28>
    b828:	19c00015 	stw	r7,0(r3)
    b82c:	00c001c4 	movi	r3,7
    b830:	10c00135 	stwio	r3,4(r2)
    b834:	d8000015 	stw	zero,0(sp)
    b838:	01800074 	movhi	r6,1
    b83c:	31adf204 	addi	r6,r6,-18488
    b840:	100f883a 	mov	r7,r2
    b844:	000c4d00 	call	c4d0 <alt_ic_isr_register>
    b848:	dfc00117 	ldw	ra,4(sp)
    b84c:	dec00204 	addi	sp,sp,8
    b850:	f800283a 	ret

0000b854 <altera_modular_adc_init>:
    b854:	d1600c04 	addi	r5,gp,-32720
    b858:	000c29c1 	jmpi	c29c <alt_dev_llist_insert>

0000b85c <altera_modular_adc_open>:
    b85c:	d1600c04 	addi	r5,gp,-32720
    b860:	000c3d01 	jmpi	c3d0 <alt_find_dev>

0000b864 <alt_onchip_flash_read>:
    b864:	20800b17 	ldw	r2,44(r4)
    b868:	defffe04 	addi	sp,sp,-8
    b86c:	dc000015 	stw	r16,0(sp)
    b870:	dfc00115 	stw	ra,4(sp)
    b874:	2021883a 	mov	r16,r4
    b878:	2880160e 	bge	r5,r2,b8d4 <alt_onchip_flash_read+0x70>
    b87c:	29c7883a 	add	r3,r5,r7
    b880:	10c01416 	blt	r2,r3,b8d4 <alt_onchip_flash_read+0x70>
    b884:	20800a17 	ldw	r2,40(r4)
    b888:	3009883a 	mov	r4,r6
    b88c:	380d883a 	mov	r6,r7
    b890:	114b883a 	add	r5,r2,r5
    b894:	0006b300 	call	6b30 <memcpy>
    b898:	80802e17 	ldw	r2,184(r16)
    b89c:	10000826 	beq	r2,zero,b8c0 <alt_onchip_flash_read+0x5c>
    b8a0:	10800037 	ldwio	r2,0(r2)
    b8a4:	1080010c 	andi	r2,r2,4
    b8a8:	1000051e 	bne	r2,zero,b8c0 <alt_onchip_flash_read+0x5c>
    b8ac:	00bffec4 	movi	r2,-5
    b8b0:	dfc00117 	ldw	ra,4(sp)
    b8b4:	dc000017 	ldw	r16,0(sp)
    b8b8:	dec00204 	addi	sp,sp,8
    b8bc:	f800283a 	ret
    b8c0:	0005883a 	mov	r2,zero
    b8c4:	dfc00117 	ldw	ra,4(sp)
    b8c8:	dc000017 	ldw	r16,0(sp)
    b8cc:	dec00204 	addi	sp,sp,8
    b8d0:	f800283a 	ret
    b8d4:	00bffc84 	movi	r2,-14
    b8d8:	dfc00117 	ldw	ra,4(sp)
    b8dc:	dc000017 	ldw	r16,0(sp)
    b8e0:	dec00204 	addi	sp,sp,8
    b8e4:	f800283a 	ret

0000b8e8 <alt_onchip_flash_get_info>:
    b8e8:	30000226 	beq	r6,zero,b8f4 <alt_onchip_flash_get_info+0xc>
    b8ec:	20800c17 	ldw	r2,48(r4)
    b8f0:	30800015 	stw	r2,0(r6)
    b8f4:	20800c17 	ldw	r2,48(r4)
    b8f8:	10000926 	beq	r2,zero,b920 <alt_onchip_flash_get_info+0x38>
    b8fc:	00c00204 	movi	r3,8
    b900:	18800916 	blt	r3,r2,b928 <alt_onchip_flash_get_info+0x40>
    b904:	28000426 	beq	r5,zero,b918 <alt_onchip_flash_get_info+0x30>
    b908:	21000d04 	addi	r4,r4,52
    b90c:	29000015 	stw	r4,0(r5)
    b910:	0005883a 	mov	r2,zero
    b914:	f800283a 	ret
    b918:	0005883a 	mov	r2,zero
    b91c:	f800283a 	ret
    b920:	00bffd04 	movi	r2,-12
    b924:	f800283a 	ret
    b928:	00bffc84 	movi	r2,-14
    b92c:	f800283a 	ret

0000b930 <alt_onchip_flash_erase_block>:
    b930:	20800b17 	ldw	r2,44(r4)
    b934:	defffe04 	addi	sp,sp,-8
    b938:	dc000015 	stw	r16,0(sp)
    b93c:	dfc00115 	stw	ra,4(sp)
    b940:	2021883a 	mov	r16,r4
    b944:	2809883a 	mov	r4,r5
    b948:	2880450e 	bge	r5,r2,ba60 <alt_onchip_flash_erase_block+0x130>
    b94c:	80c02e17 	ldw	r3,184(r16)
    b950:	18004126 	beq	r3,zero,ba58 <alt_onchip_flash_erase_block+0x128>
    b954:	80802d17 	ldw	r2,180(r16)
    b958:	10003f1e 	bne	r2,zero,ba58 <alt_onchip_flash_erase_block+0x128>
    b95c:	80803e17 	ldw	r2,248(r16)
    b960:	10bfffc4 	addi	r2,r2,-1
    b964:	2884703a 	and	r2,r5,r2
    b968:	10003f1e 	bne	r2,zero,ba68 <alt_onchip_flash_erase_block+0x138>
    b96c:	00817db4 	movhi	r2,1526
    b970:	10b84004 	addi	r2,r2,-7936
    b974:	00000106 	br	b97c <alt_onchip_flash_erase_block+0x4c>
    b978:	10003026 	beq	r2,zero,ba3c <alt_onchip_flash_erase_block+0x10c>
    b97c:	19800037 	ldwio	r6,0(r3)
    b980:	318000cc 	andi	r6,r6,3
    b984:	10bfffc4 	addi	r2,r2,-1
    b988:	303ffb1e 	bne	r6,zero,b978 <__alt_mem_onchip_flash_0_data+0xf0f0b978>
    b98c:	18c00104 	addi	r3,r3,4
    b990:	19400037 	ldwio	r5,0(r3)
    b994:	00802034 	movhi	r2,128
    b998:	10bfffc4 	addi	r2,r2,-1
    b99c:	297c002c 	andhi	r5,r5,61440
    b9a0:	2884b03a 	or	r2,r5,r2
    b9a4:	18800035 	stwio	r2,0(r3)
    b9a8:	81403e17 	ldw	r5,248(r16)
    b9ac:	00016240 	call	1624 <__divsi3>
    b9b0:	80c02e17 	ldw	r3,184(r16)
    b9b4:	18c00104 	addi	r3,r3,4
    b9b8:	19000037 	ldwio	r4,0(r3)
    b9bc:	213c002c 	andhi	r4,r4,61440
    b9c0:	10801c34 	orhi	r2,r2,112
    b9c4:	1104b03a 	or	r2,r2,r4
    b9c8:	18800035 	stwio	r2,0(r3)
    b9cc:	00817db4 	movhi	r2,1526
    b9d0:	10b84004 	addi	r2,r2,-7936
    b9d4:	80c02e17 	ldw	r3,184(r16)
    b9d8:	00000106 	br	b9e0 <alt_onchip_flash_erase_block+0xb0>
    b9dc:	10000426 	beq	r2,zero,b9f0 <alt_onchip_flash_erase_block+0xc0>
    b9e0:	19000037 	ldwio	r4,0(r3)
    b9e4:	210000cc 	andi	r4,r4,3
    b9e8:	10bfffc4 	addi	r2,r2,-1
    b9ec:	203ffb1e 	bne	r4,zero,b9dc <__alt_mem_onchip_flash_0_data+0xf0f0b9dc>
    b9f0:	00817db4 	movhi	r2,1526
    b9f4:	10b84004 	addi	r2,r2,-7936
    b9f8:	00000106 	br	ba00 <alt_onchip_flash_erase_block+0xd0>
    b9fc:	10001426 	beq	r2,zero,ba50 <alt_onchip_flash_erase_block+0x120>
    ba00:	19000037 	ldwio	r4,0(r3)
    ba04:	2100040c 	andi	r4,r4,16
    ba08:	10bfffc4 	addi	r2,r2,-1
    ba0c:	203ffb26 	beq	r4,zero,b9fc <__alt_mem_onchip_flash_0_data+0xf0f0b9fc>
    ba10:	0005883a 	mov	r2,zero
    ba14:	18c00104 	addi	r3,r3,4
    ba18:	19400037 	ldwio	r5,0(r3)
    ba1c:	01040034 	movhi	r4,4096
    ba20:	213fffc4 	addi	r4,r4,-1
    ba24:	2908b03a 	or	r4,r5,r4
    ba28:	19000035 	stwio	r4,0(r3)
    ba2c:	dfc00117 	ldw	ra,4(sp)
    ba30:	dc000017 	ldw	r16,0(sp)
    ba34:	dec00204 	addi	sp,sp,8
    ba38:	f800283a 	ret
    ba3c:	00bfe304 	movi	r2,-116
    ba40:	dfc00117 	ldw	ra,4(sp)
    ba44:	dc000017 	ldw	r16,0(sp)
    ba48:	dec00204 	addi	sp,sp,8
    ba4c:	f800283a 	ret
    ba50:	00bfe304 	movi	r2,-116
    ba54:	003fef06 	br	ba14 <__alt_mem_onchip_flash_0_data+0xf0f0ba14>
    ba58:	00bffb44 	movi	r2,-19
    ba5c:	003ff306 	br	ba2c <__alt_mem_onchip_flash_0_data+0xf0f0ba2c>
    ba60:	00bffc84 	movi	r2,-14
    ba64:	003ff106 	br	ba2c <__alt_mem_onchip_flash_0_data+0xf0f0ba2c>
    ba68:	00bffa84 	movi	r2,-22
    ba6c:	003fef06 	br	ba2c <__alt_mem_onchip_flash_0_data+0xf0f0ba2c>

0000ba70 <alt_onchip_flash_write_block>:
    ba70:	20800b17 	ldw	r2,44(r4)
    ba74:	defff304 	addi	sp,sp,-52
    ba78:	dd800915 	stw	r22,36(sp)
    ba7c:	dd000715 	stw	r20,28(sp)
    ba80:	dc800515 	stw	r18,20(sp)
    ba84:	dfc00c15 	stw	ra,48(sp)
    ba88:	df000b15 	stw	fp,44(sp)
    ba8c:	ddc00a15 	stw	r23,40(sp)
    ba90:	dd400815 	stw	r21,32(sp)
    ba94:	dcc00615 	stw	r19,24(sp)
    ba98:	dc400415 	stw	r17,16(sp)
    ba9c:	dc000315 	stw	r16,12(sp)
    baa0:	202d883a 	mov	r22,r4
    baa4:	3825883a 	mov	r18,r7
    baa8:	dd000d17 	ldw	r20,52(sp)
    baac:	28806d0e 	bge	r5,r2,bc64 <alt_onchip_flash_write_block+0x1f4>
    bab0:	30806c0e 	bge	r6,r2,bc64 <alt_onchip_flash_write_block+0x1f4>
    bab4:	1185c83a 	sub	r2,r2,r6
    bab8:	15006a16 	blt	r2,r20,bc64 <alt_onchip_flash_write_block+0x1f4>
    babc:	20c02e17 	ldw	r3,184(r4)
    bac0:	18006a26 	beq	r3,zero,bc6c <alt_onchip_flash_write_block+0x1fc>
    bac4:	20802d17 	ldw	r2,180(r4)
    bac8:	1000681e 	bne	r2,zero,bc6c <alt_onchip_flash_write_block+0x1fc>
    bacc:	00817db4 	movhi	r2,1526
    bad0:	10b84004 	addi	r2,r2,-7936
    bad4:	00000106 	br	badc <alt_onchip_flash_write_block+0x6c>
    bad8:	10006026 	beq	r2,zero,bc5c <alt_onchip_flash_write_block+0x1ec>
    badc:	19400037 	ldwio	r5,0(r3)
    bae0:	294000cc 	andi	r5,r5,3
    bae4:	10bfffc4 	addi	r2,r2,-1
    bae8:	283ffb1e 	bne	r5,zero,bad8 <__alt_mem_onchip_flash_0_data+0xf0f0bad8>
    baec:	18c00104 	addi	r3,r3,4
    baf0:	19000037 	ldwio	r4,0(r3)
    baf4:	00802034 	movhi	r2,128
    baf8:	10bfffc4 	addi	r2,r2,-1
    bafc:	213c002c 	andhi	r4,r4,61440
    bb00:	2084b03a 	or	r2,r4,r2
    bb04:	18800035 	stwio	r2,0(r3)
    bb08:	a0005a26 	beq	r20,zero,bc74 <alt_onchip_flash_write_block+0x204>
    bb0c:	3027883a 	mov	r19,r6
    bb10:	002f883a 	mov	r23,zero
    bb14:	047fffc4 	movi	r17,-1
    bb18:	043fff04 	movi	r16,-4
    bb1c:	dc400015 	stw	r17,0(sp)
    bb20:	9d4000cc 	andi	r21,r19,3
    bb24:	a800231e 	bne	r21,zero,bbb4 <alt_onchip_flash_write_block+0x144>
    bb28:	9f000104 	addi	fp,r19,4
    bb2c:	e438703a 	and	fp,fp,r16
    bb30:	e4ebc83a 	sub	r21,fp,r19
    bb34:	a5404716 	blt	r20,r21,bc54 <alt_onchip_flash_write_block+0x1e4>
    bb38:	95cb883a 	add	r5,r18,r23
    bb3c:	d809883a 	mov	r4,sp
    bb40:	a80d883a 	mov	r6,r21
    bb44:	0006b300 	call	6b30 <memcpy>
    bb48:	bd6f883a 	add	r23,r23,r21
    bb4c:	a569c83a 	sub	r20,r20,r21
    bb50:	b0800a17 	ldw	r2,40(r22)
    bb54:	14e7883a 	add	r19,r2,r19
    bb58:	d8800017 	ldw	r2,0(sp)
    bb5c:	98800035 	stwio	r2,0(r19)
    bb60:	00817db4 	movhi	r2,1526
    bb64:	10b84004 	addi	r2,r2,-7936
    bb68:	b0c02e17 	ldw	r3,184(r22)
    bb6c:	00000106 	br	bb74 <alt_onchip_flash_write_block+0x104>
    bb70:	10002326 	beq	r2,zero,bc00 <alt_onchip_flash_write_block+0x190>
    bb74:	19400037 	ldwio	r5,0(r3)
    bb78:	294000cc 	andi	r5,r5,3
    bb7c:	10bfffc4 	addi	r2,r2,-1
    bb80:	283ffb1e 	bne	r5,zero,bb70 <__alt_mem_onchip_flash_0_data+0xf0f0bb70>
    bb84:	00817db4 	movhi	r2,1526
    bb88:	10b84004 	addi	r2,r2,-7936
    bb8c:	00000106 	br	bb94 <alt_onchip_flash_write_block+0x124>
    bb90:	10001b26 	beq	r2,zero,bc00 <alt_onchip_flash_write_block+0x190>
    bb94:	19400037 	ldwio	r5,0(r3)
    bb98:	2940020c 	andi	r5,r5,8
    bb9c:	10bfffc4 	addi	r2,r2,-1
    bba0:	283ffb26 	beq	r5,zero,bb90 <__alt_mem_onchip_flash_0_data+0xf0f0bb90>
    bba4:	e027883a 	mov	r19,fp
    bba8:	a03fdc1e 	bne	r20,zero,bb1c <__alt_mem_onchip_flash_0_data+0xf0f0bb1c>
    bbac:	0005883a 	mov	r2,zero
    bbb0:	00001406 	br	bc04 <alt_onchip_flash_write_block+0x194>
    bbb4:	9d67c83a 	sub	r19,r19,r21
    bbb8:	9f000104 	addi	fp,r19,4
    bbbc:	e438703a 	and	fp,fp,r16
    bbc0:	a545883a 	add	r2,r20,r21
    bbc4:	e4c7c83a 	sub	r3,fp,r19
    bbc8:	10c02016 	blt	r2,r3,bc4c <alt_onchip_flash_write_block+0x1dc>
    bbcc:	1d4fc83a 	sub	r7,r3,r21
    bbd0:	95cb883a 	add	r5,r18,r23
    bbd4:	380d883a 	mov	r6,r7
    bbd8:	dd49883a 	add	r4,sp,r21
    bbdc:	d8c00115 	stw	r3,4(sp)
    bbe0:	d9c00215 	stw	r7,8(sp)
    bbe4:	0006b300 	call	6b30 <memcpy>
    bbe8:	d8c00117 	ldw	r3,4(sp)
    bbec:	d9c00217 	ldw	r7,8(sp)
    bbf0:	a8c7c83a 	sub	r3,r21,r3
    bbf4:	b9ef883a 	add	r23,r23,r7
    bbf8:	a0e9883a 	add	r20,r20,r3
    bbfc:	003fd406 	br	bb50 <__alt_mem_onchip_flash_0_data+0xf0f0bb50>
    bc00:	00bfe304 	movi	r2,-116
    bc04:	18c00104 	addi	r3,r3,4
    bc08:	19400037 	ldwio	r5,0(r3)
    bc0c:	01040034 	movhi	r4,4096
    bc10:	213fffc4 	addi	r4,r4,-1
    bc14:	2908b03a 	or	r4,r5,r4
    bc18:	19000035 	stwio	r4,0(r3)
    bc1c:	dfc00c17 	ldw	ra,48(sp)
    bc20:	df000b17 	ldw	fp,44(sp)
    bc24:	ddc00a17 	ldw	r23,40(sp)
    bc28:	dd800917 	ldw	r22,36(sp)
    bc2c:	dd400817 	ldw	r21,32(sp)
    bc30:	dd000717 	ldw	r20,28(sp)
    bc34:	dcc00617 	ldw	r19,24(sp)
    bc38:	dc800517 	ldw	r18,20(sp)
    bc3c:	dc400417 	ldw	r17,16(sp)
    bc40:	dc000317 	ldw	r16,12(sp)
    bc44:	dec00d04 	addi	sp,sp,52
    bc48:	f800283a 	ret
    bc4c:	1007883a 	mov	r3,r2
    bc50:	003fde06 	br	bbcc <__alt_mem_onchip_flash_0_data+0xf0f0bbcc>
    bc54:	a02b883a 	mov	r21,r20
    bc58:	003fb706 	br	bb38 <__alt_mem_onchip_flash_0_data+0xf0f0bb38>
    bc5c:	00bfe304 	movi	r2,-116
    bc60:	003fee06 	br	bc1c <__alt_mem_onchip_flash_0_data+0xf0f0bc1c>
    bc64:	00bffc84 	movi	r2,-14
    bc68:	003fec06 	br	bc1c <__alt_mem_onchip_flash_0_data+0xf0f0bc1c>
    bc6c:	00bffb44 	movi	r2,-19
    bc70:	003fea06 	br	bc1c <__alt_mem_onchip_flash_0_data+0xf0f0bc1c>
    bc74:	b0c02e17 	ldw	r3,184(r22)
    bc78:	0005883a 	mov	r2,zero
    bc7c:	003fe106 	br	bc04 <__alt_mem_onchip_flash_0_data+0xf0f0bc04>

0000bc80 <alt_onchip_flash_write>:
    bc80:	20800b17 	ldw	r2,44(r4)
    bc84:	deffef04 	addi	sp,sp,-68
    bc88:	ddc00e15 	stw	r23,56(sp)
    bc8c:	dd800d15 	stw	r22,52(sp)
    bc90:	dfc01015 	stw	ra,64(sp)
    bc94:	df000f15 	stw	fp,60(sp)
    bc98:	dd400c15 	stw	r21,48(sp)
    bc9c:	dd000b15 	stw	r20,44(sp)
    bca0:	dcc00a15 	stw	r19,40(sp)
    bca4:	dc800915 	stw	r18,36(sp)
    bca8:	dc400815 	stw	r17,32(sp)
    bcac:	dc000715 	stw	r16,28(sp)
    bcb0:	d9400315 	stw	r5,12(sp)
    bcb4:	d9c00415 	stw	r7,16(sp)
    bcb8:	202d883a 	mov	r22,r4
    bcbc:	302f883a 	mov	r23,r6
    bcc0:	2880620e 	bge	r5,r2,be4c <alt_onchip_flash_write+0x1cc>
    bcc4:	1145c83a 	sub	r2,r2,r5
    bcc8:	11c06016 	blt	r2,r7,be4c <alt_onchip_flash_write+0x1cc>
    bccc:	20800c17 	ldw	r2,48(r4)
    bcd0:	21c00a17 	ldw	r7,40(r4)
    bcd4:	00801f0e 	bge	zero,r2,bd54 <alt_onchip_flash_write+0xd4>
    bcd8:	dd400417 	ldw	r21,16(sp)
    bcdc:	dc800317 	ldw	r18,12(sp)
    bce0:	20c01004 	addi	r3,r4,64
    bce4:	24c00f04 	addi	r19,r4,60
    bce8:	d8c00115 	stw	r3,4(sp)
    bcec:	d8000215 	stw	zero,8(sp)
    bcf0:	9c3ffe17 	ldw	r16,-8(r19)
    bcf4:	94000e16 	blt	r18,r16,bd30 <alt_onchip_flash_write+0xb0>
    bcf8:	98ffff17 	ldw	r3,-4(r19)
    bcfc:	80c7883a 	add	r3,r16,r3
    bd00:	90c00b0e 	bge	r18,r3,bd30 <alt_onchip_flash_write+0xb0>
    bd04:	98c00017 	ldw	r3,0(r19)
    bd08:	00c0090e 	bge	zero,r3,bd30 <alt_onchip_flash_write+0xb0>
    bd0c:	d8c00117 	ldw	r3,4(sp)
    bd10:	0023883a 	mov	r17,zero
    bd14:	1f000017 	ldw	fp,0(r3)
    bd18:	9400100e 	bge	r18,r16,bd5c <alt_onchip_flash_write+0xdc>
    bd1c:	8721883a 	add	r16,r16,fp
    bd20:	98800017 	ldw	r2,0(r19)
    bd24:	8c400044 	addi	r17,r17,1
    bd28:	88bffb16 	blt	r17,r2,bd18 <__alt_mem_onchip_flash_0_data+0xf0f0bd18>
    bd2c:	b0800c17 	ldw	r2,48(r22)
    bd30:	d8c00217 	ldw	r3,8(sp)
    bd34:	9cc00404 	addi	r19,r19,16
    bd38:	18c00044 	addi	r3,r3,1
    bd3c:	d8c00215 	stw	r3,8(sp)
    bd40:	d8c00117 	ldw	r3,4(sp)
    bd44:	18c00404 	addi	r3,r3,16
    bd48:	d8c00115 	stw	r3,4(sp)
    bd4c:	d8c00217 	ldw	r3,8(sp)
    bd50:	18bfe716 	blt	r3,r2,bcf0 <__alt_mem_onchip_flash_0_data+0xf0f0bcf0>
    bd54:	0005883a 	mov	r2,zero
    bd58:	00001906 	br	bdc0 <alt_onchip_flash_write+0x140>
    bd5c:	8707883a 	add	r3,r16,fp
    bd60:	90c00f0e 	bge	r18,r3,bda0 <alt_onchip_flash_write+0x120>
    bd64:	1ca9c83a 	sub	r20,r3,r18
    bd68:	ad00010e 	bge	r21,r20,bd70 <alt_onchip_flash_write+0xf0>
    bd6c:	a829883a 	mov	r20,r21
    bd70:	3c8b883a 	add	r5,r7,r18
    bd74:	b809883a 	mov	r4,r23
    bd78:	a00d883a 	mov	r6,r20
    bd7c:	d8c00515 	stw	r3,20(sp)
    bd80:	d9c00615 	stw	r7,24(sp)
    bd84:	000cd200 	call	cd20 <memcmp>
    bd88:	d8c00517 	ldw	r3,20(sp)
    bd8c:	d9c00617 	ldw	r7,24(sp)
    bd90:	1000051e 	bne	r2,zero,bda8 <alt_onchip_flash_write+0x128>
    bd94:	ad3fef26 	beq	r21,r20,bd54 <__alt_mem_onchip_flash_0_data+0xf0f0bd54>
    bd98:	1825883a 	mov	r18,r3
    bd9c:	00002706 	br	be3c <alt_onchip_flash_write+0x1bc>
    bda0:	1821883a 	mov	r16,r3
    bda4:	003fde06 	br	bd20 <__alt_mem_onchip_flash_0_data+0xf0f0bd20>
    bda8:	b0800817 	ldw	r2,32(r22)
    bdac:	b009883a 	mov	r4,r22
    bdb0:	800b883a 	mov	r5,r16
    bdb4:	103ee83a 	callr	r2
    bdb8:	10001326 	beq	r2,zero,be08 <alt_onchip_flash_write+0x188>
    bdbc:	b1c00a17 	ldw	r7,40(r22)
    bdc0:	d8c00317 	ldw	r3,12(sp)
    bdc4:	d9400417 	ldw	r5,16(sp)
    bdc8:	d8800515 	stw	r2,20(sp)
    bdcc:	38c9883a 	add	r4,r7,r3
    bdd0:	000c2440 	call	c244 <alt_dcache_flush>
    bdd4:	d8800517 	ldw	r2,20(sp)
    bdd8:	dfc01017 	ldw	ra,64(sp)
    bddc:	df000f17 	ldw	fp,60(sp)
    bde0:	ddc00e17 	ldw	r23,56(sp)
    bde4:	dd800d17 	ldw	r22,52(sp)
    bde8:	dd400c17 	ldw	r21,48(sp)
    bdec:	dd000b17 	ldw	r20,44(sp)
    bdf0:	dcc00a17 	ldw	r19,40(sp)
    bdf4:	dc800917 	ldw	r18,36(sp)
    bdf8:	dc400817 	ldw	r17,32(sp)
    bdfc:	dc000717 	ldw	r16,28(sp)
    be00:	dec01104 	addi	sp,sp,68
    be04:	f800283a 	ret
    be08:	b0800917 	ldw	r2,36(r22)
    be0c:	b009883a 	mov	r4,r22
    be10:	dd000015 	stw	r20,0(sp)
    be14:	800b883a 	mov	r5,r16
    be18:	900d883a 	mov	r6,r18
    be1c:	b80f883a 	mov	r7,r23
    be20:	103ee83a 	callr	r2
    be24:	ad3fe526 	beq	r21,r20,bdbc <__alt_mem_onchip_flash_0_data+0xf0f0bdbc>
    be28:	103fe41e 	bne	r2,zero,bdbc <__alt_mem_onchip_flash_0_data+0xf0f0bdbc>
    be2c:	d8c00117 	ldw	r3,4(sp)
    be30:	b1c00a17 	ldw	r7,40(r22)
    be34:	1f000017 	ldw	fp,0(r3)
    be38:	8725883a 	add	r18,r16,fp
    be3c:	ad2bc83a 	sub	r21,r21,r20
    be40:	bd2f883a 	add	r23,r23,r20
    be44:	9021883a 	mov	r16,r18
    be48:	003fb506 	br	bd20 <__alt_mem_onchip_flash_0_data+0xf0f0bd20>
    be4c:	00bffc84 	movi	r2,-14
    be50:	003fe106 	br	bdd8 <__alt_mem_onchip_flash_0_data+0xf0f0bdd8>

0000be54 <altera_onchip_flash_init>:
    be54:	20802e17 	ldw	r2,184(r4)
    be58:	defff804 	addi	sp,sp,-32
    be5c:	dc000015 	stw	r16,0(sp)
    be60:	dfc00715 	stw	ra,28(sp)
    be64:	dd800615 	stw	r22,24(sp)
    be68:	dd400515 	stw	r21,20(sp)
    be6c:	dd000415 	stw	r20,16(sp)
    be70:	dcc00315 	stw	r19,12(sp)
    be74:	dc800215 	stw	r18,8(sp)
    be78:	dc400115 	stw	r17,4(sp)
    be7c:	2021883a 	mov	r16,r4
    be80:	10008a26 	beq	r2,zero,c0ac <altera_onchip_flash_init+0x258>
    be84:	11000037 	ldwio	r4,0(r2)
    be88:	10c00037 	ldwio	r3,0(r2)
    be8c:	1d00100c 	andi	r20,r3,64
    be90:	10c00037 	ldwio	r3,0(r2)
    be94:	1d40200c 	andi	r21,r3,128
    be98:	14c00037 	ldwio	r19,0(r2)
    be9c:	9cc0400c 	andi	r19,r19,256
    bea0:	14800037 	ldwio	r18,0(r2)
    bea4:	00800044 	movi	r2,1
    bea8:	80c02f17 	ldw	r3,188(r16)
    beac:	9480800c 	andi	r18,r18,512
    beb0:	18801b26 	beq	r3,r2,bf20 <altera_onchip_flash_init+0xcc>
    beb4:	80c03217 	ldw	r3,200(r16)
    beb8:	00800044 	movi	r2,1
    bebc:	0023883a 	mov	r17,zero
    bec0:	18802826 	beq	r3,r2,bf64 <altera_onchip_flash_init+0x110>
    bec4:	80c03517 	ldw	r3,212(r16)
    bec8:	00800044 	movi	r2,1
    becc:	18803a26 	beq	r3,r2,bfb8 <altera_onchip_flash_init+0x164>
    bed0:	80c03817 	ldw	r3,224(r16)
    bed4:	00800044 	movi	r2,1
    bed8:	18804c26 	beq	r3,r2,c00c <altera_onchip_flash_init+0x1b8>
    bedc:	80c03b17 	ldw	r3,236(r16)
    bee0:	00800044 	movi	r2,1
    bee4:	18805e26 	beq	r3,r2,c060 <altera_onchip_flash_init+0x20c>
    bee8:	8009883a 	mov	r4,r16
    beec:	014000f4 	movhi	r5,3
    bef0:	2948be04 	addi	r5,r5,8952
    bef4:	84400c15 	stw	r17,48(r16)
    bef8:	dfc00717 	ldw	ra,28(sp)
    befc:	dd800617 	ldw	r22,24(sp)
    bf00:	dd400517 	ldw	r21,20(sp)
    bf04:	dd000417 	ldw	r20,16(sp)
    bf08:	dcc00317 	ldw	r19,12(sp)
    bf0c:	dc800217 	ldw	r18,8(sp)
    bf10:	dc400117 	ldw	r17,4(sp)
    bf14:	dc000017 	ldw	r16,0(sp)
    bf18:	dec00804 	addi	sp,sp,32
    bf1c:	000c29c1 	jmpi	c29c <alt_dev_llist_insert>
    bf20:	2100080c 	andi	r4,r4,32
    bf24:	203fe31e 	bne	r4,zero,beb4 <__alt_mem_onchip_flash_0_data+0xf0f0beb4>
    bf28:	80803017 	ldw	r2,192(r16)
    bf2c:	81003117 	ldw	r4,196(r16)
    bf30:	84403e17 	ldw	r17,248(r16)
    bf34:	80800d15 	stw	r2,52(r16)
    bf38:	2089c83a 	sub	r4,r4,r2
    bf3c:	21000044 	addi	r4,r4,1
    bf40:	880b883a 	mov	r5,r17
    bf44:	81000e15 	stw	r4,56(r16)
    bf48:	00016240 	call	1624 <__divsi3>
    bf4c:	80c03217 	ldw	r3,200(r16)
    bf50:	80800f15 	stw	r2,60(r16)
    bf54:	84401015 	stw	r17,64(r16)
    bf58:	00800044 	movi	r2,1
    bf5c:	04400044 	movi	r17,1
    bf60:	18bfd81e 	bne	r3,r2,bec4 <__alt_mem_onchip_flash_0_data+0xf0f0bec4>
    bf64:	a03fd71e 	bne	r20,zero,bec4 <__alt_mem_onchip_flash_0_data+0xf0f0bec4>
    bf68:	80803317 	ldw	r2,204(r16)
    bf6c:	81003417 	ldw	r4,208(r16)
    bf70:	8806913a 	slli	r3,r17,4
    bf74:	85803e17 	ldw	r22,248(r16)
    bf78:	2089c83a 	sub	r4,r4,r2
    bf7c:	1d000d04 	addi	r20,r3,52
    bf80:	8529883a 	add	r20,r16,r20
    bf84:	21000044 	addi	r4,r4,1
    bf88:	80c7883a 	add	r3,r16,r3
    bf8c:	a1000115 	stw	r4,4(r20)
    bf90:	19000e17 	ldw	r4,56(r3)
    bf94:	a0800015 	stw	r2,0(r20)
    bf98:	b00b883a 	mov	r5,r22
    bf9c:	00016240 	call	1624 <__divsi3>
    bfa0:	80c03517 	ldw	r3,212(r16)
    bfa4:	a0800215 	stw	r2,8(r20)
    bfa8:	a5800315 	stw	r22,12(r20)
    bfac:	00800044 	movi	r2,1
    bfb0:	8c400044 	addi	r17,r17,1
    bfb4:	18bfc61e 	bne	r3,r2,bed0 <__alt_mem_onchip_flash_0_data+0xf0f0bed0>
    bfb8:	a83fc51e 	bne	r21,zero,bed0 <__alt_mem_onchip_flash_0_data+0xf0f0bed0>
    bfbc:	80803617 	ldw	r2,216(r16)
    bfc0:	81003717 	ldw	r4,220(r16)
    bfc4:	8806913a 	slli	r3,r17,4
    bfc8:	85403e17 	ldw	r21,248(r16)
    bfcc:	2089c83a 	sub	r4,r4,r2
    bfd0:	1d000d04 	addi	r20,r3,52
    bfd4:	8529883a 	add	r20,r16,r20
    bfd8:	21000044 	addi	r4,r4,1
    bfdc:	80c7883a 	add	r3,r16,r3
    bfe0:	a1000115 	stw	r4,4(r20)
    bfe4:	19000e17 	ldw	r4,56(r3)
    bfe8:	a0800015 	stw	r2,0(r20)
    bfec:	a80b883a 	mov	r5,r21
    bff0:	00016240 	call	1624 <__divsi3>
    bff4:	80c03817 	ldw	r3,224(r16)
    bff8:	a0800215 	stw	r2,8(r20)
    bffc:	a5400315 	stw	r21,12(r20)
    c000:	00800044 	movi	r2,1
    c004:	8c400044 	addi	r17,r17,1
    c008:	18bfb41e 	bne	r3,r2,bedc <__alt_mem_onchip_flash_0_data+0xf0f0bedc>
    c00c:	983fb31e 	bne	r19,zero,bedc <__alt_mem_onchip_flash_0_data+0xf0f0bedc>
    c010:	80803917 	ldw	r2,228(r16)
    c014:	81003a17 	ldw	r4,232(r16)
    c018:	8806913a 	slli	r3,r17,4
    c01c:	85003e17 	ldw	r20,248(r16)
    c020:	2089c83a 	sub	r4,r4,r2
    c024:	1cc00d04 	addi	r19,r3,52
    c028:	84e7883a 	add	r19,r16,r19
    c02c:	21000044 	addi	r4,r4,1
    c030:	80c7883a 	add	r3,r16,r3
    c034:	99000115 	stw	r4,4(r19)
    c038:	19000e17 	ldw	r4,56(r3)
    c03c:	98800015 	stw	r2,0(r19)
    c040:	a00b883a 	mov	r5,r20
    c044:	00016240 	call	1624 <__divsi3>
    c048:	80c03b17 	ldw	r3,236(r16)
    c04c:	98800215 	stw	r2,8(r19)
    c050:	9d000315 	stw	r20,12(r19)
    c054:	00800044 	movi	r2,1
    c058:	8c400044 	addi	r17,r17,1
    c05c:	18bfa21e 	bne	r3,r2,bee8 <__alt_mem_onchip_flash_0_data+0xf0f0bee8>
    c060:	903fa11e 	bne	r18,zero,bee8 <__alt_mem_onchip_flash_0_data+0xf0f0bee8>
    c064:	80803c17 	ldw	r2,240(r16)
    c068:	81003d17 	ldw	r4,244(r16)
    c06c:	8806913a 	slli	r3,r17,4
    c070:	84c03e17 	ldw	r19,248(r16)
    c074:	2089c83a 	sub	r4,r4,r2
    c078:	1c800d04 	addi	r18,r3,52
    c07c:	84a5883a 	add	r18,r16,r18
    c080:	21000044 	addi	r4,r4,1
    c084:	91000115 	stw	r4,4(r18)
    c088:	80c7883a 	add	r3,r16,r3
    c08c:	19000e17 	ldw	r4,56(r3)
    c090:	90800015 	stw	r2,0(r18)
    c094:	980b883a 	mov	r5,r19
    c098:	00016240 	call	1624 <__divsi3>
    c09c:	90800215 	stw	r2,8(r18)
    c0a0:	94c00315 	stw	r19,12(r18)
    c0a4:	8c400044 	addi	r17,r17,1
    c0a8:	003f8f06 	br	bee8 <__alt_mem_onchip_flash_0_data+0xf0f0bee8>
    c0ac:	20c02f17 	ldw	r3,188(r4)
    c0b0:	00800044 	movi	r2,1
    c0b4:	18800926 	beq	r3,r2,c0dc <altera_onchip_flash_init+0x288>
    c0b8:	20c03217 	ldw	r3,200(r4)
    c0bc:	18801026 	beq	r3,r2,c100 <altera_onchip_flash_init+0x2ac>
    c0c0:	20c03517 	ldw	r3,212(r4)
    c0c4:	18800a26 	beq	r3,r2,c0f0 <altera_onchip_flash_init+0x29c>
    c0c8:	20c03817 	ldw	r3,224(r4)
    c0cc:	0025883a 	mov	r18,zero
    c0d0:	0023883a 	mov	r17,zero
    c0d4:	18bf811e 	bne	r3,r2,bedc <__alt_mem_onchip_flash_0_data+0xf0f0bedc>
    c0d8:	003fcd06 	br	c010 <__alt_mem_onchip_flash_0_data+0xf0f0c010>
    c0dc:	0025883a 	mov	r18,zero
    c0e0:	0027883a 	mov	r19,zero
    c0e4:	002b883a 	mov	r21,zero
    c0e8:	0029883a 	mov	r20,zero
    c0ec:	003f8e06 	br	bf28 <__alt_mem_onchip_flash_0_data+0xf0f0bf28>
    c0f0:	0025883a 	mov	r18,zero
    c0f4:	0027883a 	mov	r19,zero
    c0f8:	0023883a 	mov	r17,zero
    c0fc:	003faf06 	br	bfbc <__alt_mem_onchip_flash_0_data+0xf0f0bfbc>
    c100:	0025883a 	mov	r18,zero
    c104:	0027883a 	mov	r19,zero
    c108:	002b883a 	mov	r21,zero
    c10c:	0023883a 	mov	r17,zero
    c110:	003f9506 	br	bf68 <__alt_mem_onchip_flash_0_data+0xf0f0bf68>

0000c114 <alt_onchip_flash_poll_for_status_to_go_idle>:
    c114:	00817db4 	movhi	r2,1526
    c118:	10b84004 	addi	r2,r2,-7936
    c11c:	21002e17 	ldw	r4,184(r4)
    c120:	00000106 	br	c128 <alt_onchip_flash_poll_for_status_to_go_idle+0x14>
    c124:	10000626 	beq	r2,zero,c140 <alt_onchip_flash_poll_for_status_to_go_idle+0x2c>
    c128:	20c00037 	ldwio	r3,0(r4)
    c12c:	18c000cc 	andi	r3,r3,3
    c130:	10bfffc4 	addi	r2,r2,-1
    c134:	183ffb1e 	bne	r3,zero,c124 <__alt_mem_onchip_flash_0_data+0xf0f0c124>
    c138:	0005883a 	mov	r2,zero
    c13c:	f800283a 	ret
    c140:	00bfe304 	movi	r2,-116
    c144:	f800283a 	ret

0000c148 <alt_onchip_flash_poll_for_status_erase_passed>:
    c148:	00817db4 	movhi	r2,1526
    c14c:	10b84004 	addi	r2,r2,-7936
    c150:	21002e17 	ldw	r4,184(r4)
    c154:	00000106 	br	c15c <alt_onchip_flash_poll_for_status_erase_passed+0x14>
    c158:	10000626 	beq	r2,zero,c174 <alt_onchip_flash_poll_for_status_erase_passed+0x2c>
    c15c:	20c00037 	ldwio	r3,0(r4)
    c160:	18c0040c 	andi	r3,r3,16
    c164:	10bfffc4 	addi	r2,r2,-1
    c168:	183ffb26 	beq	r3,zero,c158 <__alt_mem_onchip_flash_0_data+0xf0f0c158>
    c16c:	0005883a 	mov	r2,zero
    c170:	f800283a 	ret
    c174:	00bfe304 	movi	r2,-116
    c178:	f800283a 	ret

0000c17c <alt_onchip_flash_poll_for_status_write_passed>:
    c17c:	00817db4 	movhi	r2,1526
    c180:	10b84004 	addi	r2,r2,-7936
    c184:	21002e17 	ldw	r4,184(r4)
    c188:	00000106 	br	c190 <alt_onchip_flash_poll_for_status_write_passed+0x14>
    c18c:	10000626 	beq	r2,zero,c1a8 <alt_onchip_flash_poll_for_status_write_passed+0x2c>
    c190:	20c00037 	ldwio	r3,0(r4)
    c194:	18c0020c 	andi	r3,r3,8
    c198:	10bfffc4 	addi	r2,r2,-1
    c19c:	183ffb26 	beq	r3,zero,c18c <__alt_mem_onchip_flash_0_data+0xf0f0c18c>
    c1a0:	0005883a 	mov	r2,zero
    c1a4:	f800283a 	ret
    c1a8:	00bfe304 	movi	r2,-116
    c1ac:	f800283a 	ret

0000c1b0 <alt_alarm_start>:
    c1b0:	008000f4 	movhi	r2,3
    c1b4:	108fbc04 	addi	r2,r2,16112
    c1b8:	10800017 	ldw	r2,0(r2)
    c1bc:	10001d26 	beq	r2,zero,c234 <alt_alarm_start+0x84>
    c1c0:	20001e26 	beq	r4,zero,c23c <alt_alarm_start+0x8c>
    c1c4:	21800315 	stw	r6,12(r4)
    c1c8:	21c00515 	stw	r7,20(r4)
    c1cc:	0007303a 	rdctl	r3,status
    c1d0:	00bfff84 	movi	r2,-2
    c1d4:	1884703a 	and	r2,r3,r2
    c1d8:	1001703a 	wrctl	status,r2
    c1dc:	008000f4 	movhi	r2,3
    c1e0:	108fbb04 	addi	r2,r2,16108
    c1e4:	10800017 	ldw	r2,0(r2)
    c1e8:	11800044 	addi	r6,r2,1
    c1ec:	314b883a 	add	r5,r6,r5
    c1f0:	21400215 	stw	r5,8(r4)
    c1f4:	28800c36 	bltu	r5,r2,c228 <alt_alarm_start+0x78>
    c1f8:	20000405 	stb	zero,16(r4)
    c1fc:	008000f4 	movhi	r2,3
    c200:	1088c104 	addi	r2,r2,8964
    c204:	11400017 	ldw	r5,0(r2)
    c208:	20800115 	stw	r2,4(r4)
    c20c:	21400015 	stw	r5,0(r4)
    c210:	11400017 	ldw	r5,0(r2)
    c214:	11000015 	stw	r4,0(r2)
    c218:	29000115 	stw	r4,4(r5)
    c21c:	1801703a 	wrctl	status,r3
    c220:	0005883a 	mov	r2,zero
    c224:	f800283a 	ret
    c228:	00800044 	movi	r2,1
    c22c:	20800405 	stb	r2,16(r4)
    c230:	003ff206 	br	c1fc <__alt_mem_onchip_flash_0_data+0xf0f0c1fc>
    c234:	00bfde84 	movi	r2,-134
    c238:	f800283a 	ret
    c23c:	00bffa84 	movi	r2,-22
    c240:	f800283a 	ret

0000c244 <alt_dcache_flush>:
    c244:	214b883a 	add	r5,r4,r5
    c248:	2005883a 	mov	r2,r4
    c24c:	2140092e 	bgeu	r4,r5,c274 <alt_dcache_flush+0x30>
    c250:	1000001b 	flushda	0(r2)
    c254:	10800804 	addi	r2,r2,32
    c258:	117ffd36 	bltu	r2,r5,c250 <__alt_mem_onchip_flash_0_data+0xf0f0c250>
    c25c:	0104303a 	nor	r2,zero,r4
    c260:	1145883a 	add	r2,r2,r5
    c264:	1004d17a 	srli	r2,r2,5
    c268:	10800044 	addi	r2,r2,1
    c26c:	1004917a 	slli	r2,r2,5
    c270:	2085883a 	add	r2,r4,r2
    c274:	210007cc 	andi	r4,r4,31
    c278:	20000126 	beq	r4,zero,c280 <alt_dcache_flush+0x3c>
    c27c:	1000001b 	flushda	0(r2)
    c280:	f800283a 	ret

0000c284 <alt_dcache_flush_all>:
    c284:	0005883a 	mov	r2,zero
    c288:	00c80004 	movi	r3,8192
    c28c:	1000003b 	flushd	0(r2)
    c290:	10800804 	addi	r2,r2,32
    c294:	10fffd1e 	bne	r2,r3,c28c <__alt_mem_onchip_flash_0_data+0xf0f0c28c>
    c298:	f800283a 	ret

0000c29c <alt_dev_llist_insert>:
    c29c:	deffff04 	addi	sp,sp,-4
    c2a0:	dfc00015 	stw	ra,0(sp)
    c2a4:	20000c26 	beq	r4,zero,c2d8 <alt_dev_llist_insert+0x3c>
    c2a8:	20800217 	ldw	r2,8(r4)
    c2ac:	10000a26 	beq	r2,zero,c2d8 <alt_dev_llist_insert+0x3c>
    c2b0:	28c00017 	ldw	r3,0(r5)
    c2b4:	21400115 	stw	r5,4(r4)
    c2b8:	0005883a 	mov	r2,zero
    c2bc:	20c00015 	stw	r3,0(r4)
    c2c0:	28c00017 	ldw	r3,0(r5)
    c2c4:	29000015 	stw	r4,0(r5)
    c2c8:	19000115 	stw	r4,4(r3)
    c2cc:	dfc00017 	ldw	ra,0(sp)
    c2d0:	dec00104 	addi	sp,sp,4
    c2d4:	f800283a 	ret
    c2d8:	008000f4 	movhi	r2,3
    c2dc:	1088b804 	addi	r2,r2,8928
    c2e0:	10800017 	ldw	r2,0(r2)
    c2e4:	10000526 	beq	r2,zero,c2fc <alt_dev_llist_insert+0x60>
    c2e8:	103ee83a 	callr	r2
    c2ec:	00c00584 	movi	r3,22
    c2f0:	10c00015 	stw	r3,0(r2)
    c2f4:	00bffa84 	movi	r2,-22
    c2f8:	003ff406 	br	c2cc <__alt_mem_onchip_flash_0_data+0xf0f0c2cc>
    c2fc:	008000f4 	movhi	r2,3
    c300:	108fb604 	addi	r2,r2,16088
    c304:	003ff906 	br	c2ec <__alt_mem_onchip_flash_0_data+0xf0f0c2ec>

0000c308 <_do_ctors>:
    c308:	defffc04 	addi	sp,sp,-16
    c30c:	dc800215 	stw	r18,8(sp)
    c310:	dc000015 	stw	r16,0(sp)
    c314:	dfc00315 	stw	ra,12(sp)
    c318:	dc400115 	stw	r17,4(sp)
    c31c:	04000074 	movhi	r16,1
    c320:	84341f04 	addi	r16,r16,-12164
    c324:	04800074 	movhi	r18,1
    c328:	94b42004 	addi	r18,r18,-12160
    c32c:	84800936 	bltu	r16,r18,c354 <_do_ctors+0x4c>
    c330:	84a5c83a 	sub	r18,r16,r18
    c334:	9024d0ba 	srli	r18,r18,2
    c338:	0023883a 	mov	r17,zero
    c33c:	94800044 	addi	r18,r18,1
    c340:	80800017 	ldw	r2,0(r16)
    c344:	8c400044 	addi	r17,r17,1
    c348:	843fff04 	addi	r16,r16,-4
    c34c:	103ee83a 	callr	r2
    c350:	8cbffb1e 	bne	r17,r18,c340 <__alt_mem_onchip_flash_0_data+0xf0f0c340>
    c354:	dfc00317 	ldw	ra,12(sp)
    c358:	dc800217 	ldw	r18,8(sp)
    c35c:	dc400117 	ldw	r17,4(sp)
    c360:	dc000017 	ldw	r16,0(sp)
    c364:	dec00404 	addi	sp,sp,16
    c368:	f800283a 	ret

0000c36c <_do_dtors>:
    c36c:	defffc04 	addi	sp,sp,-16
    c370:	dc800215 	stw	r18,8(sp)
    c374:	dc000015 	stw	r16,0(sp)
    c378:	dfc00315 	stw	ra,12(sp)
    c37c:	dc400115 	stw	r17,4(sp)
    c380:	04000074 	movhi	r16,1
    c384:	84341f04 	addi	r16,r16,-12164
    c388:	04800074 	movhi	r18,1
    c38c:	94b42004 	addi	r18,r18,-12160
    c390:	84800936 	bltu	r16,r18,c3b8 <_do_dtors+0x4c>
    c394:	84a5c83a 	sub	r18,r16,r18
    c398:	9024d0ba 	srli	r18,r18,2
    c39c:	0023883a 	mov	r17,zero
    c3a0:	94800044 	addi	r18,r18,1
    c3a4:	80800017 	ldw	r2,0(r16)
    c3a8:	8c400044 	addi	r17,r17,1
    c3ac:	843fff04 	addi	r16,r16,-4
    c3b0:	103ee83a 	callr	r2
    c3b4:	8cbffb1e 	bne	r17,r18,c3a4 <__alt_mem_onchip_flash_0_data+0xf0f0c3a4>
    c3b8:	dfc00317 	ldw	ra,12(sp)
    c3bc:	dc800217 	ldw	r18,8(sp)
    c3c0:	dc400117 	ldw	r17,4(sp)
    c3c4:	dc000017 	ldw	r16,0(sp)
    c3c8:	dec00404 	addi	sp,sp,16
    c3cc:	f800283a 	ret

0000c3d0 <alt_find_dev>:
    c3d0:	defffb04 	addi	sp,sp,-20
    c3d4:	dc000015 	stw	r16,0(sp)
    c3d8:	2c000017 	ldw	r16,0(r5)
    c3dc:	dcc00315 	stw	r19,12(sp)
    c3e0:	dc800215 	stw	r18,8(sp)
    c3e4:	dc400115 	stw	r17,4(sp)
    c3e8:	dfc00415 	stw	ra,16(sp)
    c3ec:	2823883a 	mov	r17,r5
    c3f0:	2027883a 	mov	r19,r4
    c3f4:	000187c0 	call	187c <strlen>
    c3f8:	14800044 	addi	r18,r2,1
    c3fc:	8c00031e 	bne	r17,r16,c40c <alt_find_dev+0x3c>
    c400:	00000f06 	br	c440 <alt_find_dev+0x70>
    c404:	84000017 	ldw	r16,0(r16)
    c408:	8c000d26 	beq	r17,r16,c440 <alt_find_dev+0x70>
    c40c:	81000217 	ldw	r4,8(r16)
    c410:	980b883a 	mov	r5,r19
    c414:	900d883a 	mov	r6,r18
    c418:	000cd200 	call	cd20 <memcmp>
    c41c:	103ff91e 	bne	r2,zero,c404 <__alt_mem_onchip_flash_0_data+0xf0f0c404>
    c420:	8005883a 	mov	r2,r16
    c424:	dfc00417 	ldw	ra,16(sp)
    c428:	dcc00317 	ldw	r19,12(sp)
    c42c:	dc800217 	ldw	r18,8(sp)
    c430:	dc400117 	ldw	r17,4(sp)
    c434:	dc000017 	ldw	r16,0(sp)
    c438:	dec00504 	addi	sp,sp,20
    c43c:	f800283a 	ret
    c440:	0021883a 	mov	r16,zero
    c444:	8005883a 	mov	r2,r16
    c448:	dfc00417 	ldw	ra,16(sp)
    c44c:	dcc00317 	ldw	r19,12(sp)
    c450:	dc800217 	ldw	r18,8(sp)
    c454:	dc400117 	ldw	r17,4(sp)
    c458:	dc000017 	ldw	r16,0(sp)
    c45c:	dec00504 	addi	sp,sp,20
    c460:	f800283a 	ret

0000c464 <alt_flash_open_dev>:
    c464:	defffe04 	addi	sp,sp,-8
    c468:	d1601004 	addi	r5,gp,-32704
    c46c:	dc000015 	stw	r16,0(sp)
    c470:	dfc00115 	stw	ra,4(sp)
    c474:	2021883a 	mov	r16,r4
    c478:	000c3d00 	call	c3d0 <alt_find_dev>
    c47c:	10000826 	beq	r2,zero,c4a0 <alt_flash_open_dev+0x3c>
    c480:	10c00317 	ldw	r3,12(r2)
    c484:	18000626 	beq	r3,zero,c4a0 <alt_flash_open_dev+0x3c>
    c488:	1009883a 	mov	r4,r2
    c48c:	800b883a 	mov	r5,r16
    c490:	dfc00117 	ldw	ra,4(sp)
    c494:	dc000017 	ldw	r16,0(sp)
    c498:	dec00204 	addi	sp,sp,8
    c49c:	1800683a 	jmp	r3
    c4a0:	dfc00117 	ldw	ra,4(sp)
    c4a4:	dc000017 	ldw	r16,0(sp)
    c4a8:	dec00204 	addi	sp,sp,8
    c4ac:	f800283a 	ret

0000c4b0 <alt_flash_close_dev>:
    c4b0:	20000326 	beq	r4,zero,c4c0 <alt_flash_close_dev+0x10>
    c4b4:	20800417 	ldw	r2,16(r4)
    c4b8:	10000126 	beq	r2,zero,c4c0 <alt_flash_close_dev+0x10>
    c4bc:	1000683a 	jmp	r2
    c4c0:	f800283a 	ret

0000c4c4 <alt_icache_flush_all>:
    c4c4:	0009883a 	mov	r4,zero
    c4c8:	01480004 	movi	r5,8192
    c4cc:	000ca6c1 	jmpi	ca6c <alt_icache_flush>

0000c4d0 <alt_ic_isr_register>:
    c4d0:	000c56c1 	jmpi	c56c <alt_iic_isr_register>

0000c4d4 <alt_ic_irq_enable>:
    c4d4:	0007303a 	rdctl	r3,status
    c4d8:	00bfff84 	movi	r2,-2
    c4dc:	1884703a 	and	r2,r3,r2
    c4e0:	1001703a 	wrctl	status,r2
    c4e4:	008000f4 	movhi	r2,3
    c4e8:	108fba04 	addi	r2,r2,16104
    c4ec:	01800044 	movi	r6,1
    c4f0:	11000017 	ldw	r4,0(r2)
    c4f4:	314a983a 	sll	r5,r6,r5
    c4f8:	290ab03a 	or	r5,r5,r4
    c4fc:	11400015 	stw	r5,0(r2)
    c500:	10800017 	ldw	r2,0(r2)
    c504:	100170fa 	wrctl	ienable,r2
    c508:	1801703a 	wrctl	status,r3
    c50c:	0005883a 	mov	r2,zero
    c510:	f800283a 	ret

0000c514 <alt_ic_irq_disable>:
    c514:	0007303a 	rdctl	r3,status
    c518:	00bfff84 	movi	r2,-2
    c51c:	1884703a 	and	r2,r3,r2
    c520:	1001703a 	wrctl	status,r2
    c524:	008000f4 	movhi	r2,3
    c528:	108fba04 	addi	r2,r2,16104
    c52c:	01bfff84 	movi	r6,-2
    c530:	11000017 	ldw	r4,0(r2)
    c534:	314a183a 	rol	r5,r6,r5
    c538:	290a703a 	and	r5,r5,r4
    c53c:	11400015 	stw	r5,0(r2)
    c540:	10800017 	ldw	r2,0(r2)
    c544:	100170fa 	wrctl	ienable,r2
    c548:	1801703a 	wrctl	status,r3
    c54c:	0005883a 	mov	r2,zero
    c550:	f800283a 	ret

0000c554 <alt_ic_irq_enabled>:
    c554:	000530fa 	rdctl	r2,ienable
    c558:	00c00044 	movi	r3,1
    c55c:	194a983a 	sll	r5,r3,r5
    c560:	1144703a 	and	r2,r2,r5
    c564:	1004c03a 	cmpne	r2,r2,zero
    c568:	f800283a 	ret

0000c56c <alt_iic_isr_register>:
    c56c:	defffe04 	addi	sp,sp,-8
    c570:	dfc00115 	stw	ra,4(sp)
    c574:	dc000015 	stw	r16,0(sp)
    c578:	00c007c4 	movi	r3,31
    c57c:	19401316 	blt	r3,r5,c5cc <alt_iic_isr_register+0x60>
    c580:	0021303a 	rdctl	r16,status
    c584:	00ffff84 	movi	r3,-2
    c588:	80c6703a 	and	r3,r16,r3
    c58c:	1801703a 	wrctl	status,r3
    c590:	280490fa 	slli	r2,r5,3
    c594:	00c000f4 	movhi	r3,3
    c598:	18cfc804 	addi	r3,r3,16160
    c59c:	1885883a 	add	r2,r3,r2
    c5a0:	11800015 	stw	r6,0(r2)
    c5a4:	11c00115 	stw	r7,4(r2)
    c5a8:	30000626 	beq	r6,zero,c5c4 <alt_iic_isr_register+0x58>
    c5ac:	000c4d40 	call	c4d4 <alt_ic_irq_enable>
    c5b0:	8001703a 	wrctl	status,r16
    c5b4:	dfc00117 	ldw	ra,4(sp)
    c5b8:	dc000017 	ldw	r16,0(sp)
    c5bc:	dec00204 	addi	sp,sp,8
    c5c0:	f800283a 	ret
    c5c4:	000c5140 	call	c514 <alt_ic_irq_disable>
    c5c8:	003ff906 	br	c5b0 <__alt_mem_onchip_flash_0_data+0xf0f0c5b0>
    c5cc:	00bffa84 	movi	r2,-22
    c5d0:	003ff806 	br	c5b4 <__alt_mem_onchip_flash_0_data+0xf0f0c5b4>

0000c5d4 <alt_open_fd.constprop.0>:
    c5d4:	defffe04 	addi	sp,sp,-8
    c5d8:	dc000015 	stw	r16,0(sp)
    c5dc:	2021883a 	mov	r16,r4
    c5e0:	2809883a 	mov	r4,r5
    c5e4:	300b883a 	mov	r5,r6
    c5e8:	01807fc4 	movi	r6,511
    c5ec:	dfc00115 	stw	ra,4(sp)
    c5f0:	000c6bc0 	call	c6bc <open>
    c5f4:	10000f16 	blt	r2,zero,c634 <alt_open_fd.constprop.0+0x60>
    c5f8:	10c00324 	muli	r3,r2,12
    c5fc:	1009883a 	mov	r4,r2
    c600:	008000f4 	movhi	r2,3
    c604:	1083e304 	addi	r2,r2,3980
    c608:	10c5883a 	add	r2,r2,r3
    c60c:	11400017 	ldw	r5,0(r2)
    c610:	10c00117 	ldw	r3,4(r2)
    c614:	10800217 	ldw	r2,8(r2)
    c618:	81400015 	stw	r5,0(r16)
    c61c:	80c00115 	stw	r3,4(r16)
    c620:	80800215 	stw	r2,8(r16)
    c624:	dfc00117 	ldw	ra,4(sp)
    c628:	dc000017 	ldw	r16,0(sp)
    c62c:	dec00204 	addi	sp,sp,8
    c630:	000b0081 	jmpi	b008 <alt_release_fd>
    c634:	dfc00117 	ldw	ra,4(sp)
    c638:	dc000017 	ldw	r16,0(sp)
    c63c:	dec00204 	addi	sp,sp,8
    c640:	f800283a 	ret

0000c644 <alt_io_redirect>:
    c644:	defffb04 	addi	sp,sp,-20
    c648:	2005883a 	mov	r2,r4
    c64c:	dc400115 	stw	r17,4(sp)
    c650:	dc000015 	stw	r16,0(sp)
    c654:	04400044 	movi	r17,1
    c658:	040000f4 	movhi	r16,3
    c65c:	8403e604 	addi	r16,r16,3992
    c660:	dcc00315 	stw	r19,12(sp)
    c664:	dc800215 	stw	r18,8(sp)
    c668:	2827883a 	mov	r19,r5
    c66c:	3025883a 	mov	r18,r6
    c670:	100b883a 	mov	r5,r2
    c674:	8009883a 	mov	r4,r16
    c678:	880d883a 	mov	r6,r17
    c67c:	dfc00415 	stw	ra,16(sp)
    c680:	000c5d40 	call	c5d4 <alt_open_fd.constprop.0>
    c684:	813ffd04 	addi	r4,r16,-12
    c688:	980b883a 	mov	r5,r19
    c68c:	000d883a 	mov	r6,zero
    c690:	000c5d40 	call	c5d4 <alt_open_fd.constprop.0>
    c694:	81000304 	addi	r4,r16,12
    c698:	900b883a 	mov	r5,r18
    c69c:	880d883a 	mov	r6,r17
    c6a0:	dfc00417 	ldw	ra,16(sp)
    c6a4:	dcc00317 	ldw	r19,12(sp)
    c6a8:	dc800217 	ldw	r18,8(sp)
    c6ac:	dc400117 	ldw	r17,4(sp)
    c6b0:	dc000017 	ldw	r16,0(sp)
    c6b4:	dec00504 	addi	sp,sp,20
    c6b8:	000c5d41 	jmpi	c5d4 <alt_open_fd.constprop.0>

0000c6bc <open>:
    c6bc:	defff904 	addi	sp,sp,-28
    c6c0:	dc800215 	stw	r18,8(sp)
    c6c4:	2825883a 	mov	r18,r5
    c6c8:	014000f4 	movhi	r5,3
    c6cc:	2948b404 	addi	r5,r5,8912
    c6d0:	dd400515 	stw	r21,20(sp)
    c6d4:	dd000415 	stw	r20,16(sp)
    c6d8:	dcc00315 	stw	r19,12(sp)
    c6dc:	dc400115 	stw	r17,4(sp)
    c6e0:	dfc00615 	stw	ra,24(sp)
    c6e4:	dc000015 	stw	r16,0(sp)
    c6e8:	2027883a 	mov	r19,r4
    c6ec:	3029883a 	mov	r20,r6
    c6f0:	000c3d00 	call	c3d0 <alt_find_dev>
    c6f4:	1023883a 	mov	r17,r2
    c6f8:	002b883a 	mov	r21,zero
    c6fc:	10004026 	beq	r2,zero,c800 <open+0x144>
    c700:	8809883a 	mov	r4,r17
    c704:	000ca140 	call	ca14 <alt_get_fd>
    c708:	1021883a 	mov	r16,r2
    c70c:	10003116 	blt	r2,zero,c7d4 <open+0x118>
    c710:	11000324 	muli	r4,r2,12
    c714:	018000f4 	movhi	r6,3
    c718:	3183e304 	addi	r6,r6,3980
    c71c:	00d00034 	movhi	r3,16384
    c720:	18ffffc4 	addi	r3,r3,-1
    c724:	3109883a 	add	r4,r6,r4
    c728:	90c6703a 	and	r3,r18,r3
    c72c:	20c00215 	stw	r3,8(r4)
    c730:	a8001126 	beq	r21,zero,c778 <open+0xbc>
    c734:	88800317 	ldw	r2,12(r17)
    c738:	10000526 	beq	r2,zero,c750 <open+0x94>
    c73c:	980b883a 	mov	r5,r19
    c740:	900d883a 	mov	r6,r18
    c744:	a00f883a 	mov	r7,r20
    c748:	103ee83a 	callr	r2
    c74c:	10003616 	blt	r2,zero,c828 <open+0x16c>
    c750:	8005883a 	mov	r2,r16
    c754:	dfc00617 	ldw	ra,24(sp)
    c758:	dd400517 	ldw	r21,20(sp)
    c75c:	dd000417 	ldw	r20,16(sp)
    c760:	dcc00317 	ldw	r19,12(sp)
    c764:	dc800217 	ldw	r18,8(sp)
    c768:	dc400117 	ldw	r17,4(sp)
    c76c:	dc000017 	ldw	r16,0(sp)
    c770:	dec00704 	addi	sp,sp,28
    c774:	f800283a 	ret
    c778:	008000f4 	movhi	r2,3
    c77c:	1088b304 	addi	r2,r2,8908
    c780:	18d00034 	orhi	r3,r3,16384
    c784:	11400017 	ldw	r5,0(r2)
    c788:	20c00215 	stw	r3,8(r4)
    c78c:	20800017 	ldw	r2,0(r4)
    c790:	3011883a 	mov	r8,r6
    c794:	32400204 	addi	r9,r6,8
    c798:	0007883a 	mov	r3,zero
    c79c:	00000306 	br	c7ac <open+0xf0>
    c7a0:	18c00044 	addi	r3,r3,1
    c7a4:	4a400304 	addi	r9,r9,12
    c7a8:	28ffe236 	bltu	r5,r3,c734 <__alt_mem_onchip_flash_0_data+0xf0f0c734>
    c7ac:	42800017 	ldw	r10,0(r8)
    c7b0:	42000304 	addi	r8,r8,12
    c7b4:	12bffa1e 	bne	r2,r10,c7a0 <__alt_mem_onchip_flash_0_data+0xf0f0c7a0>
    c7b8:	49c00017 	ldw	r7,0(r9)
    c7bc:	383ff80e 	bge	r7,zero,c7a0 <__alt_mem_onchip_flash_0_data+0xf0f0c7a0>
    c7c0:	19c00324 	muli	r7,r3,12
    c7c4:	31cf883a 	add	r7,r6,r7
    c7c8:	21fff526 	beq	r4,r7,c7a0 <__alt_mem_onchip_flash_0_data+0xf0f0c7a0>
    c7cc:	04400344 	movi	r17,13
    c7d0:	00000106 	br	c7d8 <open+0x11c>
    c7d4:	00a3c83a 	sub	r17,zero,r2
    c7d8:	8009883a 	mov	r4,r16
    c7dc:	000b0080 	call	b008 <alt_release_fd>
    c7e0:	008000f4 	movhi	r2,3
    c7e4:	1088b804 	addi	r2,r2,8928
    c7e8:	10800017 	ldw	r2,0(r2)
    c7ec:	10000b26 	beq	r2,zero,c81c <open+0x160>
    c7f0:	103ee83a 	callr	r2
    c7f4:	14400015 	stw	r17,0(r2)
    c7f8:	043fffc4 	movi	r16,-1
    c7fc:	003fd406 	br	c750 <__alt_mem_onchip_flash_0_data+0xf0f0c750>
    c800:	9809883a 	mov	r4,r19
    c804:	000c9680 	call	c968 <alt_find_file>
    c808:	1023883a 	mov	r17,r2
    c80c:	1000081e 	bne	r2,zero,c830 <open+0x174>
    c810:	044004c4 	movi	r17,19
    c814:	043fffc4 	movi	r16,-1
    c818:	003fef06 	br	c7d8 <__alt_mem_onchip_flash_0_data+0xf0f0c7d8>
    c81c:	008000f4 	movhi	r2,3
    c820:	108fb604 	addi	r2,r2,16088
    c824:	003ff306 	br	c7f4 <__alt_mem_onchip_flash_0_data+0xf0f0c7f4>
    c828:	00a3c83a 	sub	r17,zero,r2
    c82c:	003fea06 	br	c7d8 <__alt_mem_onchip_flash_0_data+0xf0f0c7d8>
    c830:	05400044 	movi	r21,1
    c834:	003fb206 	br	c700 <__alt_mem_onchip_flash_0_data+0xf0f0c700>

0000c838 <alt_alarm_stop>:
    c838:	0005303a 	rdctl	r2,status
    c83c:	00ffff84 	movi	r3,-2
    c840:	10c6703a 	and	r3,r2,r3
    c844:	1801703a 	wrctl	status,r3
    c848:	20c00017 	ldw	r3,0(r4)
    c84c:	21400117 	ldw	r5,4(r4)
    c850:	19400115 	stw	r5,4(r3)
    c854:	21400117 	ldw	r5,4(r4)
    c858:	21000115 	stw	r4,4(r4)
    c85c:	28c00015 	stw	r3,0(r5)
    c860:	21000015 	stw	r4,0(r4)
    c864:	1001703a 	wrctl	status,r2
    c868:	f800283a 	ret

0000c86c <alt_tick>:
    c86c:	d0a70d17 	ldw	r2,-25548(gp)
    c870:	defffa04 	addi	sp,sp,-24
    c874:	dc000015 	stw	r16,0(sp)
    c878:	d4201317 	ldw	r16,-32692(gp)
    c87c:	10800044 	addi	r2,r2,1
    c880:	dc800215 	stw	r18,8(sp)
    c884:	dfc00515 	stw	ra,20(sp)
    c888:	dd000415 	stw	r20,16(sp)
    c88c:	dcc00315 	stw	r19,12(sp)
    c890:	dc400115 	stw	r17,4(sp)
    c894:	d4a01304 	addi	r18,gp,-32692
    c898:	d0a70d15 	stw	r2,-25548(gp)
    c89c:	84801c26 	beq	r16,r18,c910 <alt_tick+0xa4>
    c8a0:	04c00044 	movi	r19,1
    c8a4:	053fff84 	movi	r20,-2
    c8a8:	00000206 	br	c8b4 <alt_tick+0x48>
    c8ac:	8821883a 	mov	r16,r17
    c8b0:	8c801726 	beq	r17,r18,c910 <alt_tick+0xa4>
    c8b4:	80800403 	ldbu	r2,16(r16)
    c8b8:	84400017 	ldw	r17,0(r16)
    c8bc:	10000326 	beq	r2,zero,c8cc <alt_tick+0x60>
    c8c0:	d0a70d17 	ldw	r2,-25548(gp)
    c8c4:	1000011e 	bne	r2,zero,c8cc <alt_tick+0x60>
    c8c8:	80000405 	stb	zero,16(r16)
    c8cc:	d0e70d17 	ldw	r3,-25548(gp)
    c8d0:	80800217 	ldw	r2,8(r16)
    c8d4:	18bff536 	bltu	r3,r2,c8ac <__alt_mem_onchip_flash_0_data+0xf0f0c8ac>
    c8d8:	80800403 	ldbu	r2,16(r16)
    c8dc:	103ff31e 	bne	r2,zero,c8ac <__alt_mem_onchip_flash_0_data+0xf0f0c8ac>
    c8e0:	80800317 	ldw	r2,12(r16)
    c8e4:	81000517 	ldw	r4,20(r16)
    c8e8:	103ee83a 	callr	r2
    c8ec:	10001026 	beq	r2,zero,c930 <alt_tick+0xc4>
    c8f0:	81000217 	ldw	r4,8(r16)
    c8f4:	d0e70d17 	ldw	r3,-25548(gp)
    c8f8:	1105883a 	add	r2,r2,r4
    c8fc:	80800215 	stw	r2,8(r16)
    c900:	10ffea2e 	bgeu	r2,r3,c8ac <__alt_mem_onchip_flash_0_data+0xf0f0c8ac>
    c904:	84c00405 	stb	r19,16(r16)
    c908:	8821883a 	mov	r16,r17
    c90c:	8cbfe91e 	bne	r17,r18,c8b4 <__alt_mem_onchip_flash_0_data+0xf0f0c8b4>
    c910:	dfc00517 	ldw	ra,20(sp)
    c914:	dd000417 	ldw	r20,16(sp)
    c918:	dcc00317 	ldw	r19,12(sp)
    c91c:	dc800217 	ldw	r18,8(sp)
    c920:	dc400117 	ldw	r17,4(sp)
    c924:	dc000017 	ldw	r16,0(sp)
    c928:	dec00604 	addi	sp,sp,24
    c92c:	f800283a 	ret
    c930:	0005303a 	rdctl	r2,status
    c934:	1506703a 	and	r3,r2,r20
    c938:	1801703a 	wrctl	status,r3
    c93c:	80c00017 	ldw	r3,0(r16)
    c940:	81000117 	ldw	r4,4(r16)
    c944:	19000115 	stw	r4,4(r3)
    c948:	81000117 	ldw	r4,4(r16)
    c94c:	84000115 	stw	r16,4(r16)
    c950:	20c00015 	stw	r3,0(r4)
    c954:	84000015 	stw	r16,0(r16)
    c958:	1001703a 	wrctl	status,r2
    c95c:	003fd306 	br	c8ac <__alt_mem_onchip_flash_0_data+0xf0f0c8ac>

0000c960 <altera_nios2_gen2_irq_init>:
    c960:	000170fa 	wrctl	ienable,zero
    c964:	f800283a 	ret

0000c968 <alt_find_file>:
    c968:	defffa04 	addi	sp,sp,-24
    c96c:	dd000415 	stw	r20,16(sp)
    c970:	050000f4 	movhi	r20,3
    c974:	a508b604 	addi	r20,r20,8920
    c978:	dc000015 	stw	r16,0(sp)
    c97c:	a4000017 	ldw	r16,0(r20)
    c980:	dc800215 	stw	r18,8(sp)
    c984:	dfc00515 	stw	ra,20(sp)
    c988:	dcc00315 	stw	r19,12(sp)
    c98c:	dc400115 	stw	r17,4(sp)
    c990:	2025883a 	mov	r18,r4
    c994:	85001526 	beq	r16,r20,c9ec <alt_find_file+0x84>
    c998:	04c00bc4 	movi	r19,47
    c99c:	00000906 	br	c9c4 <alt_find_file+0x5c>
    c9a0:	9087883a 	add	r3,r18,r2
    c9a4:	18c00007 	ldb	r3,0(r3)
    c9a8:	100d883a 	mov	r6,r2
    c9ac:	1cc00126 	beq	r3,r19,c9b4 <alt_find_file+0x4c>
    c9b0:	1800021e 	bne	r3,zero,c9bc <alt_find_file+0x54>
    c9b4:	000cd200 	call	cd20 <memcmp>
    c9b8:	10000d26 	beq	r2,zero,c9f0 <alt_find_file+0x88>
    c9bc:	84000017 	ldw	r16,0(r16)
    c9c0:	85000a26 	beq	r16,r20,c9ec <alt_find_file+0x84>
    c9c4:	84400217 	ldw	r17,8(r16)
    c9c8:	8809883a 	mov	r4,r17
    c9cc:	000187c0 	call	187c <strlen>
    c9d0:	8887883a 	add	r3,r17,r2
    c9d4:	18ffffc7 	ldb	r3,-1(r3)
    c9d8:	8809883a 	mov	r4,r17
    c9dc:	900b883a 	mov	r5,r18
    c9e0:	1cffef1e 	bne	r3,r19,c9a0 <__alt_mem_onchip_flash_0_data+0xf0f0c9a0>
    c9e4:	10bfffc4 	addi	r2,r2,-1
    c9e8:	003fed06 	br	c9a0 <__alt_mem_onchip_flash_0_data+0xf0f0c9a0>
    c9ec:	0021883a 	mov	r16,zero
    c9f0:	8005883a 	mov	r2,r16
    c9f4:	dfc00517 	ldw	ra,20(sp)
    c9f8:	dd000417 	ldw	r20,16(sp)
    c9fc:	dcc00317 	ldw	r19,12(sp)
    ca00:	dc800217 	ldw	r18,8(sp)
    ca04:	dc400117 	ldw	r17,4(sp)
    ca08:	dc000017 	ldw	r16,0(sp)
    ca0c:	dec00604 	addi	sp,sp,24
    ca10:	f800283a 	ret

0000ca14 <alt_get_fd>:
    ca14:	01c000f4 	movhi	r7,3
    ca18:	39c3e304 	addi	r7,r7,3980
    ca1c:	3807883a 	mov	r3,r7
    ca20:	0005883a 	mov	r2,zero
    ca24:	01800804 	movi	r6,32
    ca28:	00000206 	br	ca34 <alt_get_fd+0x20>
    ca2c:	10800044 	addi	r2,r2,1
    ca30:	11800c26 	beq	r2,r6,ca64 <alt_get_fd+0x50>
    ca34:	19400017 	ldw	r5,0(r3)
    ca38:	18c00304 	addi	r3,r3,12
    ca3c:	283ffb1e 	bne	r5,zero,ca2c <__alt_mem_onchip_flash_0_data+0xf0f0ca2c>
    ca40:	11800324 	muli	r6,r2,12
    ca44:	00c000f4 	movhi	r3,3
    ca48:	18c8b304 	addi	r3,r3,8908
    ca4c:	19400017 	ldw	r5,0(r3)
    ca50:	398f883a 	add	r7,r7,r6
    ca54:	39000015 	stw	r4,0(r7)
    ca58:	2880030e 	bge	r5,r2,ca68 <alt_get_fd+0x54>
    ca5c:	18800015 	stw	r2,0(r3)
    ca60:	f800283a 	ret
    ca64:	00bffa04 	movi	r2,-24
    ca68:	f800283a 	ret

0000ca6c <alt_icache_flush>:
    ca6c:	00880004 	movi	r2,8192
    ca70:	1140012e 	bgeu	r2,r5,ca78 <alt_icache_flush+0xc>
    ca74:	100b883a 	mov	r5,r2
    ca78:	214b883a 	add	r5,r4,r5
    ca7c:	2005883a 	mov	r2,r4
    ca80:	2140092e 	bgeu	r4,r5,caa8 <alt_icache_flush+0x3c>
    ca84:	1000603a 	flushi	r2
    ca88:	10800804 	addi	r2,r2,32
    ca8c:	117ffd36 	bltu	r2,r5,ca84 <__alt_mem_onchip_flash_0_data+0xf0f0ca84>
    ca90:	0104303a 	nor	r2,zero,r4
    ca94:	2885883a 	add	r2,r5,r2
    ca98:	1004d17a 	srli	r2,r2,5
    ca9c:	10800044 	addi	r2,r2,1
    caa0:	1004917a 	slli	r2,r2,5
    caa4:	2085883a 	add	r2,r4,r2
    caa8:	210007cc 	andi	r4,r4,31
    caac:	20000126 	beq	r4,zero,cab4 <alt_icache_flush+0x48>
    cab0:	1000603a 	flushi	r2
    cab4:	0000203a 	flushp
    cab8:	f800283a 	ret

0000cabc <alt_exception_cause_generated_bad_addr>:
    cabc:	213ffe84 	addi	r4,r4,-6
    cac0:	008003c4 	movi	r2,15
    cac4:	11000736 	bltu	r2,r4,cae4 <alt_exception_cause_generated_bad_addr+0x28>
    cac8:	2109883a 	add	r4,r4,r4
    cacc:	008000f4 	movhi	r2,3
    cad0:	1081ce04 	addi	r2,r2,1848
    cad4:	2109883a 	add	r4,r4,r4
    cad8:	1109883a 	add	r4,r2,r4
    cadc:	20800017 	ldw	r2,0(r4)
    cae0:	f800283a 	ret
    cae4:	0005883a 	mov	r2,zero
    cae8:	f800283a 	ret

0000caec <atexit>:
    caec:	200b883a 	mov	r5,r4
    caf0:	000d883a 	mov	r6,zero
    caf4:	0009883a 	mov	r4,zero
    caf8:	000f883a 	mov	r7,zero
    cafc:	000cd9c1 	jmpi	cd9c <__register_exitproc>

0000cb00 <exit>:
    cb00:	defffe04 	addi	sp,sp,-8
    cb04:	000b883a 	mov	r5,zero
    cb08:	dc000015 	stw	r16,0(sp)
    cb0c:	dfc00115 	stw	ra,4(sp)
    cb10:	2021883a 	mov	r16,r4
    cb14:	000cecc0 	call	cecc <__call_exitprocs>
    cb18:	008000f4 	movhi	r2,3
    cb1c:	1088ae04 	addi	r2,r2,8888
    cb20:	11000017 	ldw	r4,0(r2)
    cb24:	20800f17 	ldw	r2,60(r4)
    cb28:	10000126 	beq	r2,zero,cb30 <exit+0x30>
    cb2c:	103ee83a 	callr	r2
    cb30:	8009883a 	mov	r4,r16
    cb34:	000d06c0 	call	d06c <_exit>

0000cb38 <memalign>:
    cb38:	00c000f4 	movhi	r3,3
    cb3c:	18c8af04 	addi	r3,r3,8892
    cb40:	2005883a 	mov	r2,r4
    cb44:	19000017 	ldw	r4,0(r3)
    cb48:	280d883a 	mov	r6,r5
    cb4c:	100b883a 	mov	r5,r2
    cb50:	000cb541 	jmpi	cb54 <_memalign_r>

0000cb54 <_memalign_r>:
    cb54:	defffa04 	addi	sp,sp,-24
    cb58:	dcc00315 	stw	r19,12(sp)
    cb5c:	dc000015 	stw	r16,0(sp)
    cb60:	dfc00515 	stw	ra,20(sp)
    cb64:	dd000415 	stw	r20,16(sp)
    cb68:	dc800215 	stw	r18,8(sp)
    cb6c:	dc400115 	stw	r17,4(sp)
    cb70:	00800204 	movi	r2,8
    cb74:	2821883a 	mov	r16,r5
    cb78:	2027883a 	mov	r19,r4
    cb7c:	11404f2e 	bgeu	r2,r5,ccbc <_memalign_r+0x168>
    cb80:	008003c4 	movi	r2,15
    cb84:	11400136 	bltu	r2,r5,cb8c <_memalign_r+0x38>
    cb88:	04000404 	movi	r16,16
    cb8c:	308002c4 	addi	r2,r6,11
    cb90:	00c00584 	movi	r3,22
    cb94:	18803c2e 	bgeu	r3,r2,cc88 <_memalign_r+0x134>
    cb98:	04bffe04 	movi	r18,-8
    cb9c:	14a4703a 	and	r18,r2,r18
    cba0:	90003b16 	blt	r18,zero,cc90 <_memalign_r+0x13c>
    cba4:	91803a36 	bltu	r18,r6,cc90 <_memalign_r+0x13c>
    cba8:	81400404 	addi	r5,r16,16
    cbac:	9809883a 	mov	r4,r19
    cbb0:	2c8b883a 	add	r5,r5,r18
    cbb4:	00062b40 	call	62b4 <_malloc_r>
    cbb8:	1023883a 	mov	r17,r2
    cbbc:	10005626 	beq	r2,zero,cd18 <_memalign_r+0x1c4>
    cbc0:	9809883a 	mov	r4,r19
    cbc4:	000af140 	call	af14 <__malloc_lock>
    cbc8:	8809883a 	mov	r4,r17
    cbcc:	800b883a 	mov	r5,r16
    cbd0:	8d3ffe04 	addi	r20,r17,-8
    cbd4:	00016d80 	call	16d8 <__umodsi3>
    cbd8:	10001a26 	beq	r2,zero,cc44 <_memalign_r+0xf0>
    cbdc:	80bfffc4 	addi	r2,r16,-1
    cbe0:	0407c83a 	sub	r3,zero,r16
    cbe4:	8885883a 	add	r2,r17,r2
    cbe8:	10c4703a 	and	r2,r2,r3
    cbec:	10bffe04 	addi	r2,r2,-8
    cbf0:	1507c83a 	sub	r3,r2,r20
    cbf4:	010003c4 	movi	r4,15
    cbf8:	20c0390e 	bge	r4,r3,cce0 <_memalign_r+0x18c>
    cbfc:	89bfff17 	ldw	r6,-4(r17)
    cc00:	017fff04 	movi	r5,-4
    cc04:	1029883a 	mov	r20,r2
    cc08:	314c703a 	and	r6,r6,r5
    cc0c:	30cdc83a 	sub	r6,r6,r3
    cc10:	31400054 	ori	r5,r6,1
    cc14:	11400115 	stw	r5,4(r2)
    cc18:	118d883a 	add	r6,r2,r6
    cc1c:	31c00117 	ldw	r7,4(r6)
    cc20:	9809883a 	mov	r4,r19
    cc24:	880b883a 	mov	r5,r17
    cc28:	38800054 	ori	r2,r7,1
    cc2c:	30800115 	stw	r2,4(r6)
    cc30:	88bfff17 	ldw	r2,-4(r17)
    cc34:	1080004c 	andi	r2,r2,1
    cc38:	1886b03a 	or	r3,r3,r2
    cc3c:	88ffff15 	stw	r3,-4(r17)
    cc40:	000571c0 	call	571c <_free_r>
    cc44:	a0c00117 	ldw	r3,4(r20)
    cc48:	00bfff04 	movi	r2,-4
    cc4c:	1884703a 	and	r2,r3,r2
    cc50:	1485c83a 	sub	r2,r2,r18
    cc54:	00c003c4 	movi	r3,15
    cc58:	18802416 	blt	r3,r2,ccec <_memalign_r+0x198>
    cc5c:	9809883a 	mov	r4,r19
    cc60:	000af180 	call	af18 <__malloc_unlock>
    cc64:	a0800204 	addi	r2,r20,8
    cc68:	dfc00517 	ldw	ra,20(sp)
    cc6c:	dd000417 	ldw	r20,16(sp)
    cc70:	dcc00317 	ldw	r19,12(sp)
    cc74:	dc800217 	ldw	r18,8(sp)
    cc78:	dc400117 	ldw	r17,4(sp)
    cc7c:	dc000017 	ldw	r16,0(sp)
    cc80:	dec00604 	addi	sp,sp,24
    cc84:	f800283a 	ret
    cc88:	04800404 	movi	r18,16
    cc8c:	91bfc62e 	bgeu	r18,r6,cba8 <__alt_mem_onchip_flash_0_data+0xf0f0cba8>
    cc90:	00800304 	movi	r2,12
    cc94:	98800015 	stw	r2,0(r19)
    cc98:	0005883a 	mov	r2,zero
    cc9c:	dfc00517 	ldw	ra,20(sp)
    cca0:	dd000417 	ldw	r20,16(sp)
    cca4:	dcc00317 	ldw	r19,12(sp)
    cca8:	dc800217 	ldw	r18,8(sp)
    ccac:	dc400117 	ldw	r17,4(sp)
    ccb0:	dc000017 	ldw	r16,0(sp)
    ccb4:	dec00604 	addi	sp,sp,24
    ccb8:	f800283a 	ret
    ccbc:	300b883a 	mov	r5,r6
    ccc0:	dfc00517 	ldw	ra,20(sp)
    ccc4:	dd000417 	ldw	r20,16(sp)
    ccc8:	dcc00317 	ldw	r19,12(sp)
    cccc:	dc800217 	ldw	r18,8(sp)
    ccd0:	dc400117 	ldw	r17,4(sp)
    ccd4:	dc000017 	ldw	r16,0(sp)
    ccd8:	dec00604 	addi	sp,sp,24
    ccdc:	00062b41 	jmpi	62b4 <_malloc_r>
    cce0:	1405883a 	add	r2,r2,r16
    cce4:	1507c83a 	sub	r3,r2,r20
    cce8:	003fc406 	br	cbfc <__alt_mem_onchip_flash_0_data+0xf0f0cbfc>
    ccec:	a48b883a 	add	r5,r20,r18
    ccf0:	10800054 	ori	r2,r2,1
    ccf4:	28800115 	stw	r2,4(r5)
    ccf8:	a0800117 	ldw	r2,4(r20)
    ccfc:	9809883a 	mov	r4,r19
    cd00:	29400204 	addi	r5,r5,8
    cd04:	1080004c 	andi	r2,r2,1
    cd08:	90a4b03a 	or	r18,r18,r2
    cd0c:	a4800115 	stw	r18,4(r20)
    cd10:	000571c0 	call	571c <_free_r>
    cd14:	003fd106 	br	cc5c <__alt_mem_onchip_flash_0_data+0xf0f0cc5c>
    cd18:	0005883a 	mov	r2,zero
    cd1c:	003fd206 	br	cc68 <__alt_mem_onchip_flash_0_data+0xf0f0cc68>

0000cd20 <memcmp>:
    cd20:	01c000c4 	movi	r7,3
    cd24:	3980192e 	bgeu	r7,r6,cd8c <memcmp+0x6c>
    cd28:	2904b03a 	or	r2,r5,r4
    cd2c:	11c4703a 	and	r2,r2,r7
    cd30:	10000f26 	beq	r2,zero,cd70 <memcmp+0x50>
    cd34:	20c00003 	ldbu	r3,0(r4)
    cd38:	28800003 	ldbu	r2,0(r5)
    cd3c:	1880151e 	bne	r3,r2,cd94 <memcmp+0x74>
    cd40:	31bfff84 	addi	r6,r6,-2
    cd44:	01ffffc4 	movi	r7,-1
    cd48:	00000406 	br	cd5c <memcmp+0x3c>
    cd4c:	20c00003 	ldbu	r3,0(r4)
    cd50:	28800003 	ldbu	r2,0(r5)
    cd54:	31bfffc4 	addi	r6,r6,-1
    cd58:	18800e1e 	bne	r3,r2,cd94 <memcmp+0x74>
    cd5c:	21000044 	addi	r4,r4,1
    cd60:	29400044 	addi	r5,r5,1
    cd64:	31fff91e 	bne	r6,r7,cd4c <__alt_mem_onchip_flash_0_data+0xf0f0cd4c>
    cd68:	0005883a 	mov	r2,zero
    cd6c:	f800283a 	ret
    cd70:	20c00017 	ldw	r3,0(r4)
    cd74:	28800017 	ldw	r2,0(r5)
    cd78:	1880041e 	bne	r3,r2,cd8c <memcmp+0x6c>
    cd7c:	31bfff04 	addi	r6,r6,-4
    cd80:	21000104 	addi	r4,r4,4
    cd84:	29400104 	addi	r5,r5,4
    cd88:	39bff936 	bltu	r7,r6,cd70 <__alt_mem_onchip_flash_0_data+0xf0f0cd70>
    cd8c:	303fe91e 	bne	r6,zero,cd34 <__alt_mem_onchip_flash_0_data+0xf0f0cd34>
    cd90:	003ff506 	br	cd68 <__alt_mem_onchip_flash_0_data+0xf0f0cd68>
    cd94:	1885c83a 	sub	r2,r3,r2
    cd98:	f800283a 	ret

0000cd9c <__register_exitproc>:
    cd9c:	defffa04 	addi	sp,sp,-24
    cda0:	008000f4 	movhi	r2,3
    cda4:	1088ae04 	addi	r2,r2,8888
    cda8:	dc000315 	stw	r16,12(sp)
    cdac:	14000017 	ldw	r16,0(r2)
    cdb0:	dc400415 	stw	r17,16(sp)
    cdb4:	dfc00515 	stw	ra,20(sp)
    cdb8:	80805217 	ldw	r2,328(r16)
    cdbc:	2023883a 	mov	r17,r4
    cdc0:	10003e26 	beq	r2,zero,cebc <__register_exitproc+0x120>
    cdc4:	10c00117 	ldw	r3,4(r2)
    cdc8:	020007c4 	movi	r8,31
    cdcc:	40c0180e 	bge	r8,r3,ce30 <__register_exitproc+0x94>
    cdd0:	00800034 	movhi	r2,0
    cdd4:	10800004 	addi	r2,r2,0
    cdd8:	1000061e 	bne	r2,zero,cdf4 <__register_exitproc+0x58>
    cddc:	00bfffc4 	movi	r2,-1
    cde0:	dfc00517 	ldw	ra,20(sp)
    cde4:	dc400417 	ldw	r17,16(sp)
    cde8:	dc000317 	ldw	r16,12(sp)
    cdec:	dec00604 	addi	sp,sp,24
    cdf0:	f800283a 	ret
    cdf4:	01006404 	movi	r4,400
    cdf8:	d9400015 	stw	r5,0(sp)
    cdfc:	d9800115 	stw	r6,4(sp)
    ce00:	d9c00215 	stw	r7,8(sp)
    ce04:	00000000 	call	0 <__alt_mem_sdram>
    ce08:	d9400017 	ldw	r5,0(sp)
    ce0c:	d9800117 	ldw	r6,4(sp)
    ce10:	d9c00217 	ldw	r7,8(sp)
    ce14:	103ff126 	beq	r2,zero,cddc <__alt_mem_onchip_flash_0_data+0xf0f0cddc>
    ce18:	80c05217 	ldw	r3,328(r16)
    ce1c:	10000115 	stw	zero,4(r2)
    ce20:	10c00015 	stw	r3,0(r2)
    ce24:	80805215 	stw	r2,328(r16)
    ce28:	10006215 	stw	zero,392(r2)
    ce2c:	10006315 	stw	zero,396(r2)
    ce30:	10c00117 	ldw	r3,4(r2)
    ce34:	88000d1e 	bne	r17,zero,ce6c <__register_exitproc+0xd0>
    ce38:	19000084 	addi	r4,r3,2
    ce3c:	2109883a 	add	r4,r4,r4
    ce40:	18c00044 	addi	r3,r3,1
    ce44:	2109883a 	add	r4,r4,r4
    ce48:	1109883a 	add	r4,r2,r4
    ce4c:	10c00115 	stw	r3,4(r2)
    ce50:	0005883a 	mov	r2,zero
    ce54:	21400015 	stw	r5,0(r4)
    ce58:	dfc00517 	ldw	ra,20(sp)
    ce5c:	dc400417 	ldw	r17,16(sp)
    ce60:	dc000317 	ldw	r16,12(sp)
    ce64:	dec00604 	addi	sp,sp,24
    ce68:	f800283a 	ret
    ce6c:	02400044 	movi	r9,1
    ce70:	12806217 	ldw	r10,392(r2)
    ce74:	48d2983a 	sll	r9,r9,r3
    ce78:	19000804 	addi	r4,r3,32
    ce7c:	18d1883a 	add	r8,r3,r3
    ce80:	2109883a 	add	r4,r4,r4
    ce84:	4211883a 	add	r8,r8,r8
    ce88:	2109883a 	add	r4,r4,r4
    ce8c:	1109883a 	add	r4,r2,r4
    ce90:	1211883a 	add	r8,r2,r8
    ce94:	5254b03a 	or	r10,r10,r9
    ce98:	21c02215 	stw	r7,136(r4)
    ce9c:	41802215 	stw	r6,136(r8)
    cea0:	12806215 	stw	r10,392(r2)
    cea4:	01000084 	movi	r4,2
    cea8:	893fe31e 	bne	r17,r4,ce38 <__alt_mem_onchip_flash_0_data+0xf0f0ce38>
    ceac:	11006317 	ldw	r4,396(r2)
    ceb0:	2252b03a 	or	r9,r4,r9
    ceb4:	12406315 	stw	r9,396(r2)
    ceb8:	003fdf06 	br	ce38 <__alt_mem_onchip_flash_0_data+0xf0f0ce38>
    cebc:	008000f4 	movhi	r2,3
    cec0:	10900804 	addi	r2,r2,16416
    cec4:	80805215 	stw	r2,328(r16)
    cec8:	003fbe06 	br	cdc4 <__alt_mem_onchip_flash_0_data+0xf0f0cdc4>

0000cecc <__call_exitprocs>:
    cecc:	008000f4 	movhi	r2,3
    ced0:	1088ae04 	addi	r2,r2,8888
    ced4:	10800017 	ldw	r2,0(r2)
    ced8:	defff304 	addi	sp,sp,-52
    cedc:	df000b15 	stw	fp,44(sp)
    cee0:	d8800015 	stw	r2,0(sp)
    cee4:	10805204 	addi	r2,r2,328
    cee8:	dd400815 	stw	r21,32(sp)
    ceec:	dfc00c15 	stw	ra,48(sp)
    cef0:	ddc00a15 	stw	r23,40(sp)
    cef4:	dd800915 	stw	r22,36(sp)
    cef8:	dd000715 	stw	r20,28(sp)
    cefc:	dcc00615 	stw	r19,24(sp)
    cf00:	dc800515 	stw	r18,20(sp)
    cf04:	dc400415 	stw	r17,16(sp)
    cf08:	dc000315 	stw	r16,12(sp)
    cf0c:	d9000115 	stw	r4,4(sp)
    cf10:	2839883a 	mov	fp,r5
    cf14:	d8800215 	stw	r2,8(sp)
    cf18:	057fffc4 	movi	r21,-1
    cf1c:	d8800017 	ldw	r2,0(sp)
    cf20:	ddc00217 	ldw	r23,8(sp)
    cf24:	14805217 	ldw	r18,328(r2)
    cf28:	90001726 	beq	r18,zero,cf88 <__call_exitprocs+0xbc>
    cf2c:	94400117 	ldw	r17,4(r18)
    cf30:	8c3fffc4 	addi	r16,r17,-1
    cf34:	80001116 	blt	r16,zero,cf7c <__call_exitprocs+0xb0>
    cf38:	8c400044 	addi	r17,r17,1
    cf3c:	8427883a 	add	r19,r16,r16
    cf40:	8c63883a 	add	r17,r17,r17
    cf44:	95802204 	addi	r22,r18,136
    cf48:	9ce7883a 	add	r19,r19,r19
    cf4c:	8c63883a 	add	r17,r17,r17
    cf50:	b4e7883a 	add	r19,r22,r19
    cf54:	9463883a 	add	r17,r18,r17
    cf58:	e0001726 	beq	fp,zero,cfb8 <__call_exitprocs+0xec>
    cf5c:	8c87c83a 	sub	r3,r17,r18
    cf60:	b0c7883a 	add	r3,r22,r3
    cf64:	18c01e17 	ldw	r3,120(r3)
    cf68:	1f001326 	beq	r3,fp,cfb8 <__call_exitprocs+0xec>
    cf6c:	843fffc4 	addi	r16,r16,-1
    cf70:	9cffff04 	addi	r19,r19,-4
    cf74:	8c7fff04 	addi	r17,r17,-4
    cf78:	857ff71e 	bne	r16,r21,cf58 <__alt_mem_onchip_flash_0_data+0xf0f0cf58>
    cf7c:	00800034 	movhi	r2,0
    cf80:	10800004 	addi	r2,r2,0
    cf84:	10002a1e 	bne	r2,zero,d030 <__call_exitprocs+0x164>
    cf88:	dfc00c17 	ldw	ra,48(sp)
    cf8c:	df000b17 	ldw	fp,44(sp)
    cf90:	ddc00a17 	ldw	r23,40(sp)
    cf94:	dd800917 	ldw	r22,36(sp)
    cf98:	dd400817 	ldw	r21,32(sp)
    cf9c:	dd000717 	ldw	r20,28(sp)
    cfa0:	dcc00617 	ldw	r19,24(sp)
    cfa4:	dc800517 	ldw	r18,20(sp)
    cfa8:	dc400417 	ldw	r17,16(sp)
    cfac:	dc000317 	ldw	r16,12(sp)
    cfb0:	dec00d04 	addi	sp,sp,52
    cfb4:	f800283a 	ret
    cfb8:	91000117 	ldw	r4,4(r18)
    cfbc:	88c00017 	ldw	r3,0(r17)
    cfc0:	213fffc4 	addi	r4,r4,-1
    cfc4:	24001526 	beq	r4,r16,d01c <__call_exitprocs+0x150>
    cfc8:	88000015 	stw	zero,0(r17)
    cfcc:	183fe726 	beq	r3,zero,cf6c <__alt_mem_onchip_flash_0_data+0xf0f0cf6c>
    cfd0:	00800044 	movi	r2,1
    cfd4:	1408983a 	sll	r4,r2,r16
    cfd8:	91406217 	ldw	r5,392(r18)
    cfdc:	95000117 	ldw	r20,4(r18)
    cfe0:	214a703a 	and	r5,r4,r5
    cfe4:	28000b26 	beq	r5,zero,d014 <__call_exitprocs+0x148>
    cfe8:	91406317 	ldw	r5,396(r18)
    cfec:	2148703a 	and	r4,r4,r5
    cff0:	20000c1e 	bne	r4,zero,d024 <__call_exitprocs+0x158>
    cff4:	99400017 	ldw	r5,0(r19)
    cff8:	d9000117 	ldw	r4,4(sp)
    cffc:	183ee83a 	callr	r3
    d000:	90c00117 	ldw	r3,4(r18)
    d004:	1d3fc51e 	bne	r3,r20,cf1c <__alt_mem_onchip_flash_0_data+0xf0f0cf1c>
    d008:	b8c00017 	ldw	r3,0(r23)
    d00c:	1cbfd726 	beq	r3,r18,cf6c <__alt_mem_onchip_flash_0_data+0xf0f0cf6c>
    d010:	003fc206 	br	cf1c <__alt_mem_onchip_flash_0_data+0xf0f0cf1c>
    d014:	183ee83a 	callr	r3
    d018:	003ff906 	br	d000 <__alt_mem_onchip_flash_0_data+0xf0f0d000>
    d01c:	94000115 	stw	r16,4(r18)
    d020:	003fea06 	br	cfcc <__alt_mem_onchip_flash_0_data+0xf0f0cfcc>
    d024:	99000017 	ldw	r4,0(r19)
    d028:	183ee83a 	callr	r3
    d02c:	003ff406 	br	d000 <__alt_mem_onchip_flash_0_data+0xf0f0d000>
    d030:	90c00117 	ldw	r3,4(r18)
    d034:	1800071e 	bne	r3,zero,d054 <__call_exitprocs+0x188>
    d038:	90c00017 	ldw	r3,0(r18)
    d03c:	18000926 	beq	r3,zero,d064 <__call_exitprocs+0x198>
    d040:	9009883a 	mov	r4,r18
    d044:	b8c00015 	stw	r3,0(r23)
    d048:	00000000 	call	0 <__alt_mem_sdram>
    d04c:	bc800017 	ldw	r18,0(r23)
    d050:	003fb506 	br	cf28 <__alt_mem_onchip_flash_0_data+0xf0f0cf28>
    d054:	90c00017 	ldw	r3,0(r18)
    d058:	902f883a 	mov	r23,r18
    d05c:	1825883a 	mov	r18,r3
    d060:	003fb106 	br	cf28 <__alt_mem_onchip_flash_0_data+0xf0f0cf28>
    d064:	0007883a 	mov	r3,zero
    d068:	003ffb06 	br	d058 <__alt_mem_onchip_flash_0_data+0xf0f0d058>

0000d06c <_exit>:
    d06c:	20000226 	beq	r4,zero,d078 <_exit+0xc>
    d070:	002af070 	cmpltui	zero,zero,43969
    d074:	003fff06 	br	d074 <__alt_mem_onchip_flash_0_data+0xf0f0d074>
    d078:	002af0b0 	cmpltui	zero,zero,43970
    d07c:	003ffd06 	br	d074 <__alt_mem_onchip_flash_0_data+0xf0f0d074>
