Archive member included because of file (symbol)

c:/develop/altera/14.0/nios2eds/bin/gnu/h-x86_64-mingw32/bin/../lib/gcc/nios2-elf/4.7.3/mhw-mulx\libgcc.a(lib2-divmod.o)
                              obj/default/mmcfs/fatfs/ff.o (__divsi3)
c:/develop/altera/14.0/nios2eds/bin/gnu/h-x86_64-mingw32/bin/../lib/gcc/nios2-elf/4.7.3/../../../../../H-x86_64-mingw32/nios2-elf/lib/mhw-mulx\libc.a(lib_a-fclose.o)
                              obj/default/loadbmp.o (fclose)
c:/develop/altera/14.0/nios2eds/bin/gnu/h-x86_64-mingw32/bin/../lib/gcc/nios2-elf/4.7.3/../../../../../H-x86_64-mingw32/nios2-elf/lib/mhw-mulx\libc.a(lib_a-fflush.o)
                              c:/develop/altera/14.0/nios2eds/bin/gnu/h-x86_64-mingw32/bin/../lib/gcc/nios2-elf/4.7.3/../../../../../H-x86_64-mingw32/nios2-elf/lib/mhw-mulx\libc.a(lib_a-fclose.o) (_fflush_r)
c:/develop/altera/14.0/nios2eds/bin/gnu/h-x86_64-mingw32/bin/../lib/gcc/nios2-elf/4.7.3/../../../../../H-x86_64-mingw32/nios2-elf/lib/mhw-mulx\libc.a(lib_a-findfp.o)
                              c:/develop/altera/14.0/nios2eds/bin/gnu/h-x86_64-mingw32/bin/../lib/gcc/nios2-elf/4.7.3/../../../../../H-x86_64-mingw32/nios2-elf/lib/mhw-mulx\libc.a(lib_a-fclose.o) (__sinit)
c:/develop/altera/14.0/nios2eds/bin/gnu/h-x86_64-mingw32/bin/../lib/gcc/nios2-elf/4.7.3/../../../../../H-x86_64-mingw32/nios2-elf/lib/mhw-mulx\libc.a(lib_a-fopen.o)
                              obj/default/loadbmp.o (fopen)
c:/develop/altera/14.0/nios2eds/bin/gnu/h-x86_64-mingw32/bin/../lib/gcc/nios2-elf/4.7.3/../../../../../H-x86_64-mingw32/nios2-elf/lib/mhw-mulx\libc.a(lib_a-fread.o)
                              obj/default/loadbmp.o (fread)
c:/develop/altera/14.0/nios2eds/bin/gnu/h-x86_64-mingw32/bin/../lib/gcc/nios2-elf/4.7.3/../../../../../H-x86_64-mingw32/nios2-elf/lib/mhw-mulx\libc.a(lib_a-freer.o)
                              c:/develop/altera/14.0/nios2eds/bin/gnu/h-x86_64-mingw32/bin/../lib/gcc/nios2-elf/4.7.3/../../../../../H-x86_64-mingw32/nios2-elf/lib/mhw-mulx\libc.a(lib_a-fclose.o) (_free_r)
c:/develop/altera/14.0/nios2eds/bin/gnu/h-x86_64-mingw32/bin/../lib/gcc/nios2-elf/4.7.3/../../../../../H-x86_64-mingw32/nios2-elf/lib/mhw-mulx\libc.a(lib_a-fseek.o)
                              c:/develop/altera/14.0/nios2eds/bin/gnu/h-x86_64-mingw32/bin/../lib/gcc/nios2-elf/4.7.3/../../../../../H-x86_64-mingw32/nios2-elf/lib/mhw-mulx\libc.a(lib_a-fopen.o) (_fseek_r)
c:/develop/altera/14.0/nios2eds/bin/gnu/h-x86_64-mingw32/bin/../lib/gcc/nios2-elf/4.7.3/../../../../../H-x86_64-mingw32/nios2-elf/lib/mhw-mulx\libc.a(lib_a-fstatr.o)
                              c:/develop/altera/14.0/nios2eds/bin/gnu/h-x86_64-mingw32/bin/../lib/gcc/nios2-elf/4.7.3/../../../../../H-x86_64-mingw32/nios2-elf/lib/mhw-mulx\libc.a(lib_a-fseek.o) (_fstat_r)
c:/develop/altera/14.0/nios2eds/bin/gnu/h-x86_64-mingw32/bin/../lib/gcc/nios2-elf/4.7.3/../../../../../H-x86_64-mingw32/nios2-elf/lib/mhw-mulx\libc.a(lib_a-fwalk.o)
                              c:/develop/altera/14.0/nios2eds/bin/gnu/h-x86_64-mingw32/bin/../lib/gcc/nios2-elf/4.7.3/../../../../../H-x86_64-mingw32/nios2-elf/lib/mhw-mulx\libc.a(lib_a-findfp.o) (_fwalk)
c:/develop/altera/14.0/nios2eds/bin/gnu/h-x86_64-mingw32/bin/../lib/gcc/nios2-elf/4.7.3/../../../../../H-x86_64-mingw32/nios2-elf/lib/mhw-mulx\libc.a(lib_a-impure.o)
                              c:/develop/altera/14.0/nios2eds/bin/gnu/h-x86_64-mingw32/bin/../lib/gcc/nios2-elf/4.7.3/../../../../../H-x86_64-mingw32/nios2-elf/lib/mhw-mulx\libc.a(lib_a-fflush.o) (_global_impure_ptr)
c:/develop/altera/14.0/nios2eds/bin/gnu/h-x86_64-mingw32/bin/../lib/gcc/nios2-elf/4.7.3/../../../../../H-x86_64-mingw32/nios2-elf/lib/mhw-mulx\libc.a(lib_a-int_errno.o)
                              c:/develop/altera/14.0/nios2eds/bin/gnu/h-x86_64-mingw32/bin/../lib/gcc/nios2-elf/4.7.3/../../../../../H-x86_64-mingw32/nios2-elf/lib/mhw-mulx\libc.a(lib_a-fstatr.o) (errno)
c:/develop/altera/14.0/nios2eds/bin/gnu/h-x86_64-mingw32/bin/../lib/gcc/nios2-elf/4.7.3/../../../../../H-x86_64-mingw32/nios2-elf/lib/mhw-mulx\libc.a(lib_a-makebuf.o)
                              c:/develop/altera/14.0/nios2eds/bin/gnu/h-x86_64-mingw32/bin/../lib/gcc/nios2-elf/4.7.3/../../../../../H-x86_64-mingw32/nios2-elf/lib/mhw-mulx\libc.a(lib_a-fseek.o) (__smakebuf_r)
c:/develop/altera/14.0/nios2eds/bin/gnu/h-x86_64-mingw32/bin/../lib/gcc/nios2-elf/4.7.3/../../../../../H-x86_64-mingw32/nios2-elf/lib/mhw-mulx\libc.a(lib_a-mallocr.o)
                              c:/develop/altera/14.0/nios2eds/bin/gnu/h-x86_64-mingw32/bin/../lib/gcc/nios2-elf/4.7.3/../../../../../H-x86_64-mingw32/nios2-elf/lib/mhw-mulx\libc.a(lib_a-findfp.o) (_malloc_r)
c:/develop/altera/14.0/nios2eds/bin/gnu/h-x86_64-mingw32/bin/../lib/gcc/nios2-elf/4.7.3/../../../../../H-x86_64-mingw32/nios2-elf/lib/mhw-mulx\libc.a(lib_a-memcpy.o)
                              obj/default/mmcfs/mmcfs.o (memcpy)
c:/develop/altera/14.0/nios2eds/bin/gnu/h-x86_64-mingw32/bin/../lib/gcc/nios2-elf/4.7.3/../../../../../H-x86_64-mingw32/nios2-elf/lib/mhw-mulx\libc.a(lib_a-memset.o)
                              obj/default/mmcfs/mmcfs.o (memset)
c:/develop/altera/14.0/nios2eds/bin/gnu/h-x86_64-mingw32/bin/../lib/gcc/nios2-elf/4.7.3/../../../../../H-x86_64-mingw32/nios2-elf/lib/mhw-mulx\libc.a(lib_a-openr.o)
                              c:/develop/altera/14.0/nios2eds/bin/gnu/h-x86_64-mingw32/bin/../lib/gcc/nios2-elf/4.7.3/../../../../../H-x86_64-mingw32/nios2-elf/lib/mhw-mulx\libc.a(lib_a-fopen.o) (_open_r)
c:/develop/altera/14.0/nios2eds/bin/gnu/h-x86_64-mingw32/bin/../lib/gcc/nios2-elf/4.7.3/../../../../../H-x86_64-mingw32/nios2-elf/lib/mhw-mulx\libc.a(lib_a-printf.o)
                              obj/default/file_test.o (printf)
c:/develop/altera/14.0/nios2eds/bin/gnu/h-x86_64-mingw32/bin/../lib/gcc/nios2-elf/4.7.3/../../../../../H-x86_64-mingw32/nios2-elf/lib/mhw-mulx\libc.a(lib_a-putchar.o)
                              obj/default/testuty.o (putchar)
c:/develop/altera/14.0/nios2eds/bin/gnu/h-x86_64-mingw32/bin/../lib/gcc/nios2-elf/4.7.3/../../../../../H-x86_64-mingw32/nios2-elf/lib/mhw-mulx\libc.a(lib_a-puts.o)
                              obj/default/file_test.o (puts)
c:/develop/altera/14.0/nios2eds/bin/gnu/h-x86_64-mingw32/bin/../lib/gcc/nios2-elf/4.7.3/../../../../../H-x86_64-mingw32/nios2-elf/lib/mhw-mulx\libc.a(lib_a-refill.o)
                              c:/develop/altera/14.0/nios2eds/bin/gnu/h-x86_64-mingw32/bin/../lib/gcc/nios2-elf/4.7.3/../../../../../H-x86_64-mingw32/nios2-elf/lib/mhw-mulx\libc.a(lib_a-fread.o) (__srefill_r)
c:/develop/altera/14.0/nios2eds/bin/gnu/h-x86_64-mingw32/bin/../lib/gcc/nios2-elf/4.7.3/../../../../../H-x86_64-mingw32/nios2-elf/lib/mhw-mulx\libc.a(lib_a-sbrkr.o)
                              c:/develop/altera/14.0/nios2eds/bin/gnu/h-x86_64-mingw32/bin/../lib/gcc/nios2-elf/4.7.3/../../../../../H-x86_64-mingw32/nios2-elf/lib/mhw-mulx\libc.a(lib_a-freer.o) (_sbrk_r)
c:/develop/altera/14.0/nios2eds/bin/gnu/h-x86_64-mingw32/bin/../lib/gcc/nios2-elf/4.7.3/../../../../../H-x86_64-mingw32/nios2-elf/lib/mhw-mulx\libc.a(lib_a-stdio.o)
                              c:/develop/altera/14.0/nios2eds/bin/gnu/h-x86_64-mingw32/bin/../lib/gcc/nios2-elf/4.7.3/../../../../../H-x86_64-mingw32/nios2-elf/lib/mhw-mulx\libc.a(lib_a-findfp.o) (__sread)
c:/develop/altera/14.0/nios2eds/bin/gnu/h-x86_64-mingw32/bin/../lib/gcc/nios2-elf/4.7.3/../../../../../H-x86_64-mingw32/nios2-elf/lib/mhw-mulx\libc.a(lib_a-strlen.o)
                              obj/default/mmcfs/mmcfs.o (strlen)
c:/develop/altera/14.0/nios2eds/bin/gnu/h-x86_64-mingw32/bin/../lib/gcc/nios2-elf/4.7.3/../../../../../H-x86_64-mingw32/nios2-elf/lib/mhw-mulx\libc.a(lib_a-vfprintf.o)
                              c:/develop/altera/14.0/nios2eds/bin/gnu/h-x86_64-mingw32/bin/../lib/gcc/nios2-elf/4.7.3/../../../../../H-x86_64-mingw32/nios2-elf/lib/mhw-mulx\libc.a(lib_a-printf.o) (___vfprintf_internal_r)
c:/develop/altera/14.0/nios2eds/bin/gnu/h-x86_64-mingw32/bin/../lib/gcc/nios2-elf/4.7.3/../../../../../H-x86_64-mingw32/nios2-elf/lib/mhw-mulx\libc.a(lib_a-writer.o)
                              c:/develop/altera/14.0/nios2eds/bin/gnu/h-x86_64-mingw32/bin/../lib/gcc/nios2-elf/4.7.3/../../../../../H-x86_64-mingw32/nios2-elf/lib/mhw-mulx\libc.a(lib_a-stdio.o) (_write_r)
c:/develop/altera/14.0/nios2eds/bin/gnu/h-x86_64-mingw32/bin/../lib/gcc/nios2-elf/4.7.3/../../../../../H-x86_64-mingw32/nios2-elf/lib/mhw-mulx\libc.a(lib_a-wsetup.o)
                              c:/develop/altera/14.0/nios2eds/bin/gnu/h-x86_64-mingw32/bin/../lib/gcc/nios2-elf/4.7.3/../../../../../H-x86_64-mingw32/nios2-elf/lib/mhw-mulx\libc.a(lib_a-vfprintf.o) (__swsetup_r)
c:/develop/altera/14.0/nios2eds/bin/gnu/h-x86_64-mingw32/bin/../lib/gcc/nios2-elf/4.7.3/../../../../../H-x86_64-mingw32/nios2-elf/lib/mhw-mulx\libc.a(lib_a-closer.o)
                              c:/develop/altera/14.0/nios2eds/bin/gnu/h-x86_64-mingw32/bin/../lib/gcc/nios2-elf/4.7.3/../../../../../H-x86_64-mingw32/nios2-elf/lib/mhw-mulx\libc.a(lib_a-stdio.o) (_close_r)
c:/develop/altera/14.0/nios2eds/bin/gnu/h-x86_64-mingw32/bin/../lib/gcc/nios2-elf/4.7.3/../../../../../H-x86_64-mingw32/nios2-elf/lib/mhw-mulx\libc.a(lib_a-dtoa.o)
                              c:/develop/altera/14.0/nios2eds/bin/gnu/h-x86_64-mingw32/bin/../lib/gcc/nios2-elf/4.7.3/../../../../../H-x86_64-mingw32/nios2-elf/lib/mhw-mulx\libc.a(lib_a-vfprintf.o) (_dtoa_r)
c:/develop/altera/14.0/nios2eds/bin/gnu/h-x86_64-mingw32/bin/../lib/gcc/nios2-elf/4.7.3/../../../../../H-x86_64-mingw32/nios2-elf/lib/mhw-mulx\libc.a(lib_a-flags.o)
                              c:/develop/altera/14.0/nios2eds/bin/gnu/h-x86_64-mingw32/bin/../lib/gcc/nios2-elf/4.7.3/../../../../../H-x86_64-mingw32/nios2-elf/lib/mhw-mulx\libc.a(lib_a-fopen.o) (__sflags)
c:/develop/altera/14.0/nios2eds/bin/gnu/h-x86_64-mingw32/bin/../lib/gcc/nios2-elf/4.7.3/../../../../../H-x86_64-mingw32/nios2-elf/lib/mhw-mulx\libc.a(lib_a-fvwrite.o)
                              c:/develop/altera/14.0/nios2eds/bin/gnu/h-x86_64-mingw32/bin/../lib/gcc/nios2-elf/4.7.3/../../../../../H-x86_64-mingw32/nios2-elf/lib/mhw-mulx\libc.a(lib_a-puts.o) (__sfvwrite_r)
c:/develop/altera/14.0/nios2eds/bin/gnu/h-x86_64-mingw32/bin/../lib/gcc/nios2-elf/4.7.3/../../../../../H-x86_64-mingw32/nios2-elf/lib/mhw-mulx\libc.a(lib_a-isattyr.o)
                              c:/develop/altera/14.0/nios2eds/bin/gnu/h-x86_64-mingw32/bin/../lib/gcc/nios2-elf/4.7.3/../../../../../H-x86_64-mingw32/nios2-elf/lib/mhw-mulx\libc.a(lib_a-makebuf.o) (_isatty_r)
c:/develop/altera/14.0/nios2eds/bin/gnu/h-x86_64-mingw32/bin/../lib/gcc/nios2-elf/4.7.3/../../../../../H-x86_64-mingw32/nios2-elf/lib/mhw-mulx\libc.a(lib_a-locale.o)
                              c:/develop/altera/14.0/nios2eds/bin/gnu/h-x86_64-mingw32/bin/../lib/gcc/nios2-elf/4.7.3/../../../../../H-x86_64-mingw32/nios2-elf/lib/mhw-mulx\libc.a(lib_a-vfprintf.o) (_localeconv_r)
c:/develop/altera/14.0/nios2eds/bin/gnu/h-x86_64-mingw32/bin/../lib/gcc/nios2-elf/4.7.3/../../../../../H-x86_64-mingw32/nios2-elf/lib/mhw-mulx\libc.a(lib_a-lseekr.o)
                              c:/develop/altera/14.0/nios2eds/bin/gnu/h-x86_64-mingw32/bin/../lib/gcc/nios2-elf/4.7.3/../../../../../H-x86_64-mingw32/nios2-elf/lib/mhw-mulx\libc.a(lib_a-stdio.o) (_lseek_r)
c:/develop/altera/14.0/nios2eds/bin/gnu/h-x86_64-mingw32/bin/../lib/gcc/nios2-elf/4.7.3/../../../../../H-x86_64-mingw32/nios2-elf/lib/mhw-mulx\libc.a(lib_a-memchr.o)
                              c:/develop/altera/14.0/nios2eds/bin/gnu/h-x86_64-mingw32/bin/../lib/gcc/nios2-elf/4.7.3/../../../../../H-x86_64-mingw32/nios2-elf/lib/mhw-mulx\libc.a(lib_a-vfprintf.o) (memchr)
c:/develop/altera/14.0/nios2eds/bin/gnu/h-x86_64-mingw32/bin/../lib/gcc/nios2-elf/4.7.3/../../../../../H-x86_64-mingw32/nios2-elf/lib/mhw-mulx\libc.a(lib_a-memmove.o)
                              c:/develop/altera/14.0/nios2eds/bin/gnu/h-x86_64-mingw32/bin/../lib/gcc/nios2-elf/4.7.3/../../../../../H-x86_64-mingw32/nios2-elf/lib/mhw-mulx\libc.a(lib_a-fvwrite.o) (memmove)
c:/develop/altera/14.0/nios2eds/bin/gnu/h-x86_64-mingw32/bin/../lib/gcc/nios2-elf/4.7.3/../../../../../H-x86_64-mingw32/nios2-elf/lib/mhw-mulx\libc.a(lib_a-mprec.o)
                              c:/develop/altera/14.0/nios2eds/bin/gnu/h-x86_64-mingw32/bin/../lib/gcc/nios2-elf/4.7.3/../../../../../H-x86_64-mingw32/nios2-elf/lib/mhw-mulx\libc.a(lib_a-dtoa.o) (_Balloc)
c:/develop/altera/14.0/nios2eds/bin/gnu/h-x86_64-mingw32/bin/../lib/gcc/nios2-elf/4.7.3/../../../../../H-x86_64-mingw32/nios2-elf/lib/mhw-mulx\libc.a(lib_a-putc.o)
                              c:/develop/altera/14.0/nios2eds/bin/gnu/h-x86_64-mingw32/bin/../lib/gcc/nios2-elf/4.7.3/../../../../../H-x86_64-mingw32/nios2-elf/lib/mhw-mulx\libc.a(lib_a-putchar.o) (_putc_r)
c:/develop/altera/14.0/nios2eds/bin/gnu/h-x86_64-mingw32/bin/../lib/gcc/nios2-elf/4.7.3/../../../../../H-x86_64-mingw32/nios2-elf/lib/mhw-mulx\libc.a(lib_a-readr.o)
                              c:/develop/altera/14.0/nios2eds/bin/gnu/h-x86_64-mingw32/bin/../lib/gcc/nios2-elf/4.7.3/../../../../../H-x86_64-mingw32/nios2-elf/lib/mhw-mulx\libc.a(lib_a-stdio.o) (_read_r)
c:/develop/altera/14.0/nios2eds/bin/gnu/h-x86_64-mingw32/bin/../lib/gcc/nios2-elf/4.7.3/../../../../../H-x86_64-mingw32/nios2-elf/lib/mhw-mulx\libc.a(lib_a-reallocr.o)
                              c:/develop/altera/14.0/nios2eds/bin/gnu/h-x86_64-mingw32/bin/../lib/gcc/nios2-elf/4.7.3/../../../../../H-x86_64-mingw32/nios2-elf/lib/mhw-mulx\libc.a(lib_a-fvwrite.o) (_realloc_r)
c:/develop/altera/14.0/nios2eds/bin/gnu/h-x86_64-mingw32/bin/../lib/gcc/nios2-elf/4.7.3/../../../../../H-x86_64-mingw32/nios2-elf/lib/mhw-mulx\libc.a(lib_a-s_isinfd.o)
                              c:/develop/altera/14.0/nios2eds/bin/gnu/h-x86_64-mingw32/bin/../lib/gcc/nios2-elf/4.7.3/../../../../../H-x86_64-mingw32/nios2-elf/lib/mhw-mulx\libc.a(lib_a-vfprintf.o) (__isinfd)
c:/develop/altera/14.0/nios2eds/bin/gnu/h-x86_64-mingw32/bin/../lib/gcc/nios2-elf/4.7.3/../../../../../H-x86_64-mingw32/nios2-elf/lib/mhw-mulx\libc.a(lib_a-s_isnand.o)
                              c:/develop/altera/14.0/nios2eds/bin/gnu/h-x86_64-mingw32/bin/../lib/gcc/nios2-elf/4.7.3/../../../../../H-x86_64-mingw32/nios2-elf/lib/mhw-mulx\libc.a(lib_a-vfprintf.o) (__isnand)
c:/develop/altera/14.0/nios2eds/bin/gnu/h-x86_64-mingw32/bin/../lib/gcc/nios2-elf/4.7.3/../../../../../H-x86_64-mingw32/nios2-elf/lib/mhw-mulx\libc.a(lib_a-strcmp.o)
                              c:/develop/altera/14.0/nios2eds/bin/gnu/h-x86_64-mingw32/bin/../lib/gcc/nios2-elf/4.7.3/../../../../../H-x86_64-mingw32/nios2-elf/lib/mhw-mulx\libc.a(lib_a-locale.o) (strcmp)
c:/develop/altera/14.0/nios2eds/bin/gnu/h-x86_64-mingw32/bin/../lib/gcc/nios2-elf/4.7.3/../../../../../H-x86_64-mingw32/nios2-elf/lib/mhw-mulx\libc.a(lib_a-wbuf.o)
                              c:/develop/altera/14.0/nios2eds/bin/gnu/h-x86_64-mingw32/bin/../lib/gcc/nios2-elf/4.7.3/../../../../../H-x86_64-mingw32/nios2-elf/lib/mhw-mulx\libc.a(lib_a-putc.o) (__swbuf_r)
c:/develop/altera/14.0/nios2eds/bin/gnu/h-x86_64-mingw32/bin/../lib/gcc/nios2-elf/4.7.3/../../../../../H-x86_64-mingw32/nios2-elf/lib/mhw-mulx\libc.a(lib_a-callocr.o)
                              c:/develop/altera/14.0/nios2eds/bin/gnu/h-x86_64-mingw32/bin/../lib/gcc/nios2-elf/4.7.3/../../../../../H-x86_64-mingw32/nios2-elf/lib/mhw-mulx\libc.a(lib_a-mprec.o) (_calloc_r)
c:/develop/altera/14.0/nios2eds/bin/gnu/h-x86_64-mingw32/bin/../lib/gcc/nios2-elf/4.7.3/mhw-mulx\libgcc.a(_udivdi3.o)
                              c:/develop/altera/14.0/nios2eds/bin/gnu/h-x86_64-mingw32/bin/../lib/gcc/nios2-elf/4.7.3/../../../../../H-x86_64-mingw32/nios2-elf/lib/mhw-mulx\libc.a(lib_a-vfprintf.o) (__udivdi3)
c:/develop/altera/14.0/nios2eds/bin/gnu/h-x86_64-mingw32/bin/../lib/gcc/nios2-elf/4.7.3/mhw-mulx\libgcc.a(_umoddi3.o)
                              c:/develop/altera/14.0/nios2eds/bin/gnu/h-x86_64-mingw32/bin/../lib/gcc/nios2-elf/4.7.3/../../../../../H-x86_64-mingw32/nios2-elf/lib/mhw-mulx\libc.a(lib_a-vfprintf.o) (__umoddi3)
c:/develop/altera/14.0/nios2eds/bin/gnu/h-x86_64-mingw32/bin/../lib/gcc/nios2-elf/4.7.3/mhw-mulx\libgcc.a(_addsub_df.o)
                              c:/develop/altera/14.0/nios2eds/bin/gnu/h-x86_64-mingw32/bin/../lib/gcc/nios2-elf/4.7.3/../../../../../H-x86_64-mingw32/nios2-elf/lib/mhw-mulx\libc.a(lib_a-dtoa.o) (__adddf3)
c:/develop/altera/14.0/nios2eds/bin/gnu/h-x86_64-mingw32/bin/../lib/gcc/nios2-elf/4.7.3/mhw-mulx\libgcc.a(_mul_df.o)
                              c:/develop/altera/14.0/nios2eds/bin/gnu/h-x86_64-mingw32/bin/../lib/gcc/nios2-elf/4.7.3/../../../../../H-x86_64-mingw32/nios2-elf/lib/mhw-mulx\libc.a(lib_a-dtoa.o) (__muldf3)
c:/develop/altera/14.0/nios2eds/bin/gnu/h-x86_64-mingw32/bin/../lib/gcc/nios2-elf/4.7.3/mhw-mulx\libgcc.a(_div_df.o)
                              c:/develop/altera/14.0/nios2eds/bin/gnu/h-x86_64-mingw32/bin/../lib/gcc/nios2-elf/4.7.3/../../../../../H-x86_64-mingw32/nios2-elf/lib/mhw-mulx\libc.a(lib_a-dtoa.o) (__divdf3)
c:/develop/altera/14.0/nios2eds/bin/gnu/h-x86_64-mingw32/bin/../lib/gcc/nios2-elf/4.7.3/mhw-mulx\libgcc.a(_eq_df.o)
                              c:/develop/altera/14.0/nios2eds/bin/gnu/h-x86_64-mingw32/bin/../lib/gcc/nios2-elf/4.7.3/../../../../../H-x86_64-mingw32/nios2-elf/lib/mhw-mulx\libc.a(lib_a-vfprintf.o) (__eqdf2)
c:/develop/altera/14.0/nios2eds/bin/gnu/h-x86_64-mingw32/bin/../lib/gcc/nios2-elf/4.7.3/mhw-mulx\libgcc.a(_ne_df.o)
                              c:/develop/altera/14.0/nios2eds/bin/gnu/h-x86_64-mingw32/bin/../lib/gcc/nios2-elf/4.7.3/../../../../../H-x86_64-mingw32/nios2-elf/lib/mhw-mulx\libc.a(lib_a-vfprintf.o) (__nedf2)
c:/develop/altera/14.0/nios2eds/bin/gnu/h-x86_64-mingw32/bin/../lib/gcc/nios2-elf/4.7.3/mhw-mulx\libgcc.a(_gt_df.o)
                              c:/develop/altera/14.0/nios2eds/bin/gnu/h-x86_64-mingw32/bin/../lib/gcc/nios2-elf/4.7.3/../../../../../H-x86_64-mingw32/nios2-elf/lib/mhw-mulx\libc.a(lib_a-dtoa.o) (__gtdf2)
c:/develop/altera/14.0/nios2eds/bin/gnu/h-x86_64-mingw32/bin/../lib/gcc/nios2-elf/4.7.3/mhw-mulx\libgcc.a(_ge_df.o)
                              c:/develop/altera/14.0/nios2eds/bin/gnu/h-x86_64-mingw32/bin/../lib/gcc/nios2-elf/4.7.3/../../../../../H-x86_64-mingw32/nios2-elf/lib/mhw-mulx\libc.a(lib_a-dtoa.o) (__gedf2)
c:/develop/altera/14.0/nios2eds/bin/gnu/h-x86_64-mingw32/bin/../lib/gcc/nios2-elf/4.7.3/mhw-mulx\libgcc.a(_lt_df.o)
                              c:/develop/altera/14.0/nios2eds/bin/gnu/h-x86_64-mingw32/bin/../lib/gcc/nios2-elf/4.7.3/../../../../../H-x86_64-mingw32/nios2-elf/lib/mhw-mulx\libc.a(lib_a-vfprintf.o) (__ltdf2)
c:/develop/altera/14.0/nios2eds/bin/gnu/h-x86_64-mingw32/bin/../lib/gcc/nios2-elf/4.7.3/mhw-mulx\libgcc.a(_si_to_df.o)
                              c:/develop/altera/14.0/nios2eds/bin/gnu/h-x86_64-mingw32/bin/../lib/gcc/nios2-elf/4.7.3/../../../../../H-x86_64-mingw32/nios2-elf/lib/mhw-mulx\libc.a(lib_a-dtoa.o) (__floatsidf)
c:/develop/altera/14.0/nios2eds/bin/gnu/h-x86_64-mingw32/bin/../lib/gcc/nios2-elf/4.7.3/mhw-mulx\libgcc.a(_df_to_si.o)
                              c:/develop/altera/14.0/nios2eds/bin/gnu/h-x86_64-mingw32/bin/../lib/gcc/nios2-elf/4.7.3/../../../../../H-x86_64-mingw32/nios2-elf/lib/mhw-mulx\libc.a(lib_a-dtoa.o) (__fixdfsi)
c:/develop/altera/14.0/nios2eds/bin/gnu/h-x86_64-mingw32/bin/../lib/gcc/nios2-elf/4.7.3/mhw-mulx\libgcc.a(_thenan_df.o)
                              c:/develop/altera/14.0/nios2eds/bin/gnu/h-x86_64-mingw32/bin/../lib/gcc/nios2-elf/4.7.3/mhw-mulx\libgcc.a(_addsub_df.o) (__thenan_df)
c:/develop/altera/14.0/nios2eds/bin/gnu/h-x86_64-mingw32/bin/../lib/gcc/nios2-elf/4.7.3/mhw-mulx\libgcc.a(_usi_to_df.o)
                              c:/develop/altera/14.0/nios2eds/bin/gnu/h-x86_64-mingw32/bin/../lib/gcc/nios2-elf/4.7.3/../../../../../H-x86_64-mingw32/nios2-elf/lib/mhw-mulx\libc.a(lib_a-dtoa.o) (__floatunsidf)
c:/develop/altera/14.0/nios2eds/bin/gnu/h-x86_64-mingw32/bin/../lib/gcc/nios2-elf/4.7.3/mhw-mulx\libgcc.a(_clz.o)
                              c:/develop/altera/14.0/nios2eds/bin/gnu/h-x86_64-mingw32/bin/../lib/gcc/nios2-elf/4.7.3/mhw-mulx\libgcc.a(_udivdi3.o) (__clz_tab)
c:/develop/altera/14.0/nios2eds/bin/gnu/h-x86_64-mingw32/bin/../lib/gcc/nios2-elf/4.7.3/mhw-mulx\libgcc.a(_clzsi2.o)
                              c:/develop/altera/14.0/nios2eds/bin/gnu/h-x86_64-mingw32/bin/../lib/gcc/nios2-elf/4.7.3/mhw-mulx\libgcc.a(_si_to_df.o) (__clzsi2)
c:/develop/altera/14.0/nios2eds/bin/gnu/h-x86_64-mingw32/bin/../lib/gcc/nios2-elf/4.7.3/mhw-mulx\libgcc.a(_pack_df.o)
                              c:/develop/altera/14.0/nios2eds/bin/gnu/h-x86_64-mingw32/bin/../lib/gcc/nios2-elf/4.7.3/mhw-mulx\libgcc.a(_addsub_df.o) (__pack_d)
c:/develop/altera/14.0/nios2eds/bin/gnu/h-x86_64-mingw32/bin/../lib/gcc/nios2-elf/4.7.3/mhw-mulx\libgcc.a(_unpack_df.o)
                              c:/develop/altera/14.0/nios2eds/bin/gnu/h-x86_64-mingw32/bin/../lib/gcc/nios2-elf/4.7.3/mhw-mulx\libgcc.a(_addsub_df.o) (__unpack_d)
c:/develop/altera/14.0/nios2eds/bin/gnu/h-x86_64-mingw32/bin/../lib/gcc/nios2-elf/4.7.3/mhw-mulx\libgcc.a(_fpcmp_parts_df.o)
                              c:/develop/altera/14.0/nios2eds/bin/gnu/h-x86_64-mingw32/bin/../lib/gcc/nios2-elf/4.7.3/mhw-mulx\libgcc.a(_eq_df.o) (__fpcmp_parts_d)
c:/develop/altera/14.0/nios2eds/bin/gnu/h-x86_64-mingw32/bin/../lib/gcc/nios2-elf/4.7.3/mhw-mulx\libgcc.a(_lshrdi3.o)
                              c:/develop/altera/14.0/nios2eds/bin/gnu/h-x86_64-mingw32/bin/../lib/gcc/nios2-elf/4.7.3/mhw-mulx\libgcc.a(_pack_df.o) (__lshrdi3)
c:/develop/altera/14.0/nios2eds/bin/gnu/h-x86_64-mingw32/bin/../lib/gcc/nios2-elf/4.7.3/mhw-mulx\libgcc.a(_ashldi3.o)
                              c:/develop/altera/14.0/nios2eds/bin/gnu/h-x86_64-mingw32/bin/../lib/gcc/nios2-elf/4.7.3/mhw-mulx\libgcc.a(_pack_df.o) (__ashldi3)
../sodalite_filetest_bsp/\libhal_bsp.a(alt_close.o)
                              c:/develop/altera/14.0/nios2eds/bin/gnu/h-x86_64-mingw32/bin/../lib/gcc/nios2-elf/4.7.3/../../../../../H-x86_64-mingw32/nios2-elf/lib/mhw-mulx\libc.a(lib_a-closer.o) (close)
../sodalite_filetest_bsp/\libhal_bsp.a(alt_dev.o)
                              ../sodalite_filetest_bsp/\libhal_bsp.a(alt_close.o) (alt_fd_list)
../sodalite_filetest_bsp/\libhal_bsp.a(alt_errno.o)
                              ../sodalite_filetest_bsp/\libhal_bsp.a(alt_close.o) (alt_errno)
../sodalite_filetest_bsp/\libhal_bsp.a(alt_fs_reg.o)
                              obj/default/mmcfs/mmcfs.o (alt_fs_reg)
../sodalite_filetest_bsp/\libhal_bsp.a(alt_fstat.o)
                              c:/develop/altera/14.0/nios2eds/bin/gnu/h-x86_64-mingw32/bin/../lib/gcc/nios2-elf/4.7.3/../../../../../H-x86_64-mingw32/nios2-elf/lib/mhw-mulx\libc.a(lib_a-fstatr.o) (fstat)
../sodalite_filetest_bsp/\libhal_bsp.a(alt_isatty.o)
                              c:/develop/altera/14.0/nios2eds/bin/gnu/h-x86_64-mingw32/bin/../lib/gcc/nios2-elf/4.7.3/../../../../../H-x86_64-mingw32/nios2-elf/lib/mhw-mulx\libc.a(lib_a-isattyr.o) (isatty)
../sodalite_filetest_bsp/\libhal_bsp.a(alt_load.o)
                              ../sodalite_filetest_bsp//obj/HAL/src/crt0.o (alt_load)
../sodalite_filetest_bsp/\libhal_bsp.a(alt_lseek.o)
                              c:/develop/altera/14.0/nios2eds/bin/gnu/h-x86_64-mingw32/bin/../lib/gcc/nios2-elf/4.7.3/../../../../../H-x86_64-mingw32/nios2-elf/lib/mhw-mulx\libc.a(lib_a-lseekr.o) (lseek)
../sodalite_filetest_bsp/\libhal_bsp.a(alt_main.o)
                              ../sodalite_filetest_bsp//obj/HAL/src/crt0.o (alt_main)
../sodalite_filetest_bsp/\libhal_bsp.a(alt_malloc_lock.o)
                              c:/develop/altera/14.0/nios2eds/bin/gnu/h-x86_64-mingw32/bin/../lib/gcc/nios2-elf/4.7.3/../../../../../H-x86_64-mingw32/nios2-elf/lib/mhw-mulx\libc.a(lib_a-freer.o) (__malloc_lock)
../sodalite_filetest_bsp/\libhal_bsp.a(alt_open.o)
                              c:/develop/altera/14.0/nios2eds/bin/gnu/h-x86_64-mingw32/bin/../lib/gcc/nios2-elf/4.7.3/../../../../../H-x86_64-mingw32/nios2-elf/lib/mhw-mulx\libc.a(lib_a-openr.o) (open)
../sodalite_filetest_bsp/\libhal_bsp.a(alt_read.o)
                              c:/develop/altera/14.0/nios2eds/bin/gnu/h-x86_64-mingw32/bin/../lib/gcc/nios2-elf/4.7.3/../../../../../H-x86_64-mingw32/nios2-elf/lib/mhw-mulx\libc.a(lib_a-readr.o) (read)
../sodalite_filetest_bsp/\libhal_bsp.a(alt_release_fd.o)
                              ../sodalite_filetest_bsp/\libhal_bsp.a(alt_close.o) (alt_release_fd)
../sodalite_filetest_bsp/\libhal_bsp.a(alt_sbrk.o)
                              c:/develop/altera/14.0/nios2eds/bin/gnu/h-x86_64-mingw32/bin/../lib/gcc/nios2-elf/4.7.3/../../../../../H-x86_64-mingw32/nios2-elf/lib/mhw-mulx\libc.a(lib_a-sbrkr.o) (sbrk)
../sodalite_filetest_bsp/\libhal_bsp.a(alt_uncached_malloc.o)
                              obj/default/file_test.o (alt_uncached_malloc)
../sodalite_filetest_bsp/\libhal_bsp.a(alt_usleep.o)
                              obj/default/file_test.o (usleep)
../sodalite_filetest_bsp/\libhal_bsp.a(alt_write.o)
                              c:/develop/altera/14.0/nios2eds/bin/gnu/h-x86_64-mingw32/bin/../lib/gcc/nios2-elf/4.7.3/../../../../../H-x86_64-mingw32/nios2-elf/lib/mhw-mulx\libc.a(lib_a-writer.o) (write)
../sodalite_filetest_bsp/\libhal_bsp.a(alt_sys_init.o)
                              ../sodalite_filetest_bsp/\libhal_bsp.a(alt_main.o) (alt_irq_init)
../sodalite_filetest_bsp/\libhal_bsp.a(altera_avalon_jtag_uart_fd.o)
                              ../sodalite_filetest_bsp/\libhal_bsp.a(alt_sys_init.o) (altera_avalon_jtag_uart_read_fd)
../sodalite_filetest_bsp/\libhal_bsp.a(altera_avalon_jtag_uart_init.o)
                              ../sodalite_filetest_bsp/\libhal_bsp.a(alt_sys_init.o) (altera_avalon_jtag_uart_init)
../sodalite_filetest_bsp/\libhal_bsp.a(altera_avalon_jtag_uart_ioctl.o)
                              ../sodalite_filetest_bsp/\libhal_bsp.a(altera_avalon_jtag_uart_fd.o) (altera_avalon_jtag_uart_ioctl)
../sodalite_filetest_bsp/\libhal_bsp.a(altera_avalon_jtag_uart_read.o)
                              ../sodalite_filetest_bsp/\libhal_bsp.a(altera_avalon_jtag_uart_fd.o) (altera_avalon_jtag_uart_read)
../sodalite_filetest_bsp/\libhal_bsp.a(altera_avalon_jtag_uart_write.o)
                              ../sodalite_filetest_bsp/\libhal_bsp.a(altera_avalon_jtag_uart_fd.o) (altera_avalon_jtag_uart_write)
../sodalite_filetest_bsp/\libhal_bsp.a(altera_avalon_timer_sc.o)
                              ../sodalite_filetest_bsp/\libhal_bsp.a(alt_sys_init.o) (alt_avalon_timer_sc_init)
../sodalite_filetest_bsp/\libhal_bsp.a(altera_modular_adc.o)
                              ../sodalite_filetest_bsp/\libhal_bsp.a(alt_sys_init.o) (altera_modular_adc_init)
../sodalite_filetest_bsp/\libhal_bsp.a(altera_onchip_flash.o)
                              ../sodalite_filetest_bsp/\libhal_bsp.a(alt_sys_init.o) (alt_onchip_flash_read)
../sodalite_filetest_bsp/\libhal_bsp.a(alt_alarm_start.o)
                              ../sodalite_filetest_bsp/\libhal_bsp.a(altera_avalon_jtag_uart_init.o) (alt_alarm_start)
../sodalite_filetest_bsp/\libhal_bsp.a(alt_busy_sleep.o)
                              ../sodalite_filetest_bsp/\libhal_bsp.a(alt_usleep.o) (alt_busy_sleep)
../sodalite_filetest_bsp/\libhal_bsp.a(alt_dcache_flush.o)
                              ../sodalite_filetest_bsp/\libhal_bsp.a(alt_uncached_malloc.o) (alt_dcache_flush)
../sodalite_filetest_bsp/\libhal_bsp.a(alt_dcache_flush_all.o)
                              ../sodalite_filetest_bsp/\libhal_bsp.a(alt_load.o) (alt_dcache_flush_all)
../sodalite_filetest_bsp/\libhal_bsp.a(alt_dev_llist_insert.o)
                              ../sodalite_filetest_bsp/\libhal_bsp.a(alt_sys_init.o) (alt_dev_llist_insert)
../sodalite_filetest_bsp/\libhal_bsp.a(alt_do_ctors.o)
                              ../sodalite_filetest_bsp/\libhal_bsp.a(alt_main.o) (_do_ctors)
../sodalite_filetest_bsp/\libhal_bsp.a(alt_do_dtors.o)
                              ../sodalite_filetest_bsp/\libhal_bsp.a(alt_main.o) (_do_dtors)
../sodalite_filetest_bsp/\libhal_bsp.a(alt_find_dev.o)
                              ../sodalite_filetest_bsp/\libhal_bsp.a(alt_open.o) (alt_find_dev)
../sodalite_filetest_bsp/\libhal_bsp.a(alt_find_file.o)
                              ../sodalite_filetest_bsp/\libhal_bsp.a(alt_open.o) (alt_find_file)
../sodalite_filetest_bsp/\libhal_bsp.a(alt_flash_dev.o)
                              ../sodalite_filetest_bsp/\libhal_bsp.a(altera_onchip_flash.o) (alt_flash_dev_list)
../sodalite_filetest_bsp/\libhal_bsp.a(alt_get_fd.o)
                              ../sodalite_filetest_bsp/\libhal_bsp.a(alt_open.o) (alt_get_fd)
../sodalite_filetest_bsp/\libhal_bsp.a(alt_icache_flush_all.o)
                              ../sodalite_filetest_bsp/\libhal_bsp.a(alt_load.o) (alt_icache_flush_all)
../sodalite_filetest_bsp/\libhal_bsp.a(alt_iic.o)
                              ../sodalite_filetest_bsp/\libhal_bsp.a(altera_avalon_jtag_uart_init.o) (alt_ic_isr_register)
../sodalite_filetest_bsp/\libhal_bsp.a(alt_iic_isr_register.o)
                              ../sodalite_filetest_bsp/\libhal_bsp.a(alt_iic.o) (alt_iic_isr_register)
../sodalite_filetest_bsp/\libhal_bsp.a(alt_io_redirect.o)
                              ../sodalite_filetest_bsp/\libhal_bsp.a(alt_main.o) (alt_io_redirect)
../sodalite_filetest_bsp/\libhal_bsp.a(alt_irq_entry.o)
                              ../sodalite_filetest_bsp/\libhal_bsp.a(alt_iic_isr_register.o) (alt_irq_entry)
../sodalite_filetest_bsp/\libhal_bsp.a(alt_irq_handler.o)
                              ../sodalite_filetest_bsp/\libhal_bsp.a(alt_iic_isr_register.o) (alt_irq_handler)
../sodalite_filetest_bsp/\libhal_bsp.a(alt_irq_vars.o)
                              ../sodalite_filetest_bsp/\libhal_bsp.a(alt_iic.o) (alt_irq_active)
../sodalite_filetest_bsp/\libhal_bsp.a(alt_tick.o)
                              ../sodalite_filetest_bsp/\libhal_bsp.a(altera_avalon_timer_sc.o) (alt_tick)
../sodalite_filetest_bsp/\libhal_bsp.a(altera_nios2_gen2_irq.o)
                              ../sodalite_filetest_bsp/\libhal_bsp.a(alt_sys_init.o) (altera_nios2_gen2_irq_init)
../sodalite_filetest_bsp/\libhal_bsp.a(alt_exception_entry.o)
                              ../sodalite_filetest_bsp/\libhal_bsp.a(alt_irq_entry.o) (alt_exception)
../sodalite_filetest_bsp/\libhal_bsp.a(alt_icache_flush.o)
                              ../sodalite_filetest_bsp/\libhal_bsp.a(alt_icache_flush_all.o) (alt_icache_flush)
../sodalite_filetest_bsp/\libhal_bsp.a(alt_instruction_exception_entry.o)
                              ../sodalite_filetest_bsp/\libhal_bsp.a(alt_exception_entry.o) (alt_instruction_exception_entry)
c:/develop/altera/14.0/nios2eds/bin/gnu/h-x86_64-mingw32/bin/../lib/gcc/nios2-elf/4.7.3/../../../../../H-x86_64-mingw32/nios2-elf/lib/mhw-mulx\libc.a(lib_a-atexit.o)
                              ../sodalite_filetest_bsp/\libhal_bsp.a(alt_main.o) (atexit)
c:/develop/altera/14.0/nios2eds/bin/gnu/h-x86_64-mingw32/bin/../lib/gcc/nios2-elf/4.7.3/../../../../../H-x86_64-mingw32/nios2-elf/lib/mhw-mulx\libc.a(lib_a-exit.o)
                              ../sodalite_filetest_bsp/\libhal_bsp.a(alt_main.o) (exit)
c:/develop/altera/14.0/nios2eds/bin/gnu/h-x86_64-mingw32/bin/../lib/gcc/nios2-elf/4.7.3/../../../../../H-x86_64-mingw32/nios2-elf/lib/mhw-mulx\libc.a(lib_a-malign.o)
                              ../sodalite_filetest_bsp/\libhal_bsp.a(alt_uncached_malloc.o) (memalign)
c:/develop/altera/14.0/nios2eds/bin/gnu/h-x86_64-mingw32/bin/../lib/gcc/nios2-elf/4.7.3/../../../../../H-x86_64-mingw32/nios2-elf/lib/mhw-mulx\libc.a(lib_a-malignr.o)
                              c:/develop/altera/14.0/nios2eds/bin/gnu/h-x86_64-mingw32/bin/../lib/gcc/nios2-elf/4.7.3/../../../../../H-x86_64-mingw32/nios2-elf/lib/mhw-mulx\libc.a(lib_a-malign.o) (_memalign_r)
c:/develop/altera/14.0/nios2eds/bin/gnu/h-x86_64-mingw32/bin/../lib/gcc/nios2-elf/4.7.3/../../../../../H-x86_64-mingw32/nios2-elf/lib/mhw-mulx\libc.a(lib_a-memcmp.o)
                              ../sodalite_filetest_bsp/\libhal_bsp.a(altera_onchip_flash.o) (memcmp)
c:/develop/altera/14.0/nios2eds/bin/gnu/h-x86_64-mingw32/bin/../lib/gcc/nios2-elf/4.7.3/../../../../../H-x86_64-mingw32/nios2-elf/lib/mhw-mulx\libc.a(lib_a-__atexit.o)
                              c:/develop/altera/14.0/nios2eds/bin/gnu/h-x86_64-mingw32/bin/../lib/gcc/nios2-elf/4.7.3/../../../../../H-x86_64-mingw32/nios2-elf/lib/mhw-mulx\libc.a(lib_a-atexit.o) (__register_exitproc)
c:/develop/altera/14.0/nios2eds/bin/gnu/h-x86_64-mingw32/bin/../lib/gcc/nios2-elf/4.7.3/../../../../../H-x86_64-mingw32/nios2-elf/lib/mhw-mulx\libc.a(lib_a-__call_atexit.o)
                              c:/develop/altera/14.0/nios2eds/bin/gnu/h-x86_64-mingw32/bin/../lib/gcc/nios2-elf/4.7.3/../../../../../H-x86_64-mingw32/nios2-elf/lib/mhw-mulx\libc.a(lib_a-exit.o) (__call_exitprocs)
../sodalite_filetest_bsp/\libhal_bsp.a(alt_exit.o)
                              c:/develop/altera/14.0/nios2eds/bin/gnu/h-x86_64-mingw32/bin/../lib/gcc/nios2-elf/4.7.3/../../../../../H-x86_64-mingw32/nios2-elf/lib/mhw-mulx\libc.a(lib_a-exit.o) (_exit)

Allocating common symbols
Common symbol       size              file

alt_irq             0x100             ../sodalite_filetest_bsp/\libhal_bsp.a(alt_irq_handler.o)
Mmc_fileobj         0x224             obj/default/testuty.o
errno               0x4               c:/develop/altera/14.0/nios2eds/bin/gnu/h-x86_64-mingw32/bin/../lib/gcc/nios2-elf/4.7.3/../../../../../H-x86_64-mingw32/nios2-elf/lib/mhw-mulx\libc.a(lib_a-int_errno.o)
nd_GsVgaVsyncCount  0x4               obj/default/nd_lib/nd_egl.o
nd_GsEglDrawBuffer  0x4               obj/default/nd_lib/nd_egl.o
FatFs_sysobj        0x230             obj/default/testuty.o
_atexit0            0x190             c:/develop/altera/14.0/nios2eds/bin/gnu/h-x86_64-mingw32/bin/../lib/gcc/nios2-elf/4.7.3/../../../../../H-x86_64-mingw32/nios2-elf/lib/mhw-mulx\libc.a(lib_a-atexit.o)
nd_GsVgaVsyncFlag   0x4               obj/default/nd_lib/nd_egl.o

Memory Configuration

Name             Origin             Length             Attributes
sdram_BEFORE_EXCEPTION 0x0000000000000000 0x0000000000000020
sdram            0x0000000000000020 0x0000000001ffffe0
reset            0x000000000f000000 0x0000000000000020
ipl_memory       0x000000000f000020 0x0000000000001fe0
onchip_flash_0_data 0x000000000f100000 0x0000000000008000
*default*        0x0000000000000000 0xffffffffffffffff

Linker script and memory map

LOAD ../sodalite_filetest_bsp//obj/HAL/src/crt0.o
LOAD obj/default/file_test.o
LOAD obj/default/loadbmp.o
LOAD obj/default/mmcfs/fatfs/ff.o
LOAD obj/default/mmcfs/fatfs/mmcbb.o
LOAD obj/default/mmcfs/fatfs/option/cc932.o
LOAD obj/default/mmcfs/gettime.o
LOAD obj/default/mmcfs/mmc_spi.o
LOAD obj/default/mmcfs/mmcfs.o
LOAD obj/default/nd_lib/fontx_k12x10.o
LOAD obj/default/nd_lib/fontx_k6x10.o
LOAD obj/default/nd_lib/nd_egl.o
LOAD obj/default/testuty.o
LOAD c:/develop/altera/14.0/nios2eds/bin/gnu/h-x86_64-mingw32/bin/../lib/gcc/nios2-elf/4.7.3/../../../../../H-x86_64-mingw32/nios2-elf/lib/mhw-mulx\libstdc++.a
LOAD c:/develop/altera/14.0/nios2eds/bin/gnu/h-x86_64-mingw32/bin/../lib/gcc/nios2-elf/4.7.3/../../../../../H-x86_64-mingw32/nios2-elf/lib/mhw-mulx\libm.a
LOAD c:/develop/altera/14.0/nios2eds/bin/gnu/h-x86_64-mingw32/bin/../lib/gcc/nios2-elf/4.7.3/mhw-mulx\libgcc.a
START GROUP
LOAD c:/develop/altera/14.0/nios2eds/bin/gnu/h-x86_64-mingw32/bin/../lib/gcc/nios2-elf/4.7.3/../../../../../H-x86_64-mingw32/nios2-elf/lib/mhw-mulx\libc.a
LOAD c:/develop/altera/14.0/nios2eds/bin/gnu/h-x86_64-mingw32/bin/../lib/gcc/nios2-elf/4.7.3/mhw-mulx\libgcc.a
LOAD ../sodalite_filetest_bsp/\libhal_bsp.a
END GROUP
LOAD c:/develop/altera/14.0/nios2eds/bin/gnu/h-x86_64-mingw32/bin/../lib/gcc/nios2-elf/4.7.3/mhw-mulx\libgcc.a
                0x0000000000000000                __alt_mem_sdram = 0x0
                0x000000000f000000                __alt_mem_ipl_memory = 0xf000000
                0x000000000f100000                __alt_mem_onchip_flash_0_data = 0xf100000

.entry          0x000000000f000000       0x20
 *(.entry)
 .entry         0x000000000f000000       0x20 ../sodalite_filetest_bsp//obj/HAL/src/crt0.o
                0x000000000f000000                __reset

.exceptions     0x0000000000000020      0x16c
                0x0000000000000020                PROVIDE (__ram_exceptions_start, ABSOLUTE (.))
                0x0000000000000020                . = ALIGN (0x20)
 *(.irq)
 *(.exceptions.entry.label)
 .exceptions.entry.label
                0x0000000000000020        0x0 ../sodalite_filetest_bsp/\libhal_bsp.a(alt_irq_entry.o)
                0x0000000000000020                alt_irq_entry
 .exceptions.entry.label
                0x0000000000000020        0x0 ../sodalite_filetest_bsp/\libhal_bsp.a(alt_exception_entry.o)
                0x0000000000000020                alt_exception
 *(.exceptions.entry.user)
 *(.exceptions.entry.ecc_fatal)
 *(.exceptions.entry)
 .exceptions.entry
                0x0000000000000020       0x54 ../sodalite_filetest_bsp/\libhal_bsp.a(alt_exception_entry.o)
 *(.exceptions.irqtest.user)
 *(.exceptions.irqtest)
 .exceptions.irqtest
                0x0000000000000074       0x10 ../sodalite_filetest_bsp/\libhal_bsp.a(alt_irq_entry.o)
 *(.exceptions.irqhandler.user)
 *(.exceptions.irqhandler)
 .exceptions.irqhandler
                0x0000000000000084        0x4 ../sodalite_filetest_bsp/\libhal_bsp.a(alt_irq_entry.o)
 *(.exceptions.irqreturn.user)
 *(.exceptions.irqreturn)
 .exceptions.irqreturn
                0x0000000000000088        0x4 ../sodalite_filetest_bsp/\libhal_bsp.a(alt_irq_entry.o)
 *(.exceptions.notirq.label)
 .exceptions.notirq.label
                0x000000000000008c        0x0 ../sodalite_filetest_bsp/\libhal_bsp.a(alt_irq_entry.o)
 *(.exceptions.notirq.user)
 *(.exceptions.notirq)
 .exceptions.notirq
                0x000000000000008c        0x8 ../sodalite_filetest_bsp/\libhal_bsp.a(alt_exception_entry.o)
 *(.exceptions.soft.user)
 *(.exceptions.soft)
 *(.exceptions.unknown.user)
 *(.exceptions.unknown)
 .exceptions.unknown
                0x0000000000000094       0x14 ../sodalite_filetest_bsp/\libhal_bsp.a(alt_exception_entry.o)
 *(.exceptions.exit.label)
 .exceptions.exit.label
                0x00000000000000a8        0x0 ../sodalite_filetest_bsp/\libhal_bsp.a(alt_irq_entry.o)
 .exceptions.exit.label
                0x00000000000000a8        0x0 ../sodalite_filetest_bsp/\libhal_bsp.a(alt_exception_entry.o)
 *(.exceptions.exit.user)
 *(.exceptions.exit)
 .exceptions.exit
                0x00000000000000a8       0x54 ../sodalite_filetest_bsp/\libhal_bsp.a(alt_exception_entry.o)
 *(.exceptions)
 .exceptions    0x00000000000000fc       0x64 ../sodalite_filetest_bsp/\libhal_bsp.a(alt_irq_handler.o)
                0x00000000000000fc                alt_irq_handler
 .exceptions    0x0000000000000160       0x2c ../sodalite_filetest_bsp/\libhal_bsp.a(alt_instruction_exception_entry.o)
                0x0000000000000160                alt_instruction_exception_entry
                0x000000000000018c                PROVIDE (__ram_exceptions_end, ABSOLUTE (.))
                0x0000000000000020                PROVIDE (__flash_exceptions_start, LOADADDR (.exceptions))

.text           0x000000000000018c    0x12bfc
                0x000000000000018c                PROVIDE (stext, ABSOLUTE (.))
 *(.interp)
 *(.hash)
 *(.dynsym)
 *(.dynstr)
 *(.gnu.version)
 *(.gnu.version_d)
 *(.gnu.version_r)
 *(.rel.init)
 *(.rela.init)
 *(.rel.text .rel.text.* .rel.gnu.linkonce.t.*)
 *(.rela.text .rela.text.* .rela.gnu.linkonce.t.*)
 *(.rel.fini)
 *(.rela.fini)
 *(.rel.rodata .rel.rodata.* .rel.gnu.linkonce.r.*)
 *(.rela.rodata .rela.rodata.* .rela.gnu.linkonce.r.*)
 *(.rel.data .rel.data.* .rel.gnu.linkonce.d.*)
 *(.rela.data .rela.data.* .rela.gnu.linkonce.d.*)
 *(.rel.tdata .rel.tdata.* .rel.gnu.linkonce.td.*)
 *(.rela.tdata .rela.tdata.* .rela.gnu.linkonce.td.*)
 *(.rel.tbss .rel.tbss.* .rel.gnu.linkonce.tb.*)
 *(.rela.tbss .rela.tbss.* .rela.gnu.linkonce.tb.*)
 *(.rel.ctors)
 *(.rela.ctors)
 *(.rel.dtors)
 *(.rela.dtors)
 *(.rel.got)
 *(.rela.got)
 *(.rel.sdata .rel.sdata.* .rel.gnu.linkonce.s.*)
 *(.rela.sdata .rela.sdata.* .rela.gnu.linkonce.s.*)
 *(.rel.sbss .rel.sbss.* .rel.gnu.linkonce.sb.*)
 *(.rela.sbss .rela.sbss.* .rela.gnu.linkonce.sb.*)
 *(.rel.sdata2 .rel.sdata2.* .rel.gnu.linkonce.s2.*)
 *(.rela.sdata2 .rela.sdata2.* .rela.gnu.linkonce.s2.*)
 *(.rel.sbss2 .rel.sbss2.* .rel.gnu.linkonce.sb2.*)
 *(.rela.sbss2 .rela.sbss2.* .rela.gnu.linkonce.sb2.*)
 *(.rel.bss .rel.bss.* .rel.gnu.linkonce.b.*)
 *(.rela.bss .rela.bss.* .rela.gnu.linkonce.b.*)
 *(.rel.plt)
 *(.rela.plt)
 *(.rel.dyn)
 *(.init)
 *(.plt)
 *(.text .stub .text.* .gnu.linkonce.t.*)
 .text          0x000000000000018c       0x4c ../sodalite_filetest_bsp//obj/HAL/src/crt0.o
                0x000000000000018c                _start
 .text          0x00000000000001d8        0x4 obj/default/file_test.o
                0x00000000000001d8                nd_halt
 .text.startup  0x00000000000001dc      0x150 obj/default/file_test.o
                0x00000000000001dc                main
 .text          0x000000000000032c      0x34c obj/default/loadbmp.o
                0x000000000000032c                loadbmp
 .text          0x0000000000000678     0x3d84 obj/default/mmcfs/fatfs/ff.o
                0x00000000000010cc                clust2sect
                0x00000000000010f8                get_fat
                0x00000000000013c8                put_fat
                0x000000000000246c                gen_numname
                0x0000000000002904                f_mount
                0x0000000000002934                f_open
                0x0000000000002c00                f_read
                0x0000000000002ed8                f_write
                0x0000000000003220                f_sync
                0x0000000000003360                f_close
                0x000000000000338c                f_lseek
                0x0000000000003660                f_opendir
                0x0000000000003730                f_readdir
                0x00000000000037e8                f_stat
                0x0000000000003884                f_getfree
                0x0000000000003a70                f_truncate
                0x0000000000003bc0                f_unlink
                0x0000000000003d1c                f_mkdir
                0x0000000000004044                f_chmod
                0x000000000000411c                f_utime
                0x00000000000041f0                f_rename
 .text          0x00000000000043fc      0x9f4 obj/default/mmcfs/fatfs/mmcbb.o
                0x00000000000047ac                disk_status
                0x000000000000483c                disk_initialize
                0x0000000000004a1c                disk_read
                0x0000000000004b34                disk_write
                0x0000000000004c88                disk_ioctl
 .text          0x0000000000004df0       0xe4 obj/default/mmcfs/fatfs/option/cc932.o
                0x0000000000004df0                ff_convert
                0x0000000000004e80                ff_wtoupper
 .text          0x0000000000004ed4        0x8 obj/default/mmcfs/gettime.o
                0x0000000000004ed4                get_fattime
 .text          0x0000000000004edc      0x27c obj/default/mmcfs/mmc_spi.o
                0x0000000000004edc                mmc_spi_SetCardSelect
                0x0000000000004ef0                mmc_spi_SetCardDeselect
                0x0000000000004f08                mmc_spi_Sendbyte
                0x0000000000004f2c                mmc_spi_Recvbyte
                0x0000000000004f5c                mmc_spi_DmaRecv
                0x0000000000005070                mmc_spi_CheckCardDetect
                0x0000000000005084                mmc_spi_CheckWritePortect
                0x00000000000050ac                mmc_spi_SetIdentClock
                0x00000000000050bc                mmc_spi_SetTransClock
                0x00000000000050cc                mmc_spi_SetTimer
                0x00000000000050e0                mmc_spi_CheckTimer
                0x00000000000050f0                mmc_spi_Wait100us
                0x0000000000005110                mmc_spi_InitSocket
 .text          0x0000000000005158      0x308 obj/default/mmcfs/mmcfs.o
                0x0000000000005158                dev_mmcfs_fstat
                0x0000000000005188                dev_mmcfs_lseek
                0x00000000000051f8                dev_mmcfs_write
                0x0000000000005228                dev_mmcfs_read
                0x0000000000005258                dev_mmcfs_close
                0x00000000000052cc                dev_mmcfs_open
                0x00000000000053fc                mmcfs_setup
 .text          0x0000000000005460        0x0 obj/default/nd_lib/fontx_k12x10.o
 .text          0x0000000000005460        0x0 obj/default/nd_lib/fontx_k6x10.o
 .text          0x0000000000005460      0xcfc obj/default/nd_lib/nd_egl.o
                0x00000000000054f8                nd_GsVgaVsync_isr
                0x0000000000005530                nd_GsVgaVsync_isrenable
                0x0000000000005550                nd_GsVgaVsync_isrdisable
                0x0000000000005570                nd_GsVgaScanOn
                0x0000000000005588                nd_GsVgaScanOff
                0x00000000000055a4                nd_GsVgaSetBuffer
                0x00000000000055c0                nd_GsVgaInit
                0x00000000000055f8                nd_GsVgaWaitVsync
                0x0000000000005618                nd_GsVgaVsync_getcount
                0x0000000000005644                nd_GsVgaVsync_setcount
                0x0000000000005670                nd_GsEglPage
                0x00000000000056b0                nd_GsEglColor
                0x00000000000056c0                nd_GsEglPset
                0x000000000000578c                nd_GsEglBoxfill
                0x0000000000005908                nd_GsEglCircle
                0x0000000000005aa8                nd_GsEglLine
                0x0000000000005c08                nd_GsEglBox
                0x0000000000005c94                nd_GsEglPutcharFont
                0x0000000000005dc8                nd_GsEglPutstrFont
                0x0000000000005e94                nd_GsEglSetFont
                0x0000000000005ea0                nd_GsEglPutchar
                0x0000000000005f64                nd_GsEglPutstr
                0x0000000000005fc0                nd_GsEglPutdec
                0x000000000000609c                nd_GsEglPuthex2
                0x00000000000060ec                nd_GsEglPuthex8
 .text          0x000000000000615c      0x5b4 obj/default/testuty.o
                0x000000000000615c                systeminit
                0x0000000000006428                memdump_byte
                0x00000000000064f8                memdump_word
                0x00000000000065cc                memdump_dword
                0x00000000000066a0                memdump
                0x00000000000066c4                memcrc16
 .text          0x0000000000006710      0x130 c:/develop/altera/14.0/nios2eds/bin/gnu/h-x86_64-mingw32/bin/../lib/gcc/nios2-elf/4.7.3/mhw-mulx\libgcc.a(lib2-divmod.o)
                0x0000000000006784                __divsi3
                0x00000000000067d4                __modsi3
                0x0000000000006830                __udivsi3
                0x0000000000006838                __umodsi3
 .text          0x0000000000006840      0x150 c:/develop/altera/14.0/nios2eds/bin/gnu/h-x86_64-mingw32/bin/../lib/gcc/nios2-elf/4.7.3/../../../../../H-x86_64-mingw32/nios2-elf/lib/mhw-mulx\libc.a(lib_a-fclose.o)
                0x0000000000006840                _fclose_r
                0x000000000000697c                fclose
 .text          0x0000000000006990      0x218 c:/develop/altera/14.0/nios2eds/bin/gnu/h-x86_64-mingw32/bin/../lib/gcc/nios2-elf/4.7.3/../../../../../H-x86_64-mingw32/nios2-elf/lib/mhw-mulx\libc.a(lib_a-fflush.o)
                0x0000000000006990                _fflush_r
                0x0000000000006b78                fflush
 .text          0x0000000000006ba8      0x2d8 c:/develop/altera/14.0/nios2eds/bin/gnu/h-x86_64-mingw32/bin/../lib/gcc/nios2-elf/4.7.3/../../../../../H-x86_64-mingw32/nios2-elf/lib/mhw-mulx\libc.a(lib_a-findfp.o)
                0x0000000000006bb8                _cleanup_r
                0x0000000000006bc4                __sfmoreglue
                0x0000000000006c28                _cleanup
                0x0000000000006c38                __sinit
                0x0000000000006d44                __sfp
                0x0000000000006e40                __sfp_lock_acquire
                0x0000000000006e44                __sfp_lock_release
                0x0000000000006e48                __sinit_lock_acquire
                0x0000000000006e4c                __sinit_lock_release
                0x0000000000006e50                __fp_lock_all
                0x0000000000006e68                __fp_unlock_all
 .text          0x0000000000006e80      0x14c c:/develop/altera/14.0/nios2eds/bin/gnu/h-x86_64-mingw32/bin/../lib/gcc/nios2-elf/4.7.3/../../../../../H-x86_64-mingw32/nios2-elf/lib/mhw-mulx\libc.a(lib_a-fopen.o)
                0x0000000000006e80                _fopen_r
                0x0000000000006fb0                fopen
 .text          0x0000000000006fcc      0x26c c:/develop/altera/14.0/nios2eds/bin/gnu/h-x86_64-mingw32/bin/../lib/gcc/nios2-elf/4.7.3/../../../../../H-x86_64-mingw32/nios2-elf/lib/mhw-mulx\libc.a(lib_a-fread.o)
                0x0000000000006fcc                _fread_r
                0x00000000000071f8                fread
 .text          0x0000000000007238      0x40c c:/develop/altera/14.0/nios2eds/bin/gnu/h-x86_64-mingw32/bin/../lib/gcc/nios2-elf/4.7.3/../../../../../H-x86_64-mingw32/nios2-elf/lib/mhw-mulx\libc.a(lib_a-freer.o)
                0x0000000000007238                _malloc_trim_r
                0x0000000000007374                _free_r
 .text          0x0000000000007644      0x498 c:/develop/altera/14.0/nios2eds/bin/gnu/h-x86_64-mingw32/bin/../lib/gcc/nios2-elf/4.7.3/../../../../../H-x86_64-mingw32/nios2-elf/lib/mhw-mulx\libc.a(lib_a-fseek.o)
                0x0000000000007644                _fseek_r
                0x0000000000007ab8                fseek
 .text          0x0000000000007adc       0x68 c:/develop/altera/14.0/nios2eds/bin/gnu/h-x86_64-mingw32/bin/../lib/gcc/nios2-elf/4.7.3/../../../../../H-x86_64-mingw32/nios2-elf/lib/mhw-mulx\libc.a(lib_a-fstatr.o)
                0x0000000000007adc                _fstat_r
 .text          0x0000000000007b44      0x160 c:/develop/altera/14.0/nios2eds/bin/gnu/h-x86_64-mingw32/bin/../lib/gcc/nios2-elf/4.7.3/../../../../../H-x86_64-mingw32/nios2-elf/lib/mhw-mulx\libc.a(lib_a-fwalk.o)
                0x0000000000007b44                _fwalk
                0x0000000000007bec                _fwalk_reent
 .text          0x0000000000007ca4        0x0 c:/develop/altera/14.0/nios2eds/bin/gnu/h-x86_64-mingw32/bin/../lib/gcc/nios2-elf/4.7.3/../../../../../H-x86_64-mingw32/nios2-elf/lib/mhw-mulx\libc.a(lib_a-impure.o)
 .text          0x0000000000007ca4        0x0 c:/develop/altera/14.0/nios2eds/bin/gnu/h-x86_64-mingw32/bin/../lib/gcc/nios2-elf/4.7.3/../../../../../H-x86_64-mingw32/nios2-elf/lib/mhw-mulx\libc.a(lib_a-int_errno.o)
 .text          0x0000000000007ca4      0x1a8 c:/develop/altera/14.0/nios2eds/bin/gnu/h-x86_64-mingw32/bin/../lib/gcc/nios2-elf/4.7.3/../../../../../H-x86_64-mingw32/nios2-elf/lib/mhw-mulx\libc.a(lib_a-makebuf.o)
                0x0000000000007ca4                __smakebuf_r
 .text          0x0000000000007e4c      0x784 c:/develop/altera/14.0/nios2eds/bin/gnu/h-x86_64-mingw32/bin/../lib/gcc/nios2-elf/4.7.3/../../../../../H-x86_64-mingw32/nios2-elf/lib/mhw-mulx\libc.a(lib_a-mallocr.o)
                0x0000000000007e4c                _malloc_r
 .text          0x00000000000085d0       0xf8 c:/develop/altera/14.0/nios2eds/bin/gnu/h-x86_64-mingw32/bin/../lib/gcc/nios2-elf/4.7.3/../../../../../H-x86_64-mingw32/nios2-elf/lib/mhw-mulx\libc.a(lib_a-memcpy.o)
                0x00000000000085d0                memcpy
 .text          0x00000000000086c8       0xdc c:/develop/altera/14.0/nios2eds/bin/gnu/h-x86_64-mingw32/bin/../lib/gcc/nios2-elf/4.7.3/../../../../../H-x86_64-mingw32/nios2-elf/lib/mhw-mulx\libc.a(lib_a-memset.o)
                0x00000000000086c8                memset
 .text          0x00000000000087a4       0x6c c:/develop/altera/14.0/nios2eds/bin/gnu/h-x86_64-mingw32/bin/../lib/gcc/nios2-elf/4.7.3/../../../../../H-x86_64-mingw32/nios2-elf/lib/mhw-mulx\libc.a(lib_a-openr.o)
                0x00000000000087a4                _open_r
 .text          0x0000000000008810       0x68 c:/develop/altera/14.0/nios2eds/bin/gnu/h-x86_64-mingw32/bin/../lib/gcc/nios2-elf/4.7.3/../../../../../H-x86_64-mingw32/nios2-elf/lib/mhw-mulx\libc.a(lib_a-printf.o)
                0x0000000000008810                _printf_r
                0x000000000000883c                printf
 .text          0x0000000000008878       0x24 c:/develop/altera/14.0/nios2eds/bin/gnu/h-x86_64-mingw32/bin/../lib/gcc/nios2-elf/4.7.3/../../../../../H-x86_64-mingw32/nios2-elf/lib/mhw-mulx\libc.a(lib_a-putchar.o)
                0x0000000000008878                _putchar_r
                0x0000000000008880                putchar
 .text          0x000000000000889c       0x98 c:/develop/altera/14.0/nios2eds/bin/gnu/h-x86_64-mingw32/bin/../lib/gcc/nios2-elf/4.7.3/../../../../../H-x86_64-mingw32/nios2-elf/lib/mhw-mulx\libc.a(lib_a-puts.o)
                0x000000000000889c                _puts_r
                0x0000000000008920                puts
 .text          0x0000000000008934      0x208 c:/develop/altera/14.0/nios2eds/bin/gnu/h-x86_64-mingw32/bin/../lib/gcc/nios2-elf/4.7.3/../../../../../H-x86_64-mingw32/nios2-elf/lib/mhw-mulx\libc.a(lib_a-refill.o)
                0x0000000000008950                __srefill_r
 .text          0x0000000000008b3c       0x64 c:/develop/altera/14.0/nios2eds/bin/gnu/h-x86_64-mingw32/bin/../lib/gcc/nios2-elf/4.7.3/../../../../../H-x86_64-mingw32/nios2-elf/lib/mhw-mulx\libc.a(lib_a-sbrkr.o)
                0x0000000000008b3c                _sbrk_r
 .text          0x0000000000008ba0      0x140 c:/develop/altera/14.0/nios2eds/bin/gnu/h-x86_64-mingw32/bin/../lib/gcc/nios2-elf/4.7.3/../../../../../H-x86_64-mingw32/nios2-elf/lib/mhw-mulx\libc.a(lib_a-stdio.o)
                0x0000000000008ba0                __sread
                0x0000000000008bf4                __swrite
                0x0000000000008c7c                __sseek
                0x0000000000008cd8                __sclose
 .text          0x0000000000008ce0       0x8c c:/develop/altera/14.0/nios2eds/bin/gnu/h-x86_64-mingw32/bin/../lib/gcc/nios2-elf/4.7.3/../../../../../H-x86_64-mingw32/nios2-elf/lib/mhw-mulx\libc.a(lib_a-strlen.o)
                0x0000000000008ce0                strlen
 .text          0x0000000000008d6c     0x1e50 c:/develop/altera/14.0/nios2eds/bin/gnu/h-x86_64-mingw32/bin/../lib/gcc/nios2-elf/4.7.3/../../../../../H-x86_64-mingw32/nios2-elf/lib/mhw-mulx\libc.a(lib_a-vfprintf.o)
                0x0000000000008da0                ___vfprintf_internal_r
                0x000000000000ab98                __vfprintf_internal
 .text          0x000000000000abbc       0x6c c:/develop/altera/14.0/nios2eds/bin/gnu/h-x86_64-mingw32/bin/../lib/gcc/nios2-elf/4.7.3/../../../../../H-x86_64-mingw32/nios2-elf/lib/mhw-mulx\libc.a(lib_a-writer.o)
                0x000000000000abbc                _write_r
 .text          0x000000000000ac28      0x174 c:/develop/altera/14.0/nios2eds/bin/gnu/h-x86_64-mingw32/bin/../lib/gcc/nios2-elf/4.7.3/../../../../../H-x86_64-mingw32/nios2-elf/lib/mhw-mulx\libc.a(lib_a-wsetup.o)
                0x000000000000ac28                __swsetup_r
 .text          0x000000000000ad9c       0x64 c:/develop/altera/14.0/nios2eds/bin/gnu/h-x86_64-mingw32/bin/../lib/gcc/nios2-elf/4.7.3/../../../../../H-x86_64-mingw32/nios2-elf/lib/mhw-mulx\libc.a(lib_a-closer.o)
                0x000000000000ad9c                _close_r
 .text          0x000000000000ae00     0x1824 c:/develop/altera/14.0/nios2eds/bin/gnu/h-x86_64-mingw32/bin/../lib/gcc/nios2-elf/4.7.3/../../../../../H-x86_64-mingw32/nios2-elf/lib/mhw-mulx\libc.a(lib_a-dtoa.o)
                0x000000000000b008                _dtoa_r
 .text          0x000000000000c624       0x98 c:/develop/altera/14.0/nios2eds/bin/gnu/h-x86_64-mingw32/bin/../lib/gcc/nios2-elf/4.7.3/../../../../../H-x86_64-mingw32/nios2-elf/lib/mhw-mulx\libc.a(lib_a-flags.o)
                0x000000000000c624                __sflags
 .text          0x000000000000c6bc      0x4e4 c:/develop/altera/14.0/nios2eds/bin/gnu/h-x86_64-mingw32/bin/../lib/gcc/nios2-elf/4.7.3/../../../../../H-x86_64-mingw32/nios2-elf/lib/mhw-mulx\libc.a(lib_a-fvwrite.o)
                0x000000000000c6bc                __sfvwrite_r
 .text          0x000000000000cba0       0x64 c:/develop/altera/14.0/nios2eds/bin/gnu/h-x86_64-mingw32/bin/../lib/gcc/nios2-elf/4.7.3/../../../../../H-x86_64-mingw32/nios2-elf/lib/mhw-mulx\libc.a(lib_a-isattyr.o)
                0x000000000000cba0                _isatty_r
 .text          0x000000000000cc04       0xdc c:/develop/altera/14.0/nios2eds/bin/gnu/h-x86_64-mingw32/bin/../lib/gcc/nios2-elf/4.7.3/../../../../../H-x86_64-mingw32/nios2-elf/lib/mhw-mulx\libc.a(lib_a-locale.o)
                0x000000000000cc04                _setlocale_r
                0x000000000000cca0                __locale_charset
                0x000000000000ccac                _localeconv_r
                0x000000000000ccb8                setlocale
                0x000000000000ccd4                localeconv
 .text          0x000000000000cce0       0x6c c:/develop/altera/14.0/nios2eds/bin/gnu/h-x86_64-mingw32/bin/../lib/gcc/nios2-elf/4.7.3/../../../../../H-x86_64-mingw32/nios2-elf/lib/mhw-mulx\libc.a(lib_a-lseekr.o)
                0x000000000000cce0                _lseek_r
 .text          0x000000000000cd4c       0xf8 c:/develop/altera/14.0/nios2eds/bin/gnu/h-x86_64-mingw32/bin/../lib/gcc/nios2-elf/4.7.3/../../../../../H-x86_64-mingw32/nios2-elf/lib/mhw-mulx\libc.a(lib_a-memchr.o)
                0x000000000000cd4c                memchr
 .text          0x000000000000ce44      0x128 c:/develop/altera/14.0/nios2eds/bin/gnu/h-x86_64-mingw32/bin/../lib/gcc/nios2-elf/4.7.3/../../../../../H-x86_64-mingw32/nios2-elf/lib/mhw-mulx\libc.a(lib_a-memmove.o)
                0x000000000000ce44                memmove
 .text          0x000000000000cf6c      0xfa8 c:/develop/altera/14.0/nios2eds/bin/gnu/h-x86_64-mingw32/bin/../lib/gcc/nios2-elf/4.7.3/../../../../../H-x86_64-mingw32/nios2-elf/lib/mhw-mulx\libc.a(lib_a-mprec.o)
                0x000000000000cf6c                _Balloc
                0x000000000000d014                _Bfree
                0x000000000000d03c                __multadd
                0x000000000000d150                __s2b
                0x000000000000d254                __hi0bits
                0x000000000000d2bc                __lo0bits
                0x000000000000d36c                __i2b
                0x000000000000d3a8                __multiply
                0x000000000000d588                __pow5mult
                0x000000000000d6b4                __lshift
                0x000000000000d810                __mcmp
                0x000000000000d868                __mdiff
                0x000000000000da10                __ulp
                0x000000000000da70                __b2d
                0x000000000000dbb8                __d2b
                0x000000000000dcfc                __ratio
                0x000000000000dda0                _mprec_log10
                0x000000000000de14                __copybits
                0x000000000000de90                __any_on
 .text          0x000000000000df14      0x1ac c:/develop/altera/14.0/nios2eds/bin/gnu/h-x86_64-mingw32/bin/../lib/gcc/nios2-elf/4.7.3/../../../../../H-x86_64-mingw32/nios2-elf/lib/mhw-mulx\libc.a(lib_a-putc.o)
                0x000000000000df14                _putc_r
                0x000000000000dfd0                putc
 .text          0x000000000000e0c0       0x6c c:/develop/altera/14.0/nios2eds/bin/gnu/h-x86_64-mingw32/bin/../lib/gcc/nios2-elf/4.7.3/../../../../../H-x86_64-mingw32/nios2-elf/lib/mhw-mulx\libc.a(lib_a-readr.o)
                0x000000000000e0c0                _read_r
 .text          0x000000000000e12c      0x5fc c:/develop/altera/14.0/nios2eds/bin/gnu/h-x86_64-mingw32/bin/../lib/gcc/nios2-elf/4.7.3/../../../../../H-x86_64-mingw32/nios2-elf/lib/mhw-mulx\libc.a(lib_a-reallocr.o)
                0x000000000000e12c                _realloc_r
 .text          0x000000000000e728       0x38 c:/develop/altera/14.0/nios2eds/bin/gnu/h-x86_64-mingw32/bin/../lib/gcc/nios2-elf/4.7.3/../../../../../H-x86_64-mingw32/nios2-elf/lib/mhw-mulx\libc.a(lib_a-s_isinfd.o)
                0x000000000000e728                __isinfd
 .text          0x000000000000e760       0x2c c:/develop/altera/14.0/nios2eds/bin/gnu/h-x86_64-mingw32/bin/../lib/gcc/nios2-elf/4.7.3/../../../../../H-x86_64-mingw32/nios2-elf/lib/mhw-mulx\libc.a(lib_a-s_isnand.o)
                0x000000000000e760                __isnand
 .text          0x000000000000e78c       0xa4 c:/develop/altera/14.0/nios2eds/bin/gnu/h-x86_64-mingw32/bin/../lib/gcc/nios2-elf/4.7.3/../../../../../H-x86_64-mingw32/nios2-elf/lib/mhw-mulx\libc.a(lib_a-strcmp.o)
                0x000000000000e78c                strcmp
 .text          0x000000000000e830      0x158 c:/develop/altera/14.0/nios2eds/bin/gnu/h-x86_64-mingw32/bin/../lib/gcc/nios2-elf/4.7.3/../../../../../H-x86_64-mingw32/nios2-elf/lib/mhw-mulx\libc.a(lib_a-wbuf.o)
                0x000000000000e830                __swbuf_r
                0x000000000000e96c                __swbuf
 .text          0x000000000000e988       0xbc c:/develop/altera/14.0/nios2eds/bin/gnu/h-x86_64-mingw32/bin/../lib/gcc/nios2-elf/4.7.3/../../../../../H-x86_64-mingw32/nios2-elf/lib/mhw-mulx\libc.a(lib_a-callocr.o)
                0x000000000000e988                _calloc_r
 .text          0x000000000000ea44      0x5c8 c:/develop/altera/14.0/nios2eds/bin/gnu/h-x86_64-mingw32/bin/../lib/gcc/nios2-elf/4.7.3/mhw-mulx\libgcc.a(_udivdi3.o)
                0x000000000000ea44                __udivdi3
 .text          0x000000000000f00c      0x58c c:/develop/altera/14.0/nios2eds/bin/gnu/h-x86_64-mingw32/bin/../lib/gcc/nios2-elf/4.7.3/mhw-mulx\libgcc.a(_umoddi3.o)
                0x000000000000f00c                __umoddi3
 .text          0x000000000000f598      0x408 c:/develop/altera/14.0/nios2eds/bin/gnu/h-x86_64-mingw32/bin/../lib/gcc/nios2-elf/4.7.3/mhw-mulx\libgcc.a(_addsub_df.o)
                0x000000000000f8ec                __adddf3
                0x000000000000f940                __subdf3
 .text          0x000000000000f9a0      0x260 c:/develop/altera/14.0/nios2eds/bin/gnu/h-x86_64-mingw32/bin/../lib/gcc/nios2-elf/4.7.3/mhw-mulx\libgcc.a(_mul_df.o)
                0x000000000000f9a0                __muldf3
 .text          0x000000000000fc00      0x1b4 c:/develop/altera/14.0/nios2eds/bin/gnu/h-x86_64-mingw32/bin/../lib/gcc/nios2-elf/4.7.3/mhw-mulx\libgcc.a(_div_df.o)
                0x000000000000fc00                __divdf3
 .text          0x000000000000fdb4       0x5c c:/develop/altera/14.0/nios2eds/bin/gnu/h-x86_64-mingw32/bin/../lib/gcc/nios2-elf/4.7.3/mhw-mulx\libgcc.a(_eq_df.o)
                0x000000000000fdb4                __eqdf2
 .text          0x000000000000fe10       0x5c c:/develop/altera/14.0/nios2eds/bin/gnu/h-x86_64-mingw32/bin/../lib/gcc/nios2-elf/4.7.3/mhw-mulx\libgcc.a(_ne_df.o)
                0x000000000000fe10                __nedf2
 .text          0x000000000000fe6c       0x64 c:/develop/altera/14.0/nios2eds/bin/gnu/h-x86_64-mingw32/bin/../lib/gcc/nios2-elf/4.7.3/mhw-mulx\libgcc.a(_gt_df.o)
                0x000000000000fe6c                __gtdf2
 .text          0x000000000000fed0       0x64 c:/develop/altera/14.0/nios2eds/bin/gnu/h-x86_64-mingw32/bin/../lib/gcc/nios2-elf/4.7.3/mhw-mulx\libgcc.a(_ge_df.o)
                0x000000000000fed0                __gedf2
 .text          0x000000000000ff34       0x5c c:/develop/altera/14.0/nios2eds/bin/gnu/h-x86_64-mingw32/bin/../lib/gcc/nios2-elf/4.7.3/mhw-mulx\libgcc.a(_lt_df.o)
                0x000000000000ff34                __ltdf2
 .text          0x000000000000ff90       0xd4 c:/develop/altera/14.0/nios2eds/bin/gnu/h-x86_64-mingw32/bin/../lib/gcc/nios2-elf/4.7.3/mhw-mulx\libgcc.a(_si_to_df.o)
                0x000000000000ff90                __floatsidf
 .text          0x0000000000010064       0xc4 c:/develop/altera/14.0/nios2eds/bin/gnu/h-x86_64-mingw32/bin/../lib/gcc/nios2-elf/4.7.3/mhw-mulx\libgcc.a(_df_to_si.o)
                0x0000000000010064                __fixdfsi
 .text          0x0000000000010128        0x0 c:/develop/altera/14.0/nios2eds/bin/gnu/h-x86_64-mingw32/bin/../lib/gcc/nios2-elf/4.7.3/mhw-mulx\libgcc.a(_thenan_df.o)
 .text          0x0000000000010128      0x11c c:/develop/altera/14.0/nios2eds/bin/gnu/h-x86_64-mingw32/bin/../lib/gcc/nios2-elf/4.7.3/mhw-mulx\libgcc.a(_usi_to_df.o)
                0x0000000000010128                __floatunsidf
 .text          0x0000000000010244        0x0 c:/develop/altera/14.0/nios2eds/bin/gnu/h-x86_64-mingw32/bin/../lib/gcc/nios2-elf/4.7.3/mhw-mulx\libgcc.a(_clz.o)
 .text          0x0000000000010244       0xac c:/develop/altera/14.0/nios2eds/bin/gnu/h-x86_64-mingw32/bin/../lib/gcc/nios2-elf/4.7.3/mhw-mulx\libgcc.a(_clzsi2.o)
                0x0000000000010244                __clzsi2
 .text          0x00000000000102f0      0x224 c:/develop/altera/14.0/nios2eds/bin/gnu/h-x86_64-mingw32/bin/../lib/gcc/nios2-elf/4.7.3/mhw-mulx\libgcc.a(_pack_df.o)
                0x00000000000102f0                __pack_d
 .text          0x0000000000010514      0x104 c:/develop/altera/14.0/nios2eds/bin/gnu/h-x86_64-mingw32/bin/../lib/gcc/nios2-elf/4.7.3/mhw-mulx\libgcc.a(_unpack_df.o)
                0x0000000000010514                __unpack_d
 .text          0x0000000000010618       0xd0 c:/develop/altera/14.0/nios2eds/bin/gnu/h-x86_64-mingw32/bin/../lib/gcc/nios2-elf/4.7.3/mhw-mulx\libgcc.a(_fpcmp_parts_df.o)
                0x0000000000010618                __fpcmp_parts_d
 .text          0x00000000000106e8       0x44 c:/develop/altera/14.0/nios2eds/bin/gnu/h-x86_64-mingw32/bin/../lib/gcc/nios2-elf/4.7.3/mhw-mulx\libgcc.a(_lshrdi3.o)
                0x00000000000106e8                __lshrdi3
 .text          0x000000000001072c       0x44 c:/develop/altera/14.0/nios2eds/bin/gnu/h-x86_64-mingw32/bin/../lib/gcc/nios2-elf/4.7.3/mhw-mulx\libgcc.a(_ashldi3.o)
                0x000000000001072c                __ashldi3
 .text          0x0000000000010770       0xe0 ../sodalite_filetest_bsp/\libhal_bsp.a(alt_close.o)
                0x0000000000010770                close
 .text          0x0000000000010850        0x8 ../sodalite_filetest_bsp/\libhal_bsp.a(alt_dev.o)
 .text          0x0000000000010858        0x0 ../sodalite_filetest_bsp/\libhal_bsp.a(alt_errno.o)
 .text          0x0000000000010858       0x38 ../sodalite_filetest_bsp/\libhal_bsp.a(alt_fs_reg.o)
                0x0000000000010858                alt_fs_reg
 .text          0x0000000000010890       0x7c ../sodalite_filetest_bsp/\libhal_bsp.a(alt_fstat.o)
                0x0000000000010890                fstat
 .text          0x000000000001090c       0x8c ../sodalite_filetest_bsp/\libhal_bsp.a(alt_isatty.o)
                0x000000000001090c                isatty
 .text          0x0000000000010998      0x114 ../sodalite_filetest_bsp/\libhal_bsp.a(alt_load.o)
                0x0000000000010998                alt_load
 .text          0x0000000000010aac       0x84 ../sodalite_filetest_bsp/\libhal_bsp.a(alt_lseek.o)
                0x0000000000010aac                lseek
 .text          0x0000000000010b30       0x60 ../sodalite_filetest_bsp/\libhal_bsp.a(alt_main.o)
                0x0000000000010b30                alt_main
 .text          0x0000000000010b90        0x8 ../sodalite_filetest_bsp/\libhal_bsp.a(alt_malloc_lock.o)
                0x0000000000010b90                __malloc_lock
                0x0000000000010b94                __malloc_unlock
 .text          0x0000000000010b98      0x17c ../sodalite_filetest_bsp/\libhal_bsp.a(alt_open.o)
                0x0000000000010b98                open
 .text          0x0000000000010d14       0xec ../sodalite_filetest_bsp/\libhal_bsp.a(alt_read.o)
                0x0000000000010d14                read
 .text          0x0000000000010e00       0x24 ../sodalite_filetest_bsp/\libhal_bsp.a(alt_release_fd.o)
                0x0000000000010e00                alt_release_fd
 .text          0x0000000000010e24       0x4c ../sodalite_filetest_bsp/\libhal_bsp.a(alt_sbrk.o)
                0x0000000000010e24                sbrk
 .text          0x0000000000010e70       0x5c ../sodalite_filetest_bsp/\libhal_bsp.a(alt_uncached_malloc.o)
                0x0000000000010e70                alt_uncached_malloc
 .text          0x0000000000010ecc        0x4 ../sodalite_filetest_bsp/\libhal_bsp.a(alt_usleep.o)
                0x0000000000010ecc                usleep
 .text          0x0000000000010ed0       0xe8 ../sodalite_filetest_bsp/\libhal_bsp.a(alt_write.o)
                0x0000000000010ed0                write
 .text          0x0000000000010fb8       0x90 ../sodalite_filetest_bsp/\libhal_bsp.a(alt_sys_init.o)
                0x0000000000010fb8                alt_irq_init
                0x0000000000010fd8                alt_sys_init
 .text          0x0000000000011048       0x3c ../sodalite_filetest_bsp/\libhal_bsp.a(altera_avalon_jtag_uart_fd.o)
                0x0000000000011048                altera_avalon_jtag_uart_read_fd
                0x0000000000011058                altera_avalon_jtag_uart_write_fd
                0x0000000000011068                altera_avalon_jtag_uart_close_fd
                0x0000000000011078                altera_avalon_jtag_uart_ioctl_fd
 .text          0x0000000000011084      0x214 ../sodalite_filetest_bsp/\libhal_bsp.a(altera_avalon_jtag_uart_init.o)
                0x00000000000111e4                altera_avalon_jtag_uart_init
                0x0000000000011264                altera_avalon_jtag_uart_close
 .text          0x0000000000011298       0x74 ../sodalite_filetest_bsp/\libhal_bsp.a(altera_avalon_jtag_uart_ioctl.o)
                0x0000000000011298                altera_avalon_jtag_uart_ioctl
 .text          0x000000000001130c      0x134 ../sodalite_filetest_bsp/\libhal_bsp.a(altera_avalon_jtag_uart_read.o)
                0x000000000001130c                altera_avalon_jtag_uart_read
 .text          0x0000000000011440      0x184 ../sodalite_filetest_bsp/\libhal_bsp.a(altera_avalon_jtag_uart_write.o)
                0x0000000000011440                altera_avalon_jtag_uart_write
 .text          0x00000000000115c4       0x8c ../sodalite_filetest_bsp/\libhal_bsp.a(altera_avalon_timer_sc.o)
                0x0000000000011600                alt_avalon_timer_sc_init
 .text          0x0000000000011650       0x10 ../sodalite_filetest_bsp/\libhal_bsp.a(altera_modular_adc.o)
                0x0000000000011650                altera_modular_adc_init
                0x0000000000011658                altera_modular_adc_open
 .text          0x0000000000011660      0x94c ../sodalite_filetest_bsp/\libhal_bsp.a(altera_onchip_flash.o)
                0x0000000000011660                alt_onchip_flash_read
                0x00000000000116e4                alt_onchip_flash_get_info
                0x000000000001172c                alt_onchip_flash_erase_block
                0x000000000001186c                alt_onchip_flash_write_block
                0x0000000000011a7c                alt_onchip_flash_write
                0x0000000000011c50                altera_onchip_flash_init
                0x0000000000011f10                alt_onchip_flash_poll_for_status_to_go_idle
                0x0000000000011f44                alt_onchip_flash_poll_for_status_erase_passed
                0x0000000000011f78                alt_onchip_flash_poll_for_status_write_passed
 .text          0x0000000000011fac       0x94 ../sodalite_filetest_bsp/\libhal_bsp.a(alt_alarm_start.o)
                0x0000000000011fac                alt_alarm_start
 .text          0x0000000000012040       0x88 ../sodalite_filetest_bsp/\libhal_bsp.a(alt_busy_sleep.o)
                0x0000000000012040                alt_busy_sleep
 .text          0x00000000000120c8       0x40 ../sodalite_filetest_bsp/\libhal_bsp.a(alt_dcache_flush.o)
                0x00000000000120c8                alt_dcache_flush
 .text          0x0000000000012108       0x18 ../sodalite_filetest_bsp/\libhal_bsp.a(alt_dcache_flush_all.o)
                0x0000000000012108                alt_dcache_flush_all
 .text          0x0000000000012120       0x6c ../sodalite_filetest_bsp/\libhal_bsp.a(alt_dev_llist_insert.o)
                0x0000000000012120                alt_dev_llist_insert
 .text          0x000000000001218c       0x64 ../sodalite_filetest_bsp/\libhal_bsp.a(alt_do_ctors.o)
                0x000000000001218c                _do_ctors
 .text          0x00000000000121f0       0x64 ../sodalite_filetest_bsp/\libhal_bsp.a(alt_do_dtors.o)
                0x00000000000121f0                _do_dtors
 .text          0x0000000000012254       0x94 ../sodalite_filetest_bsp/\libhal_bsp.a(alt_find_dev.o)
                0x0000000000012254                alt_find_dev
 .text          0x00000000000122e8       0xac ../sodalite_filetest_bsp/\libhal_bsp.a(alt_find_file.o)
                0x00000000000122e8                alt_find_file
 .text          0x0000000000012394       0x60 ../sodalite_filetest_bsp/\libhal_bsp.a(alt_flash_dev.o)
                0x0000000000012394                alt_flash_open_dev
                0x00000000000123e0                alt_flash_close_dev
 .text          0x00000000000123f4       0x58 ../sodalite_filetest_bsp/\libhal_bsp.a(alt_get_fd.o)
                0x00000000000123f4                alt_get_fd
 .text          0x000000000001244c        0xc ../sodalite_filetest_bsp/\libhal_bsp.a(alt_icache_flush_all.o)
                0x000000000001244c                alt_icache_flush_all
 .text          0x0000000000012458       0x9c ../sodalite_filetest_bsp/\libhal_bsp.a(alt_iic.o)
                0x0000000000012458                alt_ic_isr_register
                0x000000000001245c                alt_ic_irq_enable
                0x000000000001249c                alt_ic_irq_disable
                0x00000000000124dc                alt_ic_irq_enabled
 .text          0x00000000000124f4       0x68 ../sodalite_filetest_bsp/\libhal_bsp.a(alt_iic_isr_register.o)
                0x00000000000124f4                alt_iic_isr_register
 .text          0x000000000001255c       0xe8 ../sodalite_filetest_bsp/\libhal_bsp.a(alt_io_redirect.o)
                0x00000000000125cc                alt_io_redirect
 .text          0x0000000000012644        0x0 ../sodalite_filetest_bsp/\libhal_bsp.a(alt_irq_entry.o)
 .text          0x0000000000012644        0x0 ../sodalite_filetest_bsp/\libhal_bsp.a(alt_irq_handler.o)
 .text          0x0000000000012644        0x0 ../sodalite_filetest_bsp/\libhal_bsp.a(alt_irq_vars.o)
 .text          0x0000000000012644      0x128 ../sodalite_filetest_bsp/\libhal_bsp.a(alt_tick.o)
                0x0000000000012644                alt_alarm_stop
                0x0000000000012678                alt_tick
 .text          0x000000000001276c        0x8 ../sodalite_filetest_bsp/\libhal_bsp.a(altera_nios2_gen2_irq.o)
                0x000000000001276c                altera_nios2_gen2_irq_init
 .text          0x0000000000012774        0x0 ../sodalite_filetest_bsp/\libhal_bsp.a(alt_exception_entry.o)
 .text          0x0000000000012774       0x50 ../sodalite_filetest_bsp/\libhal_bsp.a(alt_icache_flush.o)
                0x0000000000012774                alt_icache_flush
 .text          0x00000000000127c4       0x30 ../sodalite_filetest_bsp/\libhal_bsp.a(alt_instruction_exception_entry.o)
                0x00000000000127c4                alt_exception_cause_generated_bad_addr
 .text          0x00000000000127f4       0x14 c:/develop/altera/14.0/nios2eds/bin/gnu/h-x86_64-mingw32/bin/../lib/gcc/nios2-elf/4.7.3/../../../../../H-x86_64-mingw32/nios2-elf/lib/mhw-mulx\libc.a(lib_a-atexit.o)
                0x00000000000127f4                atexit
 .text          0x0000000000012808       0x38 c:/develop/altera/14.0/nios2eds/bin/gnu/h-x86_64-mingw32/bin/../lib/gcc/nios2-elf/4.7.3/../../../../../H-x86_64-mingw32/nios2-elf/lib/mhw-mulx\libc.a(lib_a-exit.o)
                0x0000000000012808                exit
 .text          0x0000000000012840       0x1c c:/develop/altera/14.0/nios2eds/bin/gnu/h-x86_64-mingw32/bin/../lib/gcc/nios2-elf/4.7.3/../../../../../H-x86_64-mingw32/nios2-elf/lib/mhw-mulx\libc.a(lib_a-malign.o)
                0x0000000000012840                memalign
 .text          0x000000000001285c      0x1cc c:/develop/altera/14.0/nios2eds/bin/gnu/h-x86_64-mingw32/bin/../lib/gcc/nios2-elf/4.7.3/../../../../../H-x86_64-mingw32/nios2-elf/lib/mhw-mulx\libc.a(lib_a-malignr.o)
                0x000000000001285c                _memalign_r
 .text          0x0000000000012a28       0x7c c:/develop/altera/14.0/nios2eds/bin/gnu/h-x86_64-mingw32/bin/../lib/gcc/nios2-elf/4.7.3/../../../../../H-x86_64-mingw32/nios2-elf/lib/mhw-mulx\libc.a(lib_a-memcmp.o)
                0x0000000000012a28                memcmp
 .text          0x0000000000012aa4      0x130 c:/develop/altera/14.0/nios2eds/bin/gnu/h-x86_64-mingw32/bin/../lib/gcc/nios2-elf/4.7.3/../../../../../H-x86_64-mingw32/nios2-elf/lib/mhw-mulx\libc.a(lib_a-__atexit.o)
                0x0000000000012aa4                __register_exitproc
 .text          0x0000000000012bd4      0x1a0 c:/develop/altera/14.0/nios2eds/bin/gnu/h-x86_64-mingw32/bin/../lib/gcc/nios2-elf/4.7.3/../../../../../H-x86_64-mingw32/nios2-elf/lib/mhw-mulx\libc.a(lib_a-__call_atexit.o)
                0x0000000000012bd4                __call_exitprocs
 .text          0x0000000000012d74       0x14 ../sodalite_filetest_bsp/\libhal_bsp.a(alt_exit.o)
                0x0000000000012d74                _exit
 *(.gnu.warning.*)
 *(.fini)
                0x0000000000012d88                PROVIDE (__etext, ABSOLUTE (.))
                0x0000000000012d88                PROVIDE (_etext, ABSOLUTE (.))
                0x0000000000012d88                PROVIDE (etext, ABSOLUTE (.))
 *(.eh_frame_hdr)
                0x0000000000012d88                . = ALIGN (0x4)
                0x0000000000012d88                PROVIDE (__preinit_array_start, ABSOLUTE (.))
 *(.preinit_array)
                0x0000000000012d88                PROVIDE (__preinit_array_end, ABSOLUTE (.))
                0x0000000000012d88                PROVIDE (__init_array_start, ABSOLUTE (.))
 *(.init_array)
                0x0000000000012d88                PROVIDE (__init_array_end, ABSOLUTE (.))
                0x0000000000012d88                PROVIDE (__fini_array_start, ABSOLUTE (.))
 *(.fini_array)
                0x0000000000012d88                PROVIDE (__fini_array_end, ABSOLUTE (.))
 *(.eh_frame)
 *(.gcc_except_table .gcc_except_table.*)
 *(.dynamic)
                0x0000000000012d88                PROVIDE (__CTOR_LIST__, ABSOLUTE (.))
 *(.ctors)
 *(SORT(.ctors.*))
                0x0000000000012d88                PROVIDE (__CTOR_END__, ABSOLUTE (.))
                0x0000000000012d88                PROVIDE (__DTOR_LIST__, ABSOLUTE (.))
 *(.dtors)
 *(SORT(.dtors.*))
                0x0000000000012d88                PROVIDE (__DTOR_END__, ABSOLUTE (.))
 *(.jcr)
                0x0000000000012d88                . = ALIGN (0x4)

.rodata         0x0000000000012d88    0x323d4
                0x0000000000012d88                PROVIDE (__ram_rodata_start, ABSOLUTE (.))
                0x0000000000012d88                . = ALIGN (0x4)
 *(.rodata .rodata.* .gnu.linkonce.r.*)
 .rodata.str1.4
                0x0000000000012d88       0x6a obj/default/file_test.o
                                         0x6c (size before relaxing)
 *fill*         0x0000000000012df2        0x2 
 .rodata.str1.4
                0x0000000000012df4       0x8d obj/default/loadbmp.o
                                         0x90 (size before relaxing)
 *fill*         0x0000000000012e81        0x3 
 .rodata.str1.4
                0x0000000000012e84       0x13 obj/default/mmcfs/fatfs/ff.o
                                         0x14 (size before relaxing)
 .rodata        0x0000000000012e97        0xd obj/default/mmcfs/fatfs/ff.o
 .rodata        0x0000000000012ea4     0xeab0 obj/default/mmcfs/fatfs/option/cc932.o
 .rodata.str1.4
                0x0000000000021954        0x7 obj/default/mmcfs/mmcfs.o
                                          0x8 (size before relaxing)
 *fill*         0x000000000002195b        0x1 
 .rodata        0x000000000002195c    0x2216c obj/default/nd_lib/fontx_k12x10.o
                0x000000000002195c                fontx_k12x10_fnt
 .rodata        0x0000000000043ac8      0xa14 obj/default/nd_lib/fontx_k6x10.o
                0x0000000000043ac8                fontx_k6x10_fnt
 .rodata        0x00000000000444dc      0x400 obj/default/nd_lib/nd_egl.o
                0x00000000000444dc                nd_GsEglRomFont
 .rodata.str1.4
                0x00000000000448dc      0x2f6 obj/default/testuty.o
                                        0x2fc (size before relaxing)
 .rodata        0x0000000000044bd2      0x200 obj/default/testuty.o
 *fill*         0x0000000000044dd2        0x2 
 .rodata.str1.4
                0x0000000000044dd4        0x2 c:/develop/altera/14.0/nios2eds/bin/gnu/h-x86_64-mingw32/bin/../lib/gcc/nios2-elf/4.7.3/../../../../../H-x86_64-mingw32/nios2-elf/lib/mhw-mulx\libc.a(lib_a-impure.o)
                                          0x4 (size before relaxing)
 .rodata.str1.4
                0x0000000000000000        0x4 c:/develop/altera/14.0/nios2eds/bin/gnu/h-x86_64-mingw32/bin/../lib/gcc/nios2-elf/4.7.3/../../../../../H-x86_64-mingw32/nios2-elf/lib/mhw-mulx\libc.a(lib_a-puts.o)
 *fill*         0x0000000000044dd6        0x2 
 .rodata.str1.4
                0x0000000000044dd8       0x42 c:/develop/altera/14.0/nios2eds/bin/gnu/h-x86_64-mingw32/bin/../lib/gcc/nios2-elf/4.7.3/../../../../../H-x86_64-mingw32/nios2-elf/lib/mhw-mulx\libc.a(lib_a-vfprintf.o)
                                         0x44 (size before relaxing)
 .rodata        0x0000000000044e1a       0x20 c:/develop/altera/14.0/nios2eds/bin/gnu/h-x86_64-mingw32/bin/../lib/gcc/nios2-elf/4.7.3/../../../../../H-x86_64-mingw32/nios2-elf/lib/mhw-mulx\libc.a(lib_a-vfprintf.o)
 *fill*         0x0000000000044e3a        0x2 
 .rodata.str1.4
                0x0000000000044e3c       0x10 c:/develop/altera/14.0/nios2eds/bin/gnu/h-x86_64-mingw32/bin/../lib/gcc/nios2-elf/4.7.3/../../../../../H-x86_64-mingw32/nios2-elf/lib/mhw-mulx\libc.a(lib_a-dtoa.o)
                                         0x14 (size before relaxing)
 .rodata.str1.4
                0x0000000000044e4c        0xb c:/develop/altera/14.0/nios2eds/bin/gnu/h-x86_64-mingw32/bin/../lib/gcc/nios2-elf/4.7.3/../../../../../H-x86_64-mingw32/nios2-elf/lib/mhw-mulx\libc.a(lib_a-locale.o)
                                         0x18 (size before relaxing)
 *fill*         0x0000000000044e57        0x1 
 .rodata        0x0000000000044e58       0x30 c:/develop/altera/14.0/nios2eds/bin/gnu/h-x86_64-mingw32/bin/../lib/gcc/nios2-elf/4.7.3/../../../../../H-x86_64-mingw32/nios2-elf/lib/mhw-mulx\libc.a(lib_a-locale.o)
 .rodata        0x0000000000044e88      0x124 c:/develop/altera/14.0/nios2eds/bin/gnu/h-x86_64-mingw32/bin/../lib/gcc/nios2-elf/4.7.3/../../../../../H-x86_64-mingw32/nios2-elf/lib/mhw-mulx\libc.a(lib_a-mprec.o)
                0x0000000000044e88                __mprec_tinytens
                0x0000000000044eb0                __mprec_bigtens
                0x0000000000044ed8                __mprec_tens
 .rodata        0x0000000000044fac       0x14 c:/develop/altera/14.0/nios2eds/bin/gnu/h-x86_64-mingw32/bin/../lib/gcc/nios2-elf/4.7.3/mhw-mulx\libgcc.a(_thenan_df.o)
                0x0000000000044fac                __thenan_df
 .rodata        0x0000000000044fc0      0x100 c:/develop/altera/14.0/nios2eds/bin/gnu/h-x86_64-mingw32/bin/../lib/gcc/nios2-elf/4.7.3/mhw-mulx\libgcc.a(_clz.o)
                0x0000000000044fc0                __clz_tab
 .rodata.str1.4
                0x00000000000450c0        0xa ../sodalite_filetest_bsp/\libhal_bsp.a(alt_dev.o)
                                          0xc (size before relaxing)
 *fill*         0x00000000000450ca        0x2 
 .rodata.str1.4
                0x00000000000450cc        0xf ../sodalite_filetest_bsp/\libhal_bsp.a(alt_main.o)
                                         0x10 (size before relaxing)
 *fill*         0x00000000000450db        0x1 
 .rodata.str1.4
                0x00000000000450dc       0x40 ../sodalite_filetest_bsp/\libhal_bsp.a(alt_sys_init.o)
                                         0x50 (size before relaxing)
 .rodata        0x000000000004511c       0x40 ../sodalite_filetest_bsp/\libhal_bsp.a(alt_instruction_exception_entry.o)
 *(.rodata1)
                0x000000000004515c                . = ALIGN (0x4)
                0x000000000004515c                PROVIDE (__ram_rodata_end, ABSOLUTE (.))
                0x0000000000012d88                PROVIDE (__flash_rodata_start, LOADADDR (.rodata))

.rwdata         0x000000000004515c     0x1bc0 load address 0x0000000000046d1c
                0x000000000004515c                PROVIDE (__ram_rwdata_start, ABSOLUTE (.))
                0x000000000004515c                . = ALIGN (0x4)
 *(.got.plt)
 *(.got)
 *(.data1)
 *(.data .data.* .gnu.linkonce.d.*)
 .data          0x000000000004515c        0x0 ../sodalite_filetest_bsp//obj/HAL/src/crt0.o
 .data          0x000000000004515c        0x0 obj/default/file_test.o
 .data          0x000000000004515c        0x0 obj/default/loadbmp.o
 .data          0x000000000004515c        0x0 obj/default/mmcfs/fatfs/ff.o
 .data          0x000000000004515c        0x0 obj/default/mmcfs/fatfs/mmcbb.o
 .data          0x000000000004515c        0x0 obj/default/mmcfs/fatfs/option/cc932.o
 .data          0x000000000004515c        0x0 obj/default/mmcfs/gettime.o
 .data          0x000000000004515c        0x0 obj/default/mmcfs/mmc_spi.o
 .data          0x000000000004515c       0x28 obj/default/mmcfs/mmcfs.o
 .data          0x0000000000045184        0x0 obj/default/nd_lib/fontx_k12x10.o
 .data          0x0000000000045184        0x0 obj/default/nd_lib/fontx_k6x10.o
 .data          0x0000000000045184        0x0 obj/default/nd_lib/nd_egl.o
 .data          0x0000000000045184        0x0 obj/default/testuty.o
 .data          0x0000000000045184        0x0 c:/develop/altera/14.0/nios2eds/bin/gnu/h-x86_64-mingw32/bin/../lib/gcc/nios2-elf/4.7.3/mhw-mulx\libgcc.a(lib2-divmod.o)
 .data          0x0000000000045184        0x0 c:/develop/altera/14.0/nios2eds/bin/gnu/h-x86_64-mingw32/bin/../lib/gcc/nios2-elf/4.7.3/../../../../../H-x86_64-mingw32/nios2-elf/lib/mhw-mulx\libc.a(lib_a-fclose.o)
 .data          0x0000000000045184        0x0 c:/develop/altera/14.0/nios2eds/bin/gnu/h-x86_64-mingw32/bin/../lib/gcc/nios2-elf/4.7.3/../../../../../H-x86_64-mingw32/nios2-elf/lib/mhw-mulx\libc.a(lib_a-fflush.o)
 .data          0x0000000000045184        0x0 c:/develop/altera/14.0/nios2eds/bin/gnu/h-x86_64-mingw32/bin/../lib/gcc/nios2-elf/4.7.3/../../../../../H-x86_64-mingw32/nios2-elf/lib/mhw-mulx\libc.a(lib_a-findfp.o)
 .data          0x0000000000045184        0x0 c:/develop/altera/14.0/nios2eds/bin/gnu/h-x86_64-mingw32/bin/../lib/gcc/nios2-elf/4.7.3/../../../../../H-x86_64-mingw32/nios2-elf/lib/mhw-mulx\libc.a(lib_a-fopen.o)
 .data          0x0000000000045184        0x0 c:/develop/altera/14.0/nios2eds/bin/gnu/h-x86_64-mingw32/bin/../lib/gcc/nios2-elf/4.7.3/../../../../../H-x86_64-mingw32/nios2-elf/lib/mhw-mulx\libc.a(lib_a-fread.o)
 .data          0x0000000000045184        0x0 c:/develop/altera/14.0/nios2eds/bin/gnu/h-x86_64-mingw32/bin/../lib/gcc/nios2-elf/4.7.3/../../../../../H-x86_64-mingw32/nios2-elf/lib/mhw-mulx\libc.a(lib_a-freer.o)
 .data          0x0000000000045184        0x0 c:/develop/altera/14.0/nios2eds/bin/gnu/h-x86_64-mingw32/bin/../lib/gcc/nios2-elf/4.7.3/../../../../../H-x86_64-mingw32/nios2-elf/lib/mhw-mulx\libc.a(lib_a-fseek.o)
 .data          0x0000000000045184        0x0 c:/develop/altera/14.0/nios2eds/bin/gnu/h-x86_64-mingw32/bin/../lib/gcc/nios2-elf/4.7.3/../../../../../H-x86_64-mingw32/nios2-elf/lib/mhw-mulx\libc.a(lib_a-fstatr.o)
 .data          0x0000000000045184        0x0 c:/develop/altera/14.0/nios2eds/bin/gnu/h-x86_64-mingw32/bin/../lib/gcc/nios2-elf/4.7.3/../../../../../H-x86_64-mingw32/nios2-elf/lib/mhw-mulx\libc.a(lib_a-fwalk.o)
 .data          0x0000000000045184      0x400 c:/develop/altera/14.0/nios2eds/bin/gnu/h-x86_64-mingw32/bin/../lib/gcc/nios2-elf/4.7.3/../../../../../H-x86_64-mingw32/nios2-elf/lib/mhw-mulx\libc.a(lib_a-impure.o)
 .data          0x0000000000045584        0x0 c:/develop/altera/14.0/nios2eds/bin/gnu/h-x86_64-mingw32/bin/../lib/gcc/nios2-elf/4.7.3/../../../../../H-x86_64-mingw32/nios2-elf/lib/mhw-mulx\libc.a(lib_a-int_errno.o)
 .data          0x0000000000045584        0x0 c:/develop/altera/14.0/nios2eds/bin/gnu/h-x86_64-mingw32/bin/../lib/gcc/nios2-elf/4.7.3/../../../../../H-x86_64-mingw32/nios2-elf/lib/mhw-mulx\libc.a(lib_a-makebuf.o)
 .data          0x0000000000045584      0x408 c:/develop/altera/14.0/nios2eds/bin/gnu/h-x86_64-mingw32/bin/../lib/gcc/nios2-elf/4.7.3/../../../../../H-x86_64-mingw32/nios2-elf/lib/mhw-mulx\libc.a(lib_a-mallocr.o)
                0x0000000000045584                __malloc_av_
 .data          0x000000000004598c        0x0 c:/develop/altera/14.0/nios2eds/bin/gnu/h-x86_64-mingw32/bin/../lib/gcc/nios2-elf/4.7.3/../../../../../H-x86_64-mingw32/nios2-elf/lib/mhw-mulx\libc.a(lib_a-memcpy.o)
 .data          0x000000000004598c        0x0 c:/develop/altera/14.0/nios2eds/bin/gnu/h-x86_64-mingw32/bin/../lib/gcc/nios2-elf/4.7.3/../../../../../H-x86_64-mingw32/nios2-elf/lib/mhw-mulx\libc.a(lib_a-memset.o)
 .data          0x000000000004598c        0x0 c:/develop/altera/14.0/nios2eds/bin/gnu/h-x86_64-mingw32/bin/../lib/gcc/nios2-elf/4.7.3/../../../../../H-x86_64-mingw32/nios2-elf/lib/mhw-mulx\libc.a(lib_a-openr.o)
 .data          0x000000000004598c        0x0 c:/develop/altera/14.0/nios2eds/bin/gnu/h-x86_64-mingw32/bin/../lib/gcc/nios2-elf/4.7.3/../../../../../H-x86_64-mingw32/nios2-elf/lib/mhw-mulx\libc.a(lib_a-printf.o)
 .data          0x000000000004598c        0x0 c:/develop/altera/14.0/nios2eds/bin/gnu/h-x86_64-mingw32/bin/../lib/gcc/nios2-elf/4.7.3/../../../../../H-x86_64-mingw32/nios2-elf/lib/mhw-mulx\libc.a(lib_a-putchar.o)
 .data          0x000000000004598c        0x0 c:/develop/altera/14.0/nios2eds/bin/gnu/h-x86_64-mingw32/bin/../lib/gcc/nios2-elf/4.7.3/../../../../../H-x86_64-mingw32/nios2-elf/lib/mhw-mulx\libc.a(lib_a-puts.o)
 .data          0x000000000004598c        0x0 c:/develop/altera/14.0/nios2eds/bin/gnu/h-x86_64-mingw32/bin/../lib/gcc/nios2-elf/4.7.3/../../../../../H-x86_64-mingw32/nios2-elf/lib/mhw-mulx\libc.a(lib_a-refill.o)
 .data          0x000000000004598c        0x0 c:/develop/altera/14.0/nios2eds/bin/gnu/h-x86_64-mingw32/bin/../lib/gcc/nios2-elf/4.7.3/../../../../../H-x86_64-mingw32/nios2-elf/lib/mhw-mulx\libc.a(lib_a-sbrkr.o)
 .data          0x000000000004598c        0x0 c:/develop/altera/14.0/nios2eds/bin/gnu/h-x86_64-mingw32/bin/../lib/gcc/nios2-elf/4.7.3/../../../../../H-x86_64-mingw32/nios2-elf/lib/mhw-mulx\libc.a(lib_a-stdio.o)
 .data          0x000000000004598c        0x0 c:/develop/altera/14.0/nios2eds/bin/gnu/h-x86_64-mingw32/bin/../lib/gcc/nios2-elf/4.7.3/../../../../../H-x86_64-mingw32/nios2-elf/lib/mhw-mulx\libc.a(lib_a-strlen.o)
 .data          0x000000000004598c        0x0 c:/develop/altera/14.0/nios2eds/bin/gnu/h-x86_64-mingw32/bin/../lib/gcc/nios2-elf/4.7.3/../../../../../H-x86_64-mingw32/nios2-elf/lib/mhw-mulx\libc.a(lib_a-vfprintf.o)
 .data          0x000000000004598c        0x0 c:/develop/altera/14.0/nios2eds/bin/gnu/h-x86_64-mingw32/bin/../lib/gcc/nios2-elf/4.7.3/../../../../../H-x86_64-mingw32/nios2-elf/lib/mhw-mulx\libc.a(lib_a-writer.o)
 .data          0x000000000004598c        0x0 c:/develop/altera/14.0/nios2eds/bin/gnu/h-x86_64-mingw32/bin/../lib/gcc/nios2-elf/4.7.3/../../../../../H-x86_64-mingw32/nios2-elf/lib/mhw-mulx\libc.a(lib_a-wsetup.o)
 .data          0x000000000004598c        0x0 c:/develop/altera/14.0/nios2eds/bin/gnu/h-x86_64-mingw32/bin/../lib/gcc/nios2-elf/4.7.3/../../../../../H-x86_64-mingw32/nios2-elf/lib/mhw-mulx\libc.a(lib_a-closer.o)
 .data          0x000000000004598c        0x0 c:/develop/altera/14.0/nios2eds/bin/gnu/h-x86_64-mingw32/bin/../lib/gcc/nios2-elf/4.7.3/../../../../../H-x86_64-mingw32/nios2-elf/lib/mhw-mulx\libc.a(lib_a-dtoa.o)
 .data          0x000000000004598c        0x0 c:/develop/altera/14.0/nios2eds/bin/gnu/h-x86_64-mingw32/bin/../lib/gcc/nios2-elf/4.7.3/../../../../../H-x86_64-mingw32/nios2-elf/lib/mhw-mulx\libc.a(lib_a-flags.o)
 .data          0x000000000004598c        0x0 c:/develop/altera/14.0/nios2eds/bin/gnu/h-x86_64-mingw32/bin/../lib/gcc/nios2-elf/4.7.3/../../../../../H-x86_64-mingw32/nios2-elf/lib/mhw-mulx\libc.a(lib_a-fvwrite.o)
 .data          0x000000000004598c        0x0 c:/develop/altera/14.0/nios2eds/bin/gnu/h-x86_64-mingw32/bin/../lib/gcc/nios2-elf/4.7.3/../../../../../H-x86_64-mingw32/nios2-elf/lib/mhw-mulx\libc.a(lib_a-isattyr.o)
 .data          0x000000000004598c        0xc c:/develop/altera/14.0/nios2eds/bin/gnu/h-x86_64-mingw32/bin/../lib/gcc/nios2-elf/4.7.3/../../../../../H-x86_64-mingw32/nios2-elf/lib/mhw-mulx\libc.a(lib_a-locale.o)
                0x000000000004598c                __lc_ctype
 .data          0x0000000000045998        0x0 c:/develop/altera/14.0/nios2eds/bin/gnu/h-x86_64-mingw32/bin/../lib/gcc/nios2-elf/4.7.3/../../../../../H-x86_64-mingw32/nios2-elf/lib/mhw-mulx\libc.a(lib_a-lseekr.o)
 .data          0x0000000000045998        0x0 c:/develop/altera/14.0/nios2eds/bin/gnu/h-x86_64-mingw32/bin/../lib/gcc/nios2-elf/4.7.3/../../../../../H-x86_64-mingw32/nios2-elf/lib/mhw-mulx\libc.a(lib_a-memchr.o)
 .data          0x0000000000045998        0x0 c:/develop/altera/14.0/nios2eds/bin/gnu/h-x86_64-mingw32/bin/../lib/gcc/nios2-elf/4.7.3/../../../../../H-x86_64-mingw32/nios2-elf/lib/mhw-mulx\libc.a(lib_a-memmove.o)
 .data          0x0000000000045998        0x0 c:/develop/altera/14.0/nios2eds/bin/gnu/h-x86_64-mingw32/bin/../lib/gcc/nios2-elf/4.7.3/../../../../../H-x86_64-mingw32/nios2-elf/lib/mhw-mulx\libc.a(lib_a-mprec.o)
 .data          0x0000000000045998        0x0 c:/develop/altera/14.0/nios2eds/bin/gnu/h-x86_64-mingw32/bin/../lib/gcc/nios2-elf/4.7.3/../../../../../H-x86_64-mingw32/nios2-elf/lib/mhw-mulx\libc.a(lib_a-putc.o)
 .data          0x0000000000045998        0x0 c:/develop/altera/14.0/nios2eds/bin/gnu/h-x86_64-mingw32/bin/../lib/gcc/nios2-elf/4.7.3/../../../../../H-x86_64-mingw32/nios2-elf/lib/mhw-mulx\libc.a(lib_a-readr.o)
 .data          0x0000000000045998        0x0 c:/develop/altera/14.0/nios2eds/bin/gnu/h-x86_64-mingw32/bin/../lib/gcc/nios2-elf/4.7.3/../../../../../H-x86_64-mingw32/nios2-elf/lib/mhw-mulx\libc.a(lib_a-reallocr.o)
 .data          0x0000000000045998        0x0 c:/develop/altera/14.0/nios2eds/bin/gnu/h-x86_64-mingw32/bin/../lib/gcc/nios2-elf/4.7.3/../../../../../H-x86_64-mingw32/nios2-elf/lib/mhw-mulx\libc.a(lib_a-s_isinfd.o)
 .data          0x0000000000045998        0x0 c:/develop/altera/14.0/nios2eds/bin/gnu/h-x86_64-mingw32/bin/../lib/gcc/nios2-elf/4.7.3/../../../../../H-x86_64-mingw32/nios2-elf/lib/mhw-mulx\libc.a(lib_a-s_isnand.o)
 .data          0x0000000000045998        0x0 c:/develop/altera/14.0/nios2eds/bin/gnu/h-x86_64-mingw32/bin/../lib/gcc/nios2-elf/4.7.3/../../../../../H-x86_64-mingw32/nios2-elf/lib/mhw-mulx\libc.a(lib_a-strcmp.o)
 .data          0x0000000000045998        0x0 c:/develop/altera/14.0/nios2eds/bin/gnu/h-x86_64-mingw32/bin/../lib/gcc/nios2-elf/4.7.3/../../../../../H-x86_64-mingw32/nios2-elf/lib/mhw-mulx\libc.a(lib_a-wbuf.o)
 .data          0x0000000000045998        0x0 c:/develop/altera/14.0/nios2eds/bin/gnu/h-x86_64-mingw32/bin/../lib/gcc/nios2-elf/4.7.3/../../../../../H-x86_64-mingw32/nios2-elf/lib/mhw-mulx\libc.a(lib_a-callocr.o)
 .data          0x0000000000045998        0x0 c:/develop/altera/14.0/nios2eds/bin/gnu/h-x86_64-mingw32/bin/../lib/gcc/nios2-elf/4.7.3/mhw-mulx\libgcc.a(_udivdi3.o)
 .data          0x0000000000045998        0x0 c:/develop/altera/14.0/nios2eds/bin/gnu/h-x86_64-mingw32/bin/../lib/gcc/nios2-elf/4.7.3/mhw-mulx\libgcc.a(_umoddi3.o)
 .data          0x0000000000045998        0x0 c:/develop/altera/14.0/nios2eds/bin/gnu/h-x86_64-mingw32/bin/../lib/gcc/nios2-elf/4.7.3/mhw-mulx\libgcc.a(_addsub_df.o)
 .data          0x0000000000045998        0x0 c:/develop/altera/14.0/nios2eds/bin/gnu/h-x86_64-mingw32/bin/../lib/gcc/nios2-elf/4.7.3/mhw-mulx\libgcc.a(_mul_df.o)
 .data          0x0000000000045998        0x0 c:/develop/altera/14.0/nios2eds/bin/gnu/h-x86_64-mingw32/bin/../lib/gcc/nios2-elf/4.7.3/mhw-mulx\libgcc.a(_div_df.o)
 .data          0x0000000000045998        0x0 c:/develop/altera/14.0/nios2eds/bin/gnu/h-x86_64-mingw32/bin/../lib/gcc/nios2-elf/4.7.3/mhw-mulx\libgcc.a(_eq_df.o)
 .data          0x0000000000045998        0x0 c:/develop/altera/14.0/nios2eds/bin/gnu/h-x86_64-mingw32/bin/../lib/gcc/nios2-elf/4.7.3/mhw-mulx\libgcc.a(_ne_df.o)
 .data          0x0000000000045998        0x0 c:/develop/altera/14.0/nios2eds/bin/gnu/h-x86_64-mingw32/bin/../lib/gcc/nios2-elf/4.7.3/mhw-mulx\libgcc.a(_gt_df.o)
 .data          0x0000000000045998        0x0 c:/develop/altera/14.0/nios2eds/bin/gnu/h-x86_64-mingw32/bin/../lib/gcc/nios2-elf/4.7.3/mhw-mulx\libgcc.a(_ge_df.o)
 .data          0x0000000000045998        0x0 c:/develop/altera/14.0/nios2eds/bin/gnu/h-x86_64-mingw32/bin/../lib/gcc/nios2-elf/4.7.3/mhw-mulx\libgcc.a(_lt_df.o)
 .data          0x0000000000045998        0x0 c:/develop/altera/14.0/nios2eds/bin/gnu/h-x86_64-mingw32/bin/../lib/gcc/nios2-elf/4.7.3/mhw-mulx\libgcc.a(_si_to_df.o)
 .data          0x0000000000045998        0x0 c:/develop/altera/14.0/nios2eds/bin/gnu/h-x86_64-mingw32/bin/../lib/gcc/nios2-elf/4.7.3/mhw-mulx\libgcc.a(_df_to_si.o)
 .data          0x0000000000045998        0x0 c:/develop/altera/14.0/nios2eds/bin/gnu/h-x86_64-mingw32/bin/../lib/gcc/nios2-elf/4.7.3/mhw-mulx\libgcc.a(_thenan_df.o)
 .data          0x0000000000045998        0x0 c:/develop/altera/14.0/nios2eds/bin/gnu/h-x86_64-mingw32/bin/../lib/gcc/nios2-elf/4.7.3/mhw-mulx\libgcc.a(_usi_to_df.o)
 .data          0x0000000000045998        0x0 c:/develop/altera/14.0/nios2eds/bin/gnu/h-x86_64-mingw32/bin/../lib/gcc/nios2-elf/4.7.3/mhw-mulx\libgcc.a(_clz.o)
 .data          0x0000000000045998        0x0 c:/develop/altera/14.0/nios2eds/bin/gnu/h-x86_64-mingw32/bin/../lib/gcc/nios2-elf/4.7.3/mhw-mulx\libgcc.a(_clzsi2.o)
 .data          0x0000000000045998        0x0 c:/develop/altera/14.0/nios2eds/bin/gnu/h-x86_64-mingw32/bin/../lib/gcc/nios2-elf/4.7.3/mhw-mulx\libgcc.a(_pack_df.o)
 .data          0x0000000000045998        0x0 c:/develop/altera/14.0/nios2eds/bin/gnu/h-x86_64-mingw32/bin/../lib/gcc/nios2-elf/4.7.3/mhw-mulx\libgcc.a(_unpack_df.o)
 .data          0x0000000000045998        0x0 c:/develop/altera/14.0/nios2eds/bin/gnu/h-x86_64-mingw32/bin/../lib/gcc/nios2-elf/4.7.3/mhw-mulx\libgcc.a(_fpcmp_parts_df.o)
 .data          0x0000000000045998        0x0 c:/develop/altera/14.0/nios2eds/bin/gnu/h-x86_64-mingw32/bin/../lib/gcc/nios2-elf/4.7.3/mhw-mulx\libgcc.a(_lshrdi3.o)
 .data          0x0000000000045998        0x0 c:/develop/altera/14.0/nios2eds/bin/gnu/h-x86_64-mingw32/bin/../lib/gcc/nios2-elf/4.7.3/mhw-mulx\libgcc.a(_ashldi3.o)
 .data          0x0000000000045998        0x0 ../sodalite_filetest_bsp/\libhal_bsp.a(alt_close.o)
 .data          0x0000000000045998      0x1a8 ../sodalite_filetest_bsp/\libhal_bsp.a(alt_dev.o)
                0x0000000000045998                alt_fd_list
                0x0000000000045b18                alt_dev_null
 .data          0x0000000000045b40        0x0 ../sodalite_filetest_bsp/\libhal_bsp.a(alt_errno.o)
 .data          0x0000000000045b40        0x0 ../sodalite_filetest_bsp/\libhal_bsp.a(alt_fs_reg.o)
 .data          0x0000000000045b40        0x0 ../sodalite_filetest_bsp/\libhal_bsp.a(alt_fstat.o)
 .data          0x0000000000045b40        0x0 ../sodalite_filetest_bsp/\libhal_bsp.a(alt_isatty.o)
 .data          0x0000000000045b40        0x0 ../sodalite_filetest_bsp/\libhal_bsp.a(alt_load.o)
 .data          0x0000000000045b40        0x0 ../sodalite_filetest_bsp/\libhal_bsp.a(alt_lseek.o)
 .data          0x0000000000045b40        0x0 ../sodalite_filetest_bsp/\libhal_bsp.a(alt_main.o)
 .data          0x0000000000045b40        0x0 ../sodalite_filetest_bsp/\libhal_bsp.a(alt_malloc_lock.o)
 .data          0x0000000000045b40        0x0 ../sodalite_filetest_bsp/\libhal_bsp.a(alt_open.o)
 .data          0x0000000000045b40        0x0 ../sodalite_filetest_bsp/\libhal_bsp.a(alt_read.o)
 .data          0x0000000000045b40        0x0 ../sodalite_filetest_bsp/\libhal_bsp.a(alt_release_fd.o)
 .data          0x0000000000045b40        0x0 ../sodalite_filetest_bsp/\libhal_bsp.a(alt_sbrk.o)
 .data          0x0000000000045b40        0x0 ../sodalite_filetest_bsp/\libhal_bsp.a(alt_uncached_malloc.o)
 .data          0x0000000000045b40        0x0 ../sodalite_filetest_bsp/\libhal_bsp.a(alt_usleep.o)
 .data          0x0000000000045b40        0x0 ../sodalite_filetest_bsp/\libhal_bsp.a(alt_write.o)
 .data          0x0000000000045b40     0x1184 ../sodalite_filetest_bsp/\libhal_bsp.a(alt_sys_init.o)
 .data          0x0000000000046cc4        0x0 ../sodalite_filetest_bsp/\libhal_bsp.a(altera_avalon_jtag_uart_fd.o)
 .data          0x0000000000046cc4        0x0 ../sodalite_filetest_bsp/\libhal_bsp.a(altera_avalon_jtag_uart_init.o)
 .data          0x0000000000046cc4        0x0 ../sodalite_filetest_bsp/\libhal_bsp.a(altera_avalon_jtag_uart_ioctl.o)
 .data          0x0000000000046cc4        0x0 ../sodalite_filetest_bsp/\libhal_bsp.a(altera_avalon_jtag_uart_read.o)
 .data          0x0000000000046cc4        0x0 ../sodalite_filetest_bsp/\libhal_bsp.a(altera_avalon_jtag_uart_write.o)
 .data          0x0000000000046cc4        0x0 ../sodalite_filetest_bsp/\libhal_bsp.a(altera_avalon_timer_sc.o)
 .data          0x0000000000046cc4        0x0 ../sodalite_filetest_bsp/\libhal_bsp.a(altera_modular_adc.o)
 .data          0x0000000000046cc4        0x0 ../sodalite_filetest_bsp/\libhal_bsp.a(altera_onchip_flash.o)
 .data          0x0000000000046cc4        0x0 ../sodalite_filetest_bsp/\libhal_bsp.a(alt_alarm_start.o)
 .data          0x0000000000046cc4        0x0 ../sodalite_filetest_bsp/\libhal_bsp.a(alt_busy_sleep.o)
 .data          0x0000000000046cc4        0x0 ../sodalite_filetest_bsp/\libhal_bsp.a(alt_dcache_flush.o)
 .data          0x0000000000046cc4        0x0 ../sodalite_filetest_bsp/\libhal_bsp.a(alt_dcache_flush_all.o)
 .data          0x0000000000046cc4        0x0 ../sodalite_filetest_bsp/\libhal_bsp.a(alt_dev_llist_insert.o)
 .data          0x0000000000046cc4        0x0 ../sodalite_filetest_bsp/\libhal_bsp.a(alt_do_ctors.o)
 .data          0x0000000000046cc4        0x0 ../sodalite_filetest_bsp/\libhal_bsp.a(alt_do_dtors.o)
 .data          0x0000000000046cc4        0x0 ../sodalite_filetest_bsp/\libhal_bsp.a(alt_find_dev.o)
 .data          0x0000000000046cc4        0x0 ../sodalite_filetest_bsp/\libhal_bsp.a(alt_find_file.o)
 .data          0x0000000000046cc4        0x0 ../sodalite_filetest_bsp/\libhal_bsp.a(alt_flash_dev.o)
 .data          0x0000000000046cc4        0x0 ../sodalite_filetest_bsp/\libhal_bsp.a(alt_get_fd.o)
 .data          0x0000000000046cc4        0x0 ../sodalite_filetest_bsp/\libhal_bsp.a(alt_icache_flush_all.o)
 .data          0x0000000000046cc4        0x0 ../sodalite_filetest_bsp/\libhal_bsp.a(alt_iic.o)
 .data          0x0000000000046cc4        0x0 ../sodalite_filetest_bsp/\libhal_bsp.a(alt_iic_isr_register.o)
 .data          0x0000000000046cc4        0x0 ../sodalite_filetest_bsp/\libhal_bsp.a(alt_io_redirect.o)
 .data          0x0000000000046cc4        0x0 ../sodalite_filetest_bsp/\libhal_bsp.a(alt_irq_entry.o)
 .data          0x0000000000046cc4        0x0 ../sodalite_filetest_bsp/\libhal_bsp.a(alt_irq_handler.o)
 .data          0x0000000000046cc4        0x0 ../sodalite_filetest_bsp/\libhal_bsp.a(alt_irq_vars.o)
 .data          0x0000000000046cc4        0x0 ../sodalite_filetest_bsp/\libhal_bsp.a(alt_tick.o)
 .data          0x0000000000046cc4        0x0 ../sodalite_filetest_bsp/\libhal_bsp.a(altera_nios2_gen2_irq.o)
 .data          0x0000000000046cc4        0x0 ../sodalite_filetest_bsp/\libhal_bsp.a(alt_exception_entry.o)
 .data          0x0000000000046cc4        0x0 ../sodalite_filetest_bsp/\libhal_bsp.a(alt_icache_flush.o)
 .data          0x0000000000046cc4        0x0 ../sodalite_filetest_bsp/\libhal_bsp.a(alt_instruction_exception_entry.o)
 .data          0x0000000000046cc4        0x0 c:/develop/altera/14.0/nios2eds/bin/gnu/h-x86_64-mingw32/bin/../lib/gcc/nios2-elf/4.7.3/../../../../../H-x86_64-mingw32/nios2-elf/lib/mhw-mulx\libc.a(lib_a-atexit.o)
 .data          0x0000000000046cc4        0x0 c:/develop/altera/14.0/nios2eds/bin/gnu/h-x86_64-mingw32/bin/../lib/gcc/nios2-elf/4.7.3/../../../../../H-x86_64-mingw32/nios2-elf/lib/mhw-mulx\libc.a(lib_a-exit.o)
 .data          0x0000000000046cc4        0x0 c:/develop/altera/14.0/nios2eds/bin/gnu/h-x86_64-mingw32/bin/../lib/gcc/nios2-elf/4.7.3/../../../../../H-x86_64-mingw32/nios2-elf/lib/mhw-mulx\libc.a(lib_a-malign.o)
 .data          0x0000000000046cc4        0x0 c:/develop/altera/14.0/nios2eds/bin/gnu/h-x86_64-mingw32/bin/../lib/gcc/nios2-elf/4.7.3/../../../../../H-x86_64-mingw32/nios2-elf/lib/mhw-mulx\libc.a(lib_a-malignr.o)
 .data          0x0000000000046cc4        0x0 c:/develop/altera/14.0/nios2eds/bin/gnu/h-x86_64-mingw32/bin/../lib/gcc/nios2-elf/4.7.3/../../../../../H-x86_64-mingw32/nios2-elf/lib/mhw-mulx\libc.a(lib_a-memcmp.o)
 .data          0x0000000000046cc4        0x0 c:/develop/altera/14.0/nios2eds/bin/gnu/h-x86_64-mingw32/bin/../lib/gcc/nios2-elf/4.7.3/../../../../../H-x86_64-mingw32/nios2-elf/lib/mhw-mulx\libc.a(lib_a-__atexit.o)
 .data          0x0000000000046cc4        0x0 c:/develop/altera/14.0/nios2eds/bin/gnu/h-x86_64-mingw32/bin/../lib/gcc/nios2-elf/4.7.3/../../../../../H-x86_64-mingw32/nios2-elf/lib/mhw-mulx\libc.a(lib_a-__call_atexit.o)
 .data          0x0000000000046cc4        0x0 ../sodalite_filetest_bsp/\libhal_bsp.a(alt_exit.o)
                0x000000000004ecc4                _gp = ABSOLUTE ((. + 0x8000))
                0x000000000004ecc4                PROVIDE (gp, _gp)
 *(.rwdata .rwdata.*)
 *(.sdata .sdata.* .gnu.linkonce.s.*)
 .sdata         0x0000000000046cc4        0x1 obj/default/mmcfs/fatfs/mmcbb.o
 *fill*         0x0000000000046cc5        0x3 
 .sdata         0x0000000000046cc8        0x8 c:/develop/altera/14.0/nios2eds/bin/gnu/h-x86_64-mingw32/bin/../lib/gcc/nios2-elf/4.7.3/../../../../../H-x86_64-mingw32/nios2-elf/lib/mhw-mulx\libc.a(lib_a-impure.o)
                0x0000000000046cc8                _global_impure_ptr
                0x0000000000046ccc                _impure_ptr
 .sdata         0x0000000000046cd0        0x8 c:/develop/altera/14.0/nios2eds/bin/gnu/h-x86_64-mingw32/bin/../lib/gcc/nios2-elf/4.7.3/../../../../../H-x86_64-mingw32/nios2-elf/lib/mhw-mulx\libc.a(lib_a-mallocr.o)
                0x0000000000046cd0                __malloc_sbrk_base
                0x0000000000046cd4                __malloc_trim_threshold
 .sdata         0x0000000000046cd8        0x4 c:/develop/altera/14.0/nios2eds/bin/gnu/h-x86_64-mingw32/bin/../lib/gcc/nios2-elf/4.7.3/../../../../../H-x86_64-mingw32/nios2-elf/lib/mhw-mulx\libc.a(lib_a-locale.o)
                0x0000000000046cd8                __mb_cur_max
 .sdata         0x0000000000046cdc       0x14 ../sodalite_filetest_bsp/\libhal_bsp.a(alt_dev.o)
                0x0000000000046cdc                alt_max_fd
                0x0000000000046ce0                alt_dev_list
                0x0000000000046ce8                alt_fs_list
 .sdata         0x0000000000046cf0        0x4 ../sodalite_filetest_bsp/\libhal_bsp.a(alt_errno.o)
                0x0000000000046cf0                alt_errno
 .sdata         0x0000000000046cf4        0x4 ../sodalite_filetest_bsp/\libhal_bsp.a(alt_sbrk.o)
 .sdata         0x0000000000046cf8        0x8 ../sodalite_filetest_bsp/\libhal_bsp.a(altera_modular_adc.o)
                0x0000000000046cf8                altera_modular_adc_list
 .sdata         0x0000000000046d00        0x8 ../sodalite_filetest_bsp/\libhal_bsp.a(altera_onchip_flash.o)
                0x0000000000046d00                altera_onchip_flash_list
 .sdata         0x0000000000046d08        0x8 ../sodalite_filetest_bsp/\libhal_bsp.a(alt_flash_dev.o)
                0x0000000000046d08                alt_flash_dev_list
 .sdata         0x0000000000046d10        0x4 ../sodalite_filetest_bsp/\libhal_bsp.a(alt_irq_vars.o)
                0x0000000000046d10                alt_priority_mask
 .sdata         0x0000000000046d14        0x8 ../sodalite_filetest_bsp/\libhal_bsp.a(alt_tick.o)
                0x0000000000046d14                alt_alarm_list
 *(.sdata2 .sdata2.* .gnu.linkonce.s2.*)
                0x0000000000046d1c                . = ALIGN (0x4)
                0x0000000000046d1c                _edata = ABSOLUTE (.)
                0x0000000000046d1c                PROVIDE (edata, ABSOLUTE (.))
                0x0000000000046d1c                PROVIDE (__ram_rwdata_end, ABSOLUTE (.))
                0x0000000000046d1c                PROVIDE (__flash_rwdata_start, LOADADDR (.rwdata))

.bss            0x00000000000488dc     0x2e2c
                0x00000000000488dc                __bss_start = ABSOLUTE (.)
                0x00000000000488dc                PROVIDE (__sbss_start, ABSOLUTE (.))
                0x00000000000488dc                PROVIDE (___sbss_start, ABSOLUTE (.))
 *(.dynsbss)
 *(.sbss .sbss.* .gnu.linkonce.sb.*)
 .sbss          0x00000000000488dc        0x8 obj/default/mmcfs/fatfs/ff.o
 .sbss          0x00000000000488e4        0x1 obj/default/mmcfs/fatfs/mmcbb.o
 *fill*         0x00000000000488e5        0x3 
 .sbss          0x00000000000488e8        0x8 obj/default/mmcfs/mmc_spi.o
 .sbss          0x00000000000488f0        0x4 obj/default/mmcfs/mmcfs.o
 .sbss          0x00000000000488f4       0x14 obj/default/nd_lib/nd_egl.o
 .sbss          0x0000000000048908        0xc obj/default/nd_lib/nd_egl.o
                0x0000000000048908                nd_GsVgaVsyncCount
                0x000000000004890c                nd_GsEglDrawBuffer
                0x0000000000048910                nd_GsVgaVsyncFlag
 .sbss          0x0000000000048914        0x4 c:/develop/altera/14.0/nios2eds/bin/gnu/h-x86_64-mingw32/bin/../lib/gcc/nios2-elf/4.7.3/../../../../../H-x86_64-mingw32/nios2-elf/lib/mhw-mulx\libc.a(lib_a-int_errno.o)
                0x0000000000048914                errno
 .sbss          0x0000000000048918        0xc c:/develop/altera/14.0/nios2eds/bin/gnu/h-x86_64-mingw32/bin/../lib/gcc/nios2-elf/4.7.3/../../../../../H-x86_64-mingw32/nios2-elf/lib/mhw-mulx\libc.a(lib_a-mallocr.o)
                0x0000000000048918                __malloc_max_total_mem
                0x000000000004891c                __malloc_max_sbrked_mem
                0x0000000000048920                __malloc_top_pad
 .sbss          0x0000000000048924        0xc c:/develop/altera/14.0/nios2eds/bin/gnu/h-x86_64-mingw32/bin/../lib/gcc/nios2-elf/4.7.3/../../../../../H-x86_64-mingw32/nios2-elf/lib/mhw-mulx\libc.a(lib_a-locale.o)
                0x0000000000048924                _PathLocale
                0x0000000000048928                __mlocale_changed
                0x000000000004892c                __nlocale_changed
 .sbss          0x0000000000048930        0xc ../sodalite_filetest_bsp/\libhal_bsp.a(alt_main.o)
                0x0000000000048930                alt_envp
                0x0000000000048934                alt_argv
                0x0000000000048938                alt_argc
 .sbss          0x000000000004893c        0x4 ../sodalite_filetest_bsp/\libhal_bsp.a(alt_irq_vars.o)
                0x000000000004893c                alt_irq_active
 .sbss          0x0000000000048940        0x8 ../sodalite_filetest_bsp/\libhal_bsp.a(alt_tick.o)
                0x0000000000048940                _alt_nticks
                0x0000000000048944                _alt_tick_rate
 .sbss          0x0000000000048948        0x4 ../sodalite_filetest_bsp/\libhal_bsp.a(alt_instruction_exception_entry.o)
                0x0000000000048948                alt_instruction_exception_handler
 *(.sbss2 .sbss2.* .gnu.linkonce.sb2.*)
 *(.scommon)
                0x000000000004894c                PROVIDE (__sbss_end, ABSOLUTE (.))
                0x000000000004894c                PROVIDE (___sbss_end, ABSOLUTE (.))
 *(.dynbss)
 *(.bss .bss.* .gnu.linkonce.b.*)
 .bss           0x000000000004894c        0x0 ../sodalite_filetest_bsp//obj/HAL/src/crt0.o
 .bss           0x000000000004894c        0x0 obj/default/file_test.o
 .bss           0x000000000004894c        0x0 obj/default/loadbmp.o
 .bss           0x000000000004894c      0x200 obj/default/mmcfs/fatfs/ff.o
 .bss           0x0000000000048b4c        0x0 obj/default/mmcfs/fatfs/mmcbb.o
 .bss           0x0000000000048b4c        0x0 obj/default/mmcfs/fatfs/option/cc932.o
 .bss           0x0000000000048b4c        0x0 obj/default/mmcfs/gettime.o
 .bss           0x0000000000048b4c        0x0 obj/default/mmcfs/mmc_spi.o
 .bss           0x0000000000048b4c     0x24b0 obj/default/mmcfs/mmcfs.o
 .bss           0x000000000004affc        0x0 obj/default/nd_lib/fontx_k12x10.o
 .bss           0x000000000004affc        0x0 obj/default/nd_lib/fontx_k6x10.o
 .bss           0x000000000004affc        0x0 obj/default/nd_lib/nd_egl.o
 .bss           0x000000000004affc        0x0 obj/default/testuty.o
 .bss           0x000000000004affc        0x0 c:/develop/altera/14.0/nios2eds/bin/gnu/h-x86_64-mingw32/bin/../lib/gcc/nios2-elf/4.7.3/mhw-mulx\libgcc.a(lib2-divmod.o)
 .bss           0x000000000004affc        0x0 c:/develop/altera/14.0/nios2eds/bin/gnu/h-x86_64-mingw32/bin/../lib/gcc/nios2-elf/4.7.3/../../../../../H-x86_64-mingw32/nios2-elf/lib/mhw-mulx\libc.a(lib_a-fclose.o)
 .bss           0x000000000004affc        0x0 c:/develop/altera/14.0/nios2eds/bin/gnu/h-x86_64-mingw32/bin/../lib/gcc/nios2-elf/4.7.3/../../../../../H-x86_64-mingw32/nios2-elf/lib/mhw-mulx\libc.a(lib_a-fflush.o)
 .bss           0x000000000004affc        0x0 c:/develop/altera/14.0/nios2eds/bin/gnu/h-x86_64-mingw32/bin/../lib/gcc/nios2-elf/4.7.3/../../../../../H-x86_64-mingw32/nios2-elf/lib/mhw-mulx\libc.a(lib_a-findfp.o)
 .bss           0x000000000004affc        0x0 c:/develop/altera/14.0/nios2eds/bin/gnu/h-x86_64-mingw32/bin/../lib/gcc/nios2-elf/4.7.3/../../../../../H-x86_64-mingw32/nios2-elf/lib/mhw-mulx\libc.a(lib_a-fopen.o)
 .bss           0x000000000004affc        0x0 c:/develop/altera/14.0/nios2eds/bin/gnu/h-x86_64-mingw32/bin/../lib/gcc/nios2-elf/4.7.3/../../../../../H-x86_64-mingw32/nios2-elf/lib/mhw-mulx\libc.a(lib_a-fread.o)
 .bss           0x000000000004affc        0x0 c:/develop/altera/14.0/nios2eds/bin/gnu/h-x86_64-mingw32/bin/../lib/gcc/nios2-elf/4.7.3/../../../../../H-x86_64-mingw32/nios2-elf/lib/mhw-mulx\libc.a(lib_a-freer.o)
 .bss           0x000000000004affc        0x0 c:/develop/altera/14.0/nios2eds/bin/gnu/h-x86_64-mingw32/bin/../lib/gcc/nios2-elf/4.7.3/../../../../../H-x86_64-mingw32/nios2-elf/lib/mhw-mulx\libc.a(lib_a-fseek.o)
 .bss           0x000000000004affc        0x0 c:/develop/altera/14.0/nios2eds/bin/gnu/h-x86_64-mingw32/bin/../lib/gcc/nios2-elf/4.7.3/../../../../../H-x86_64-mingw32/nios2-elf/lib/mhw-mulx\libc.a(lib_a-fstatr.o)
 .bss           0x000000000004affc        0x0 c:/develop/altera/14.0/nios2eds/bin/gnu/h-x86_64-mingw32/bin/../lib/gcc/nios2-elf/4.7.3/../../../../../H-x86_64-mingw32/nios2-elf/lib/mhw-mulx\libc.a(lib_a-fwalk.o)
 .bss           0x000000000004affc        0x0 c:/develop/altera/14.0/nios2eds/bin/gnu/h-x86_64-mingw32/bin/../lib/gcc/nios2-elf/4.7.3/../../../../../H-x86_64-mingw32/nios2-elf/lib/mhw-mulx\libc.a(lib_a-impure.o)
 .bss           0x000000000004affc        0x0 c:/develop/altera/14.0/nios2eds/bin/gnu/h-x86_64-mingw32/bin/../lib/gcc/nios2-elf/4.7.3/../../../../../H-x86_64-mingw32/nios2-elf/lib/mhw-mulx\libc.a(lib_a-int_errno.o)
 .bss           0x000000000004affc        0x0 c:/develop/altera/14.0/nios2eds/bin/gnu/h-x86_64-mingw32/bin/../lib/gcc/nios2-elf/4.7.3/../../../../../H-x86_64-mingw32/nios2-elf/lib/mhw-mulx\libc.a(lib_a-makebuf.o)
 .bss           0x000000000004affc       0x28 c:/develop/altera/14.0/nios2eds/bin/gnu/h-x86_64-mingw32/bin/../lib/gcc/nios2-elf/4.7.3/../../../../../H-x86_64-mingw32/nios2-elf/lib/mhw-mulx\libc.a(lib_a-mallocr.o)
                0x000000000004affc                __malloc_current_mallinfo
 .bss           0x000000000004b024        0x0 c:/develop/altera/14.0/nios2eds/bin/gnu/h-x86_64-mingw32/bin/../lib/gcc/nios2-elf/4.7.3/../../../../../H-x86_64-mingw32/nios2-elf/lib/mhw-mulx\libc.a(lib_a-memcpy.o)
 .bss           0x000000000004b024        0x0 c:/develop/altera/14.0/nios2eds/bin/gnu/h-x86_64-mingw32/bin/../lib/gcc/nios2-elf/4.7.3/../../../../../H-x86_64-mingw32/nios2-elf/lib/mhw-mulx\libc.a(lib_a-memset.o)
 .bss           0x000000000004b024        0x0 c:/develop/altera/14.0/nios2eds/bin/gnu/h-x86_64-mingw32/bin/../lib/gcc/nios2-elf/4.7.3/../../../../../H-x86_64-mingw32/nios2-elf/lib/mhw-mulx\libc.a(lib_a-openr.o)
 .bss           0x000000000004b024        0x0 c:/develop/altera/14.0/nios2eds/bin/gnu/h-x86_64-mingw32/bin/../lib/gcc/nios2-elf/4.7.3/../../../../../H-x86_64-mingw32/nios2-elf/lib/mhw-mulx\libc.a(lib_a-printf.o)
 .bss           0x000000000004b024        0x0 c:/develop/altera/14.0/nios2eds/bin/gnu/h-x86_64-mingw32/bin/../lib/gcc/nios2-elf/4.7.3/../../../../../H-x86_64-mingw32/nios2-elf/lib/mhw-mulx\libc.a(lib_a-putchar.o)
 .bss           0x000000000004b024        0x0 c:/develop/altera/14.0/nios2eds/bin/gnu/h-x86_64-mingw32/bin/../lib/gcc/nios2-elf/4.7.3/../../../../../H-x86_64-mingw32/nios2-elf/lib/mhw-mulx\libc.a(lib_a-puts.o)
 .bss           0x000000000004b024        0x0 c:/develop/altera/14.0/nios2eds/bin/gnu/h-x86_64-mingw32/bin/../lib/gcc/nios2-elf/4.7.3/../../../../../H-x86_64-mingw32/nios2-elf/lib/mhw-mulx\libc.a(lib_a-refill.o)
 .bss           0x000000000004b024        0x0 c:/develop/altera/14.0/nios2eds/bin/gnu/h-x86_64-mingw32/bin/../lib/gcc/nios2-elf/4.7.3/../../../../../H-x86_64-mingw32/nios2-elf/lib/mhw-mulx\libc.a(lib_a-sbrkr.o)
 .bss           0x000000000004b024        0x0 c:/develop/altera/14.0/nios2eds/bin/gnu/h-x86_64-mingw32/bin/../lib/gcc/nios2-elf/4.7.3/../../../../../H-x86_64-mingw32/nios2-elf/lib/mhw-mulx\libc.a(lib_a-stdio.o)
 .bss           0x000000000004b024        0x0 c:/develop/altera/14.0/nios2eds/bin/gnu/h-x86_64-mingw32/bin/../lib/gcc/nios2-elf/4.7.3/../../../../../H-x86_64-mingw32/nios2-elf/lib/mhw-mulx\libc.a(lib_a-strlen.o)
 .bss           0x000000000004b024        0x0 c:/develop/altera/14.0/nios2eds/bin/gnu/h-x86_64-mingw32/bin/../lib/gcc/nios2-elf/4.7.3/../../../../../H-x86_64-mingw32/nios2-elf/lib/mhw-mulx\libc.a(lib_a-vfprintf.o)
 .bss           0x000000000004b024        0x0 c:/develop/altera/14.0/nios2eds/bin/gnu/h-x86_64-mingw32/bin/../lib/gcc/nios2-elf/4.7.3/../../../../../H-x86_64-mingw32/nios2-elf/lib/mhw-mulx\libc.a(lib_a-writer.o)
 .bss           0x000000000004b024        0x0 c:/develop/altera/14.0/nios2eds/bin/gnu/h-x86_64-mingw32/bin/../lib/gcc/nios2-elf/4.7.3/../../../../../H-x86_64-mingw32/nios2-elf/lib/mhw-mulx\libc.a(lib_a-wsetup.o)
 .bss           0x000000000004b024        0x0 c:/develop/altera/14.0/nios2eds/bin/gnu/h-x86_64-mingw32/bin/../lib/gcc/nios2-elf/4.7.3/../../../../../H-x86_64-mingw32/nios2-elf/lib/mhw-mulx\libc.a(lib_a-closer.o)
 .bss           0x000000000004b024        0x0 c:/develop/altera/14.0/nios2eds/bin/gnu/h-x86_64-mingw32/bin/../lib/gcc/nios2-elf/4.7.3/../../../../../H-x86_64-mingw32/nios2-elf/lib/mhw-mulx\libc.a(lib_a-dtoa.o)
 .bss           0x000000000004b024        0x0 c:/develop/altera/14.0/nios2eds/bin/gnu/h-x86_64-mingw32/bin/../lib/gcc/nios2-elf/4.7.3/../../../../../H-x86_64-mingw32/nios2-elf/lib/mhw-mulx\libc.a(lib_a-flags.o)
 .bss           0x000000000004b024        0x0 c:/develop/altera/14.0/nios2eds/bin/gnu/h-x86_64-mingw32/bin/../lib/gcc/nios2-elf/4.7.3/../../../../../H-x86_64-mingw32/nios2-elf/lib/mhw-mulx\libc.a(lib_a-fvwrite.o)
 .bss           0x000000000004b024        0x0 c:/develop/altera/14.0/nios2eds/bin/gnu/h-x86_64-mingw32/bin/../lib/gcc/nios2-elf/4.7.3/../../../../../H-x86_64-mingw32/nios2-elf/lib/mhw-mulx\libc.a(lib_a-isattyr.o)
 .bss           0x000000000004b024        0x0 c:/develop/altera/14.0/nios2eds/bin/gnu/h-x86_64-mingw32/bin/../lib/gcc/nios2-elf/4.7.3/../../../../../H-x86_64-mingw32/nios2-elf/lib/mhw-mulx\libc.a(lib_a-locale.o)
 .bss           0x000000000004b024        0x0 c:/develop/altera/14.0/nios2eds/bin/gnu/h-x86_64-mingw32/bin/../lib/gcc/nios2-elf/4.7.3/../../../../../H-x86_64-mingw32/nios2-elf/lib/mhw-mulx\libc.a(lib_a-lseekr.o)
 .bss           0x000000000004b024        0x0 c:/develop/altera/14.0/nios2eds/bin/gnu/h-x86_64-mingw32/bin/../lib/gcc/nios2-elf/4.7.3/../../../../../H-x86_64-mingw32/nios2-elf/lib/mhw-mulx\libc.a(lib_a-memchr.o)
 .bss           0x000000000004b024        0x0 c:/develop/altera/14.0/nios2eds/bin/gnu/h-x86_64-mingw32/bin/../lib/gcc/nios2-elf/4.7.3/../../../../../H-x86_64-mingw32/nios2-elf/lib/mhw-mulx\libc.a(lib_a-memmove.o)
 .bss           0x000000000004b024        0x0 c:/develop/altera/14.0/nios2eds/bin/gnu/h-x86_64-mingw32/bin/../lib/gcc/nios2-elf/4.7.3/../../../../../H-x86_64-mingw32/nios2-elf/lib/mhw-mulx\libc.a(lib_a-mprec.o)
 .bss           0x000000000004b024        0x0 c:/develop/altera/14.0/nios2eds/bin/gnu/h-x86_64-mingw32/bin/../lib/gcc/nios2-elf/4.7.3/../../../../../H-x86_64-mingw32/nios2-elf/lib/mhw-mulx\libc.a(lib_a-putc.o)
 .bss           0x000000000004b024        0x0 c:/develop/altera/14.0/nios2eds/bin/gnu/h-x86_64-mingw32/bin/../lib/gcc/nios2-elf/4.7.3/../../../../../H-x86_64-mingw32/nios2-elf/lib/mhw-mulx\libc.a(lib_a-readr.o)
 .bss           0x000000000004b024        0x0 c:/develop/altera/14.0/nios2eds/bin/gnu/h-x86_64-mingw32/bin/../lib/gcc/nios2-elf/4.7.3/../../../../../H-x86_64-mingw32/nios2-elf/lib/mhw-mulx\libc.a(lib_a-reallocr.o)
 .bss           0x000000000004b024        0x0 c:/develop/altera/14.0/nios2eds/bin/gnu/h-x86_64-mingw32/bin/../lib/gcc/nios2-elf/4.7.3/../../../../../H-x86_64-mingw32/nios2-elf/lib/mhw-mulx\libc.a(lib_a-s_isinfd.o)
 .bss           0x000000000004b024        0x0 c:/develop/altera/14.0/nios2eds/bin/gnu/h-x86_64-mingw32/bin/../lib/gcc/nios2-elf/4.7.3/../../../../../H-x86_64-mingw32/nios2-elf/lib/mhw-mulx\libc.a(lib_a-s_isnand.o)
 .bss           0x000000000004b024        0x0 c:/develop/altera/14.0/nios2eds/bin/gnu/h-x86_64-mingw32/bin/../lib/gcc/nios2-elf/4.7.3/../../../../../H-x86_64-mingw32/nios2-elf/lib/mhw-mulx\libc.a(lib_a-strcmp.o)
 .bss           0x000000000004b024        0x0 c:/develop/altera/14.0/nios2eds/bin/gnu/h-x86_64-mingw32/bin/../lib/gcc/nios2-elf/4.7.3/../../../../../H-x86_64-mingw32/nios2-elf/lib/mhw-mulx\libc.a(lib_a-wbuf.o)
 .bss           0x000000000004b024        0x0 c:/develop/altera/14.0/nios2eds/bin/gnu/h-x86_64-mingw32/bin/../lib/gcc/nios2-elf/4.7.3/../../../../../H-x86_64-mingw32/nios2-elf/lib/mhw-mulx\libc.a(lib_a-callocr.o)
 .bss           0x000000000004b024        0x0 c:/develop/altera/14.0/nios2eds/bin/gnu/h-x86_64-mingw32/bin/../lib/gcc/nios2-elf/4.7.3/mhw-mulx\libgcc.a(_udivdi3.o)
 .bss           0x000000000004b024        0x0 c:/develop/altera/14.0/nios2eds/bin/gnu/h-x86_64-mingw32/bin/../lib/gcc/nios2-elf/4.7.3/mhw-mulx\libgcc.a(_umoddi3.o)
 .bss           0x000000000004b024        0x0 c:/develop/altera/14.0/nios2eds/bin/gnu/h-x86_64-mingw32/bin/../lib/gcc/nios2-elf/4.7.3/mhw-mulx\libgcc.a(_addsub_df.o)
 .bss           0x000000000004b024        0x0 c:/develop/altera/14.0/nios2eds/bin/gnu/h-x86_64-mingw32/bin/../lib/gcc/nios2-elf/4.7.3/mhw-mulx\libgcc.a(_mul_df.o)
 .bss           0x000000000004b024        0x0 c:/develop/altera/14.0/nios2eds/bin/gnu/h-x86_64-mingw32/bin/../lib/gcc/nios2-elf/4.7.3/mhw-mulx\libgcc.a(_div_df.o)
 .bss           0x000000000004b024        0x0 c:/develop/altera/14.0/nios2eds/bin/gnu/h-x86_64-mingw32/bin/../lib/gcc/nios2-elf/4.7.3/mhw-mulx\libgcc.a(_eq_df.o)
 .bss           0x000000000004b024        0x0 c:/develop/altera/14.0/nios2eds/bin/gnu/h-x86_64-mingw32/bin/../lib/gcc/nios2-elf/4.7.3/mhw-mulx\libgcc.a(_ne_df.o)
 .bss           0x000000000004b024        0x0 c:/develop/altera/14.0/nios2eds/bin/gnu/h-x86_64-mingw32/bin/../lib/gcc/nios2-elf/4.7.3/mhw-mulx\libgcc.a(_gt_df.o)
 .bss           0x000000000004b024        0x0 c:/develop/altera/14.0/nios2eds/bin/gnu/h-x86_64-mingw32/bin/../lib/gcc/nios2-elf/4.7.3/mhw-mulx\libgcc.a(_ge_df.o)
 .bss           0x000000000004b024        0x0 c:/develop/altera/14.0/nios2eds/bin/gnu/h-x86_64-mingw32/bin/../lib/gcc/nios2-elf/4.7.3/mhw-mulx\libgcc.a(_lt_df.o)
 .bss           0x000000000004b024        0x0 c:/develop/altera/14.0/nios2eds/bin/gnu/h-x86_64-mingw32/bin/../lib/gcc/nios2-elf/4.7.3/mhw-mulx\libgcc.a(_si_to_df.o)
 .bss           0x000000000004b024        0x0 c:/develop/altera/14.0/nios2eds/bin/gnu/h-x86_64-mingw32/bin/../lib/gcc/nios2-elf/4.7.3/mhw-mulx\libgcc.a(_df_to_si.o)
 .bss           0x000000000004b024        0x0 c:/develop/altera/14.0/nios2eds/bin/gnu/h-x86_64-mingw32/bin/../lib/gcc/nios2-elf/4.7.3/mhw-mulx\libgcc.a(_thenan_df.o)
 .bss           0x000000000004b024        0x0 c:/develop/altera/14.0/nios2eds/bin/gnu/h-x86_64-mingw32/bin/../lib/gcc/nios2-elf/4.7.3/mhw-mulx\libgcc.a(_usi_to_df.o)
 .bss           0x000000000004b024        0x0 c:/develop/altera/14.0/nios2eds/bin/gnu/h-x86_64-mingw32/bin/../lib/gcc/nios2-elf/4.7.3/mhw-mulx\libgcc.a(_clz.o)
 .bss           0x000000000004b024        0x0 c:/develop/altera/14.0/nios2eds/bin/gnu/h-x86_64-mingw32/bin/../lib/gcc/nios2-elf/4.7.3/mhw-mulx\libgcc.a(_clzsi2.o)
 .bss           0x000000000004b024        0x0 c:/develop/altera/14.0/nios2eds/bin/gnu/h-x86_64-mingw32/bin/../lib/gcc/nios2-elf/4.7.3/mhw-mulx\libgcc.a(_pack_df.o)
 .bss           0x000000000004b024        0x0 c:/develop/altera/14.0/nios2eds/bin/gnu/h-x86_64-mingw32/bin/../lib/gcc/nios2-elf/4.7.3/mhw-mulx\libgcc.a(_unpack_df.o)
 .bss           0x000000000004b024        0x0 c:/develop/altera/14.0/nios2eds/bin/gnu/h-x86_64-mingw32/bin/../lib/gcc/nios2-elf/4.7.3/mhw-mulx\libgcc.a(_fpcmp_parts_df.o)
 .bss           0x000000000004b024        0x0 c:/develop/altera/14.0/nios2eds/bin/gnu/h-x86_64-mingw32/bin/../lib/gcc/nios2-elf/4.7.3/mhw-mulx\libgcc.a(_lshrdi3.o)
 .bss           0x000000000004b024        0x0 c:/develop/altera/14.0/nios2eds/bin/gnu/h-x86_64-mingw32/bin/../lib/gcc/nios2-elf/4.7.3/mhw-mulx\libgcc.a(_ashldi3.o)
 .bss           0x000000000004b024        0x0 ../sodalite_filetest_bsp/\libhal_bsp.a(alt_close.o)
 .bss           0x000000000004b024        0x0 ../sodalite_filetest_bsp/\libhal_bsp.a(alt_dev.o)
 .bss           0x000000000004b024        0x0 ../sodalite_filetest_bsp/\libhal_bsp.a(alt_errno.o)
 .bss           0x000000000004b024        0x0 ../sodalite_filetest_bsp/\libhal_bsp.a(alt_fs_reg.o)
 .bss           0x000000000004b024        0x0 ../sodalite_filetest_bsp/\libhal_bsp.a(alt_fstat.o)
 .bss           0x000000000004b024        0x0 ../sodalite_filetest_bsp/\libhal_bsp.a(alt_isatty.o)
 .bss           0x000000000004b024        0x0 ../sodalite_filetest_bsp/\libhal_bsp.a(alt_load.o)
 .bss           0x000000000004b024        0x0 ../sodalite_filetest_bsp/\libhal_bsp.a(alt_lseek.o)
 .bss           0x000000000004b024        0x0 ../sodalite_filetest_bsp/\libhal_bsp.a(alt_main.o)
 .bss           0x000000000004b024        0x0 ../sodalite_filetest_bsp/\libhal_bsp.a(alt_malloc_lock.o)
 .bss           0x000000000004b024        0x0 ../sodalite_filetest_bsp/\libhal_bsp.a(alt_open.o)
 .bss           0x000000000004b024        0x0 ../sodalite_filetest_bsp/\libhal_bsp.a(alt_read.o)
 .bss           0x000000000004b024        0x0 ../sodalite_filetest_bsp/\libhal_bsp.a(alt_release_fd.o)
 .bss           0x000000000004b024        0x0 ../sodalite_filetest_bsp/\libhal_bsp.a(alt_sbrk.o)
 .bss           0x000000000004b024        0x0 ../sodalite_filetest_bsp/\libhal_bsp.a(alt_uncached_malloc.o)
 .bss           0x000000000004b024        0x0 ../sodalite_filetest_bsp/\libhal_bsp.a(alt_usleep.o)
 .bss           0x000000000004b024        0x0 ../sodalite_filetest_bsp/\libhal_bsp.a(alt_write.o)
 .bss           0x000000000004b024        0x0 ../sodalite_filetest_bsp/\libhal_bsp.a(alt_sys_init.o)
 .bss           0x000000000004b024        0x0 ../sodalite_filetest_bsp/\libhal_bsp.a(altera_avalon_jtag_uart_fd.o)
 .bss           0x000000000004b024        0x0 ../sodalite_filetest_bsp/\libhal_bsp.a(altera_avalon_jtag_uart_init.o)
 .bss           0x000000000004b024        0x0 ../sodalite_filetest_bsp/\libhal_bsp.a(altera_avalon_jtag_uart_ioctl.o)
 .bss           0x000000000004b024        0x0 ../sodalite_filetest_bsp/\libhal_bsp.a(altera_avalon_jtag_uart_read.o)
 .bss           0x000000000004b024        0x0 ../sodalite_filetest_bsp/\libhal_bsp.a(altera_avalon_jtag_uart_write.o)
 .bss           0x000000000004b024        0x0 ../sodalite_filetest_bsp/\libhal_bsp.a(altera_avalon_timer_sc.o)
 .bss           0x000000000004b024        0x0 ../sodalite_filetest_bsp/\libhal_bsp.a(altera_modular_adc.o)
 .bss           0x000000000004b024        0x0 ../sodalite_filetest_bsp/\libhal_bsp.a(altera_onchip_flash.o)
 .bss           0x000000000004b024        0x0 ../sodalite_filetest_bsp/\libhal_bsp.a(alt_alarm_start.o)
 .bss           0x000000000004b024        0x0 ../sodalite_filetest_bsp/\libhal_bsp.a(alt_busy_sleep.o)
 .bss           0x000000000004b024        0x0 ../sodalite_filetest_bsp/\libhal_bsp.a(alt_dcache_flush.o)
 .bss           0x000000000004b024        0x0 ../sodalite_filetest_bsp/\libhal_bsp.a(alt_dcache_flush_all.o)
 .bss           0x000000000004b024        0x0 ../sodalite_filetest_bsp/\libhal_bsp.a(alt_dev_llist_insert.o)
 .bss           0x000000000004b024        0x0 ../sodalite_filetest_bsp/\libhal_bsp.a(alt_do_ctors.o)
 .bss           0x000000000004b024        0x0 ../sodalite_filetest_bsp/\libhal_bsp.a(alt_do_dtors.o)
 .bss           0x000000000004b024        0x0 ../sodalite_filetest_bsp/\libhal_bsp.a(alt_find_dev.o)
 .bss           0x000000000004b024        0x0 ../sodalite_filetest_bsp/\libhal_bsp.a(alt_find_file.o)
 .bss           0x000000000004b024        0x0 ../sodalite_filetest_bsp/\libhal_bsp.a(alt_flash_dev.o)
 .bss           0x000000000004b024        0x0 ../sodalite_filetest_bsp/\libhal_bsp.a(alt_get_fd.o)
 .bss           0x000000000004b024        0x0 ../sodalite_filetest_bsp/\libhal_bsp.a(alt_icache_flush_all.o)
 .bss           0x000000000004b024        0x0 ../sodalite_filetest_bsp/\libhal_bsp.a(alt_iic.o)
 .bss           0x000000000004b024        0x0 ../sodalite_filetest_bsp/\libhal_bsp.a(alt_iic_isr_register.o)
 .bss           0x000000000004b024        0x0 ../sodalite_filetest_bsp/\libhal_bsp.a(alt_io_redirect.o)
 .bss           0x000000000004b024        0x0 ../sodalite_filetest_bsp/\libhal_bsp.a(alt_irq_entry.o)
 .bss           0x000000000004b024        0x0 ../sodalite_filetest_bsp/\libhal_bsp.a(alt_irq_handler.o)
 .bss           0x000000000004b024        0x0 ../sodalite_filetest_bsp/\libhal_bsp.a(alt_irq_vars.o)
 .bss           0x000000000004b024        0x0 ../sodalite_filetest_bsp/\libhal_bsp.a(alt_tick.o)
 .bss           0x000000000004b024        0x0 ../sodalite_filetest_bsp/\libhal_bsp.a(altera_nios2_gen2_irq.o)
 .bss           0x000000000004b024        0x0 ../sodalite_filetest_bsp/\libhal_bsp.a(alt_exception_entry.o)
 .bss           0x000000000004b024        0x0 ../sodalite_filetest_bsp/\libhal_bsp.a(alt_icache_flush.o)
 .bss           0x000000000004b024        0x0 ../sodalite_filetest_bsp/\libhal_bsp.a(alt_instruction_exception_entry.o)
 .bss           0x000000000004b024        0x0 c:/develop/altera/14.0/nios2eds/bin/gnu/h-x86_64-mingw32/bin/../lib/gcc/nios2-elf/4.7.3/../../../../../H-x86_64-mingw32/nios2-elf/lib/mhw-mulx\libc.a(lib_a-atexit.o)
 .bss           0x000000000004b024        0x0 c:/develop/altera/14.0/nios2eds/bin/gnu/h-x86_64-mingw32/bin/../lib/gcc/nios2-elf/4.7.3/../../../../../H-x86_64-mingw32/nios2-elf/lib/mhw-mulx\libc.a(lib_a-exit.o)
 .bss           0x000000000004b024        0x0 c:/develop/altera/14.0/nios2eds/bin/gnu/h-x86_64-mingw32/bin/../lib/gcc/nios2-elf/4.7.3/../../../../../H-x86_64-mingw32/nios2-elf/lib/mhw-mulx\libc.a(lib_a-malign.o)
 .bss           0x000000000004b024        0x0 c:/develop/altera/14.0/nios2eds/bin/gnu/h-x86_64-mingw32/bin/../lib/gcc/nios2-elf/4.7.3/../../../../../H-x86_64-mingw32/nios2-elf/lib/mhw-mulx\libc.a(lib_a-malignr.o)
 .bss           0x000000000004b024        0x0 c:/develop/altera/14.0/nios2eds/bin/gnu/h-x86_64-mingw32/bin/../lib/gcc/nios2-elf/4.7.3/../../../../../H-x86_64-mingw32/nios2-elf/lib/mhw-mulx\libc.a(lib_a-memcmp.o)
 .bss           0x000000000004b024        0x0 c:/develop/altera/14.0/nios2eds/bin/gnu/h-x86_64-mingw32/bin/../lib/gcc/nios2-elf/4.7.3/../../../../../H-x86_64-mingw32/nios2-elf/lib/mhw-mulx\libc.a(lib_a-__atexit.o)
 .bss           0x000000000004b024        0x0 c:/develop/altera/14.0/nios2eds/bin/gnu/h-x86_64-mingw32/bin/../lib/gcc/nios2-elf/4.7.3/../../../../../H-x86_64-mingw32/nios2-elf/lib/mhw-mulx\libc.a(lib_a-__call_atexit.o)
 .bss           0x000000000004b024        0x0 ../sodalite_filetest_bsp/\libhal_bsp.a(alt_exit.o)
 *(COMMON)
 COMMON         0x000000000004b024      0x454 obj/default/testuty.o
                0x000000000004b024                Mmc_fileobj
                0x000000000004b248                FatFs_sysobj
 COMMON         0x000000000004b478      0x100 ../sodalite_filetest_bsp/\libhal_bsp.a(alt_irq_handler.o)
                0x000000000004b478                alt_irq
 COMMON         0x000000000004b578      0x190 c:/develop/altera/14.0/nios2eds/bin/gnu/h-x86_64-mingw32/bin/../lib/gcc/nios2-elf/4.7.3/../../../../../H-x86_64-mingw32/nios2-elf/lib/mhw-mulx\libc.a(lib_a-atexit.o)
                0x000000000004b578                _atexit0
                0x000000000004b708                . = ALIGN (0x4)
                0x000000000004b708                __bss_end = ABSOLUTE (.)

.sdram          0x000000000004b708        0x0
                0x000000000004b708                PROVIDE (_alt_partition_sdram_start, ABSOLUTE (.))
 *(.sdram .sdram. sdram.*)
                0x000000000004b708                . = ALIGN (0x4)
                0x000000000004b708                PROVIDE (_alt_partition_sdram_end, ABSOLUTE (.))
                0x000000000004b708                _end = ABSOLUTE (.)
                0x000000000004b708                end = ABSOLUTE (.)
                0x000000000004b708                __alt_stack_base = ABSOLUTE (.)
                0x000000000004b708                PROVIDE (_alt_partition_sdram_load_addr, LOADADDR (.sdram))

.ipl_memory     0x000000000f000020        0x0 load address 0x000000000004b708
                0x000000000f000020                PROVIDE (_alt_partition_ipl_memory_start, ABSOLUTE (.))
 *(.ipl_memory .ipl_memory. ipl_memory.*)
                0x000000000f000020                . = ALIGN (0x4)
                0x000000000f000020                PROVIDE (_alt_partition_ipl_memory_end, ABSOLUTE (.))
                0x000000000004b708                PROVIDE (_alt_partition_ipl_memory_load_addr, LOADADDR (.ipl_memory))

.onchip_flash_0_data
                0x000000000f100000        0x0 load address 0x000000000004b708
                0x000000000f100000                PROVIDE (_alt_partition_onchip_flash_0_data_start, ABSOLUTE (.))
 *(.onchip_flash_0_data .onchip_flash_0_data. onchip_flash_0_data.*)
                0x000000000f100000                . = ALIGN (0x4)
                0x000000000f100000                PROVIDE (_alt_partition_onchip_flash_0_data_end, ABSOLUTE (.))
                0x000000000004b708                PROVIDE (_alt_partition_onchip_flash_0_data_load_addr, LOADADDR (.onchip_flash_0_data))

.stab
 *(.stab)

.stabstr
 *(.stabstr)

.stab.excl
 *(.stab.excl)

.stab.exclstr
 *(.stab.exclstr)

.stab.index
 *(.stab.index)

.stab.indexstr
 *(.stab.indexstr)

.comment        0x0000000000000000       0x23
 *(.comment)
 .comment       0x0000000000000000       0x23 obj/default/file_test.o
                                         0x24 (size before relaxing)
 .comment       0x0000000000000000       0x24 obj/default/loadbmp.o
 .comment       0x0000000000000000       0x24 obj/default/mmcfs/fatfs/ff.o
 .comment       0x0000000000000000       0x24 obj/default/mmcfs/fatfs/mmcbb.o
 .comment       0x0000000000000000       0x24 obj/default/mmcfs/fatfs/option/cc932.o
 .comment       0x0000000000000000       0x24 obj/default/mmcfs/gettime.o
 .comment       0x0000000000000000       0x24 obj/default/mmcfs/mmc_spi.o
 .comment       0x0000000000000000       0x24 obj/default/mmcfs/mmcfs.o
 .comment       0x0000000000000000       0x24 obj/default/nd_lib/fontx_k12x10.o
 .comment       0x0000000000000000       0x24 obj/default/nd_lib/fontx_k6x10.o
 .comment       0x0000000000000000       0x24 obj/default/nd_lib/nd_egl.o
 .comment       0x0000000000000000       0x24 obj/default/testuty.o
 .comment       0x0000000000000000       0x24 c:/develop/altera/14.0/nios2eds/bin/gnu/h-x86_64-mingw32/bin/../lib/gcc/nios2-elf/4.7.3/mhw-mulx\libgcc.a(lib2-divmod.o)
 .comment       0x0000000000000000       0x24 c:/develop/altera/14.0/nios2eds/bin/gnu/h-x86_64-mingw32/bin/../lib/gcc/nios2-elf/4.7.3/../../../../../H-x86_64-mingw32/nios2-elf/lib/mhw-mulx\libc.a(lib_a-fclose.o)
 .comment       0x0000000000000000       0x24 c:/develop/altera/14.0/nios2eds/bin/gnu/h-x86_64-mingw32/bin/../lib/gcc/nios2-elf/4.7.3/../../../../../H-x86_64-mingw32/nios2-elf/lib/mhw-mulx\libc.a(lib_a-fflush.o)
 .comment       0x0000000000000000       0x24 c:/develop/altera/14.0/nios2eds/bin/gnu/h-x86_64-mingw32/bin/../lib/gcc/nios2-elf/4.7.3/../../../../../H-x86_64-mingw32/nios2-elf/lib/mhw-mulx\libc.a(lib_a-findfp.o)
 .comment       0x0000000000000000       0x24 c:/develop/altera/14.0/nios2eds/bin/gnu/h-x86_64-mingw32/bin/../lib/gcc/nios2-elf/4.7.3/../../../../../H-x86_64-mingw32/nios2-elf/lib/mhw-mulx\libc.a(lib_a-fopen.o)
 .comment       0x0000000000000000       0x24 c:/develop/altera/14.0/nios2eds/bin/gnu/h-x86_64-mingw32/bin/../lib/gcc/nios2-elf/4.7.3/../../../../../H-x86_64-mingw32/nios2-elf/lib/mhw-mulx\libc.a(lib_a-fread.o)
 .comment       0x0000000000000000       0x24 c:/develop/altera/14.0/nios2eds/bin/gnu/h-x86_64-mingw32/bin/../lib/gcc/nios2-elf/4.7.3/../../../../../H-x86_64-mingw32/nios2-elf/lib/mhw-mulx\libc.a(lib_a-freer.o)
 .comment       0x0000000000000000       0x24 c:/develop/altera/14.0/nios2eds/bin/gnu/h-x86_64-mingw32/bin/../lib/gcc/nios2-elf/4.7.3/../../../../../H-x86_64-mingw32/nios2-elf/lib/mhw-mulx\libc.a(lib_a-fseek.o)
 .comment       0x0000000000000000       0x24 c:/develop/altera/14.0/nios2eds/bin/gnu/h-x86_64-mingw32/bin/../lib/gcc/nios2-elf/4.7.3/../../../../../H-x86_64-mingw32/nios2-elf/lib/mhw-mulx\libc.a(lib_a-fstatr.o)
 .comment       0x0000000000000000       0x24 c:/develop/altera/14.0/nios2eds/bin/gnu/h-x86_64-mingw32/bin/../lib/gcc/nios2-elf/4.7.3/../../../../../H-x86_64-mingw32/nios2-elf/lib/mhw-mulx\libc.a(lib_a-fwalk.o)
 .comment       0x0000000000000000       0x24 c:/develop/altera/14.0/nios2eds/bin/gnu/h-x86_64-mingw32/bin/../lib/gcc/nios2-elf/4.7.3/../../../../../H-x86_64-mingw32/nios2-elf/lib/mhw-mulx\libc.a(lib_a-impure.o)
 .comment       0x0000000000000000       0x24 c:/develop/altera/14.0/nios2eds/bin/gnu/h-x86_64-mingw32/bin/../lib/gcc/nios2-elf/4.7.3/../../../../../H-x86_64-mingw32/nios2-elf/lib/mhw-mulx\libc.a(lib_a-int_errno.o)
 .comment       0x0000000000000000       0x24 c:/develop/altera/14.0/nios2eds/bin/gnu/h-x86_64-mingw32/bin/../lib/gcc/nios2-elf/4.7.3/../../../../../H-x86_64-mingw32/nios2-elf/lib/mhw-mulx\libc.a(lib_a-makebuf.o)
 .comment       0x0000000000000000       0x24 c:/develop/altera/14.0/nios2eds/bin/gnu/h-x86_64-mingw32/bin/../lib/gcc/nios2-elf/4.7.3/../../../../../H-x86_64-mingw32/nios2-elf/lib/mhw-mulx\libc.a(lib_a-mallocr.o)
 .comment       0x0000000000000000       0x24 c:/develop/altera/14.0/nios2eds/bin/gnu/h-x86_64-mingw32/bin/../lib/gcc/nios2-elf/4.7.3/../../../../../H-x86_64-mingw32/nios2-elf/lib/mhw-mulx\libc.a(lib_a-memcpy.o)
 .comment       0x0000000000000000       0x24 c:/develop/altera/14.0/nios2eds/bin/gnu/h-x86_64-mingw32/bin/../lib/gcc/nios2-elf/4.7.3/../../../../../H-x86_64-mingw32/nios2-elf/lib/mhw-mulx\libc.a(lib_a-memset.o)
 .comment       0x0000000000000000       0x24 c:/develop/altera/14.0/nios2eds/bin/gnu/h-x86_64-mingw32/bin/../lib/gcc/nios2-elf/4.7.3/../../../../../H-x86_64-mingw32/nios2-elf/lib/mhw-mulx\libc.a(lib_a-openr.o)
 .comment       0x0000000000000000       0x24 c:/develop/altera/14.0/nios2eds/bin/gnu/h-x86_64-mingw32/bin/../lib/gcc/nios2-elf/4.7.3/../../../../../H-x86_64-mingw32/nios2-elf/lib/mhw-mulx\libc.a(lib_a-printf.o)
 .comment       0x0000000000000000       0x24 c:/develop/altera/14.0/nios2eds/bin/gnu/h-x86_64-mingw32/bin/../lib/gcc/nios2-elf/4.7.3/../../../../../H-x86_64-mingw32/nios2-elf/lib/mhw-mulx\libc.a(lib_a-putchar.o)
 .comment       0x0000000000000000       0x24 c:/develop/altera/14.0/nios2eds/bin/gnu/h-x86_64-mingw32/bin/../lib/gcc/nios2-elf/4.7.3/../../../../../H-x86_64-mingw32/nios2-elf/lib/mhw-mulx\libc.a(lib_a-puts.o)
 .comment       0x0000000000000000       0x24 c:/develop/altera/14.0/nios2eds/bin/gnu/h-x86_64-mingw32/bin/../lib/gcc/nios2-elf/4.7.3/../../../../../H-x86_64-mingw32/nios2-elf/lib/mhw-mulx\libc.a(lib_a-refill.o)
 .comment       0x0000000000000000       0x24 c:/develop/altera/14.0/nios2eds/bin/gnu/h-x86_64-mingw32/bin/../lib/gcc/nios2-elf/4.7.3/../../../../../H-x86_64-mingw32/nios2-elf/lib/mhw-mulx\libc.a(lib_a-sbrkr.o)
 .comment       0x0000000000000000       0x24 c:/develop/altera/14.0/nios2eds/bin/gnu/h-x86_64-mingw32/bin/../lib/gcc/nios2-elf/4.7.3/../../../../../H-x86_64-mingw32/nios2-elf/lib/mhw-mulx\libc.a(lib_a-stdio.o)
 .comment       0x0000000000000000       0x24 c:/develop/altera/14.0/nios2eds/bin/gnu/h-x86_64-mingw32/bin/../lib/gcc/nios2-elf/4.7.3/../../../../../H-x86_64-mingw32/nios2-elf/lib/mhw-mulx\libc.a(lib_a-strlen.o)
 .comment       0x0000000000000000       0x24 c:/develop/altera/14.0/nios2eds/bin/gnu/h-x86_64-mingw32/bin/../lib/gcc/nios2-elf/4.7.3/../../../../../H-x86_64-mingw32/nios2-elf/lib/mhw-mulx\libc.a(lib_a-vfprintf.o)
 .comment       0x0000000000000000       0x24 c:/develop/altera/14.0/nios2eds/bin/gnu/h-x86_64-mingw32/bin/../lib/gcc/nios2-elf/4.7.3/../../../../../H-x86_64-mingw32/nios2-elf/lib/mhw-mulx\libc.a(lib_a-writer.o)
 .comment       0x0000000000000000       0x24 c:/develop/altera/14.0/nios2eds/bin/gnu/h-x86_64-mingw32/bin/../lib/gcc/nios2-elf/4.7.3/../../../../../H-x86_64-mingw32/nios2-elf/lib/mhw-mulx\libc.a(lib_a-wsetup.o)
 .comment       0x0000000000000000       0x24 c:/develop/altera/14.0/nios2eds/bin/gnu/h-x86_64-mingw32/bin/../lib/gcc/nios2-elf/4.7.3/../../../../../H-x86_64-mingw32/nios2-elf/lib/mhw-mulx\libc.a(lib_a-closer.o)
 .comment       0x0000000000000000       0x24 c:/develop/altera/14.0/nios2eds/bin/gnu/h-x86_64-mingw32/bin/../lib/gcc/nios2-elf/4.7.3/../../../../../H-x86_64-mingw32/nios2-elf/lib/mhw-mulx\libc.a(lib_a-dtoa.o)
 .comment       0x0000000000000000       0x24 c:/develop/altera/14.0/nios2eds/bin/gnu/h-x86_64-mingw32/bin/../lib/gcc/nios2-elf/4.7.3/../../../../../H-x86_64-mingw32/nios2-elf/lib/mhw-mulx\libc.a(lib_a-flags.o)
 .comment       0x0000000000000000       0x24 c:/develop/altera/14.0/nios2eds/bin/gnu/h-x86_64-mingw32/bin/../lib/gcc/nios2-elf/4.7.3/../../../../../H-x86_64-mingw32/nios2-elf/lib/mhw-mulx\libc.a(lib_a-fvwrite.o)
 .comment       0x0000000000000000       0x24 c:/develop/altera/14.0/nios2eds/bin/gnu/h-x86_64-mingw32/bin/../lib/gcc/nios2-elf/4.7.3/../../../../../H-x86_64-mingw32/nios2-elf/lib/mhw-mulx\libc.a(lib_a-isattyr.o)
 .comment       0x0000000000000000       0x24 c:/develop/altera/14.0/nios2eds/bin/gnu/h-x86_64-mingw32/bin/../lib/gcc/nios2-elf/4.7.3/../../../../../H-x86_64-mingw32/nios2-elf/lib/mhw-mulx\libc.a(lib_a-locale.o)
 .comment       0x0000000000000000       0x24 c:/develop/altera/14.0/nios2eds/bin/gnu/h-x86_64-mingw32/bin/../lib/gcc/nios2-elf/4.7.3/../../../../../H-x86_64-mingw32/nios2-elf/lib/mhw-mulx\libc.a(lib_a-lseekr.o)
 .comment       0x0000000000000000       0x24 c:/develop/altera/14.0/nios2eds/bin/gnu/h-x86_64-mingw32/bin/../lib/gcc/nios2-elf/4.7.3/../../../../../H-x86_64-mingw32/nios2-elf/lib/mhw-mulx\libc.a(lib_a-memchr.o)
 .comment       0x0000000000000000       0x24 c:/develop/altera/14.0/nios2eds/bin/gnu/h-x86_64-mingw32/bin/../lib/gcc/nios2-elf/4.7.3/../../../../../H-x86_64-mingw32/nios2-elf/lib/mhw-mulx\libc.a(lib_a-memmove.o)
 .comment       0x0000000000000000       0x24 c:/develop/altera/14.0/nios2eds/bin/gnu/h-x86_64-mingw32/bin/../lib/gcc/nios2-elf/4.7.3/../../../../../H-x86_64-mingw32/nios2-elf/lib/mhw-mulx\libc.a(lib_a-mprec.o)
 .comment       0x0000000000000000       0x24 c:/develop/altera/14.0/nios2eds/bin/gnu/h-x86_64-mingw32/bin/../lib/gcc/nios2-elf/4.7.3/../../../../../H-x86_64-mingw32/nios2-elf/lib/mhw-mulx\libc.a(lib_a-putc.o)
 .comment       0x0000000000000000       0x24 c:/develop/altera/14.0/nios2eds/bin/gnu/h-x86_64-mingw32/bin/../lib/gcc/nios2-elf/4.7.3/../../../../../H-x86_64-mingw32/nios2-elf/lib/mhw-mulx\libc.a(lib_a-readr.o)
 .comment       0x0000000000000000       0x24 c:/develop/altera/14.0/nios2eds/bin/gnu/h-x86_64-mingw32/bin/../lib/gcc/nios2-elf/4.7.3/../../../../../H-x86_64-mingw32/nios2-elf/lib/mhw-mulx\libc.a(lib_a-reallocr.o)
 .comment       0x0000000000000000       0x24 c:/develop/altera/14.0/nios2eds/bin/gnu/h-x86_64-mingw32/bin/../lib/gcc/nios2-elf/4.7.3/../../../../../H-x86_64-mingw32/nios2-elf/lib/mhw-mulx\libc.a(lib_a-s_isinfd.o)
 .comment       0x0000000000000000       0x24 c:/develop/altera/14.0/nios2eds/bin/gnu/h-x86_64-mingw32/bin/../lib/gcc/nios2-elf/4.7.3/../../../../../H-x86_64-mingw32/nios2-elf/lib/mhw-mulx\libc.a(lib_a-s_isnand.o)
 .comment       0x0000000000000000       0x24 c:/develop/altera/14.0/nios2eds/bin/gnu/h-x86_64-mingw32/bin/../lib/gcc/nios2-elf/4.7.3/../../../../../H-x86_64-mingw32/nios2-elf/lib/mhw-mulx\libc.a(lib_a-strcmp.o)
 .comment       0x0000000000000000       0x24 c:/develop/altera/14.0/nios2eds/bin/gnu/h-x86_64-mingw32/bin/../lib/gcc/nios2-elf/4.7.3/../../../../../H-x86_64-mingw32/nios2-elf/lib/mhw-mulx\libc.a(lib_a-wbuf.o)
 .comment       0x0000000000000000       0x24 c:/develop/altera/14.0/nios2eds/bin/gnu/h-x86_64-mingw32/bin/../lib/gcc/nios2-elf/4.7.3/../../../../../H-x86_64-mingw32/nios2-elf/lib/mhw-mulx\libc.a(lib_a-callocr.o)
 .comment       0x0000000000000000       0x24 c:/develop/altera/14.0/nios2eds/bin/gnu/h-x86_64-mingw32/bin/../lib/gcc/nios2-elf/4.7.3/mhw-mulx\libgcc.a(_udivdi3.o)
 .comment       0x0000000000000000       0x24 c:/develop/altera/14.0/nios2eds/bin/gnu/h-x86_64-mingw32/bin/../lib/gcc/nios2-elf/4.7.3/mhw-mulx\libgcc.a(_umoddi3.o)
 .comment       0x0000000000000000       0x24 c:/develop/altera/14.0/nios2eds/bin/gnu/h-x86_64-mingw32/bin/../lib/gcc/nios2-elf/4.7.3/mhw-mulx\libgcc.a(_addsub_df.o)
 .comment       0x0000000000000000       0x24 c:/develop/altera/14.0/nios2eds/bin/gnu/h-x86_64-mingw32/bin/../lib/gcc/nios2-elf/4.7.3/mhw-mulx\libgcc.a(_mul_df.o)
 .comment       0x0000000000000000       0x24 c:/develop/altera/14.0/nios2eds/bin/gnu/h-x86_64-mingw32/bin/../lib/gcc/nios2-elf/4.7.3/mhw-mulx\libgcc.a(_div_df.o)
 .comment       0x0000000000000000       0x24 c:/develop/altera/14.0/nios2eds/bin/gnu/h-x86_64-mingw32/bin/../lib/gcc/nios2-elf/4.7.3/mhw-mulx\libgcc.a(_eq_df.o)
 .comment       0x0000000000000000       0x24 c:/develop/altera/14.0/nios2eds/bin/gnu/h-x86_64-mingw32/bin/../lib/gcc/nios2-elf/4.7.3/mhw-mulx\libgcc.a(_ne_df.o)
 .comment       0x0000000000000000       0x24 c:/develop/altera/14.0/nios2eds/bin/gnu/h-x86_64-mingw32/bin/../lib/gcc/nios2-elf/4.7.3/mhw-mulx\libgcc.a(_gt_df.o)
 .comment       0x0000000000000000       0x24 c:/develop/altera/14.0/nios2eds/bin/gnu/h-x86_64-mingw32/bin/../lib/gcc/nios2-elf/4.7.3/mhw-mulx\libgcc.a(_ge_df.o)
 .comment       0x0000000000000000       0x24 c:/develop/altera/14.0/nios2eds/bin/gnu/h-x86_64-mingw32/bin/../lib/gcc/nios2-elf/4.7.3/mhw-mulx\libgcc.a(_lt_df.o)
 .comment       0x0000000000000000       0x24 c:/develop/altera/14.0/nios2eds/bin/gnu/h-x86_64-mingw32/bin/../lib/gcc/nios2-elf/4.7.3/mhw-mulx\libgcc.a(_si_to_df.o)
 .comment       0x0000000000000000       0x24 c:/develop/altera/14.0/nios2eds/bin/gnu/h-x86_64-mingw32/bin/../lib/gcc/nios2-elf/4.7.3/mhw-mulx\libgcc.a(_df_to_si.o)
 .comment       0x0000000000000000       0x24 c:/develop/altera/14.0/nios2eds/bin/gnu/h-x86_64-mingw32/bin/../lib/gcc/nios2-elf/4.7.3/mhw-mulx\libgcc.a(_thenan_df.o)
 .comment       0x0000000000000000       0x24 c:/develop/altera/14.0/nios2eds/bin/gnu/h-x86_64-mingw32/bin/../lib/gcc/nios2-elf/4.7.3/mhw-mulx\libgcc.a(_usi_to_df.o)
 .comment       0x0000000000000000       0x24 c:/develop/altera/14.0/nios2eds/bin/gnu/h-x86_64-mingw32/bin/../lib/gcc/nios2-elf/4.7.3/mhw-mulx\libgcc.a(_clz.o)
 .comment       0x0000000000000000       0x24 c:/develop/altera/14.0/nios2eds/bin/gnu/h-x86_64-mingw32/bin/../lib/gcc/nios2-elf/4.7.3/mhw-mulx\libgcc.a(_clzsi2.o)
 .comment       0x0000000000000000       0x24 c:/develop/altera/14.0/nios2eds/bin/gnu/h-x86_64-mingw32/bin/../lib/gcc/nios2-elf/4.7.3/mhw-mulx\libgcc.a(_pack_df.o)
 .comment       0x0000000000000000       0x24 c:/develop/altera/14.0/nios2eds/bin/gnu/h-x86_64-mingw32/bin/../lib/gcc/nios2-elf/4.7.3/mhw-mulx\libgcc.a(_unpack_df.o)
 .comment       0x0000000000000000       0x24 c:/develop/altera/14.0/nios2eds/bin/gnu/h-x86_64-mingw32/bin/../lib/gcc/nios2-elf/4.7.3/mhw-mulx\libgcc.a(_fpcmp_parts_df.o)
 .comment       0x0000000000000000       0x24 c:/develop/altera/14.0/nios2eds/bin/gnu/h-x86_64-mingw32/bin/../lib/gcc/nios2-elf/4.7.3/mhw-mulx\libgcc.a(_lshrdi3.o)
 .comment       0x0000000000000000       0x24 c:/develop/altera/14.0/nios2eds/bin/gnu/h-x86_64-mingw32/bin/../lib/gcc/nios2-elf/4.7.3/mhw-mulx\libgcc.a(_ashldi3.o)
 .comment       0x0000000000000000       0x24 ../sodalite_filetest_bsp/\libhal_bsp.a(alt_close.o)
 .comment       0x0000000000000000       0x24 ../sodalite_filetest_bsp/\libhal_bsp.a(alt_dev.o)
 .comment       0x0000000000000000       0x24 ../sodalite_filetest_bsp/\libhal_bsp.a(alt_errno.o)
 .comment       0x0000000000000000       0x24 ../sodalite_filetest_bsp/\libhal_bsp.a(alt_fs_reg.o)
 .comment       0x0000000000000000       0x24 ../sodalite_filetest_bsp/\libhal_bsp.a(alt_fstat.o)
 .comment       0x0000000000000000       0x24 ../sodalite_filetest_bsp/\libhal_bsp.a(alt_isatty.o)
 .comment       0x0000000000000000       0x24 ../sodalite_filetest_bsp/\libhal_bsp.a(alt_load.o)
 .comment       0x0000000000000000       0x24 ../sodalite_filetest_bsp/\libhal_bsp.a(alt_lseek.o)
 .comment       0x0000000000000000       0x24 ../sodalite_filetest_bsp/\libhal_bsp.a(alt_main.o)
 .comment       0x0000000000000000       0x24 ../sodalite_filetest_bsp/\libhal_bsp.a(alt_malloc_lock.o)
 .comment       0x0000000000000000       0x24 ../sodalite_filetest_bsp/\libhal_bsp.a(alt_open.o)
 .comment       0x0000000000000000       0x24 ../sodalite_filetest_bsp/\libhal_bsp.a(alt_read.o)
 .comment       0x0000000000000000       0x24 ../sodalite_filetest_bsp/\libhal_bsp.a(alt_release_fd.o)
 .comment       0x0000000000000000       0x24 ../sodalite_filetest_bsp/\libhal_bsp.a(alt_sbrk.o)
 .comment       0x0000000000000000       0x24 ../sodalite_filetest_bsp/\libhal_bsp.a(alt_uncached_malloc.o)
 .comment       0x0000000000000000       0x24 ../sodalite_filetest_bsp/\libhal_bsp.a(alt_usleep.o)
 .comment       0x0000000000000000       0x24 ../sodalite_filetest_bsp/\libhal_bsp.a(alt_write.o)
 .comment       0x0000000000000000       0x24 ../sodalite_filetest_bsp/\libhal_bsp.a(alt_sys_init.o)
 .comment       0x0000000000000000       0x24 ../sodalite_filetest_bsp/\libhal_bsp.a(altera_avalon_jtag_uart_fd.o)
 .comment       0x0000000000000000       0x24 ../sodalite_filetest_bsp/\libhal_bsp.a(altera_avalon_jtag_uart_init.o)
 .comment       0x0000000000000000       0x24 ../sodalite_filetest_bsp/\libhal_bsp.a(altera_avalon_jtag_uart_ioctl.o)
 .comment       0x0000000000000000       0x24 ../sodalite_filetest_bsp/\libhal_bsp.a(altera_avalon_jtag_uart_read.o)
 .comment       0x0000000000000000       0x24 ../sodalite_filetest_bsp/\libhal_bsp.a(altera_avalon_jtag_uart_write.o)
 .comment       0x0000000000000000       0x24 ../sodalite_filetest_bsp/\libhal_bsp.a(altera_avalon_timer_sc.o)
 .comment       0x0000000000000000       0x24 ../sodalite_filetest_bsp/\libhal_bsp.a(altera_modular_adc.o)
 .comment       0x0000000000000000       0x24 ../sodalite_filetest_bsp/\libhal_bsp.a(altera_onchip_flash.o)
 .comment       0x0000000000000000       0x24 ../sodalite_filetest_bsp/\libhal_bsp.a(alt_alarm_start.o)
 .comment       0x0000000000000000       0x24 ../sodalite_filetest_bsp/\libhal_bsp.a(alt_busy_sleep.o)
 .comment       0x0000000000000000       0x24 ../sodalite_filetest_bsp/\libhal_bsp.a(alt_dcache_flush.o)
 .comment       0x0000000000000000       0x24 ../sodalite_filetest_bsp/\libhal_bsp.a(alt_dcache_flush_all.o)
 .comment       0x0000000000000000       0x24 ../sodalite_filetest_bsp/\libhal_bsp.a(alt_dev_llist_insert.o)
 .comment       0x0000000000000000       0x24 ../sodalite_filetest_bsp/\libhal_bsp.a(alt_do_ctors.o)
 .comment       0x0000000000000000       0x24 ../sodalite_filetest_bsp/\libhal_bsp.a(alt_do_dtors.o)
 .comment       0x0000000000000000       0x24 ../sodalite_filetest_bsp/\libhal_bsp.a(alt_find_dev.o)
 .comment       0x0000000000000000       0x24 ../sodalite_filetest_bsp/\libhal_bsp.a(alt_find_file.o)
 .comment       0x0000000000000000       0x24 ../sodalite_filetest_bsp/\libhal_bsp.a(alt_flash_dev.o)
 .comment       0x0000000000000000       0x24 ../sodalite_filetest_bsp/\libhal_bsp.a(alt_get_fd.o)
 .comment       0x0000000000000000       0x24 ../sodalite_filetest_bsp/\libhal_bsp.a(alt_icache_flush_all.o)
 .comment       0x0000000000000000       0x24 ../sodalite_filetest_bsp/\libhal_bsp.a(alt_iic.o)
 .comment       0x0000000000000000       0x24 ../sodalite_filetest_bsp/\libhal_bsp.a(alt_iic_isr_register.o)
 .comment       0x0000000000000000       0x24 ../sodalite_filetest_bsp/\libhal_bsp.a(alt_io_redirect.o)
 .comment       0x0000000000000000       0x24 ../sodalite_filetest_bsp/\libhal_bsp.a(alt_irq_handler.o)
 .comment       0x0000000000000000       0x24 ../sodalite_filetest_bsp/\libhal_bsp.a(alt_irq_vars.o)
 .comment       0x0000000000000000       0x24 ../sodalite_filetest_bsp/\libhal_bsp.a(alt_tick.o)
 .comment       0x0000000000000000       0x24 ../sodalite_filetest_bsp/\libhal_bsp.a(altera_nios2_gen2_irq.o)
 .comment       0x0000000000000000       0x24 ../sodalite_filetest_bsp/\libhal_bsp.a(alt_icache_flush.o)
 .comment       0x0000000000000000       0x24 ../sodalite_filetest_bsp/\libhal_bsp.a(alt_instruction_exception_entry.o)
 .comment       0x0000000000000000       0x24 c:/develop/altera/14.0/nios2eds/bin/gnu/h-x86_64-mingw32/bin/../lib/gcc/nios2-elf/4.7.3/../../../../../H-x86_64-mingw32/nios2-elf/lib/mhw-mulx\libc.a(lib_a-atexit.o)
 .comment       0x0000000000000000       0x24 c:/develop/altera/14.0/nios2eds/bin/gnu/h-x86_64-mingw32/bin/../lib/gcc/nios2-elf/4.7.3/../../../../../H-x86_64-mingw32/nios2-elf/lib/mhw-mulx\libc.a(lib_a-exit.o)
 .comment       0x0000000000000000       0x24 c:/develop/altera/14.0/nios2eds/bin/gnu/h-x86_64-mingw32/bin/../lib/gcc/nios2-elf/4.7.3/../../../../../H-x86_64-mingw32/nios2-elf/lib/mhw-mulx\libc.a(lib_a-malign.o)
 .comment       0x0000000000000000       0x24 c:/develop/altera/14.0/nios2eds/bin/gnu/h-x86_64-mingw32/bin/../lib/gcc/nios2-elf/4.7.3/../../../../../H-x86_64-mingw32/nios2-elf/lib/mhw-mulx\libc.a(lib_a-malignr.o)
 .comment       0x0000000000000000       0x24 c:/develop/altera/14.0/nios2eds/bin/gnu/h-x86_64-mingw32/bin/../lib/gcc/nios2-elf/4.7.3/../../../../../H-x86_64-mingw32/nios2-elf/lib/mhw-mulx\libc.a(lib_a-memcmp.o)
 .comment       0x0000000000000000       0x24 c:/develop/altera/14.0/nios2eds/bin/gnu/h-x86_64-mingw32/bin/../lib/gcc/nios2-elf/4.7.3/../../../../../H-x86_64-mingw32/nios2-elf/lib/mhw-mulx\libc.a(lib_a-__atexit.o)
 .comment       0x0000000000000000       0x24 c:/develop/altera/14.0/nios2eds/bin/gnu/h-x86_64-mingw32/bin/../lib/gcc/nios2-elf/4.7.3/../../../../../H-x86_64-mingw32/nios2-elf/lib/mhw-mulx\libc.a(lib_a-__call_atexit.o)
 .comment       0x0000000000000000       0x24 ../sodalite_filetest_bsp/\libhal_bsp.a(alt_exit.o)

.debug
 *(.debug)

.line
 *(.line)

.debug_srcinfo
 *(.debug_srcinfo)

.debug_sfnames
 *(.debug_sfnames)

.debug_aranges  0x0000000000000000     0x1100
 *(.debug_aranges)
 .debug_aranges
                0x0000000000000000       0x28 ../sodalite_filetest_bsp//obj/HAL/src/crt0.o
 .debug_aranges
                0x0000000000000028       0x28 obj/default/file_test.o
 .debug_aranges
                0x0000000000000050       0x20 obj/default/loadbmp.o
 .debug_aranges
                0x0000000000000070       0x20 obj/default/mmcfs/fatfs/ff.o
 .debug_aranges
                0x0000000000000090       0x20 obj/default/mmcfs/fatfs/mmcbb.o
 .debug_aranges
                0x00000000000000b0       0x20 obj/default/mmcfs/fatfs/option/cc932.o
 .debug_aranges
                0x00000000000000d0       0x20 obj/default/mmcfs/gettime.o
 .debug_aranges
                0x00000000000000f0       0x20 obj/default/mmcfs/mmc_spi.o
 .debug_aranges
                0x0000000000000110       0x20 obj/default/mmcfs/mmcfs.o
 .debug_aranges
                0x0000000000000130       0x18 obj/default/nd_lib/fontx_k12x10.o
 .debug_aranges
                0x0000000000000148       0x18 obj/default/nd_lib/fontx_k6x10.o
 .debug_aranges
                0x0000000000000160       0x20 obj/default/nd_lib/nd_egl.o
 .debug_aranges
                0x0000000000000180       0x20 obj/default/testuty.o
 .debug_aranges
                0x00000000000001a0       0x20 c:/develop/altera/14.0/nios2eds/bin/gnu/h-x86_64-mingw32/bin/../lib/gcc/nios2-elf/4.7.3/mhw-mulx\libgcc.a(lib2-divmod.o)
 .debug_aranges
                0x00000000000001c0       0x20 c:/develop/altera/14.0/nios2eds/bin/gnu/h-x86_64-mingw32/bin/../lib/gcc/nios2-elf/4.7.3/../../../../../H-x86_64-mingw32/nios2-elf/lib/mhw-mulx\libc.a(lib_a-fclose.o)
 .debug_aranges
                0x00000000000001e0       0x20 c:/develop/altera/14.0/nios2eds/bin/gnu/h-x86_64-mingw32/bin/../lib/gcc/nios2-elf/4.7.3/../../../../../H-x86_64-mingw32/nios2-elf/lib/mhw-mulx\libc.a(lib_a-fflush.o)
 .debug_aranges
                0x0000000000000200       0x20 c:/develop/altera/14.0/nios2eds/bin/gnu/h-x86_64-mingw32/bin/../lib/gcc/nios2-elf/4.7.3/../../../../../H-x86_64-mingw32/nios2-elf/lib/mhw-mulx\libc.a(lib_a-findfp.o)
 .debug_aranges
                0x0000000000000220       0x20 c:/develop/altera/14.0/nios2eds/bin/gnu/h-x86_64-mingw32/bin/../lib/gcc/nios2-elf/4.7.3/../../../../../H-x86_64-mingw32/nios2-elf/lib/mhw-mulx\libc.a(lib_a-fopen.o)
 .debug_aranges
                0x0000000000000240       0x20 c:/develop/altera/14.0/nios2eds/bin/gnu/h-x86_64-mingw32/bin/../lib/gcc/nios2-elf/4.7.3/../../../../../H-x86_64-mingw32/nios2-elf/lib/mhw-mulx\libc.a(lib_a-fread.o)
 .debug_aranges
                0x0000000000000260       0x20 c:/develop/altera/14.0/nios2eds/bin/gnu/h-x86_64-mingw32/bin/../lib/gcc/nios2-elf/4.7.3/../../../../../H-x86_64-mingw32/nios2-elf/lib/mhw-mulx\libc.a(lib_a-freer.o)
 .debug_aranges
                0x0000000000000280       0x20 c:/develop/altera/14.0/nios2eds/bin/gnu/h-x86_64-mingw32/bin/../lib/gcc/nios2-elf/4.7.3/../../../../../H-x86_64-mingw32/nios2-elf/lib/mhw-mulx\libc.a(lib_a-fseek.o)
 .debug_aranges
                0x00000000000002a0       0x20 c:/develop/altera/14.0/nios2eds/bin/gnu/h-x86_64-mingw32/bin/../lib/gcc/nios2-elf/4.7.3/../../../../../H-x86_64-mingw32/nios2-elf/lib/mhw-mulx\libc.a(lib_a-fstatr.o)
 .debug_aranges
                0x00000000000002c0       0x20 c:/develop/altera/14.0/nios2eds/bin/gnu/h-x86_64-mingw32/bin/../lib/gcc/nios2-elf/4.7.3/../../../../../H-x86_64-mingw32/nios2-elf/lib/mhw-mulx\libc.a(lib_a-fwalk.o)
 .debug_aranges
                0x00000000000002e0       0x18 c:/develop/altera/14.0/nios2eds/bin/gnu/h-x86_64-mingw32/bin/../lib/gcc/nios2-elf/4.7.3/../../../../../H-x86_64-mingw32/nios2-elf/lib/mhw-mulx\libc.a(lib_a-impure.o)
 .debug_aranges
                0x00000000000002f8       0x18 c:/develop/altera/14.0/nios2eds/bin/gnu/h-x86_64-mingw32/bin/../lib/gcc/nios2-elf/4.7.3/../../../../../H-x86_64-mingw32/nios2-elf/lib/mhw-mulx\libc.a(lib_a-int_errno.o)
 .debug_aranges
                0x0000000000000310       0x20 c:/develop/altera/14.0/nios2eds/bin/gnu/h-x86_64-mingw32/bin/../lib/gcc/nios2-elf/4.7.3/../../../../../H-x86_64-mingw32/nios2-elf/lib/mhw-mulx\libc.a(lib_a-makebuf.o)
 .debug_aranges
                0x0000000000000330       0x20 c:/develop/altera/14.0/nios2eds/bin/gnu/h-x86_64-mingw32/bin/../lib/gcc/nios2-elf/4.7.3/../../../../../H-x86_64-mingw32/nios2-elf/lib/mhw-mulx\libc.a(lib_a-mallocr.o)
 .debug_aranges
                0x0000000000000350       0x20 c:/develop/altera/14.0/nios2eds/bin/gnu/h-x86_64-mingw32/bin/../lib/gcc/nios2-elf/4.7.3/../../../../../H-x86_64-mingw32/nios2-elf/lib/mhw-mulx\libc.a(lib_a-memcpy.o)
 .debug_aranges
                0x0000000000000370       0x20 c:/develop/altera/14.0/nios2eds/bin/gnu/h-x86_64-mingw32/bin/../lib/gcc/nios2-elf/4.7.3/../../../../../H-x86_64-mingw32/nios2-elf/lib/mhw-mulx\libc.a(lib_a-memset.o)
 .debug_aranges
                0x0000000000000390       0x20 c:/develop/altera/14.0/nios2eds/bin/gnu/h-x86_64-mingw32/bin/../lib/gcc/nios2-elf/4.7.3/../../../../../H-x86_64-mingw32/nios2-elf/lib/mhw-mulx\libc.a(lib_a-openr.o)
 .debug_aranges
                0x00000000000003b0       0x20 c:/develop/altera/14.0/nios2eds/bin/gnu/h-x86_64-mingw32/bin/../lib/gcc/nios2-elf/4.7.3/../../../../../H-x86_64-mingw32/nios2-elf/lib/mhw-mulx\libc.a(lib_a-printf.o)
 .debug_aranges
                0x00000000000003d0       0x20 c:/develop/altera/14.0/nios2eds/bin/gnu/h-x86_64-mingw32/bin/../lib/gcc/nios2-elf/4.7.3/../../../../../H-x86_64-mingw32/nios2-elf/lib/mhw-mulx\libc.a(lib_a-putchar.o)
 .debug_aranges
                0x00000000000003f0       0x20 c:/develop/altera/14.0/nios2eds/bin/gnu/h-x86_64-mingw32/bin/../lib/gcc/nios2-elf/4.7.3/../../../../../H-x86_64-mingw32/nios2-elf/lib/mhw-mulx\libc.a(lib_a-puts.o)
 .debug_aranges
                0x0000000000000410       0x20 c:/develop/altera/14.0/nios2eds/bin/gnu/h-x86_64-mingw32/bin/../lib/gcc/nios2-elf/4.7.3/../../../../../H-x86_64-mingw32/nios2-elf/lib/mhw-mulx\libc.a(lib_a-refill.o)
 .debug_aranges
                0x0000000000000430       0x20 c:/develop/altera/14.0/nios2eds/bin/gnu/h-x86_64-mingw32/bin/../lib/gcc/nios2-elf/4.7.3/../../../../../H-x86_64-mingw32/nios2-elf/lib/mhw-mulx\libc.a(lib_a-sbrkr.o)
 .debug_aranges
                0x0000000000000450       0x20 c:/develop/altera/14.0/nios2eds/bin/gnu/h-x86_64-mingw32/bin/../lib/gcc/nios2-elf/4.7.3/../../../../../H-x86_64-mingw32/nios2-elf/lib/mhw-mulx\libc.a(lib_a-stdio.o)
 .debug_aranges
                0x0000000000000470       0x20 c:/develop/altera/14.0/nios2eds/bin/gnu/h-x86_64-mingw32/bin/../lib/gcc/nios2-elf/4.7.3/../../../../../H-x86_64-mingw32/nios2-elf/lib/mhw-mulx\libc.a(lib_a-strlen.o)
 .debug_aranges
                0x0000000000000490       0x20 c:/develop/altera/14.0/nios2eds/bin/gnu/h-x86_64-mingw32/bin/../lib/gcc/nios2-elf/4.7.3/../../../../../H-x86_64-mingw32/nios2-elf/lib/mhw-mulx\libc.a(lib_a-vfprintf.o)
 .debug_aranges
                0x00000000000004b0       0x20 c:/develop/altera/14.0/nios2eds/bin/gnu/h-x86_64-mingw32/bin/../lib/gcc/nios2-elf/4.7.3/../../../../../H-x86_64-mingw32/nios2-elf/lib/mhw-mulx\libc.a(lib_a-writer.o)
 .debug_aranges
                0x00000000000004d0       0x20 c:/develop/altera/14.0/nios2eds/bin/gnu/h-x86_64-mingw32/bin/../lib/gcc/nios2-elf/4.7.3/../../../../../H-x86_64-mingw32/nios2-elf/lib/mhw-mulx\libc.a(lib_a-wsetup.o)
 .debug_aranges
                0x00000000000004f0       0x20 c:/develop/altera/14.0/nios2eds/bin/gnu/h-x86_64-mingw32/bin/../lib/gcc/nios2-elf/4.7.3/../../../../../H-x86_64-mingw32/nios2-elf/lib/mhw-mulx\libc.a(lib_a-closer.o)
 .debug_aranges
                0x0000000000000510       0x20 c:/develop/altera/14.0/nios2eds/bin/gnu/h-x86_64-mingw32/bin/../lib/gcc/nios2-elf/4.7.3/../../../../../H-x86_64-mingw32/nios2-elf/lib/mhw-mulx\libc.a(lib_a-dtoa.o)
 .debug_aranges
                0x0000000000000530       0x20 c:/develop/altera/14.0/nios2eds/bin/gnu/h-x86_64-mingw32/bin/../lib/gcc/nios2-elf/4.7.3/../../../../../H-x86_64-mingw32/nios2-elf/lib/mhw-mulx\libc.a(lib_a-flags.o)
 .debug_aranges
                0x0000000000000550       0x20 c:/develop/altera/14.0/nios2eds/bin/gnu/h-x86_64-mingw32/bin/../lib/gcc/nios2-elf/4.7.3/../../../../../H-x86_64-mingw32/nios2-elf/lib/mhw-mulx\libc.a(lib_a-fvwrite.o)
 .debug_aranges
                0x0000000000000570       0x20 c:/develop/altera/14.0/nios2eds/bin/gnu/h-x86_64-mingw32/bin/../lib/gcc/nios2-elf/4.7.3/../../../../../H-x86_64-mingw32/nios2-elf/lib/mhw-mulx\libc.a(lib_a-isattyr.o)
 .debug_aranges
                0x0000000000000590       0x20 c:/develop/altera/14.0/nios2eds/bin/gnu/h-x86_64-mingw32/bin/../lib/gcc/nios2-elf/4.7.3/../../../../../H-x86_64-mingw32/nios2-elf/lib/mhw-mulx\libc.a(lib_a-locale.o)
 .debug_aranges
                0x00000000000005b0       0x20 c:/develop/altera/14.0/nios2eds/bin/gnu/h-x86_64-mingw32/bin/../lib/gcc/nios2-elf/4.7.3/../../../../../H-x86_64-mingw32/nios2-elf/lib/mhw-mulx\libc.a(lib_a-lseekr.o)
 .debug_aranges
                0x00000000000005d0       0x20 c:/develop/altera/14.0/nios2eds/bin/gnu/h-x86_64-mingw32/bin/../lib/gcc/nios2-elf/4.7.3/../../../../../H-x86_64-mingw32/nios2-elf/lib/mhw-mulx\libc.a(lib_a-memchr.o)
 .debug_aranges
                0x00000000000005f0       0x20 c:/develop/altera/14.0/nios2eds/bin/gnu/h-x86_64-mingw32/bin/../lib/gcc/nios2-elf/4.7.3/../../../../../H-x86_64-mingw32/nios2-elf/lib/mhw-mulx\libc.a(lib_a-memmove.o)
 .debug_aranges
                0x0000000000000610       0x20 c:/develop/altera/14.0/nios2eds/bin/gnu/h-x86_64-mingw32/bin/../lib/gcc/nios2-elf/4.7.3/../../../../../H-x86_64-mingw32/nios2-elf/lib/mhw-mulx\libc.a(lib_a-mprec.o)
 .debug_aranges
                0x0000000000000630       0x20 c:/develop/altera/14.0/nios2eds/bin/gnu/h-x86_64-mingw32/bin/../lib/gcc/nios2-elf/4.7.3/../../../../../H-x86_64-mingw32/nios2-elf/lib/mhw-mulx\libc.a(lib_a-putc.o)
 .debug_aranges
                0x0000000000000650       0x20 c:/develop/altera/14.0/nios2eds/bin/gnu/h-x86_64-mingw32/bin/../lib/gcc/nios2-elf/4.7.3/../../../../../H-x86_64-mingw32/nios2-elf/lib/mhw-mulx\libc.a(lib_a-readr.o)
 .debug_aranges
                0x0000000000000670       0x20 c:/develop/altera/14.0/nios2eds/bin/gnu/h-x86_64-mingw32/bin/../lib/gcc/nios2-elf/4.7.3/../../../../../H-x86_64-mingw32/nios2-elf/lib/mhw-mulx\libc.a(lib_a-reallocr.o)
 .debug_aranges
                0x0000000000000690       0x20 c:/develop/altera/14.0/nios2eds/bin/gnu/h-x86_64-mingw32/bin/../lib/gcc/nios2-elf/4.7.3/../../../../../H-x86_64-mingw32/nios2-elf/lib/mhw-mulx\libc.a(lib_a-s_isinfd.o)
 .debug_aranges
                0x00000000000006b0       0x20 c:/develop/altera/14.0/nios2eds/bin/gnu/h-x86_64-mingw32/bin/../lib/gcc/nios2-elf/4.7.3/../../../../../H-x86_64-mingw32/nios2-elf/lib/mhw-mulx\libc.a(lib_a-s_isnand.o)
 .debug_aranges
                0x00000000000006d0       0x20 c:/develop/altera/14.0/nios2eds/bin/gnu/h-x86_64-mingw32/bin/../lib/gcc/nios2-elf/4.7.3/../../../../../H-x86_64-mingw32/nios2-elf/lib/mhw-mulx\libc.a(lib_a-strcmp.o)
 .debug_aranges
                0x00000000000006f0       0x20 c:/develop/altera/14.0/nios2eds/bin/gnu/h-x86_64-mingw32/bin/../lib/gcc/nios2-elf/4.7.3/../../../../../H-x86_64-mingw32/nios2-elf/lib/mhw-mulx\libc.a(lib_a-wbuf.o)
 .debug_aranges
                0x0000000000000710       0x20 c:/develop/altera/14.0/nios2eds/bin/gnu/h-x86_64-mingw32/bin/../lib/gcc/nios2-elf/4.7.3/../../../../../H-x86_64-mingw32/nios2-elf/lib/mhw-mulx\libc.a(lib_a-callocr.o)
 .debug_aranges
                0x0000000000000730       0x20 c:/develop/altera/14.0/nios2eds/bin/gnu/h-x86_64-mingw32/bin/../lib/gcc/nios2-elf/4.7.3/mhw-mulx\libgcc.a(_udivdi3.o)
 .debug_aranges
                0x0000000000000750       0x20 c:/develop/altera/14.0/nios2eds/bin/gnu/h-x86_64-mingw32/bin/../lib/gcc/nios2-elf/4.7.3/mhw-mulx\libgcc.a(_umoddi3.o)
 .debug_aranges
                0x0000000000000770       0x20 c:/develop/altera/14.0/nios2eds/bin/gnu/h-x86_64-mingw32/bin/../lib/gcc/nios2-elf/4.7.3/mhw-mulx\libgcc.a(_addsub_df.o)
 .debug_aranges
                0x0000000000000790       0x20 c:/develop/altera/14.0/nios2eds/bin/gnu/h-x86_64-mingw32/bin/../lib/gcc/nios2-elf/4.7.3/mhw-mulx\libgcc.a(_mul_df.o)
 .debug_aranges
                0x00000000000007b0       0x20 c:/develop/altera/14.0/nios2eds/bin/gnu/h-x86_64-mingw32/bin/../lib/gcc/nios2-elf/4.7.3/mhw-mulx\libgcc.a(_div_df.o)
 .debug_aranges
                0x00000000000007d0       0x20 c:/develop/altera/14.0/nios2eds/bin/gnu/h-x86_64-mingw32/bin/../lib/gcc/nios2-elf/4.7.3/mhw-mulx\libgcc.a(_eq_df.o)
 .debug_aranges
                0x00000000000007f0       0x20 c:/develop/altera/14.0/nios2eds/bin/gnu/h-x86_64-mingw32/bin/../lib/gcc/nios2-elf/4.7.3/mhw-mulx\libgcc.a(_ne_df.o)
 .debug_aranges
                0x0000000000000810       0x20 c:/develop/altera/14.0/nios2eds/bin/gnu/h-x86_64-mingw32/bin/../lib/gcc/nios2-elf/4.7.3/mhw-mulx\libgcc.a(_gt_df.o)
 .debug_aranges
                0x0000000000000830       0x20 c:/develop/altera/14.0/nios2eds/bin/gnu/h-x86_64-mingw32/bin/../lib/gcc/nios2-elf/4.7.3/mhw-mulx\libgcc.a(_ge_df.o)
 .debug_aranges
                0x0000000000000850       0x20 c:/develop/altera/14.0/nios2eds/bin/gnu/h-x86_64-mingw32/bin/../lib/gcc/nios2-elf/4.7.3/mhw-mulx\libgcc.a(_lt_df.o)
 .debug_aranges
                0x0000000000000870       0x20 c:/develop/altera/14.0/nios2eds/bin/gnu/h-x86_64-mingw32/bin/../lib/gcc/nios2-elf/4.7.3/mhw-mulx\libgcc.a(_si_to_df.o)
 .debug_aranges
                0x0000000000000890       0x20 c:/develop/altera/14.0/nios2eds/bin/gnu/h-x86_64-mingw32/bin/../lib/gcc/nios2-elf/4.7.3/mhw-mulx\libgcc.a(_df_to_si.o)
 .debug_aranges
                0x00000000000008b0       0x18 c:/develop/altera/14.0/nios2eds/bin/gnu/h-x86_64-mingw32/bin/../lib/gcc/nios2-elf/4.7.3/mhw-mulx\libgcc.a(_thenan_df.o)
 .debug_aranges
                0x00000000000008c8       0x20 c:/develop/altera/14.0/nios2eds/bin/gnu/h-x86_64-mingw32/bin/../lib/gcc/nios2-elf/4.7.3/mhw-mulx\libgcc.a(_usi_to_df.o)
 .debug_aranges
                0x00000000000008e8       0x18 c:/develop/altera/14.0/nios2eds/bin/gnu/h-x86_64-mingw32/bin/../lib/gcc/nios2-elf/4.7.3/mhw-mulx\libgcc.a(_clz.o)
 .debug_aranges
                0x0000000000000900       0x20 c:/develop/altera/14.0/nios2eds/bin/gnu/h-x86_64-mingw32/bin/../lib/gcc/nios2-elf/4.7.3/mhw-mulx\libgcc.a(_clzsi2.o)
 .debug_aranges
                0x0000000000000920       0x20 c:/develop/altera/14.0/nios2eds/bin/gnu/h-x86_64-mingw32/bin/../lib/gcc/nios2-elf/4.7.3/mhw-mulx\libgcc.a(_pack_df.o)
 .debug_aranges
                0x0000000000000940       0x20 c:/develop/altera/14.0/nios2eds/bin/gnu/h-x86_64-mingw32/bin/../lib/gcc/nios2-elf/4.7.3/mhw-mulx\libgcc.a(_unpack_df.o)
 .debug_aranges
                0x0000000000000960       0x20 c:/develop/altera/14.0/nios2eds/bin/gnu/h-x86_64-mingw32/bin/../lib/gcc/nios2-elf/4.7.3/mhw-mulx\libgcc.a(_fpcmp_parts_df.o)
 .debug_aranges
                0x0000000000000980       0x20 c:/develop/altera/14.0/nios2eds/bin/gnu/h-x86_64-mingw32/bin/../lib/gcc/nios2-elf/4.7.3/mhw-mulx\libgcc.a(_lshrdi3.o)
 .debug_aranges
                0x00000000000009a0       0x20 c:/develop/altera/14.0/nios2eds/bin/gnu/h-x86_64-mingw32/bin/../lib/gcc/nios2-elf/4.7.3/mhw-mulx\libgcc.a(_ashldi3.o)
 .debug_aranges
                0x00000000000009c0       0x20 ../sodalite_filetest_bsp/\libhal_bsp.a(alt_close.o)
 .debug_aranges
                0x00000000000009e0       0x20 ../sodalite_filetest_bsp/\libhal_bsp.a(alt_dev.o)
 .debug_aranges
                0x0000000000000a00       0x18 ../sodalite_filetest_bsp/\libhal_bsp.a(alt_errno.o)
 .debug_aranges
                0x0000000000000a18       0x20 ../sodalite_filetest_bsp/\libhal_bsp.a(alt_fs_reg.o)
 .debug_aranges
                0x0000000000000a38       0x20 ../sodalite_filetest_bsp/\libhal_bsp.a(alt_fstat.o)
 .debug_aranges
                0x0000000000000a58       0x20 ../sodalite_filetest_bsp/\libhal_bsp.a(alt_isatty.o)
 .debug_aranges
                0x0000000000000a78       0x20 ../sodalite_filetest_bsp/\libhal_bsp.a(alt_load.o)
 .debug_aranges
                0x0000000000000a98       0x20 ../sodalite_filetest_bsp/\libhal_bsp.a(alt_lseek.o)
 .debug_aranges
                0x0000000000000ab8       0x20 ../sodalite_filetest_bsp/\libhal_bsp.a(alt_main.o)
 .debug_aranges
                0x0000000000000ad8       0x20 ../sodalite_filetest_bsp/\libhal_bsp.a(alt_malloc_lock.o)
 .debug_aranges
                0x0000000000000af8       0x20 ../sodalite_filetest_bsp/\libhal_bsp.a(alt_open.o)
 .debug_aranges
                0x0000000000000b18       0x20 ../sodalite_filetest_bsp/\libhal_bsp.a(alt_read.o)
 .debug_aranges
                0x0000000000000b38       0x20 ../sodalite_filetest_bsp/\libhal_bsp.a(alt_release_fd.o)
 .debug_aranges
                0x0000000000000b58       0x20 ../sodalite_filetest_bsp/\libhal_bsp.a(alt_sbrk.o)
 .debug_aranges
                0x0000000000000b78       0x20 ../sodalite_filetest_bsp/\libhal_bsp.a(alt_uncached_malloc.o)
 .debug_aranges
                0x0000000000000b98       0x20 ../sodalite_filetest_bsp/\libhal_bsp.a(alt_usleep.o)
 .debug_aranges
                0x0000000000000bb8       0x20 ../sodalite_filetest_bsp/\libhal_bsp.a(alt_write.o)
 .debug_aranges
                0x0000000000000bd8       0x20 ../sodalite_filetest_bsp/\libhal_bsp.a(alt_sys_init.o)
 .debug_aranges
                0x0000000000000bf8       0x20 ../sodalite_filetest_bsp/\libhal_bsp.a(altera_avalon_jtag_uart_fd.o)
 .debug_aranges
                0x0000000000000c18       0x20 ../sodalite_filetest_bsp/\libhal_bsp.a(altera_avalon_jtag_uart_init.o)
 .debug_aranges
                0x0000000000000c38       0x20 ../sodalite_filetest_bsp/\libhal_bsp.a(altera_avalon_jtag_uart_ioctl.o)
 .debug_aranges
                0x0000000000000c58       0x20 ../sodalite_filetest_bsp/\libhal_bsp.a(altera_avalon_jtag_uart_read.o)
 .debug_aranges
                0x0000000000000c78       0x20 ../sodalite_filetest_bsp/\libhal_bsp.a(altera_avalon_jtag_uart_write.o)
 .debug_aranges
                0x0000000000000c98       0x20 ../sodalite_filetest_bsp/\libhal_bsp.a(altera_avalon_timer_sc.o)
 .debug_aranges
                0x0000000000000cb8       0x20 ../sodalite_filetest_bsp/\libhal_bsp.a(altera_modular_adc.o)
 .debug_aranges
                0x0000000000000cd8       0x20 ../sodalite_filetest_bsp/\libhal_bsp.a(altera_onchip_flash.o)
 .debug_aranges
                0x0000000000000cf8       0x20 ../sodalite_filetest_bsp/\libhal_bsp.a(alt_alarm_start.o)
 .debug_aranges
                0x0000000000000d18       0x20 ../sodalite_filetest_bsp/\libhal_bsp.a(alt_busy_sleep.o)
 .debug_aranges
                0x0000000000000d38       0x20 ../sodalite_filetest_bsp/\libhal_bsp.a(alt_dcache_flush.o)
 .debug_aranges
                0x0000000000000d58       0x20 ../sodalite_filetest_bsp/\libhal_bsp.a(alt_dcache_flush_all.o)
 .debug_aranges
                0x0000000000000d78       0x20 ../sodalite_filetest_bsp/\libhal_bsp.a(alt_dev_llist_insert.o)
 .debug_aranges
                0x0000000000000d98       0x20 ../sodalite_filetest_bsp/\libhal_bsp.a(alt_do_ctors.o)
 .debug_aranges
                0x0000000000000db8       0x20 ../sodalite_filetest_bsp/\libhal_bsp.a(alt_do_dtors.o)
 .debug_aranges
                0x0000000000000dd8       0x20 ../sodalite_filetest_bsp/\libhal_bsp.a(alt_find_dev.o)
 .debug_aranges
                0x0000000000000df8       0x20 ../sodalite_filetest_bsp/\libhal_bsp.a(alt_find_file.o)
 .debug_aranges
                0x0000000000000e18       0x20 ../sodalite_filetest_bsp/\libhal_bsp.a(alt_flash_dev.o)
 .debug_aranges
                0x0000000000000e38       0x20 ../sodalite_filetest_bsp/\libhal_bsp.a(alt_get_fd.o)
 .debug_aranges
                0x0000000000000e58       0x20 ../sodalite_filetest_bsp/\libhal_bsp.a(alt_icache_flush_all.o)
 .debug_aranges
                0x0000000000000e78       0x20 ../sodalite_filetest_bsp/\libhal_bsp.a(alt_iic.o)
 .debug_aranges
                0x0000000000000e98       0x20 ../sodalite_filetest_bsp/\libhal_bsp.a(alt_iic_isr_register.o)
 .debug_aranges
                0x0000000000000eb8       0x20 ../sodalite_filetest_bsp/\libhal_bsp.a(alt_io_redirect.o)
 .debug_aranges
                0x0000000000000ed8       0x30 ../sodalite_filetest_bsp/\libhal_bsp.a(alt_irq_entry.o)
 .debug_aranges
                0x0000000000000f08       0x20 ../sodalite_filetest_bsp/\libhal_bsp.a(alt_irq_handler.o)
 .debug_aranges
                0x0000000000000f28       0x18 ../sodalite_filetest_bsp/\libhal_bsp.a(alt_irq_vars.o)
 .debug_aranges
                0x0000000000000f40       0x20 ../sodalite_filetest_bsp/\libhal_bsp.a(alt_tick.o)
 .debug_aranges
                0x0000000000000f60       0x20 ../sodalite_filetest_bsp/\libhal_bsp.a(altera_nios2_gen2_irq.o)
 .debug_aranges
                0x0000000000000f80       0x38 ../sodalite_filetest_bsp/\libhal_bsp.a(alt_exception_entry.o)
 .debug_aranges
                0x0000000000000fb8       0x20 ../sodalite_filetest_bsp/\libhal_bsp.a(alt_icache_flush.o)
 .debug_aranges
                0x0000000000000fd8       0x28 ../sodalite_filetest_bsp/\libhal_bsp.a(alt_instruction_exception_entry.o)
 .debug_aranges
                0x0000000000001000       0x20 c:/develop/altera/14.0/nios2eds/bin/gnu/h-x86_64-mingw32/bin/../lib/gcc/nios2-elf/4.7.3/../../../../../H-x86_64-mingw32/nios2-elf/lib/mhw-mulx\libc.a(lib_a-atexit.o)
 .debug_aranges
                0x0000000000001020       0x20 c:/develop/altera/14.0/nios2eds/bin/gnu/h-x86_64-mingw32/bin/../lib/gcc/nios2-elf/4.7.3/../../../../../H-x86_64-mingw32/nios2-elf/lib/mhw-mulx\libc.a(lib_a-exit.o)
 .debug_aranges
                0x0000000000001040       0x20 c:/develop/altera/14.0/nios2eds/bin/gnu/h-x86_64-mingw32/bin/../lib/gcc/nios2-elf/4.7.3/../../../../../H-x86_64-mingw32/nios2-elf/lib/mhw-mulx\libc.a(lib_a-malign.o)
 .debug_aranges
                0x0000000000001060       0x20 c:/develop/altera/14.0/nios2eds/bin/gnu/h-x86_64-mingw32/bin/../lib/gcc/nios2-elf/4.7.3/../../../../../H-x86_64-mingw32/nios2-elf/lib/mhw-mulx\libc.a(lib_a-malignr.o)
 .debug_aranges
                0x0000000000001080       0x20 c:/develop/altera/14.0/nios2eds/bin/gnu/h-x86_64-mingw32/bin/../lib/gcc/nios2-elf/4.7.3/../../../../../H-x86_64-mingw32/nios2-elf/lib/mhw-mulx\libc.a(lib_a-memcmp.o)
 .debug_aranges
                0x00000000000010a0       0x20 c:/develop/altera/14.0/nios2eds/bin/gnu/h-x86_64-mingw32/bin/../lib/gcc/nios2-elf/4.7.3/../../../../../H-x86_64-mingw32/nios2-elf/lib/mhw-mulx\libc.a(lib_a-__atexit.o)
 .debug_aranges
                0x00000000000010c0       0x20 c:/develop/altera/14.0/nios2eds/bin/gnu/h-x86_64-mingw32/bin/../lib/gcc/nios2-elf/4.7.3/../../../../../H-x86_64-mingw32/nios2-elf/lib/mhw-mulx\libc.a(lib_a-__call_atexit.o)
 .debug_aranges
                0x00000000000010e0       0x20 ../sodalite_filetest_bsp/\libhal_bsp.a(alt_exit.o)

.debug_pubnames
 *(.debug_pubnames)

.debug_info     0x0000000000000000    0x34891
 *(.debug_info .gnu.linkonce.wi.*)
 .debug_info    0x0000000000000000       0x80 ../sodalite_filetest_bsp//obj/HAL/src/crt0.o
 .debug_info    0x0000000000000080      0x4cb obj/default/file_test.o
 .debug_info    0x000000000000054b      0xc91 obj/default/loadbmp.o
 .debug_info    0x00000000000011dc     0x30c9 obj/default/mmcfs/fatfs/ff.o
 .debug_info    0x00000000000042a5      0xc3d obj/default/mmcfs/fatfs/mmcbb.o
 .debug_info    0x0000000000004ee2      0x1d0 obj/default/mmcfs/fatfs/option/cc932.o
 .debug_info    0x00000000000050b2       0x9e obj/default/mmcfs/gettime.o
 .debug_info    0x0000000000005150      0x2dd obj/default/mmcfs/mmc_spi.o
 .debug_info    0x000000000000542d      0xc6d obj/default/mmcfs/mmcfs.o
 .debug_info    0x000000000000609a       0x56 obj/default/nd_lib/fontx_k12x10.o
 .debug_info    0x00000000000060f0       0x54 obj/default/nd_lib/fontx_k6x10.o
 .debug_info    0x0000000000006144      0xfcf obj/default/nd_lib/nd_egl.o
 .debug_info    0x0000000000007113      0xc12 obj/default/testuty.o
 .debug_info    0x0000000000007d25      0x289 c:/develop/altera/14.0/nios2eds/bin/gnu/h-x86_64-mingw32/bin/../lib/gcc/nios2-elf/4.7.3/mhw-mulx\libgcc.a(lib2-divmod.o)
 .debug_info    0x0000000000007fae      0xa97 c:/develop/altera/14.0/nios2eds/bin/gnu/h-x86_64-mingw32/bin/../lib/gcc/nios2-elf/4.7.3/../../../../../H-x86_64-mingw32/nios2-elf/lib/mhw-mulx\libc.a(lib_a-fclose.o)
 .debug_info    0x0000000000008a45      0xad0 c:/develop/altera/14.0/nios2eds/bin/gnu/h-x86_64-mingw32/bin/../lib/gcc/nios2-elf/4.7.3/../../../../../H-x86_64-mingw32/nios2-elf/lib/mhw-mulx\libc.a(lib_a-fflush.o)
 .debug_info    0x0000000000009515      0xd6f c:/develop/altera/14.0/nios2eds/bin/gnu/h-x86_64-mingw32/bin/../lib/gcc/nios2-elf/4.7.3/../../../../../H-x86_64-mingw32/nios2-elf/lib/mhw-mulx\libc.a(lib_a-findfp.o)
 .debug_info    0x000000000000a284      0xb24 c:/develop/altera/14.0/nios2eds/bin/gnu/h-x86_64-mingw32/bin/../lib/gcc/nios2-elf/4.7.3/../../../../../H-x86_64-mingw32/nios2-elf/lib/mhw-mulx\libc.a(lib_a-fopen.o)
 .debug_info    0x000000000000ada8      0xbb3 c:/develop/altera/14.0/nios2eds/bin/gnu/h-x86_64-mingw32/bin/../lib/gcc/nios2-elf/4.7.3/../../../../../H-x86_64-mingw32/nios2-elf/lib/mhw-mulx\libc.a(lib_a-fread.o)
 .debug_info    0x000000000000b95b      0xcf9 c:/develop/altera/14.0/nios2eds/bin/gnu/h-x86_64-mingw32/bin/../lib/gcc/nios2-elf/4.7.3/../../../../../H-x86_64-mingw32/nios2-elf/lib/mhw-mulx\libc.a(lib_a-freer.o)
 .debug_info    0x000000000000c654      0xe08 c:/develop/altera/14.0/nios2eds/bin/gnu/h-x86_64-mingw32/bin/../lib/gcc/nios2-elf/4.7.3/../../../../../H-x86_64-mingw32/nios2-elf/lib/mhw-mulx\libc.a(lib_a-fseek.o)
 .debug_info    0x000000000000d45c      0xb2f c:/develop/altera/14.0/nios2eds/bin/gnu/h-x86_64-mingw32/bin/../lib/gcc/nios2-elf/4.7.3/../../../../../H-x86_64-mingw32/nios2-elf/lib/mhw-mulx\libc.a(lib_a-fstatr.o)
 .debug_info    0x000000000000df8b      0xb72 c:/develop/altera/14.0/nios2eds/bin/gnu/h-x86_64-mingw32/bin/../lib/gcc/nios2-elf/4.7.3/../../../../../H-x86_64-mingw32/nios2-elf/lib/mhw-mulx\libc.a(lib_a-fwalk.o)
 .debug_info    0x000000000000eafd      0x938 c:/develop/altera/14.0/nios2eds/bin/gnu/h-x86_64-mingw32/bin/../lib/gcc/nios2-elf/4.7.3/../../../../../H-x86_64-mingw32/nios2-elf/lib/mhw-mulx\libc.a(lib_a-impure.o)
 .debug_info    0x000000000000f435       0x84 c:/develop/altera/14.0/nios2eds/bin/gnu/h-x86_64-mingw32/bin/../lib/gcc/nios2-elf/4.7.3/../../../../../H-x86_64-mingw32/nios2-elf/lib/mhw-mulx\libc.a(lib_a-int_errno.o)
 .debug_info    0x000000000000f4b9      0xbc2 c:/develop/altera/14.0/nios2eds/bin/gnu/h-x86_64-mingw32/bin/../lib/gcc/nios2-elf/4.7.3/../../../../../H-x86_64-mingw32/nios2-elf/lib/mhw-mulx\libc.a(lib_a-makebuf.o)
 .debug_info    0x000000000001007b      0xe44 c:/develop/altera/14.0/nios2eds/bin/gnu/h-x86_64-mingw32/bin/../lib/gcc/nios2-elf/4.7.3/../../../../../H-x86_64-mingw32/nios2-elf/lib/mhw-mulx\libc.a(lib_a-mallocr.o)
 .debug_info    0x0000000000010ebf      0x10e c:/develop/altera/14.0/nios2eds/bin/gnu/h-x86_64-mingw32/bin/../lib/gcc/nios2-elf/4.7.3/../../../../../H-x86_64-mingw32/nios2-elf/lib/mhw-mulx\libc.a(lib_a-memcpy.o)
 .debug_info    0x0000000000010fcd      0x117 c:/develop/altera/14.0/nios2eds/bin/gnu/h-x86_64-mingw32/bin/../lib/gcc/nios2-elf/4.7.3/../../../../../H-x86_64-mingw32/nios2-elf/lib/mhw-mulx\libc.a(lib_a-memset.o)
 .debug_info    0x00000000000110e4      0x9b2 c:/develop/altera/14.0/nios2eds/bin/gnu/h-x86_64-mingw32/bin/../lib/gcc/nios2-elf/4.7.3/../../../../../H-x86_64-mingw32/nios2-elf/lib/mhw-mulx\libc.a(lib_a-openr.o)
 .debug_info    0x0000000000011a96      0xa6c c:/develop/altera/14.0/nios2eds/bin/gnu/h-x86_64-mingw32/bin/../lib/gcc/nios2-elf/4.7.3/../../../../../H-x86_64-mingw32/nios2-elf/lib/mhw-mulx\libc.a(lib_a-printf.o)
 .debug_info    0x0000000000012502      0x9d7 c:/develop/altera/14.0/nios2eds/bin/gnu/h-x86_64-mingw32/bin/../lib/gcc/nios2-elf/4.7.3/../../../../../H-x86_64-mingw32/nios2-elf/lib/mhw-mulx\libc.a(lib_a-putchar.o)
 .debug_info    0x0000000000012ed9      0xab7 c:/develop/altera/14.0/nios2eds/bin/gnu/h-x86_64-mingw32/bin/../lib/gcc/nios2-elf/4.7.3/../../../../../H-x86_64-mingw32/nios2-elf/lib/mhw-mulx\libc.a(lib_a-puts.o)
 .debug_info    0x0000000000013990      0xab8 c:/develop/altera/14.0/nios2eds/bin/gnu/h-x86_64-mingw32/bin/../lib/gcc/nios2-elf/4.7.3/../../../../../H-x86_64-mingw32/nios2-elf/lib/mhw-mulx\libc.a(lib_a-refill.o)
 .debug_info    0x0000000000014448      0x9a3 c:/develop/altera/14.0/nios2eds/bin/gnu/h-x86_64-mingw32/bin/../lib/gcc/nios2-elf/4.7.3/../../../../../H-x86_64-mingw32/nios2-elf/lib/mhw-mulx\libc.a(lib_a-sbrkr.o)
 .debug_info    0x0000000000014deb      0xbfd c:/develop/altera/14.0/nios2eds/bin/gnu/h-x86_64-mingw32/bin/../lib/gcc/nios2-elf/4.7.3/../../../../../H-x86_64-mingw32/nios2-elf/lib/mhw-mulx\libc.a(lib_a-stdio.o)
 .debug_info    0x00000000000159e8       0xdf c:/develop/altera/14.0/nios2eds/bin/gnu/h-x86_64-mingw32/bin/../lib/gcc/nios2-elf/4.7.3/../../../../../H-x86_64-mingw32/nios2-elf/lib/mhw-mulx\libc.a(lib_a-strlen.o)
 .debug_info    0x0000000000015ac7     0x195a c:/develop/altera/14.0/nios2eds/bin/gnu/h-x86_64-mingw32/bin/../lib/gcc/nios2-elf/4.7.3/../../../../../H-x86_64-mingw32/nios2-elf/lib/mhw-mulx\libc.a(lib_a-vfprintf.o)
 .debug_info    0x0000000000017421      0x9d2 c:/develop/altera/14.0/nios2eds/bin/gnu/h-x86_64-mingw32/bin/../lib/gcc/nios2-elf/4.7.3/../../../../../H-x86_64-mingw32/nios2-elf/lib/mhw-mulx\libc.a(lib_a-writer.o)
 .debug_info    0x0000000000017df3      0x9d4 c:/develop/altera/14.0/nios2eds/bin/gnu/h-x86_64-mingw32/bin/../lib/gcc/nios2-elf/4.7.3/../../../../../H-x86_64-mingw32/nios2-elf/lib/mhw-mulx\libc.a(lib_a-wsetup.o)
 .debug_info    0x00000000000187c7      0x97f c:/develop/altera/14.0/nios2eds/bin/gnu/h-x86_64-mingw32/bin/../lib/gcc/nios2-elf/4.7.3/../../../../../H-x86_64-mingw32/nios2-elf/lib/mhw-mulx\libc.a(lib_a-closer.o)
 .debug_info    0x0000000000019146     0x1408 c:/develop/altera/14.0/nios2eds/bin/gnu/h-x86_64-mingw32/bin/../lib/gcc/nios2-elf/4.7.3/../../../../../H-x86_64-mingw32/nios2-elf/lib/mhw-mulx\libc.a(lib_a-dtoa.o)
 .debug_info    0x000000000001a54e      0x97a c:/develop/altera/14.0/nios2eds/bin/gnu/h-x86_64-mingw32/bin/../lib/gcc/nios2-elf/4.7.3/../../../../../H-x86_64-mingw32/nios2-elf/lib/mhw-mulx\libc.a(lib_a-flags.o)
 .debug_info    0x000000000001aec8      0xd05 c:/develop/altera/14.0/nios2eds/bin/gnu/h-x86_64-mingw32/bin/../lib/gcc/nios2-elf/4.7.3/../../../../../H-x86_64-mingw32/nios2-elf/lib/mhw-mulx\libc.a(lib_a-fvwrite.o)
 .debug_info    0x000000000001bbcd      0x97f c:/develop/altera/14.0/nios2eds/bin/gnu/h-x86_64-mingw32/bin/../lib/gcc/nios2-elf/4.7.3/../../../../../H-x86_64-mingw32/nios2-elf/lib/mhw-mulx\libc.a(lib_a-isattyr.o)
 .debug_info    0x000000000001c54c      0xc10 c:/develop/altera/14.0/nios2eds/bin/gnu/h-x86_64-mingw32/bin/../lib/gcc/nios2-elf/4.7.3/../../../../../H-x86_64-mingw32/nios2-elf/lib/mhw-mulx\libc.a(lib_a-locale.o)
 .debug_info    0x000000000001d15c      0x9cb c:/develop/altera/14.0/nios2eds/bin/gnu/h-x86_64-mingw32/bin/../lib/gcc/nios2-elf/4.7.3/../../../../../H-x86_64-mingw32/nios2-elf/lib/mhw-mulx\libc.a(lib_a-lseekr.o)
 .debug_info    0x000000000001db27      0x13e c:/develop/altera/14.0/nios2eds/bin/gnu/h-x86_64-mingw32/bin/../lib/gcc/nios2-elf/4.7.3/../../../../../H-x86_64-mingw32/nios2-elf/lib/mhw-mulx\libc.a(lib_a-memchr.o)
 .debug_info    0x000000000001dc65      0x146 c:/develop/altera/14.0/nios2eds/bin/gnu/h-x86_64-mingw32/bin/../lib/gcc/nios2-elf/4.7.3/../../../../../H-x86_64-mingw32/nios2-elf/lib/mhw-mulx\libc.a(lib_a-memmove.o)
 .debug_info    0x000000000001ddab     0x172a c:/develop/altera/14.0/nios2eds/bin/gnu/h-x86_64-mingw32/bin/../lib/gcc/nios2-elf/4.7.3/../../../../../H-x86_64-mingw32/nios2-elf/lib/mhw-mulx\libc.a(lib_a-mprec.o)
 .debug_info    0x000000000001f4d5      0xa2e c:/develop/altera/14.0/nios2eds/bin/gnu/h-x86_64-mingw32/bin/../lib/gcc/nios2-elf/4.7.3/../../../../../H-x86_64-mingw32/nios2-elf/lib/mhw-mulx\libc.a(lib_a-putc.o)
 .debug_info    0x000000000001ff03      0x9cb c:/develop/altera/14.0/nios2eds/bin/gnu/h-x86_64-mingw32/bin/../lib/gcc/nios2-elf/4.7.3/../../../../../H-x86_64-mingw32/nios2-elf/lib/mhw-mulx\libc.a(lib_a-readr.o)
 .debug_info    0x00000000000208ce      0xd8e c:/develop/altera/14.0/nios2eds/bin/gnu/h-x86_64-mingw32/bin/../lib/gcc/nios2-elf/4.7.3/../../../../../H-x86_64-mingw32/nios2-elf/lib/mhw-mulx\libc.a(lib_a-reallocr.o)
 .debug_info    0x000000000002165c       0xe8 c:/develop/altera/14.0/nios2eds/bin/gnu/h-x86_64-mingw32/bin/../lib/gcc/nios2-elf/4.7.3/../../../../../H-x86_64-mingw32/nios2-elf/lib/mhw-mulx\libc.a(lib_a-s_isinfd.o)
 .debug_info    0x0000000000021744       0xe8 c:/develop/altera/14.0/nios2eds/bin/gnu/h-x86_64-mingw32/bin/../lib/gcc/nios2-elf/4.7.3/../../../../../H-x86_64-mingw32/nios2-elf/lib/mhw-mulx\libc.a(lib_a-s_isnand.o)
 .debug_info    0x000000000002182c       0xe1 c:/develop/altera/14.0/nios2eds/bin/gnu/h-x86_64-mingw32/bin/../lib/gcc/nios2-elf/4.7.3/../../../../../H-x86_64-mingw32/nios2-elf/lib/mhw-mulx\libc.a(lib_a-strcmp.o)
 .debug_info    0x000000000002190d      0xa6e c:/develop/altera/14.0/nios2eds/bin/gnu/h-x86_64-mingw32/bin/../lib/gcc/nios2-elf/4.7.3/../../../../../H-x86_64-mingw32/nios2-elf/lib/mhw-mulx\libc.a(lib_a-wbuf.o)
 .debug_info    0x000000000002237b      0xa9b c:/develop/altera/14.0/nios2eds/bin/gnu/h-x86_64-mingw32/bin/../lib/gcc/nios2-elf/4.7.3/../../../../../H-x86_64-mingw32/nios2-elf/lib/mhw-mulx\libc.a(lib_a-callocr.o)
 .debug_info    0x0000000000022e16      0x718 c:/develop/altera/14.0/nios2eds/bin/gnu/h-x86_64-mingw32/bin/../lib/gcc/nios2-elf/4.7.3/mhw-mulx\libgcc.a(_udivdi3.o)
 .debug_info    0x000000000002352e      0x771 c:/develop/altera/14.0/nios2eds/bin/gnu/h-x86_64-mingw32/bin/../lib/gcc/nios2-elf/4.7.3/mhw-mulx\libgcc.a(_umoddi3.o)
 .debug_info    0x0000000000023c9f      0x588 c:/develop/altera/14.0/nios2eds/bin/gnu/h-x86_64-mingw32/bin/../lib/gcc/nios2-elf/4.7.3/mhw-mulx\libgcc.a(_addsub_df.o)
 .debug_info    0x0000000000024227      0x529 c:/develop/altera/14.0/nios2eds/bin/gnu/h-x86_64-mingw32/bin/../lib/gcc/nios2-elf/4.7.3/mhw-mulx\libgcc.a(_mul_df.o)
 .debug_info    0x0000000000024750      0x443 c:/develop/altera/14.0/nios2eds/bin/gnu/h-x86_64-mingw32/bin/../lib/gcc/nios2-elf/4.7.3/mhw-mulx\libgcc.a(_div_df.o)
 .debug_info    0x0000000000024b93      0x320 c:/develop/altera/14.0/nios2eds/bin/gnu/h-x86_64-mingw32/bin/../lib/gcc/nios2-elf/4.7.3/mhw-mulx\libgcc.a(_eq_df.o)
 .debug_info    0x0000000000024eb3      0x320 c:/develop/altera/14.0/nios2eds/bin/gnu/h-x86_64-mingw32/bin/../lib/gcc/nios2-elf/4.7.3/mhw-mulx\libgcc.a(_ne_df.o)
 .debug_info    0x00000000000251d3      0x320 c:/develop/altera/14.0/nios2eds/bin/gnu/h-x86_64-mingw32/bin/../lib/gcc/nios2-elf/4.7.3/mhw-mulx\libgcc.a(_gt_df.o)
 .debug_info    0x00000000000254f3      0x320 c:/develop/altera/14.0/nios2eds/bin/gnu/h-x86_64-mingw32/bin/../lib/gcc/nios2-elf/4.7.3/mhw-mulx\libgcc.a(_ge_df.o)
 .debug_info    0x0000000000025813      0x320 c:/develop/altera/14.0/nios2eds/bin/gnu/h-x86_64-mingw32/bin/../lib/gcc/nios2-elf/4.7.3/mhw-mulx\libgcc.a(_lt_df.o)
 .debug_info    0x0000000000025b33      0x261 c:/develop/altera/14.0/nios2eds/bin/gnu/h-x86_64-mingw32/bin/../lib/gcc/nios2-elf/4.7.3/mhw-mulx\libgcc.a(_si_to_df.o)
 .debug_info    0x0000000000025d94      0x30b c:/develop/altera/14.0/nios2eds/bin/gnu/h-x86_64-mingw32/bin/../lib/gcc/nios2-elf/4.7.3/mhw-mulx\libgcc.a(_df_to_si.o)
 .debug_info    0x000000000002609f      0x155 c:/develop/altera/14.0/nios2eds/bin/gnu/h-x86_64-mingw32/bin/../lib/gcc/nios2-elf/4.7.3/mhw-mulx\libgcc.a(_thenan_df.o)
 .debug_info    0x00000000000261f4      0x284 c:/develop/altera/14.0/nios2eds/bin/gnu/h-x86_64-mingw32/bin/../lib/gcc/nios2-elf/4.7.3/mhw-mulx\libgcc.a(_usi_to_df.o)
 .debug_info    0x0000000000026478       0xac c:/develop/altera/14.0/nios2eds/bin/gnu/h-x86_64-mingw32/bin/../lib/gcc/nios2-elf/4.7.3/mhw-mulx\libgcc.a(_clz.o)
 .debug_info    0x0000000000026524      0x123 c:/develop/altera/14.0/nios2eds/bin/gnu/h-x86_64-mingw32/bin/../lib/gcc/nios2-elf/4.7.3/mhw-mulx\libgcc.a(_clzsi2.o)
 .debug_info    0x0000000000026647      0x2f7 c:/develop/altera/14.0/nios2eds/bin/gnu/h-x86_64-mingw32/bin/../lib/gcc/nios2-elf/4.7.3/mhw-mulx\libgcc.a(_pack_df.o)
 .debug_info    0x000000000002693e      0x265 c:/develop/altera/14.0/nios2eds/bin/gnu/h-x86_64-mingw32/bin/../lib/gcc/nios2-elf/4.7.3/mhw-mulx\libgcc.a(_unpack_df.o)
 .debug_info    0x0000000000026ba3      0x226 c:/develop/altera/14.0/nios2eds/bin/gnu/h-x86_64-mingw32/bin/../lib/gcc/nios2-elf/4.7.3/mhw-mulx\libgcc.a(_fpcmp_parts_df.o)
 .debug_info    0x0000000000026dc9      0x185 c:/develop/altera/14.0/nios2eds/bin/gnu/h-x86_64-mingw32/bin/../lib/gcc/nios2-elf/4.7.3/mhw-mulx\libgcc.a(_lshrdi3.o)
 .debug_info    0x0000000000026f4e      0x185 c:/develop/altera/14.0/nios2eds/bin/gnu/h-x86_64-mingw32/bin/../lib/gcc/nios2-elf/4.7.3/mhw-mulx\libgcc.a(_ashldi3.o)
 .debug_info    0x00000000000270d3      0x3a4 ../sodalite_filetest_bsp/\libhal_bsp.a(alt_close.o)
 .debug_info    0x0000000000027477      0x4df ../sodalite_filetest_bsp/\libhal_bsp.a(alt_dev.o)
 .debug_info    0x0000000000027956       0xa3 ../sodalite_filetest_bsp/\libhal_bsp.a(alt_errno.o)
 .debug_info    0x00000000000279f9      0x325 ../sodalite_filetest_bsp/\libhal_bsp.a(alt_fs_reg.o)
 .debug_info    0x0000000000027d1e      0x4f5 ../sodalite_filetest_bsp/\libhal_bsp.a(alt_fstat.o)
 .debug_info    0x0000000000028213      0x50e ../sodalite_filetest_bsp/\libhal_bsp.a(alt_isatty.o)
 .debug_info    0x0000000000028721      0x1d9 ../sodalite_filetest_bsp/\libhal_bsp.a(alt_load.o)
 .debug_info    0x00000000000288fa      0x3a6 ../sodalite_filetest_bsp/\libhal_bsp.a(alt_lseek.o)
 .debug_info    0x0000000000028ca0      0x27f ../sodalite_filetest_bsp/\libhal_bsp.a(alt_main.o)
 .debug_info    0x0000000000028f1f      0x94c ../sodalite_filetest_bsp/\libhal_bsp.a(alt_malloc_lock.o)
 .debug_info    0x000000000002986b      0x4de ../sodalite_filetest_bsp/\libhal_bsp.a(alt_open.o)
 .debug_info    0x0000000000029d49      0x543 ../sodalite_filetest_bsp/\libhal_bsp.a(alt_read.o)
 .debug_info    0x000000000002a28c      0x2dd ../sodalite_filetest_bsp/\libhal_bsp.a(alt_release_fd.o)
 .debug_info    0x000000000002a569      0x1b1 ../sodalite_filetest_bsp/\libhal_bsp.a(alt_sbrk.o)
 .debug_info    0x000000000002a71a      0x164 ../sodalite_filetest_bsp/\libhal_bsp.a(alt_uncached_malloc.o)
 .debug_info    0x000000000002a87e       0xd7 ../sodalite_filetest_bsp/\libhal_bsp.a(alt_usleep.o)
 .debug_info    0x000000000002a955      0x54a ../sodalite_filetest_bsp/\libhal_bsp.a(alt_write.o)
 .debug_info    0x000000000002ae9f      0xa8e ../sodalite_filetest_bsp/\libhal_bsp.a(alt_sys_init.o)
 .debug_info    0x000000000002b92d      0x678 ../sodalite_filetest_bsp/\libhal_bsp.a(altera_avalon_jtag_uart_fd.o)
 .debug_info    0x000000000002bfa5      0x47e ../sodalite_filetest_bsp/\libhal_bsp.a(altera_avalon_jtag_uart_init.o)
 .debug_info    0x000000000002c423      0x2ab ../sodalite_filetest_bsp/\libhal_bsp.a(altera_avalon_jtag_uart_ioctl.o)
 .debug_info    0x000000000002c6ce      0x3b2 ../sodalite_filetest_bsp/\libhal_bsp.a(altera_avalon_jtag_uart_read.o)
 .debug_info    0x000000000002ca80      0x3b1 ../sodalite_filetest_bsp/\libhal_bsp.a(altera_avalon_jtag_uart_write.o)
 .debug_info    0x000000000002ce31      0x2bc ../sodalite_filetest_bsp/\libhal_bsp.a(altera_avalon_timer_sc.o)
 .debug_info    0x000000000002d0ed      0x582 ../sodalite_filetest_bsp/\libhal_bsp.a(altera_modular_adc.o)
 .debug_info    0x000000000002d66f      0xd30 ../sodalite_filetest_bsp/\libhal_bsp.a(altera_onchip_flash.o)
 .debug_info    0x000000000002e39f      0x2d4 ../sodalite_filetest_bsp/\libhal_bsp.a(alt_alarm_start.o)
 .debug_info    0x000000000002e673       0xd6 ../sodalite_filetest_bsp/\libhal_bsp.a(alt_busy_sleep.o)
 .debug_info    0x000000000002e749       0xdb ../sodalite_filetest_bsp/\libhal_bsp.a(alt_dcache_flush.o)
 .debug_info    0x000000000002e824       0xa3 ../sodalite_filetest_bsp/\libhal_bsp.a(alt_dcache_flush_all.o)
 .debug_info    0x000000000002e8c7      0x1c4 ../sodalite_filetest_bsp/\libhal_bsp.a(alt_dev_llist_insert.o)
 .debug_info    0x000000000002ea8b       0x8e ../sodalite_filetest_bsp/\libhal_bsp.a(alt_do_ctors.o)
 .debug_info    0x000000000002eb19       0x8e ../sodalite_filetest_bsp/\libhal_bsp.a(alt_do_dtors.o)
 .debug_info    0x000000000002eba7      0x387 ../sodalite_filetest_bsp/\libhal_bsp.a(alt_find_dev.o)
 .debug_info    0x000000000002ef2e      0x370 ../sodalite_filetest_bsp/\libhal_bsp.a(alt_find_file.o)
 .debug_info    0x000000000002f29e      0x5ff ../sodalite_filetest_bsp/\libhal_bsp.a(alt_flash_dev.o)
 .debug_info    0x000000000002f89d      0x339 ../sodalite_filetest_bsp/\libhal_bsp.a(alt_get_fd.o)
 .debug_info    0x000000000002fbd6       0xcd ../sodalite_filetest_bsp/\libhal_bsp.a(alt_icache_flush_all.o)
 .debug_info    0x000000000002fca3      0x3c4 ../sodalite_filetest_bsp/\libhal_bsp.a(alt_iic.o)
 .debug_info    0x0000000000030067      0x25c ../sodalite_filetest_bsp/\libhal_bsp.a(alt_iic_isr_register.o)
 .debug_info    0x00000000000302c3      0x5cc ../sodalite_filetest_bsp/\libhal_bsp.a(alt_io_redirect.o)
 .debug_info    0x000000000003088f       0x89 ../sodalite_filetest_bsp/\libhal_bsp.a(alt_irq_entry.o)
 .debug_info    0x0000000000030918      0x193 ../sodalite_filetest_bsp/\libhal_bsp.a(alt_irq_handler.o)
 .debug_info    0x0000000000030aab       0x8a ../sodalite_filetest_bsp/\libhal_bsp.a(alt_irq_vars.o)
 .debug_info    0x0000000000030b35      0x33a ../sodalite_filetest_bsp/\libhal_bsp.a(alt_tick.o)
 .debug_info    0x0000000000030e6f       0x8f ../sodalite_filetest_bsp/\libhal_bsp.a(altera_nios2_gen2_irq.o)
 .debug_info    0x0000000000030efe       0x8f ../sodalite_filetest_bsp/\libhal_bsp.a(alt_exception_entry.o)
 .debug_info    0x0000000000030f8d       0xdb ../sodalite_filetest_bsp/\libhal_bsp.a(alt_icache_flush.o)
 .debug_info    0x0000000000031068      0x1f8 ../sodalite_filetest_bsp/\libhal_bsp.a(alt_instruction_exception_entry.o)
 .debug_info    0x0000000000031260      0x1e6 c:/develop/altera/14.0/nios2eds/bin/gnu/h-x86_64-mingw32/bin/../lib/gcc/nios2-elf/4.7.3/../../../../../H-x86_64-mingw32/nios2-elf/lib/mhw-mulx\libc.a(lib_a-atexit.o)
 .debug_info    0x0000000000031446      0x993 c:/develop/altera/14.0/nios2eds/bin/gnu/h-x86_64-mingw32/bin/../lib/gcc/nios2-elf/4.7.3/../../../../../H-x86_64-mingw32/nios2-elf/lib/mhw-mulx\libc.a(lib_a-exit.o)
 .debug_info    0x0000000000031dd9      0x990 c:/develop/altera/14.0/nios2eds/bin/gnu/h-x86_64-mingw32/bin/../lib/gcc/nios2-elf/4.7.3/../../../../../H-x86_64-mingw32/nios2-elf/lib/mhw-mulx\libc.a(lib_a-malign.o)
 .debug_info    0x0000000000032769      0xb29 c:/develop/altera/14.0/nios2eds/bin/gnu/h-x86_64-mingw32/bin/../lib/gcc/nios2-elf/4.7.3/../../../../../H-x86_64-mingw32/nios2-elf/lib/mhw-mulx\libc.a(lib_a-malignr.o)
 .debug_info    0x0000000000033292      0x117 c:/develop/altera/14.0/nios2eds/bin/gnu/h-x86_64-mingw32/bin/../lib/gcc/nios2-elf/4.7.3/../../../../../H-x86_64-mingw32/nios2-elf/lib/mhw-mulx\libc.a(lib_a-memcmp.o)
 .debug_info    0x00000000000333a9      0x9f9 c:/develop/altera/14.0/nios2eds/bin/gnu/h-x86_64-mingw32/bin/../lib/gcc/nios2-elf/4.7.3/../../../../../H-x86_64-mingw32/nios2-elf/lib/mhw-mulx\libc.a(lib_a-__atexit.o)
 .debug_info    0x0000000000033da2      0xa07 c:/develop/altera/14.0/nios2eds/bin/gnu/h-x86_64-mingw32/bin/../lib/gcc/nios2-elf/4.7.3/../../../../../H-x86_64-mingw32/nios2-elf/lib/mhw-mulx\libc.a(lib_a-__call_atexit.o)
 .debug_info    0x00000000000347a9       0xe8 ../sodalite_filetest_bsp/\libhal_bsp.a(alt_exit.o)

.debug_abbrev   0x0000000000000000     0xc9fc
 *(.debug_abbrev)
 .debug_abbrev  0x0000000000000000       0x12 ../sodalite_filetest_bsp//obj/HAL/src/crt0.o
 .debug_abbrev  0x0000000000000012      0x144 obj/default/file_test.o
 .debug_abbrev  0x0000000000000156      0x207 obj/default/loadbmp.o
 .debug_abbrev  0x000000000000035d      0x387 obj/default/mmcfs/fatfs/ff.o
 .debug_abbrev  0x00000000000006e4      0x2a5 obj/default/mmcfs/fatfs/mmcbb.o
 .debug_abbrev  0x0000000000000989       0xd8 obj/default/mmcfs/fatfs/option/cc932.o
 .debug_abbrev  0x0000000000000a61       0x51 obj/default/mmcfs/gettime.o
 .debug_abbrev  0x0000000000000ab2      0x187 obj/default/mmcfs/mmc_spi.o
 .debug_abbrev  0x0000000000000c39      0x221 obj/default/mmcfs/mmcfs.o
 .debug_abbrev  0x0000000000000e5a       0x45 obj/default/nd_lib/fontx_k12x10.o
 .debug_abbrev  0x0000000000000e9f       0x45 obj/default/nd_lib/fontx_k6x10.o
 .debug_abbrev  0x0000000000000ee4      0x359 obj/default/nd_lib/nd_egl.o
 .debug_abbrev  0x000000000000123d      0x2bd obj/default/testuty.o
 .debug_abbrev  0x00000000000014fa      0x112 c:/develop/altera/14.0/nios2eds/bin/gnu/h-x86_64-mingw32/bin/../lib/gcc/nios2-elf/4.7.3/mhw-mulx\libgcc.a(lib2-divmod.o)
 .debug_abbrev  0x000000000000160c      0x24e c:/develop/altera/14.0/nios2eds/bin/gnu/h-x86_64-mingw32/bin/../lib/gcc/nios2-elf/4.7.3/../../../../../H-x86_64-mingw32/nios2-elf/lib/mhw-mulx\libc.a(lib_a-fclose.o)
 .debug_abbrev  0x000000000000185a      0x259 c:/develop/altera/14.0/nios2eds/bin/gnu/h-x86_64-mingw32/bin/../lib/gcc/nios2-elf/4.7.3/../../../../../H-x86_64-mingw32/nios2-elf/lib/mhw-mulx\libc.a(lib_a-fflush.o)
 .debug_abbrev  0x0000000000001ab3      0x317 c:/develop/altera/14.0/nios2eds/bin/gnu/h-x86_64-mingw32/bin/../lib/gcc/nios2-elf/4.7.3/../../../../../H-x86_64-mingw32/nios2-elf/lib/mhw-mulx\libc.a(lib_a-findfp.o)
 .debug_abbrev  0x0000000000001dca      0x250 c:/develop/altera/14.0/nios2eds/bin/gnu/h-x86_64-mingw32/bin/../lib/gcc/nios2-elf/4.7.3/../../../../../H-x86_64-mingw32/nios2-elf/lib/mhw-mulx\libc.a(lib_a-fopen.o)
 .debug_abbrev  0x000000000000201a      0x26a c:/develop/altera/14.0/nios2eds/bin/gnu/h-x86_64-mingw32/bin/../lib/gcc/nios2-elf/4.7.3/../../../../../H-x86_64-mingw32/nios2-elf/lib/mhw-mulx\libc.a(lib_a-fread.o)
 .debug_abbrev  0x0000000000002284      0x25d c:/develop/altera/14.0/nios2eds/bin/gnu/h-x86_64-mingw32/bin/../lib/gcc/nios2-elf/4.7.3/../../../../../H-x86_64-mingw32/nios2-elf/lib/mhw-mulx\libc.a(lib_a-freer.o)
 .debug_abbrev  0x00000000000024e1      0x2be c:/develop/altera/14.0/nios2eds/bin/gnu/h-x86_64-mingw32/bin/../lib/gcc/nios2-elf/4.7.3/../../../../../H-x86_64-mingw32/nios2-elf/lib/mhw-mulx\libc.a(lib_a-fseek.o)
 .debug_abbrev  0x000000000000279f      0x1ca c:/develop/altera/14.0/nios2eds/bin/gnu/h-x86_64-mingw32/bin/../lib/gcc/nios2-elf/4.7.3/../../../../../H-x86_64-mingw32/nios2-elf/lib/mhw-mulx\libc.a(lib_a-fstatr.o)
 .debug_abbrev  0x0000000000002969      0x224 c:/develop/altera/14.0/nios2eds/bin/gnu/h-x86_64-mingw32/bin/../lib/gcc/nios2-elf/4.7.3/../../../../../H-x86_64-mingw32/nios2-elf/lib/mhw-mulx\libc.a(lib_a-fwalk.o)
 .debug_abbrev  0x0000000000002b8d      0x162 c:/develop/altera/14.0/nios2eds/bin/gnu/h-x86_64-mingw32/bin/../lib/gcc/nios2-elf/4.7.3/../../../../../H-x86_64-mingw32/nios2-elf/lib/mhw-mulx\libc.a(lib_a-impure.o)
 .debug_abbrev  0x0000000000002cef       0x37 c:/develop/altera/14.0/nios2eds/bin/gnu/h-x86_64-mingw32/bin/../lib/gcc/nios2-elf/4.7.3/../../../../../H-x86_64-mingw32/nios2-elf/lib/mhw-mulx\libc.a(lib_a-int_errno.o)
 .debug_abbrev  0x0000000000002d26      0x1e8 c:/develop/altera/14.0/nios2eds/bin/gnu/h-x86_64-mingw32/bin/../lib/gcc/nios2-elf/4.7.3/../../../../../H-x86_64-mingw32/nios2-elf/lib/mhw-mulx\libc.a(lib_a-makebuf.o)
 .debug_abbrev  0x0000000000002f0e      0x284 c:/develop/altera/14.0/nios2eds/bin/gnu/h-x86_64-mingw32/bin/../lib/gcc/nios2-elf/4.7.3/../../../../../H-x86_64-mingw32/nios2-elf/lib/mhw-mulx\libc.a(lib_a-mallocr.o)
 .debug_abbrev  0x0000000000003192       0x9c c:/develop/altera/14.0/nios2eds/bin/gnu/h-x86_64-mingw32/bin/../lib/gcc/nios2-elf/4.7.3/../../../../../H-x86_64-mingw32/nios2-elf/lib/mhw-mulx\libc.a(lib_a-memcpy.o)
 .debug_abbrev  0x000000000000322e       0xac c:/develop/altera/14.0/nios2eds/bin/gnu/h-x86_64-mingw32/bin/../lib/gcc/nios2-elf/4.7.3/../../../../../H-x86_64-mingw32/nios2-elf/lib/mhw-mulx\libc.a(lib_a-memset.o)
 .debug_abbrev  0x00000000000032da      0x1cf c:/develop/altera/14.0/nios2eds/bin/gnu/h-x86_64-mingw32/bin/../lib/gcc/nios2-elf/4.7.3/../../../../../H-x86_64-mingw32/nios2-elf/lib/mhw-mulx\libc.a(lib_a-openr.o)
 .debug_abbrev  0x00000000000034a9      0x209 c:/develop/altera/14.0/nios2eds/bin/gnu/h-x86_64-mingw32/bin/../lib/gcc/nios2-elf/4.7.3/../../../../../H-x86_64-mingw32/nios2-elf/lib/mhw-mulx\libc.a(lib_a-printf.o)
 .debug_abbrev  0x00000000000036b2      0x1cd c:/develop/altera/14.0/nios2eds/bin/gnu/h-x86_64-mingw32/bin/../lib/gcc/nios2-elf/4.7.3/../../../../../H-x86_64-mingw32/nios2-elf/lib/mhw-mulx\libc.a(lib_a-putchar.o)
 .debug_abbrev  0x000000000000387f      0x208 c:/develop/altera/14.0/nios2eds/bin/gnu/h-x86_64-mingw32/bin/../lib/gcc/nios2-elf/4.7.3/../../../../../H-x86_64-mingw32/nios2-elf/lib/mhw-mulx\libc.a(lib_a-puts.o)
 .debug_abbrev  0x0000000000003a87      0x232 c:/develop/altera/14.0/nios2eds/bin/gnu/h-x86_64-mingw32/bin/../lib/gcc/nios2-elf/4.7.3/../../../../../H-x86_64-mingw32/nios2-elf/lib/mhw-mulx\libc.a(lib_a-refill.o)
 .debug_abbrev  0x0000000000003cb9      0x1df c:/develop/altera/14.0/nios2eds/bin/gnu/h-x86_64-mingw32/bin/../lib/gcc/nios2-elf/4.7.3/../../../../../H-x86_64-mingw32/nios2-elf/lib/mhw-mulx\libc.a(lib_a-sbrkr.o)
 .debug_abbrev  0x0000000000003e98      0x226 c:/develop/altera/14.0/nios2eds/bin/gnu/h-x86_64-mingw32/bin/../lib/gcc/nios2-elf/4.7.3/../../../../../H-x86_64-mingw32/nios2-elf/lib/mhw-mulx\libc.a(lib_a-stdio.o)
 .debug_abbrev  0x00000000000040be       0x90 c:/develop/altera/14.0/nios2eds/bin/gnu/h-x86_64-mingw32/bin/../lib/gcc/nios2-elf/4.7.3/../../../../../H-x86_64-mingw32/nios2-elf/lib/mhw-mulx\libc.a(lib_a-strlen.o)
 .debug_abbrev  0x000000000000414e      0x3d9 c:/develop/altera/14.0/nios2eds/bin/gnu/h-x86_64-mingw32/bin/../lib/gcc/nios2-elf/4.7.3/../../../../../H-x86_64-mingw32/nios2-elf/lib/mhw-mulx\libc.a(lib_a-vfprintf.o)
 .debug_abbrev  0x0000000000004527      0x1c0 c:/develop/altera/14.0/nios2eds/bin/gnu/h-x86_64-mingw32/bin/../lib/gcc/nios2-elf/4.7.3/../../../../../H-x86_64-mingw32/nios2-elf/lib/mhw-mulx\libc.a(lib_a-writer.o)
 .debug_abbrev  0x00000000000046e7      0x1d5 c:/develop/altera/14.0/nios2eds/bin/gnu/h-x86_64-mingw32/bin/../lib/gcc/nios2-elf/4.7.3/../../../../../H-x86_64-mingw32/nios2-elf/lib/mhw-mulx\libc.a(lib_a-wsetup.o)
 .debug_abbrev  0x00000000000048bc      0x1bb c:/develop/altera/14.0/nios2eds/bin/gnu/h-x86_64-mingw32/bin/../lib/gcc/nios2-elf/4.7.3/../../../../../H-x86_64-mingw32/nios2-elf/lib/mhw-mulx\libc.a(lib_a-closer.o)
 .debug_abbrev  0x0000000000004a77      0x2ab c:/develop/altera/14.0/nios2eds/bin/gnu/h-x86_64-mingw32/bin/../lib/gcc/nios2-elf/4.7.3/../../../../../H-x86_64-mingw32/nios2-elf/lib/mhw-mulx\libc.a(lib_a-dtoa.o)
 .debug_abbrev  0x0000000000004d22      0x18f c:/develop/altera/14.0/nios2eds/bin/gnu/h-x86_64-mingw32/bin/../lib/gcc/nios2-elf/4.7.3/../../../../../H-x86_64-mingw32/nios2-elf/lib/mhw-mulx\libc.a(lib_a-flags.o)
 .debug_abbrev  0x0000000000004eb1      0x234 c:/develop/altera/14.0/nios2eds/bin/gnu/h-x86_64-mingw32/bin/../lib/gcc/nios2-elf/4.7.3/../../../../../H-x86_64-mingw32/nios2-elf/lib/mhw-mulx\libc.a(lib_a-fvwrite.o)
 .debug_abbrev  0x00000000000050e5      0x1bb c:/develop/altera/14.0/nios2eds/bin/gnu/h-x86_64-mingw32/bin/../lib/gcc/nios2-elf/4.7.3/../../../../../H-x86_64-mingw32/nios2-elf/lib/mhw-mulx\libc.a(lib_a-isattyr.o)
 .debug_abbrev  0x00000000000052a0      0x29f c:/develop/altera/14.0/nios2eds/bin/gnu/h-x86_64-mingw32/bin/../lib/gcc/nios2-elf/4.7.3/../../../../../H-x86_64-mingw32/nios2-elf/lib/mhw-mulx\libc.a(lib_a-locale.o)
 .debug_abbrev  0x000000000000553f      0x1ca c:/develop/altera/14.0/nios2eds/bin/gnu/h-x86_64-mingw32/bin/../lib/gcc/nios2-elf/4.7.3/../../../../../H-x86_64-mingw32/nios2-elf/lib/mhw-mulx\libc.a(lib_a-lseekr.o)
 .debug_abbrev  0x0000000000005709       0xab c:/develop/altera/14.0/nios2eds/bin/gnu/h-x86_64-mingw32/bin/../lib/gcc/nios2-elf/4.7.3/../../../../../H-x86_64-mingw32/nios2-elf/lib/mhw-mulx\libc.a(lib_a-memchr.o)
 .debug_abbrev  0x00000000000057b4       0x9c c:/develop/altera/14.0/nios2eds/bin/gnu/h-x86_64-mingw32/bin/../lib/gcc/nios2-elf/4.7.3/../../../../../H-x86_64-mingw32/nios2-elf/lib/mhw-mulx\libc.a(lib_a-memmove.o)
 .debug_abbrev  0x0000000000005850      0x394 c:/develop/altera/14.0/nios2eds/bin/gnu/h-x86_64-mingw32/bin/../lib/gcc/nios2-elf/4.7.3/../../../../../H-x86_64-mingw32/nios2-elf/lib/mhw-mulx\libc.a(lib_a-mprec.o)
 .debug_abbrev  0x0000000000005be4      0x1f8 c:/develop/altera/14.0/nios2eds/bin/gnu/h-x86_64-mingw32/bin/../lib/gcc/nios2-elf/4.7.3/../../../../../H-x86_64-mingw32/nios2-elf/lib/mhw-mulx\libc.a(lib_a-putc.o)
 .debug_abbrev  0x0000000000005ddc      0x1bb c:/develop/altera/14.0/nios2eds/bin/gnu/h-x86_64-mingw32/bin/../lib/gcc/nios2-elf/4.7.3/../../../../../H-x86_64-mingw32/nios2-elf/lib/mhw-mulx\libc.a(lib_a-readr.o)
 .debug_abbrev  0x0000000000005f97      0x242 c:/develop/altera/14.0/nios2eds/bin/gnu/h-x86_64-mingw32/bin/../lib/gcc/nios2-elf/4.7.3/../../../../../H-x86_64-mingw32/nios2-elf/lib/mhw-mulx\libc.a(lib_a-reallocr.o)
 .debug_abbrev  0x00000000000061d9       0x6f c:/develop/altera/14.0/nios2eds/bin/gnu/h-x86_64-mingw32/bin/../lib/gcc/nios2-elf/4.7.3/../../../../../H-x86_64-mingw32/nios2-elf/lib/mhw-mulx\libc.a(lib_a-s_isinfd.o)
 .debug_abbrev  0x0000000000006248       0x6f c:/develop/altera/14.0/nios2eds/bin/gnu/h-x86_64-mingw32/bin/../lib/gcc/nios2-elf/4.7.3/../../../../../H-x86_64-mingw32/nios2-elf/lib/mhw-mulx\libc.a(lib_a-s_isnand.o)
 .debug_abbrev  0x00000000000062b7       0x74 c:/develop/altera/14.0/nios2eds/bin/gnu/h-x86_64-mingw32/bin/../lib/gcc/nios2-elf/4.7.3/../../../../../H-x86_64-mingw32/nios2-elf/lib/mhw-mulx\libc.a(lib_a-strcmp.o)
 .debug_abbrev  0x000000000000632b      0x21a c:/develop/altera/14.0/nios2eds/bin/gnu/h-x86_64-mingw32/bin/../lib/gcc/nios2-elf/4.7.3/../../../../../H-x86_64-mingw32/nios2-elf/lib/mhw-mulx\libc.a(lib_a-wbuf.o)
 .debug_abbrev  0x0000000000006545      0x1f5 c:/develop/altera/14.0/nios2eds/bin/gnu/h-x86_64-mingw32/bin/../lib/gcc/nios2-elf/4.7.3/../../../../../H-x86_64-mingw32/nios2-elf/lib/mhw-mulx\libc.a(lib_a-callocr.o)
 .debug_abbrev  0x000000000000673a      0x170 c:/develop/altera/14.0/nios2eds/bin/gnu/h-x86_64-mingw32/bin/../lib/gcc/nios2-elf/4.7.3/mhw-mulx\libgcc.a(_udivdi3.o)
 .debug_abbrev  0x00000000000068aa      0x193 c:/develop/altera/14.0/nios2eds/bin/gnu/h-x86_64-mingw32/bin/../lib/gcc/nios2-elf/4.7.3/mhw-mulx\libgcc.a(_umoddi3.o)
 .debug_abbrev  0x0000000000006a3d      0x22d c:/develop/altera/14.0/nios2eds/bin/gnu/h-x86_64-mingw32/bin/../lib/gcc/nios2-elf/4.7.3/mhw-mulx\libgcc.a(_addsub_df.o)
 .debug_abbrev  0x0000000000006c6a      0x242 c:/develop/altera/14.0/nios2eds/bin/gnu/h-x86_64-mingw32/bin/../lib/gcc/nios2-elf/4.7.3/mhw-mulx\libgcc.a(_mul_df.o)
 .debug_abbrev  0x0000000000006eac      0x245 c:/develop/altera/14.0/nios2eds/bin/gnu/h-x86_64-mingw32/bin/../lib/gcc/nios2-elf/4.7.3/mhw-mulx\libgcc.a(_div_df.o)
 .debug_abbrev  0x00000000000070f1      0x1a5 c:/develop/altera/14.0/nios2eds/bin/gnu/h-x86_64-mingw32/bin/../lib/gcc/nios2-elf/4.7.3/mhw-mulx\libgcc.a(_eq_df.o)
 .debug_abbrev  0x0000000000007296      0x1a5 c:/develop/altera/14.0/nios2eds/bin/gnu/h-x86_64-mingw32/bin/../lib/gcc/nios2-elf/4.7.3/mhw-mulx\libgcc.a(_ne_df.o)
 .debug_abbrev  0x000000000000743b      0x1a5 c:/develop/altera/14.0/nios2eds/bin/gnu/h-x86_64-mingw32/bin/../lib/gcc/nios2-elf/4.7.3/mhw-mulx\libgcc.a(_gt_df.o)
 .debug_abbrev  0x00000000000075e0      0x1a5 c:/develop/altera/14.0/nios2eds/bin/gnu/h-x86_64-mingw32/bin/../lib/gcc/nios2-elf/4.7.3/mhw-mulx\libgcc.a(_ge_df.o)
 .debug_abbrev  0x0000000000007785      0x1a5 c:/develop/altera/14.0/nios2eds/bin/gnu/h-x86_64-mingw32/bin/../lib/gcc/nios2-elf/4.7.3/mhw-mulx\libgcc.a(_lt_df.o)
 .debug_abbrev  0x000000000000792a      0x19c c:/develop/altera/14.0/nios2eds/bin/gnu/h-x86_64-mingw32/bin/../lib/gcc/nios2-elf/4.7.3/mhw-mulx\libgcc.a(_si_to_df.o)
 .debug_abbrev  0x0000000000007ac6      0x1ae c:/develop/altera/14.0/nios2eds/bin/gnu/h-x86_64-mingw32/bin/../lib/gcc/nios2-elf/4.7.3/mhw-mulx\libgcc.a(_df_to_si.o)
 .debug_abbrev  0x0000000000007c74       0xb6 c:/develop/altera/14.0/nios2eds/bin/gnu/h-x86_64-mingw32/bin/../lib/gcc/nios2-elf/4.7.3/mhw-mulx\libgcc.a(_thenan_df.o)
 .debug_abbrev  0x0000000000007d2a      0x1bf c:/develop/altera/14.0/nios2eds/bin/gnu/h-x86_64-mingw32/bin/../lib/gcc/nios2-elf/4.7.3/mhw-mulx\libgcc.a(_usi_to_df.o)
 .debug_abbrev  0x0000000000007ee9       0x5d c:/develop/altera/14.0/nios2eds/bin/gnu/h-x86_64-mingw32/bin/../lib/gcc/nios2-elf/4.7.3/mhw-mulx\libgcc.a(_clz.o)
 .debug_abbrev  0x0000000000007f46       0xbe c:/develop/altera/14.0/nios2eds/bin/gnu/h-x86_64-mingw32/bin/../lib/gcc/nios2-elf/4.7.3/mhw-mulx\libgcc.a(_clzsi2.o)
 .debug_abbrev  0x0000000000008004      0x1b6 c:/develop/altera/14.0/nios2eds/bin/gnu/h-x86_64-mingw32/bin/../lib/gcc/nios2-elf/4.7.3/mhw-mulx\libgcc.a(_pack_df.o)
 .debug_abbrev  0x00000000000081ba      0x15d c:/develop/altera/14.0/nios2eds/bin/gnu/h-x86_64-mingw32/bin/../lib/gcc/nios2-elf/4.7.3/mhw-mulx\libgcc.a(_unpack_df.o)
 .debug_abbrev  0x0000000000008317      0x146 c:/develop/altera/14.0/nios2eds/bin/gnu/h-x86_64-mingw32/bin/../lib/gcc/nios2-elf/4.7.3/mhw-mulx\libgcc.a(_fpcmp_parts_df.o)
 .debug_abbrev  0x000000000000845d       0xf1 c:/develop/altera/14.0/nios2eds/bin/gnu/h-x86_64-mingw32/bin/../lib/gcc/nios2-elf/4.7.3/mhw-mulx\libgcc.a(_lshrdi3.o)
 .debug_abbrev  0x000000000000854e       0xf1 c:/develop/altera/14.0/nios2eds/bin/gnu/h-x86_64-mingw32/bin/../lib/gcc/nios2-elf/4.7.3/mhw-mulx\libgcc.a(_ashldi3.o)
 .debug_abbrev  0x000000000000863f      0x176 ../sodalite_filetest_bsp/\libhal_bsp.a(alt_close.o)
 .debug_abbrev  0x00000000000087b5       0xd9 ../sodalite_filetest_bsp/\libhal_bsp.a(alt_dev.o)
 .debug_abbrev  0x000000000000888e       0x5a ../sodalite_filetest_bsp/\libhal_bsp.a(alt_errno.o)
 .debug_abbrev  0x00000000000088e8      0x10f ../sodalite_filetest_bsp/\libhal_bsp.a(alt_fs_reg.o)
 .debug_abbrev  0x00000000000089f7      0x13f ../sodalite_filetest_bsp/\libhal_bsp.a(alt_fstat.o)
 .debug_abbrev  0x0000000000008b36      0x151 ../sodalite_filetest_bsp/\libhal_bsp.a(alt_isatty.o)
 .debug_abbrev  0x0000000000008c87       0xd8 ../sodalite_filetest_bsp/\libhal_bsp.a(alt_load.o)
 .debug_abbrev  0x0000000000008d5f      0x13c ../sodalite_filetest_bsp/\libhal_bsp.a(alt_lseek.o)
 .debug_abbrev  0x0000000000008e9b      0x14d ../sodalite_filetest_bsp/\libhal_bsp.a(alt_main.o)
 .debug_abbrev  0x0000000000008fe8      0x187 ../sodalite_filetest_bsp/\libhal_bsp.a(alt_malloc_lock.o)
 .debug_abbrev  0x000000000000916f      0x1ea ../sodalite_filetest_bsp/\libhal_bsp.a(alt_open.o)
 .debug_abbrev  0x0000000000009359      0x15a ../sodalite_filetest_bsp/\libhal_bsp.a(alt_read.o)
 .debug_abbrev  0x00000000000094b3       0xde ../sodalite_filetest_bsp/\libhal_bsp.a(alt_release_fd.o)
 .debug_abbrev  0x0000000000009591      0x12a ../sodalite_filetest_bsp/\libhal_bsp.a(alt_sbrk.o)
 .debug_abbrev  0x00000000000096bb       0xf0 ../sodalite_filetest_bsp/\libhal_bsp.a(alt_uncached_malloc.o)
 .debug_abbrev  0x00000000000097ab       0x96 ../sodalite_filetest_bsp/\libhal_bsp.a(alt_usleep.o)
 .debug_abbrev  0x0000000000009841      0x15f ../sodalite_filetest_bsp/\libhal_bsp.a(alt_write.o)
 .debug_abbrev  0x00000000000099a0      0x200 ../sodalite_filetest_bsp/\libhal_bsp.a(alt_sys_init.o)
 .debug_abbrev  0x0000000000009ba0      0x168 ../sodalite_filetest_bsp/\libhal_bsp.a(altera_avalon_jtag_uart_fd.o)
 .debug_abbrev  0x0000000000009d08      0x1ed ../sodalite_filetest_bsp/\libhal_bsp.a(altera_avalon_jtag_uart_init.o)
 .debug_abbrev  0x0000000000009ef5      0x111 ../sodalite_filetest_bsp/\libhal_bsp.a(altera_avalon_jtag_uart_ioctl.o)
 .debug_abbrev  0x000000000000a006      0x1ca ../sodalite_filetest_bsp/\libhal_bsp.a(altera_avalon_jtag_uart_read.o)
 .debug_abbrev  0x000000000000a1d0      0x1b7 ../sodalite_filetest_bsp/\libhal_bsp.a(altera_avalon_jtag_uart_write.o)
 .debug_abbrev  0x000000000000a387      0x1ad ../sodalite_filetest_bsp/\libhal_bsp.a(altera_avalon_timer_sc.o)
 .debug_abbrev  0x000000000000a534      0x171 ../sodalite_filetest_bsp/\libhal_bsp.a(altera_modular_adc.o)
 .debug_abbrev  0x000000000000a6a5      0x371 ../sodalite_filetest_bsp/\libhal_bsp.a(altera_onchip_flash.o)
 .debug_abbrev  0x000000000000aa16      0x187 ../sodalite_filetest_bsp/\libhal_bsp.a(alt_alarm_start.o)
 .debug_abbrev  0x000000000000ab9d       0x8d ../sodalite_filetest_bsp/\libhal_bsp.a(alt_busy_sleep.o)
 .debug_abbrev  0x000000000000ac2a       0x9b ../sodalite_filetest_bsp/\libhal_bsp.a(alt_dcache_flush.o)
 .debug_abbrev  0x000000000000acc5       0x5a ../sodalite_filetest_bsp/\libhal_bsp.a(alt_dcache_flush_all.o)
 .debug_abbrev  0x000000000000ad1f      0x11e ../sodalite_filetest_bsp/\libhal_bsp.a(alt_dev_llist_insert.o)
 .debug_abbrev  0x000000000000ae3d       0x79 ../sodalite_filetest_bsp/\libhal_bsp.a(alt_do_ctors.o)
 .debug_abbrev  0x000000000000aeb6       0x79 ../sodalite_filetest_bsp/\libhal_bsp.a(alt_do_dtors.o)
 .debug_abbrev  0x000000000000af2f      0x12e ../sodalite_filetest_bsp/\libhal_bsp.a(alt_find_dev.o)
 .debug_abbrev  0x000000000000b05d      0x13f ../sodalite_filetest_bsp/\libhal_bsp.a(alt_find_file.o)
 .debug_abbrev  0x000000000000b19c      0x16a ../sodalite_filetest_bsp/\libhal_bsp.a(alt_flash_dev.o)
 .debug_abbrev  0x000000000000b306      0x10d ../sodalite_filetest_bsp/\libhal_bsp.a(alt_get_fd.o)
 .debug_abbrev  0x000000000000b413       0x8a ../sodalite_filetest_bsp/\libhal_bsp.a(alt_icache_flush_all.o)
 .debug_abbrev  0x000000000000b49d      0x18c ../sodalite_filetest_bsp/\libhal_bsp.a(alt_iic.o)
 .debug_abbrev  0x000000000000b629      0x1b5 ../sodalite_filetest_bsp/\libhal_bsp.a(alt_iic_isr_register.o)
 .debug_abbrev  0x000000000000b7de      0x1a3 ../sodalite_filetest_bsp/\libhal_bsp.a(alt_io_redirect.o)
 .debug_abbrev  0x000000000000b981       0x12 ../sodalite_filetest_bsp/\libhal_bsp.a(alt_irq_entry.o)
 .debug_abbrev  0x000000000000b993      0x12d ../sodalite_filetest_bsp/\libhal_bsp.a(alt_irq_handler.o)
 .debug_abbrev  0x000000000000bac0       0x40 ../sodalite_filetest_bsp/\libhal_bsp.a(alt_irq_vars.o)
 .debug_abbrev  0x000000000000bb00      0x17d ../sodalite_filetest_bsp/\libhal_bsp.a(alt_tick.o)
 .debug_abbrev  0x000000000000bc7d       0x42 ../sodalite_filetest_bsp/\libhal_bsp.a(altera_nios2_gen2_irq.o)
 .debug_abbrev  0x000000000000bcbf       0x12 ../sodalite_filetest_bsp/\libhal_bsp.a(alt_exception_entry.o)
 .debug_abbrev  0x000000000000bcd1       0x9b ../sodalite_filetest_bsp/\libhal_bsp.a(alt_icache_flush.o)
 .debug_abbrev  0x000000000000bd6c       0xcf ../sodalite_filetest_bsp/\libhal_bsp.a(alt_instruction_exception_entry.o)
 .debug_abbrev  0x000000000000be3b      0x106 c:/develop/altera/14.0/nios2eds/bin/gnu/h-x86_64-mingw32/bin/../lib/gcc/nios2-elf/4.7.3/../../../../../H-x86_64-mingw32/nios2-elf/lib/mhw-mulx\libc.a(lib_a-atexit.o)
 .debug_abbrev  0x000000000000bf41      0x1c8 c:/develop/altera/14.0/nios2eds/bin/gnu/h-x86_64-mingw32/bin/../lib/gcc/nios2-elf/4.7.3/../../../../../H-x86_64-mingw32/nios2-elf/lib/mhw-mulx\libc.a(lib_a-exit.o)
 .debug_abbrev  0x000000000000c109      0x1af c:/develop/altera/14.0/nios2eds/bin/gnu/h-x86_64-mingw32/bin/../lib/gcc/nios2-elf/4.7.3/../../../../../H-x86_64-mingw32/nios2-elf/lib/mhw-mulx\libc.a(lib_a-malign.o)
 .debug_abbrev  0x000000000000c2b8      0x20b c:/develop/altera/14.0/nios2eds/bin/gnu/h-x86_64-mingw32/bin/../lib/gcc/nios2-elf/4.7.3/../../../../../H-x86_64-mingw32/nios2-elf/lib/mhw-mulx\libc.a(lib_a-malignr.o)
 .debug_abbrev  0x000000000000c4c3       0x7f c:/develop/altera/14.0/nios2eds/bin/gnu/h-x86_64-mingw32/bin/../lib/gcc/nios2-elf/4.7.3/../../../../../H-x86_64-mingw32/nios2-elf/lib/mhw-mulx\libc.a(lib_a-memcmp.o)
 .debug_abbrev  0x000000000000c542      0x211 c:/develop/altera/14.0/nios2eds/bin/gnu/h-x86_64-mingw32/bin/../lib/gcc/nios2-elf/4.7.3/../../../../../H-x86_64-mingw32/nios2-elf/lib/mhw-mulx\libc.a(lib_a-__atexit.o)
 .debug_abbrev  0x000000000000c753      0x203 c:/develop/altera/14.0/nios2eds/bin/gnu/h-x86_64-mingw32/bin/../lib/gcc/nios2-elf/4.7.3/../../../../../H-x86_64-mingw32/nios2-elf/lib/mhw-mulx\libc.a(lib_a-__call_atexit.o)
 .debug_abbrev  0x000000000000c956       0xa6 ../sodalite_filetest_bsp/\libhal_bsp.a(alt_exit.o)

.debug_line     0x0000000000000000     0xe8fd
 *(.debug_line)
 .debug_line    0x0000000000000000       0x72 ../sodalite_filetest_bsp//obj/HAL/src/crt0.o
 .debug_line    0x0000000000000072      0x28f obj/default/file_test.o
 .debug_line    0x0000000000000301      0x2c6 obj/default/loadbmp.o
 .debug_line    0x00000000000005c7      0xdef obj/default/mmcfs/fatfs/ff.o
 .debug_line    0x00000000000013b6      0x2ac obj/default/mmcfs/fatfs/mmcbb.o
 .debug_line    0x0000000000001662       0xa0 obj/default/mmcfs/fatfs/option/cc932.o
 .debug_line    0x0000000000001702       0x5b obj/default/mmcfs/gettime.o
 .debug_line    0x000000000000175d      0x116 obj/default/mmcfs/mmc_spi.o
 .debug_line    0x0000000000001873      0x300 obj/default/mmcfs/mmcfs.o
 .debug_line    0x0000000000001b73       0x36 obj/default/nd_lib/fontx_k12x10.o
 .debug_line    0x0000000000001ba9       0x35 obj/default/nd_lib/fontx_k6x10.o
 .debug_line    0x0000000000001bde      0x322 obj/default/nd_lib/nd_egl.o
 .debug_line    0x0000000000001f00      0x284 obj/default/testuty.o
 .debug_line    0x0000000000002184       0xd6 c:/develop/altera/14.0/nios2eds/bin/gnu/h-x86_64-mingw32/bin/../lib/gcc/nios2-elf/4.7.3/mhw-mulx\libgcc.a(lib2-divmod.o)
 .debug_line    0x000000000000225a      0x265 c:/develop/altera/14.0/nios2eds/bin/gnu/h-x86_64-mingw32/bin/../lib/gcc/nios2-elf/4.7.3/../../../../../H-x86_64-mingw32/nios2-elf/lib/mhw-mulx\libc.a(lib_a-fclose.o)
 .debug_line    0x00000000000024bf      0x29b c:/develop/altera/14.0/nios2eds/bin/gnu/h-x86_64-mingw32/bin/../lib/gcc/nios2-elf/4.7.3/../../../../../H-x86_64-mingw32/nios2-elf/lib/mhw-mulx\libc.a(lib_a-fflush.o)
 .debug_line    0x000000000000275a      0x2e5 c:/develop/altera/14.0/nios2eds/bin/gnu/h-x86_64-mingw32/bin/../lib/gcc/nios2-elf/4.7.3/../../../../../H-x86_64-mingw32/nios2-elf/lib/mhw-mulx\libc.a(lib_a-findfp.o)
 .debug_line    0x0000000000002a3f      0x240 c:/develop/altera/14.0/nios2eds/bin/gnu/h-x86_64-mingw32/bin/../lib/gcc/nios2-elf/4.7.3/../../../../../H-x86_64-mingw32/nios2-elf/lib/mhw-mulx\libc.a(lib_a-fopen.o)
 .debug_line    0x0000000000002c7f      0x2c0 c:/develop/altera/14.0/nios2eds/bin/gnu/h-x86_64-mingw32/bin/../lib/gcc/nios2-elf/4.7.3/../../../../../H-x86_64-mingw32/nios2-elf/lib/mhw-mulx\libc.a(lib_a-fread.o)
 .debug_line    0x0000000000002f3f      0x310 c:/develop/altera/14.0/nios2eds/bin/gnu/h-x86_64-mingw32/bin/../lib/gcc/nios2-elf/4.7.3/../../../../../H-x86_64-mingw32/nios2-elf/lib/mhw-mulx\libc.a(lib_a-freer.o)
 .debug_line    0x000000000000324f      0x35b c:/develop/altera/14.0/nios2eds/bin/gnu/h-x86_64-mingw32/bin/../lib/gcc/nios2-elf/4.7.3/../../../../../H-x86_64-mingw32/nios2-elf/lib/mhw-mulx\libc.a(lib_a-fseek.o)
 .debug_line    0x00000000000035aa      0x21b c:/develop/altera/14.0/nios2eds/bin/gnu/h-x86_64-mingw32/bin/../lib/gcc/nios2-elf/4.7.3/../../../../../H-x86_64-mingw32/nios2-elf/lib/mhw-mulx\libc.a(lib_a-fstatr.o)
 .debug_line    0x00000000000037c5      0x258 c:/develop/altera/14.0/nios2eds/bin/gnu/h-x86_64-mingw32/bin/../lib/gcc/nios2-elf/4.7.3/../../../../../H-x86_64-mingw32/nios2-elf/lib/mhw-mulx\libc.a(lib_a-fwalk.o)
 .debug_line    0x0000000000003a1d      0x174 c:/develop/altera/14.0/nios2eds/bin/gnu/h-x86_64-mingw32/bin/../lib/gcc/nios2-elf/4.7.3/../../../../../H-x86_64-mingw32/nios2-elf/lib/mhw-mulx\libc.a(lib_a-impure.o)
 .debug_line    0x0000000000003b91       0x60 c:/develop/altera/14.0/nios2eds/bin/gnu/h-x86_64-mingw32/bin/../lib/gcc/nios2-elf/4.7.3/../../../../../H-x86_64-mingw32/nios2-elf/lib/mhw-mulx\libc.a(lib_a-int_errno.o)
 .debug_line    0x0000000000003bf1      0x292 c:/develop/altera/14.0/nios2eds/bin/gnu/h-x86_64-mingw32/bin/../lib/gcc/nios2-elf/4.7.3/../../../../../H-x86_64-mingw32/nios2-elf/lib/mhw-mulx\libc.a(lib_a-makebuf.o)
 .debug_line    0x0000000000003e83      0x420 c:/develop/altera/14.0/nios2eds/bin/gnu/h-x86_64-mingw32/bin/../lib/gcc/nios2-elf/4.7.3/../../../../../H-x86_64-mingw32/nios2-elf/lib/mhw-mulx\libc.a(lib_a-mallocr.o)
 .debug_line    0x00000000000042a3      0x140 c:/develop/altera/14.0/nios2eds/bin/gnu/h-x86_64-mingw32/bin/../lib/gcc/nios2-elf/4.7.3/../../../../../H-x86_64-mingw32/nios2-elf/lib/mhw-mulx\libc.a(lib_a-memcpy.o)
 .debug_line    0x00000000000043e3      0x1f2 c:/develop/altera/14.0/nios2eds/bin/gnu/h-x86_64-mingw32/bin/../lib/gcc/nios2-elf/4.7.3/../../../../../H-x86_64-mingw32/nios2-elf/lib/mhw-mulx\libc.a(lib_a-memset.o)
 .debug_line    0x00000000000045d5      0x219 c:/develop/altera/14.0/nios2eds/bin/gnu/h-x86_64-mingw32/bin/../lib/gcc/nios2-elf/4.7.3/../../../../../H-x86_64-mingw32/nios2-elf/lib/mhw-mulx\libc.a(lib_a-openr.o)
 .debug_line    0x00000000000047ee      0x217 c:/develop/altera/14.0/nios2eds/bin/gnu/h-x86_64-mingw32/bin/../lib/gcc/nios2-elf/4.7.3/../../../../../H-x86_64-mingw32/nios2-elf/lib/mhw-mulx\libc.a(lib_a-printf.o)
 .debug_line    0x0000000000004a05      0x202 c:/develop/altera/14.0/nios2eds/bin/gnu/h-x86_64-mingw32/bin/../lib/gcc/nios2-elf/4.7.3/../../../../../H-x86_64-mingw32/nios2-elf/lib/mhw-mulx\libc.a(lib_a-putchar.o)
 .debug_line    0x0000000000004c07      0x234 c:/develop/altera/14.0/nios2eds/bin/gnu/h-x86_64-mingw32/bin/../lib/gcc/nios2-elf/4.7.3/../../../../../H-x86_64-mingw32/nios2-elf/lib/mhw-mulx\libc.a(lib_a-puts.o)
 .debug_line    0x0000000000004e3b      0x28c c:/develop/altera/14.0/nios2eds/bin/gnu/h-x86_64-mingw32/bin/../lib/gcc/nios2-elf/4.7.3/../../../../../H-x86_64-mingw32/nios2-elf/lib/mhw-mulx\libc.a(lib_a-refill.o)
 .debug_line    0x00000000000050c7      0x211 c:/develop/altera/14.0/nios2eds/bin/gnu/h-x86_64-mingw32/bin/../lib/gcc/nios2-elf/4.7.3/../../../../../H-x86_64-mingw32/nios2-elf/lib/mhw-mulx\libc.a(lib_a-sbrkr.o)
 .debug_line    0x00000000000052d8      0x244 c:/develop/altera/14.0/nios2eds/bin/gnu/h-x86_64-mingw32/bin/../lib/gcc/nios2-elf/4.7.3/../../../../../H-x86_64-mingw32/nios2-elf/lib/mhw-mulx\libc.a(lib_a-stdio.o)
 .debug_line    0x000000000000551c      0x183 c:/develop/altera/14.0/nios2eds/bin/gnu/h-x86_64-mingw32/bin/../lib/gcc/nios2-elf/4.7.3/../../../../../H-x86_64-mingw32/nios2-elf/lib/mhw-mulx\libc.a(lib_a-strlen.o)
 .debug_line    0x000000000000569f      0xaf6 c:/develop/altera/14.0/nios2eds/bin/gnu/h-x86_64-mingw32/bin/../lib/gcc/nios2-elf/4.7.3/../../../../../H-x86_64-mingw32/nios2-elf/lib/mhw-mulx\libc.a(lib_a-vfprintf.o)
 .debug_line    0x0000000000006195      0x212 c:/develop/altera/14.0/nios2eds/bin/gnu/h-x86_64-mingw32/bin/../lib/gcc/nios2-elf/4.7.3/../../../../../H-x86_64-mingw32/nios2-elf/lib/mhw-mulx\libc.a(lib_a-writer.o)
 .debug_line    0x00000000000063a7      0x26a c:/develop/altera/14.0/nios2eds/bin/gnu/h-x86_64-mingw32/bin/../lib/gcc/nios2-elf/4.7.3/../../../../../H-x86_64-mingw32/nios2-elf/lib/mhw-mulx\libc.a(lib_a-wsetup.o)
 .debug_line    0x0000000000006611      0x212 c:/develop/altera/14.0/nios2eds/bin/gnu/h-x86_64-mingw32/bin/../lib/gcc/nios2-elf/4.7.3/../../../../../H-x86_64-mingw32/nios2-elf/lib/mhw-mulx\libc.a(lib_a-closer.o)
 .debug_line    0x0000000000006823      0x873 c:/develop/altera/14.0/nios2eds/bin/gnu/h-x86_64-mingw32/bin/../lib/gcc/nios2-elf/4.7.3/../../../../../H-x86_64-mingw32/nios2-elf/lib/mhw-mulx\libc.a(lib_a-dtoa.o)
 .debug_line    0x0000000000007096      0x1ae c:/develop/altera/14.0/nios2eds/bin/gnu/h-x86_64-mingw32/bin/../lib/gcc/nios2-elf/4.7.3/../../../../../H-x86_64-mingw32/nios2-elf/lib/mhw-mulx\libc.a(lib_a-flags.o)
 .debug_line    0x0000000000007244      0x35f c:/develop/altera/14.0/nios2eds/bin/gnu/h-x86_64-mingw32/bin/../lib/gcc/nios2-elf/4.7.3/../../../../../H-x86_64-mingw32/nios2-elf/lib/mhw-mulx\libc.a(lib_a-fvwrite.o)
 .debug_line    0x00000000000075a3      0x213 c:/develop/altera/14.0/nios2eds/bin/gnu/h-x86_64-mingw32/bin/../lib/gcc/nios2-elf/4.7.3/../../../../../H-x86_64-mingw32/nios2-elf/lib/mhw-mulx\libc.a(lib_a-isattyr.o)
 .debug_line    0x00000000000077b6      0x230 c:/develop/altera/14.0/nios2eds/bin/gnu/h-x86_64-mingw32/bin/../lib/gcc/nios2-elf/4.7.3/../../../../../H-x86_64-mingw32/nios2-elf/lib/mhw-mulx\libc.a(lib_a-locale.o)
 .debug_line    0x00000000000079e6      0x21d c:/develop/altera/14.0/nios2eds/bin/gnu/h-x86_64-mingw32/bin/../lib/gcc/nios2-elf/4.7.3/../../../../../H-x86_64-mingw32/nios2-elf/lib/mhw-mulx\libc.a(lib_a-lseekr.o)
 .debug_line    0x0000000000007c03      0x1f2 c:/develop/altera/14.0/nios2eds/bin/gnu/h-x86_64-mingw32/bin/../lib/gcc/nios2-elf/4.7.3/../../../../../H-x86_64-mingw32/nios2-elf/lib/mhw-mulx\libc.a(lib_a-memchr.o)
 .debug_line    0x0000000000007df5      0x1ee c:/develop/altera/14.0/nios2eds/bin/gnu/h-x86_64-mingw32/bin/../lib/gcc/nios2-elf/4.7.3/../../../../../H-x86_64-mingw32/nios2-elf/lib/mhw-mulx\libc.a(lib_a-memmove.o)
 .debug_line    0x0000000000007fe3      0x722 c:/develop/altera/14.0/nios2eds/bin/gnu/h-x86_64-mingw32/bin/../lib/gcc/nios2-elf/4.7.3/../../../../../H-x86_64-mingw32/nios2-elf/lib/mhw-mulx\libc.a(lib_a-mprec.o)
 .debug_line    0x0000000000008705      0x29b c:/develop/altera/14.0/nios2eds/bin/gnu/h-x86_64-mingw32/bin/../lib/gcc/nios2-elf/4.7.3/../../../../../H-x86_64-mingw32/nios2-elf/lib/mhw-mulx\libc.a(lib_a-putc.o)
 .debug_line    0x00000000000089a0      0x211 c:/develop/altera/14.0/nios2eds/bin/gnu/h-x86_64-mingw32/bin/../lib/gcc/nios2-elf/4.7.3/../../../../../H-x86_64-mingw32/nios2-elf/lib/mhw-mulx\libc.a(lib_a-readr.o)
 .debug_line    0x0000000000008bb1      0x331 c:/develop/altera/14.0/nios2eds/bin/gnu/h-x86_64-mingw32/bin/../lib/gcc/nios2-elf/4.7.3/../../../../../H-x86_64-mingw32/nios2-elf/lib/mhw-mulx\libc.a(lib_a-reallocr.o)
 .debug_line    0x0000000000008ee2      0x16f c:/develop/altera/14.0/nios2eds/bin/gnu/h-x86_64-mingw32/bin/../lib/gcc/nios2-elf/4.7.3/../../../../../H-x86_64-mingw32/nios2-elf/lib/mhw-mulx\libc.a(lib_a-s_isinfd.o)
 .debug_line    0x0000000000009051      0x16f c:/develop/altera/14.0/nios2eds/bin/gnu/h-x86_64-mingw32/bin/../lib/gcc/nios2-elf/4.7.3/../../../../../H-x86_64-mingw32/nios2-elf/lib/mhw-mulx\libc.a(lib_a-s_isnand.o)
 .debug_line    0x00000000000091c0      0x111 c:/develop/altera/14.0/nios2eds/bin/gnu/h-x86_64-mingw32/bin/../lib/gcc/nios2-elf/4.7.3/../../../../../H-x86_64-mingw32/nios2-elf/lib/mhw-mulx\libc.a(lib_a-strcmp.o)
 .debug_line    0x00000000000092d1      0x271 c:/develop/altera/14.0/nios2eds/bin/gnu/h-x86_64-mingw32/bin/../lib/gcc/nios2-elf/4.7.3/../../../../../H-x86_64-mingw32/nios2-elf/lib/mhw-mulx\libc.a(lib_a-wbuf.o)
 .debug_line    0x0000000000009542      0x1ca c:/develop/altera/14.0/nios2eds/bin/gnu/h-x86_64-mingw32/bin/../lib/gcc/nios2-elf/4.7.3/../../../../../H-x86_64-mingw32/nios2-elf/lib/mhw-mulx\libc.a(lib_a-callocr.o)
 .debug_line    0x000000000000970c      0x11c c:/develop/altera/14.0/nios2eds/bin/gnu/h-x86_64-mingw32/bin/../lib/gcc/nios2-elf/4.7.3/mhw-mulx\libgcc.a(_udivdi3.o)
 .debug_line    0x0000000000009828      0x124 c:/develop/altera/14.0/nios2eds/bin/gnu/h-x86_64-mingw32/bin/../lib/gcc/nios2-elf/4.7.3/mhw-mulx\libgcc.a(_umoddi3.o)
 .debug_line    0x000000000000994c      0x134 c:/develop/altera/14.0/nios2eds/bin/gnu/h-x86_64-mingw32/bin/../lib/gcc/nios2-elf/4.7.3/mhw-mulx\libgcc.a(_addsub_df.o)
 .debug_line    0x0000000000009a80      0x104 c:/develop/altera/14.0/nios2eds/bin/gnu/h-x86_64-mingw32/bin/../lib/gcc/nios2-elf/4.7.3/mhw-mulx\libgcc.a(_mul_df.o)
 .debug_line    0x0000000000009b84       0xd1 c:/develop/altera/14.0/nios2eds/bin/gnu/h-x86_64-mingw32/bin/../lib/gcc/nios2-elf/4.7.3/mhw-mulx\libgcc.a(_div_df.o)
 .debug_line    0x0000000000009c55       0x70 c:/develop/altera/14.0/nios2eds/bin/gnu/h-x86_64-mingw32/bin/../lib/gcc/nios2-elf/4.7.3/mhw-mulx\libgcc.a(_eq_df.o)
 .debug_line    0x0000000000009cc5       0x70 c:/develop/altera/14.0/nios2eds/bin/gnu/h-x86_64-mingw32/bin/../lib/gcc/nios2-elf/4.7.3/mhw-mulx\libgcc.a(_ne_df.o)
 .debug_line    0x0000000000009d35       0x71 c:/develop/altera/14.0/nios2eds/bin/gnu/h-x86_64-mingw32/bin/../lib/gcc/nios2-elf/4.7.3/mhw-mulx\libgcc.a(_gt_df.o)
 .debug_line    0x0000000000009da6       0x71 c:/develop/altera/14.0/nios2eds/bin/gnu/h-x86_64-mingw32/bin/../lib/gcc/nios2-elf/4.7.3/mhw-mulx\libgcc.a(_ge_df.o)
 .debug_line    0x0000000000009e17       0x70 c:/develop/altera/14.0/nios2eds/bin/gnu/h-x86_64-mingw32/bin/../lib/gcc/nios2-elf/4.7.3/mhw-mulx\libgcc.a(_lt_df.o)
 .debug_line    0x0000000000009e87       0x97 c:/develop/altera/14.0/nios2eds/bin/gnu/h-x86_64-mingw32/bin/../lib/gcc/nios2-elf/4.7.3/mhw-mulx\libgcc.a(_si_to_df.o)
 .debug_line    0x0000000000009f1e       0x90 c:/develop/altera/14.0/nios2eds/bin/gnu/h-x86_64-mingw32/bin/../lib/gcc/nios2-elf/4.7.3/mhw-mulx\libgcc.a(_df_to_si.o)
 .debug_line    0x0000000000009fae       0x54 c:/develop/altera/14.0/nios2eds/bin/gnu/h-x86_64-mingw32/bin/../lib/gcc/nios2-elf/4.7.3/mhw-mulx\libgcc.a(_thenan_df.o)
 .debug_line    0x000000000000a002       0xa1 c:/develop/altera/14.0/nios2eds/bin/gnu/h-x86_64-mingw32/bin/../lib/gcc/nios2-elf/4.7.3/mhw-mulx\libgcc.a(_usi_to_df.o)
 .debug_line    0x000000000000a0a3       0x56 c:/develop/altera/14.0/nios2eds/bin/gnu/h-x86_64-mingw32/bin/../lib/gcc/nios2-elf/4.7.3/mhw-mulx\libgcc.a(_clz.o)
 .debug_line    0x000000000000a0f9       0x8f c:/develop/altera/14.0/nios2eds/bin/gnu/h-x86_64-mingw32/bin/../lib/gcc/nios2-elf/4.7.3/mhw-mulx\libgcc.a(_clzsi2.o)
 .debug_line    0x000000000000a188       0xca c:/develop/altera/14.0/nios2eds/bin/gnu/h-x86_64-mingw32/bin/../lib/gcc/nios2-elf/4.7.3/mhw-mulx\libgcc.a(_pack_df.o)
 .debug_line    0x000000000000a252       0xa5 c:/develop/altera/14.0/nios2eds/bin/gnu/h-x86_64-mingw32/bin/../lib/gcc/nios2-elf/4.7.3/mhw-mulx\libgcc.a(_unpack_df.o)
 .debug_line    0x000000000000a2f7       0x99 c:/develop/altera/14.0/nios2eds/bin/gnu/h-x86_64-mingw32/bin/../lib/gcc/nios2-elf/4.7.3/mhw-mulx\libgcc.a(_fpcmp_parts_df.o)
 .debug_line    0x000000000000a390       0x7a c:/develop/altera/14.0/nios2eds/bin/gnu/h-x86_64-mingw32/bin/../lib/gcc/nios2-elf/4.7.3/mhw-mulx\libgcc.a(_lshrdi3.o)
 .debug_line    0x000000000000a40a       0x78 c:/develop/altera/14.0/nios2eds/bin/gnu/h-x86_64-mingw32/bin/../lib/gcc/nios2-elf/4.7.3/mhw-mulx\libgcc.a(_ashldi3.o)
 .debug_line    0x000000000000a482      0x18c ../sodalite_filetest_bsp/\libhal_bsp.a(alt_close.o)
 .debug_line    0x000000000000a60e      0x121 ../sodalite_filetest_bsp/\libhal_bsp.a(alt_dev.o)
 .debug_line    0x000000000000a72f       0x51 ../sodalite_filetest_bsp/\libhal_bsp.a(alt_errno.o)
 .debug_line    0x000000000000a780       0xc4 ../sodalite_filetest_bsp/\libhal_bsp.a(alt_fs_reg.o)
 .debug_line    0x000000000000a844      0x174 ../sodalite_filetest_bsp/\libhal_bsp.a(alt_fstat.o)
 .debug_line    0x000000000000a9b8      0x17e ../sodalite_filetest_bsp/\libhal_bsp.a(alt_isatty.o)
 .debug_line    0x000000000000ab36       0xdc ../sodalite_filetest_bsp/\libhal_bsp.a(alt_load.o)
 .debug_line    0x000000000000ac12      0x17b ../sodalite_filetest_bsp/\libhal_bsp.a(alt_lseek.o)
 .debug_line    0x000000000000ad8d      0x1cf ../sodalite_filetest_bsp/\libhal_bsp.a(alt_main.o)
 .debug_line    0x000000000000af5c      0x151 ../sodalite_filetest_bsp/\libhal_bsp.a(alt_malloc_lock.o)
 .debug_line    0x000000000000b0ad      0x112 ../sodalite_filetest_bsp/\libhal_bsp.a(alt_open.o)
 .debug_line    0x000000000000b1bf      0x20e ../sodalite_filetest_bsp/\libhal_bsp.a(alt_read.o)
 .debug_line    0x000000000000b3cd       0xac ../sodalite_filetest_bsp/\libhal_bsp.a(alt_release_fd.o)
 .debug_line    0x000000000000b479      0x117 ../sodalite_filetest_bsp/\libhal_bsp.a(alt_sbrk.o)
 .debug_line    0x000000000000b590      0x10b ../sodalite_filetest_bsp/\libhal_bsp.a(alt_uncached_malloc.o)
 .debug_line    0x000000000000b69b       0xfa ../sodalite_filetest_bsp/\libhal_bsp.a(alt_usleep.o)
 .debug_line    0x000000000000b795      0x206 ../sodalite_filetest_bsp/\libhal_bsp.a(alt_write.o)
 .debug_line    0x000000000000b99b      0x1c4 ../sodalite_filetest_bsp/\libhal_bsp.a(alt_sys_init.o)
 .debug_line    0x000000000000bb5f      0x122 ../sodalite_filetest_bsp/\libhal_bsp.a(altera_avalon_jtag_uart_fd.o)
 .debug_line    0x000000000000bc81      0x19f ../sodalite_filetest_bsp/\libhal_bsp.a(altera_avalon_jtag_uart_init.o)
 .debug_line    0x000000000000be20      0x110 ../sodalite_filetest_bsp/\libhal_bsp.a(altera_avalon_jtag_uart_ioctl.o)
 .debug_line    0x000000000000bf30      0x171 ../sodalite_filetest_bsp/\libhal_bsp.a(altera_avalon_jtag_uart_read.o)
 .debug_line    0x000000000000c0a1      0x196 ../sodalite_filetest_bsp/\libhal_bsp.a(altera_avalon_jtag_uart_write.o)
 .debug_line    0x000000000000c237       0xfe ../sodalite_filetest_bsp/\libhal_bsp.a(altera_avalon_timer_sc.o)
 .debug_line    0x000000000000c335      0x18b ../sodalite_filetest_bsp/\libhal_bsp.a(altera_modular_adc.o)
 .debug_line    0x000000000000c4c0      0x493 ../sodalite_filetest_bsp/\libhal_bsp.a(altera_onchip_flash.o)
 .debug_line    0x000000000000c953       0xeb ../sodalite_filetest_bsp/\libhal_bsp.a(alt_alarm_start.o)
 .debug_line    0x000000000000ca3e       0x9f ../sodalite_filetest_bsp/\libhal_bsp.a(alt_busy_sleep.o)
 .debug_line    0x000000000000cadd       0x77 ../sodalite_filetest_bsp/\libhal_bsp.a(alt_dcache_flush.o)
 .debug_line    0x000000000000cb54       0x5a ../sodalite_filetest_bsp/\libhal_bsp.a(alt_dcache_flush_all.o)
 .debug_line    0x000000000000cbae       0xcd ../sodalite_filetest_bsp/\libhal_bsp.a(alt_dev_llist_insert.o)
 .debug_line    0x000000000000cc7b       0x5f ../sodalite_filetest_bsp/\libhal_bsp.a(alt_do_ctors.o)
 .debug_line    0x000000000000ccda       0x5f ../sodalite_filetest_bsp/\libhal_bsp.a(alt_do_dtors.o)
 .debug_line    0x000000000000cd39      0x1a7 ../sodalite_filetest_bsp/\libhal_bsp.a(alt_find_dev.o)
 .debug_line    0x000000000000cee0      0x1c1 ../sodalite_filetest_bsp/\libhal_bsp.a(alt_find_file.o)
 .debug_line    0x000000000000d0a1       0xea ../sodalite_filetest_bsp/\libhal_bsp.a(alt_flash_dev.o)
 .debug_line    0x000000000000d18b       0xc6 ../sodalite_filetest_bsp/\libhal_bsp.a(alt_get_fd.o)
 .debug_line    0x000000000000d251       0x87 ../sodalite_filetest_bsp/\libhal_bsp.a(alt_icache_flush_all.o)
 .debug_line    0x000000000000d2d8       0xf1 ../sodalite_filetest_bsp/\libhal_bsp.a(alt_iic.o)
 .debug_line    0x000000000000d3c9       0xd3 ../sodalite_filetest_bsp/\libhal_bsp.a(alt_iic_isr_register.o)
 .debug_line    0x000000000000d49c      0x174 ../sodalite_filetest_bsp/\libhal_bsp.a(alt_io_redirect.o)
 .debug_line    0x000000000000d610       0x6b ../sodalite_filetest_bsp/\libhal_bsp.a(alt_irq_entry.o)
 .debug_line    0x000000000000d67b       0xab ../sodalite_filetest_bsp/\libhal_bsp.a(alt_irq_handler.o)
 .debug_line    0x000000000000d726       0x50 ../sodalite_filetest_bsp/\libhal_bsp.a(alt_irq_vars.o)
 .debug_line    0x000000000000d776      0x12a ../sodalite_filetest_bsp/\libhal_bsp.a(alt_tick.o)
 .debug_line    0x000000000000d8a0       0x50 ../sodalite_filetest_bsp/\libhal_bsp.a(altera_nios2_gen2_irq.o)
 .debug_line    0x000000000000d8f0       0xb1 ../sodalite_filetest_bsp/\libhal_bsp.a(alt_exception_entry.o)
 .debug_line    0x000000000000d9a1       0x7a ../sodalite_filetest_bsp/\libhal_bsp.a(alt_icache_flush.o)
 .debug_line    0x000000000000da1b       0xc3 ../sodalite_filetest_bsp/\libhal_bsp.a(alt_instruction_exception_entry.o)
 .debug_line    0x000000000000dade      0x16c c:/develop/altera/14.0/nios2eds/bin/gnu/h-x86_64-mingw32/bin/../lib/gcc/nios2-elf/4.7.3/../../../../../H-x86_64-mingw32/nios2-elf/lib/mhw-mulx\libc.a(lib_a-atexit.o)
 .debug_line    0x000000000000dc4a      0x218 c:/develop/altera/14.0/nios2eds/bin/gnu/h-x86_64-mingw32/bin/../lib/gcc/nios2-elf/4.7.3/../../../../../H-x86_64-mingw32/nios2-elf/lib/mhw-mulx\libc.a(lib_a-exit.o)
 .debug_line    0x000000000000de62      0x1ff c:/develop/altera/14.0/nios2eds/bin/gnu/h-x86_64-mingw32/bin/../lib/gcc/nios2-elf/4.7.3/../../../../../H-x86_64-mingw32/nios2-elf/lib/mhw-mulx\libc.a(lib_a-malign.o)
 .debug_line    0x000000000000e061      0x1f8 c:/develop/altera/14.0/nios2eds/bin/gnu/h-x86_64-mingw32/bin/../lib/gcc/nios2-elf/4.7.3/../../../../../H-x86_64-mingw32/nios2-elf/lib/mhw-mulx\libc.a(lib_a-malignr.o)
 .debug_line    0x000000000000e259      0x18e c:/develop/altera/14.0/nios2eds/bin/gnu/h-x86_64-mingw32/bin/../lib/gcc/nios2-elf/4.7.3/../../../../../H-x86_64-mingw32/nios2-elf/lib/mhw-mulx\libc.a(lib_a-memcmp.o)
 .debug_line    0x000000000000e3e7      0x24f c:/develop/altera/14.0/nios2eds/bin/gnu/h-x86_64-mingw32/bin/../lib/gcc/nios2-elf/4.7.3/../../../../../H-x86_64-mingw32/nios2-elf/lib/mhw-mulx\libc.a(lib_a-__atexit.o)
 .debug_line    0x000000000000e636      0x263 c:/develop/altera/14.0/nios2eds/bin/gnu/h-x86_64-mingw32/bin/../lib/gcc/nios2-elf/4.7.3/../../../../../H-x86_64-mingw32/nios2-elf/lib/mhw-mulx\libc.a(lib_a-__call_atexit.o)
 .debug_line    0x000000000000e899       0x64 ../sodalite_filetest_bsp/\libhal_bsp.a(alt_exit.o)

.debug_frame    0x0000000000000000     0x2514
 *(.debug_frame)
 .debug_frame   0x0000000000000000       0x38 obj/default/file_test.o
 .debug_frame   0x0000000000000038       0x3c obj/default/loadbmp.o
 .debug_frame   0x0000000000000074      0x49c obj/default/mmcfs/fatfs/ff.o
 .debug_frame   0x0000000000000510      0x178 obj/default/mmcfs/fatfs/mmcbb.o
 .debug_frame   0x0000000000000688       0x30 obj/default/mmcfs/fatfs/option/cc932.o
 .debug_frame   0x00000000000006b8       0x20 obj/default/mmcfs/gettime.o
 .debug_frame   0x00000000000006d8       0xe0 obj/default/mmcfs/mmc_spi.o
 .debug_frame   0x00000000000007b8       0xbc obj/default/mmcfs/mmcfs.o
 .debug_frame   0x0000000000000874      0x280 obj/default/nd_lib/nd_egl.o
 .debug_frame   0x0000000000000af4       0xb8 obj/default/testuty.o
 .debug_frame   0x0000000000000bac       0x70 c:/develop/altera/14.0/nios2eds/bin/gnu/h-x86_64-mingw32/bin/../lib/gcc/nios2-elf/4.7.3/mhw-mulx\libgcc.a(lib2-divmod.o)
 .debug_frame   0x0000000000000c1c       0x3c c:/develop/altera/14.0/nios2eds/bin/gnu/h-x86_64-mingw32/bin/../lib/gcc/nios2-elf/4.7.3/../../../../../H-x86_64-mingw32/nios2-elf/lib/mhw-mulx\libc.a(lib_a-fclose.o)
 .debug_frame   0x0000000000000c58       0x40 c:/develop/altera/14.0/nios2eds/bin/gnu/h-x86_64-mingw32/bin/../lib/gcc/nios2-elf/4.7.3/../../../../../H-x86_64-mingw32/nios2-elf/lib/mhw-mulx\libc.a(lib_a-fflush.o)
 .debug_frame   0x0000000000000c98      0x100 c:/develop/altera/14.0/nios2eds/bin/gnu/h-x86_64-mingw32/bin/../lib/gcc/nios2-elf/4.7.3/../../../../../H-x86_64-mingw32/nios2-elf/lib/mhw-mulx\libc.a(lib_a-findfp.o)
 .debug_frame   0x0000000000000d98       0x40 c:/develop/altera/14.0/nios2eds/bin/gnu/h-x86_64-mingw32/bin/../lib/gcc/nios2-elf/4.7.3/../../../../../H-x86_64-mingw32/nios2-elf/lib/mhw-mulx\libc.a(lib_a-fopen.o)
 .debug_frame   0x0000000000000dd8       0x54 c:/develop/altera/14.0/nios2eds/bin/gnu/h-x86_64-mingw32/bin/../lib/gcc/nios2-elf/4.7.3/../../../../../H-x86_64-mingw32/nios2-elf/lib/mhw-mulx\libc.a(lib_a-fread.o)
 .debug_frame   0x0000000000000e2c       0x4c c:/develop/altera/14.0/nios2eds/bin/gnu/h-x86_64-mingw32/bin/../lib/gcc/nios2-elf/4.7.3/../../../../../H-x86_64-mingw32/nios2-elf/lib/mhw-mulx\libc.a(lib_a-freer.o)
 .debug_frame   0x0000000000000e78       0x48 c:/develop/altera/14.0/nios2eds/bin/gnu/h-x86_64-mingw32/bin/../lib/gcc/nios2-elf/4.7.3/../../../../../H-x86_64-mingw32/nios2-elf/lib/mhw-mulx\libc.a(lib_a-fseek.o)
 .debug_frame   0x0000000000000ec0       0x2c c:/develop/altera/14.0/nios2eds/bin/gnu/h-x86_64-mingw32/bin/../lib/gcc/nios2-elf/4.7.3/../../../../../H-x86_64-mingw32/nios2-elf/lib/mhw-mulx\libc.a(lib_a-fstatr.o)
 .debug_frame   0x0000000000000eec       0x5c c:/develop/altera/14.0/nios2eds/bin/gnu/h-x86_64-mingw32/bin/../lib/gcc/nios2-elf/4.7.3/../../../../../H-x86_64-mingw32/nios2-elf/lib/mhw-mulx\libc.a(lib_a-fwalk.o)
 .debug_frame   0x0000000000000f48       0x2c c:/develop/altera/14.0/nios2eds/bin/gnu/h-x86_64-mingw32/bin/../lib/gcc/nios2-elf/4.7.3/../../../../../H-x86_64-mingw32/nios2-elf/lib/mhw-mulx\libc.a(lib_a-makebuf.o)
 .debug_frame   0x0000000000000f74       0x38 c:/develop/altera/14.0/nios2eds/bin/gnu/h-x86_64-mingw32/bin/../lib/gcc/nios2-elf/4.7.3/../../../../../H-x86_64-mingw32/nios2-elf/lib/mhw-mulx\libc.a(lib_a-mallocr.o)
 .debug_frame   0x0000000000000fac       0x20 c:/develop/altera/14.0/nios2eds/bin/gnu/h-x86_64-mingw32/bin/../lib/gcc/nios2-elf/4.7.3/../../../../../H-x86_64-mingw32/nios2-elf/lib/mhw-mulx\libc.a(lib_a-memcpy.o)
 .debug_frame   0x0000000000000fcc       0x20 c:/develop/altera/14.0/nios2eds/bin/gnu/h-x86_64-mingw32/bin/../lib/gcc/nios2-elf/4.7.3/../../../../../H-x86_64-mingw32/nios2-elf/lib/mhw-mulx\libc.a(lib_a-memset.o)
 .debug_frame   0x0000000000000fec       0x2c c:/develop/altera/14.0/nios2eds/bin/gnu/h-x86_64-mingw32/bin/../lib/gcc/nios2-elf/4.7.3/../../../../../H-x86_64-mingw32/nios2-elf/lib/mhw-mulx\libc.a(lib_a-openr.o)
 .debug_frame   0x0000000000001018       0x40 c:/develop/altera/14.0/nios2eds/bin/gnu/h-x86_64-mingw32/bin/../lib/gcc/nios2-elf/4.7.3/../../../../../H-x86_64-mingw32/nios2-elf/lib/mhw-mulx\libc.a(lib_a-printf.o)
 .debug_frame   0x0000000000001058       0x30 c:/develop/altera/14.0/nios2eds/bin/gnu/h-x86_64-mingw32/bin/../lib/gcc/nios2-elf/4.7.3/../../../../../H-x86_64-mingw32/nios2-elf/lib/mhw-mulx\libc.a(lib_a-putchar.o)
 .debug_frame   0x0000000000001088       0x3c c:/develop/altera/14.0/nios2eds/bin/gnu/h-x86_64-mingw32/bin/../lib/gcc/nios2-elf/4.7.3/../../../../../H-x86_64-mingw32/nios2-elf/lib/mhw-mulx\libc.a(lib_a-puts.o)
 .debug_frame   0x00000000000010c4       0x3c c:/develop/altera/14.0/nios2eds/bin/gnu/h-x86_64-mingw32/bin/../lib/gcc/nios2-elf/4.7.3/../../../../../H-x86_64-mingw32/nios2-elf/lib/mhw-mulx\libc.a(lib_a-refill.o)
 .debug_frame   0x0000000000001100       0x2c c:/develop/altera/14.0/nios2eds/bin/gnu/h-x86_64-mingw32/bin/../lib/gcc/nios2-elf/4.7.3/../../../../../H-x86_64-mingw32/nios2-elf/lib/mhw-mulx\libc.a(lib_a-sbrkr.o)
 .debug_frame   0x000000000000112c       0x78 c:/develop/altera/14.0/nios2eds/bin/gnu/h-x86_64-mingw32/bin/../lib/gcc/nios2-elf/4.7.3/../../../../../H-x86_64-mingw32/nios2-elf/lib/mhw-mulx\libc.a(lib_a-stdio.o)
 .debug_frame   0x00000000000011a4       0x20 c:/develop/altera/14.0/nios2eds/bin/gnu/h-x86_64-mingw32/bin/../lib/gcc/nios2-elf/4.7.3/../../../../../H-x86_64-mingw32/nios2-elf/lib/mhw-mulx\libc.a(lib_a-strlen.o)
 .debug_frame   0x00000000000011c4       0x64 c:/develop/altera/14.0/nios2eds/bin/gnu/h-x86_64-mingw32/bin/../lib/gcc/nios2-elf/4.7.3/../../../../../H-x86_64-mingw32/nios2-elf/lib/mhw-mulx\libc.a(lib_a-vfprintf.o)
 .debug_frame   0x0000000000001228       0x2c c:/develop/altera/14.0/nios2eds/bin/gnu/h-x86_64-mingw32/bin/../lib/gcc/nios2-elf/4.7.3/../../../../../H-x86_64-mingw32/nios2-elf/lib/mhw-mulx\libc.a(lib_a-writer.o)
 .debug_frame   0x0000000000001254       0x2c c:/develop/altera/14.0/nios2eds/bin/gnu/h-x86_64-mingw32/bin/../lib/gcc/nios2-elf/4.7.3/../../../../../H-x86_64-mingw32/nios2-elf/lib/mhw-mulx\libc.a(lib_a-wsetup.o)
 .debug_frame   0x0000000000001280       0x2c c:/develop/altera/14.0/nios2eds/bin/gnu/h-x86_64-mingw32/bin/../lib/gcc/nios2-elf/4.7.3/../../../../../H-x86_64-mingw32/nios2-elf/lib/mhw-mulx\libc.a(lib_a-closer.o)
 .debug_frame   0x00000000000012ac       0x64 c:/develop/altera/14.0/nios2eds/bin/gnu/h-x86_64-mingw32/bin/../lib/gcc/nios2-elf/4.7.3/../../../../../H-x86_64-mingw32/nios2-elf/lib/mhw-mulx\libc.a(lib_a-dtoa.o)
 .debug_frame   0x0000000000001310       0x20 c:/develop/altera/14.0/nios2eds/bin/gnu/h-x86_64-mingw32/bin/../lib/gcc/nios2-elf/4.7.3/../../../../../H-x86_64-mingw32/nios2-elf/lib/mhw-mulx\libc.a(lib_a-flags.o)
 .debug_frame   0x0000000000001330       0x38 c:/develop/altera/14.0/nios2eds/bin/gnu/h-x86_64-mingw32/bin/../lib/gcc/nios2-elf/4.7.3/../../../../../H-x86_64-mingw32/nios2-elf/lib/mhw-mulx\libc.a(lib_a-fvwrite.o)
 .debug_frame   0x0000000000001368       0x2c c:/develop/altera/14.0/nios2eds/bin/gnu/h-x86_64-mingw32/bin/../lib/gcc/nios2-elf/4.7.3/../../../../../H-x86_64-mingw32/nios2-elf/lib/mhw-mulx\libc.a(lib_a-isattyr.o)
 .debug_frame   0x0000000000001394       0x6c c:/develop/altera/14.0/nios2eds/bin/gnu/h-x86_64-mingw32/bin/../lib/gcc/nios2-elf/4.7.3/../../../../../H-x86_64-mingw32/nios2-elf/lib/mhw-mulx\libc.a(lib_a-locale.o)
 .debug_frame   0x0000000000001400       0x2c c:/develop/altera/14.0/nios2eds/bin/gnu/h-x86_64-mingw32/bin/../lib/gcc/nios2-elf/4.7.3/../../../../../H-x86_64-mingw32/nios2-elf/lib/mhw-mulx\libc.a(lib_a-lseekr.o)
 .debug_frame   0x000000000000142c       0x20 c:/develop/altera/14.0/nios2eds/bin/gnu/h-x86_64-mingw32/bin/../lib/gcc/nios2-elf/4.7.3/../../../../../H-x86_64-mingw32/nios2-elf/lib/mhw-mulx\libc.a(lib_a-memchr.o)
 .debug_frame   0x000000000000144c       0x20 c:/develop/altera/14.0/nios2eds/bin/gnu/h-x86_64-mingw32/bin/../lib/gcc/nios2-elf/4.7.3/../../../../../H-x86_64-mingw32/nios2-elf/lib/mhw-mulx\libc.a(lib_a-memmove.o)
 .debug_frame   0x000000000000146c      0x204 c:/develop/altera/14.0/nios2eds/bin/gnu/h-x86_64-mingw32/bin/../lib/gcc/nios2-elf/4.7.3/../../../../../H-x86_64-mingw32/nios2-elf/lib/mhw-mulx\libc.a(lib_a-mprec.o)
 .debug_frame   0x0000000000001670       0x48 c:/develop/altera/14.0/nios2eds/bin/gnu/h-x86_64-mingw32/bin/../lib/gcc/nios2-elf/4.7.3/../../../../../H-x86_64-mingw32/nios2-elf/lib/mhw-mulx\libc.a(lib_a-putc.o)
 .debug_frame   0x00000000000016b8       0x2c c:/develop/altera/14.0/nios2eds/bin/gnu/h-x86_64-mingw32/bin/../lib/gcc/nios2-elf/4.7.3/../../../../../H-x86_64-mingw32/nios2-elf/lib/mhw-mulx\libc.a(lib_a-readr.o)
 .debug_frame   0x00000000000016e4       0x38 c:/develop/altera/14.0/nios2eds/bin/gnu/h-x86_64-mingw32/bin/../lib/gcc/nios2-elf/4.7.3/../../../../../H-x86_64-mingw32/nios2-elf/lib/mhw-mulx\libc.a(lib_a-reallocr.o)
 .debug_frame   0x000000000000171c       0x20 c:/develop/altera/14.0/nios2eds/bin/gnu/h-x86_64-mingw32/bin/../lib/gcc/nios2-elf/4.7.3/../../../../../H-x86_64-mingw32/nios2-elf/lib/mhw-mulx\libc.a(lib_a-s_isinfd.o)
 .debug_frame   0x000000000000173c       0x20 c:/develop/altera/14.0/nios2eds/bin/gnu/h-x86_64-mingw32/bin/../lib/gcc/nios2-elf/4.7.3/../../../../../H-x86_64-mingw32/nios2-elf/lib/mhw-mulx\libc.a(lib_a-s_isnand.o)
 .debug_frame   0x000000000000175c       0x20 c:/develop/altera/14.0/nios2eds/bin/gnu/h-x86_64-mingw32/bin/../lib/gcc/nios2-elf/4.7.3/../../../../../H-x86_64-mingw32/nios2-elf/lib/mhw-mulx\libc.a(lib_a-strcmp.o)
 .debug_frame   0x000000000000177c       0x3c c:/develop/altera/14.0/nios2eds/bin/gnu/h-x86_64-mingw32/bin/../lib/gcc/nios2-elf/4.7.3/../../../../../H-x86_64-mingw32/nios2-elf/lib/mhw-mulx\libc.a(lib_a-wbuf.o)
 .debug_frame   0x00000000000017b8       0x28 c:/develop/altera/14.0/nios2eds/bin/gnu/h-x86_64-mingw32/bin/../lib/gcc/nios2-elf/4.7.3/../../../../../H-x86_64-mingw32/nios2-elf/lib/mhw-mulx\libc.a(lib_a-callocr.o)
 .debug_frame   0x00000000000017e0       0x38 c:/develop/altera/14.0/nios2eds/bin/gnu/h-x86_64-mingw32/bin/../lib/gcc/nios2-elf/4.7.3/mhw-mulx\libgcc.a(_udivdi3.o)
 .debug_frame   0x0000000000001818       0x38 c:/develop/altera/14.0/nios2eds/bin/gnu/h-x86_64-mingw32/bin/../lib/gcc/nios2-elf/4.7.3/mhw-mulx\libgcc.a(_umoddi3.o)
 .debug_frame   0x0000000000001850       0x50 c:/develop/altera/14.0/nios2eds/bin/gnu/h-x86_64-mingw32/bin/../lib/gcc/nios2-elf/4.7.3/mhw-mulx\libgcc.a(_addsub_df.o)
 .debug_frame   0x00000000000018a0       0x28 c:/develop/altera/14.0/nios2eds/bin/gnu/h-x86_64-mingw32/bin/../lib/gcc/nios2-elf/4.7.3/mhw-mulx\libgcc.a(_mul_df.o)
 .debug_frame   0x00000000000018c8       0x28 c:/develop/altera/14.0/nios2eds/bin/gnu/h-x86_64-mingw32/bin/../lib/gcc/nios2-elf/4.7.3/mhw-mulx\libgcc.a(_div_df.o)
 .debug_frame   0x00000000000018f0       0x28 c:/develop/altera/14.0/nios2eds/bin/gnu/h-x86_64-mingw32/bin/../lib/gcc/nios2-elf/4.7.3/mhw-mulx\libgcc.a(_eq_df.o)
 .debug_frame   0x0000000000001918       0x28 c:/develop/altera/14.0/nios2eds/bin/gnu/h-x86_64-mingw32/bin/../lib/gcc/nios2-elf/4.7.3/mhw-mulx\libgcc.a(_ne_df.o)
 .debug_frame   0x0000000000001940       0x28 c:/develop/altera/14.0/nios2eds/bin/gnu/h-x86_64-mingw32/bin/../lib/gcc/nios2-elf/4.7.3/mhw-mulx\libgcc.a(_gt_df.o)
 .debug_frame   0x0000000000001968       0x28 c:/develop/altera/14.0/nios2eds/bin/gnu/h-x86_64-mingw32/bin/../lib/gcc/nios2-elf/4.7.3/mhw-mulx\libgcc.a(_ge_df.o)
 .debug_frame   0x0000000000001990       0x28 c:/develop/altera/14.0/nios2eds/bin/gnu/h-x86_64-mingw32/bin/../lib/gcc/nios2-elf/4.7.3/mhw-mulx\libgcc.a(_lt_df.o)
 .debug_frame   0x00000000000019b8       0x28 c:/develop/altera/14.0/nios2eds/bin/gnu/h-x86_64-mingw32/bin/../lib/gcc/nios2-elf/4.7.3/mhw-mulx\libgcc.a(_si_to_df.o)
 .debug_frame   0x00000000000019e0       0x28 c:/develop/altera/14.0/nios2eds/bin/gnu/h-x86_64-mingw32/bin/../lib/gcc/nios2-elf/4.7.3/mhw-mulx\libgcc.a(_df_to_si.o)
 .debug_frame   0x0000000000001a08       0x28 c:/develop/altera/14.0/nios2eds/bin/gnu/h-x86_64-mingw32/bin/../lib/gcc/nios2-elf/4.7.3/mhw-mulx\libgcc.a(_usi_to_df.o)
 .debug_frame   0x0000000000001a30       0x20 c:/develop/altera/14.0/nios2eds/bin/gnu/h-x86_64-mingw32/bin/../lib/gcc/nios2-elf/4.7.3/mhw-mulx\libgcc.a(_clzsi2.o)
 .debug_frame   0x0000000000001a50       0x34 c:/develop/altera/14.0/nios2eds/bin/gnu/h-x86_64-mingw32/bin/../lib/gcc/nios2-elf/4.7.3/mhw-mulx\libgcc.a(_pack_df.o)
 .debug_frame   0x0000000000001a84       0x20 c:/develop/altera/14.0/nios2eds/bin/gnu/h-x86_64-mingw32/bin/../lib/gcc/nios2-elf/4.7.3/mhw-mulx\libgcc.a(_unpack_df.o)
 .debug_frame   0x0000000000001aa4       0x20 c:/develop/altera/14.0/nios2eds/bin/gnu/h-x86_64-mingw32/bin/../lib/gcc/nios2-elf/4.7.3/mhw-mulx\libgcc.a(_fpcmp_parts_df.o)
 .debug_frame   0x0000000000001ac4       0x20 c:/develop/altera/14.0/nios2eds/bin/gnu/h-x86_64-mingw32/bin/../lib/gcc/nios2-elf/4.7.3/mhw-mulx\libgcc.a(_lshrdi3.o)
 .debug_frame   0x0000000000001ae4       0x20 c:/develop/altera/14.0/nios2eds/bin/gnu/h-x86_64-mingw32/bin/../lib/gcc/nios2-elf/4.7.3/mhw-mulx\libgcc.a(_ashldi3.o)
 .debug_frame   0x0000000000001b04       0x2c ../sodalite_filetest_bsp/\libhal_bsp.a(alt_close.o)
 .debug_frame   0x0000000000001b30       0x20 ../sodalite_filetest_bsp/\libhal_bsp.a(alt_dev.o)
 .debug_frame   0x0000000000001b50       0x20 ../sodalite_filetest_bsp/\libhal_bsp.a(alt_fs_reg.o)
 .debug_frame   0x0000000000001b70       0x28 ../sodalite_filetest_bsp/\libhal_bsp.a(alt_fstat.o)
 .debug_frame   0x0000000000001b98       0x28 ../sodalite_filetest_bsp/\libhal_bsp.a(alt_isatty.o)
 .debug_frame   0x0000000000001bc0       0x28 ../sodalite_filetest_bsp/\libhal_bsp.a(alt_load.o)
 .debug_frame   0x0000000000001be8       0x28 ../sodalite_filetest_bsp/\libhal_bsp.a(alt_lseek.o)
 .debug_frame   0x0000000000001c10       0x28 ../sodalite_filetest_bsp/\libhal_bsp.a(alt_main.o)
 .debug_frame   0x0000000000001c38       0x30 ../sodalite_filetest_bsp/\libhal_bsp.a(alt_malloc_lock.o)
 .debug_frame   0x0000000000001c68       0x34 ../sodalite_filetest_bsp/\libhal_bsp.a(alt_open.o)
 .debug_frame   0x0000000000001c9c       0x28 ../sodalite_filetest_bsp/\libhal_bsp.a(alt_read.o)
 .debug_frame   0x0000000000001cc4       0x20 ../sodalite_filetest_bsp/\libhal_bsp.a(alt_release_fd.o)
 .debug_frame   0x0000000000001ce4       0x20 ../sodalite_filetest_bsp/\libhal_bsp.a(alt_sbrk.o)
 .debug_frame   0x0000000000001d04       0x2c ../sodalite_filetest_bsp/\libhal_bsp.a(alt_uncached_malloc.o)
 .debug_frame   0x0000000000001d30       0x20 ../sodalite_filetest_bsp/\libhal_bsp.a(alt_usleep.o)
 .debug_frame   0x0000000000001d50       0x28 ../sodalite_filetest_bsp/\libhal_bsp.a(alt_write.o)
 .debug_frame   0x0000000000001d78       0x40 ../sodalite_filetest_bsp/\libhal_bsp.a(alt_sys_init.o)
 .debug_frame   0x0000000000001db8       0x50 ../sodalite_filetest_bsp/\libhal_bsp.a(altera_avalon_jtag_uart_fd.o)
 .debug_frame   0x0000000000001e08       0x58 ../sodalite_filetest_bsp/\libhal_bsp.a(altera_avalon_jtag_uart_init.o)
 .debug_frame   0x0000000000001e60       0x20 ../sodalite_filetest_bsp/\libhal_bsp.a(altera_avalon_jtag_uart_ioctl.o)
 .debug_frame   0x0000000000001e80       0x38 ../sodalite_filetest_bsp/\libhal_bsp.a(altera_avalon_jtag_uart_read.o)
 .debug_frame   0x0000000000001eb8       0x38 ../sodalite_filetest_bsp/\libhal_bsp.a(altera_avalon_jtag_uart_write.o)
 .debug_frame   0x0000000000001ef0       0x40 ../sodalite_filetest_bsp/\libhal_bsp.a(altera_avalon_timer_sc.o)
 .debug_frame   0x0000000000001f30       0x30 ../sodalite_filetest_bsp/\libhal_bsp.a(altera_modular_adc.o)
 .debug_frame   0x0000000000001f60       0xf4 ../sodalite_filetest_bsp/\libhal_bsp.a(altera_onchip_flash.o)
 .debug_frame   0x0000000000002054       0x20 ../sodalite_filetest_bsp/\libhal_bsp.a(alt_alarm_start.o)
 .debug_frame   0x0000000000002074       0x28 ../sodalite_filetest_bsp/\libhal_bsp.a(alt_busy_sleep.o)
 .debug_frame   0x000000000000209c       0x20 ../sodalite_filetest_bsp/\libhal_bsp.a(alt_dcache_flush.o)
 .debug_frame   0x00000000000020bc       0x20 ../sodalite_filetest_bsp/\libhal_bsp.a(alt_dcache_flush_all.o)
 .debug_frame   0x00000000000020dc       0x28 ../sodalite_filetest_bsp/\libhal_bsp.a(alt_dev_llist_insert.o)
 .debug_frame   0x0000000000002104       0x2c ../sodalite_filetest_bsp/\libhal_bsp.a(alt_do_ctors.o)
 .debug_frame   0x0000000000002130       0x2c ../sodalite_filetest_bsp/\libhal_bsp.a(alt_do_dtors.o)
 .debug_frame   0x000000000000215c       0x30 ../sodalite_filetest_bsp/\libhal_bsp.a(alt_find_dev.o)
 .debug_frame   0x000000000000218c       0x34 ../sodalite_filetest_bsp/\libhal_bsp.a(alt_find_file.o)
 .debug_frame   0x00000000000021c0       0x38 ../sodalite_filetest_bsp/\libhal_bsp.a(alt_flash_dev.o)
 .debug_frame   0x00000000000021f8       0x20 ../sodalite_filetest_bsp/\libhal_bsp.a(alt_get_fd.o)
 .debug_frame   0x0000000000002218       0x20 ../sodalite_filetest_bsp/\libhal_bsp.a(alt_icache_flush_all.o)
 .debug_frame   0x0000000000002238       0x50 ../sodalite_filetest_bsp/\libhal_bsp.a(alt_iic.o)
 .debug_frame   0x0000000000002288       0x28 ../sodalite_filetest_bsp/\libhal_bsp.a(alt_iic_isr_register.o)
 .debug_frame   0x00000000000022b0       0x4c ../sodalite_filetest_bsp/\libhal_bsp.a(alt_io_redirect.o)
 .debug_frame   0x00000000000022fc       0x28 ../sodalite_filetest_bsp/\libhal_bsp.a(alt_irq_handler.o)
 .debug_frame   0x0000000000002324       0x44 ../sodalite_filetest_bsp/\libhal_bsp.a(alt_tick.o)
 .debug_frame   0x0000000000002368       0x20 ../sodalite_filetest_bsp/\libhal_bsp.a(altera_nios2_gen2_irq.o)
 .debug_frame   0x0000000000002388       0x20 ../sodalite_filetest_bsp/\libhal_bsp.a(alt_icache_flush.o)
 .debug_frame   0x00000000000023a8       0x30 ../sodalite_filetest_bsp/\libhal_bsp.a(alt_instruction_exception_entry.o)
 .debug_frame   0x00000000000023d8       0x20 c:/develop/altera/14.0/nios2eds/bin/gnu/h-x86_64-mingw32/bin/../lib/gcc/nios2-elf/4.7.3/../../../../../H-x86_64-mingw32/nios2-elf/lib/mhw-mulx\libc.a(lib_a-atexit.o)
 .debug_frame   0x00000000000023f8       0x28 c:/develop/altera/14.0/nios2eds/bin/gnu/h-x86_64-mingw32/bin/../lib/gcc/nios2-elf/4.7.3/../../../../../H-x86_64-mingw32/nios2-elf/lib/mhw-mulx\libc.a(lib_a-exit.o)
 .debug_frame   0x0000000000002420       0x20 c:/develop/altera/14.0/nios2eds/bin/gnu/h-x86_64-mingw32/bin/../lib/gcc/nios2-elf/4.7.3/../../../../../H-x86_64-mingw32/nios2-elf/lib/mhw-mulx\libc.a(lib_a-malign.o)
 .debug_frame   0x0000000000002440       0x30 c:/develop/altera/14.0/nios2eds/bin/gnu/h-x86_64-mingw32/bin/../lib/gcc/nios2-elf/4.7.3/../../../../../H-x86_64-mingw32/nios2-elf/lib/mhw-mulx\libc.a(lib_a-malignr.o)
 .debug_frame   0x0000000000002470       0x20 c:/develop/altera/14.0/nios2eds/bin/gnu/h-x86_64-mingw32/bin/../lib/gcc/nios2-elf/4.7.3/../../../../../H-x86_64-mingw32/nios2-elf/lib/mhw-mulx\libc.a(lib_a-memcmp.o)
 .debug_frame   0x0000000000002490       0x2c c:/develop/altera/14.0/nios2eds/bin/gnu/h-x86_64-mingw32/bin/../lib/gcc/nios2-elf/4.7.3/../../../../../H-x86_64-mingw32/nios2-elf/lib/mhw-mulx\libc.a(lib_a-__atexit.o)
 .debug_frame   0x00000000000024bc       0x38 c:/develop/altera/14.0/nios2eds/bin/gnu/h-x86_64-mingw32/bin/../lib/gcc/nios2-elf/4.7.3/../../../../../H-x86_64-mingw32/nios2-elf/lib/mhw-mulx\libc.a(lib_a-__call_atexit.o)
 .debug_frame   0x00000000000024f4       0x20 ../sodalite_filetest_bsp/\libhal_bsp.a(alt_exit.o)

.debug_str      0x0000000000000000     0x4864
 *(.debug_str)
 .debug_str     0x0000000000000000      0x19e obj/default/file_test.o
                                        0x1ef (size before relaxing)
 .debug_str     0x000000000000019e      0x38e obj/default/loadbmp.o
                                        0x536 (size before relaxing)
 .debug_str     0x000000000000052c      0x503 obj/default/mmcfs/fatfs/ff.o
                                        0x620 (size before relaxing)
 .debug_str     0x0000000000000a2f      0x17a obj/default/mmcfs/fatfs/mmcbb.o
                                        0x30b (size before relaxing)
 .debug_str     0x0000000000000ba9       0x41 obj/default/mmcfs/fatfs/option/cc932.o
                                        0x118 (size before relaxing)
 .debug_str     0x0000000000000bea       0x10 obj/default/mmcfs/gettime.o
                                        0x108 (size before relaxing)
 .debug_str     0x0000000000000bfa       0x57 obj/default/mmcfs/mmc_spi.o
                                        0x234 (size before relaxing)
 .debug_str     0x0000000000000c51      0x247 obj/default/mmcfs/mmcfs.o
                                        0x5da (size before relaxing)
 .debug_str     0x0000000000000e98       0x27 obj/default/nd_lib/fontx_k12x10.o
                                         0x92 (size before relaxing)
 .debug_str     0x0000000000000ebf       0x25 obj/default/nd_lib/fontx_k6x10.o
                                         0x90 (size before relaxing)
 .debug_str     0x0000000000000ee4      0x2b4 obj/default/nd_lib/nd_egl.o
                                        0x44d (size before relaxing)
 .debug_str     0x0000000000001198       0xc8 obj/default/testuty.o
                                        0x425 (size before relaxing)
 .debug_str     0x0000000000001260      0x10e c:/develop/altera/14.0/nios2eds/bin/gnu/h-x86_64-mingw32/bin/../lib/gcc/nios2-elf/4.7.3/mhw-mulx\libgcc.a(lib2-divmod.o)
                                        0x165 (size before relaxing)
 .debug_str     0x000000000000136e      0x121 c:/develop/altera/14.0/nios2eds/bin/gnu/h-x86_64-mingw32/bin/../lib/gcc/nios2-elf/4.7.3/../../../../../H-x86_64-mingw32/nios2-elf/lib/mhw-mulx\libc.a(lib_a-fclose.o)
                                        0x56c (size before relaxing)
 .debug_str     0x000000000000148f       0x5e c:/develop/altera/14.0/nios2eds/bin/gnu/h-x86_64-mingw32/bin/../lib/gcc/nios2-elf/4.7.3/../../../../../H-x86_64-mingw32/nios2-elf/lib/mhw-mulx\libc.a(lib_a-fflush.o)
                                        0x55d (size before relaxing)
 .debug_str     0x00000000000014ed       0xe1 c:/develop/altera/14.0/nios2eds/bin/gnu/h-x86_64-mingw32/bin/../lib/gcc/nios2-elf/4.7.3/../../../../../H-x86_64-mingw32/nios2-elf/lib/mhw-mulx\libc.a(lib_a-findfp.o)
                                        0x629 (size before relaxing)
 .debug_str     0x00000000000015ce       0x66 c:/develop/altera/14.0/nios2eds/bin/gnu/h-x86_64-mingw32/bin/../lib/gcc/nios2-elf/4.7.3/../../../../../H-x86_64-mingw32/nios2-elf/lib/mhw-mulx\libc.a(lib_a-fopen.o)
                                        0x581 (size before relaxing)
 .debug_str     0x0000000000001634       0x79 c:/develop/altera/14.0/nios2eds/bin/gnu/h-x86_64-mingw32/bin/../lib/gcc/nios2-elf/4.7.3/../../../../../H-x86_64-mingw32/nios2-elf/lib/mhw-mulx\libc.a(lib_a-fread.o)
                                        0x587 (size before relaxing)
 .debug_str     0x00000000000016ad      0x21c c:/develop/altera/14.0/nios2eds/bin/gnu/h-x86_64-mingw32/bin/../lib/gcc/nios2-elf/4.7.3/../../../../../H-x86_64-mingw32/nios2-elf/lib/mhw-mulx\libc.a(lib_a-freer.o)
                                        0x689 (size before relaxing)
 .debug_str     0x00000000000018c9       0x74 c:/develop/altera/14.0/nios2eds/bin/gnu/h-x86_64-mingw32/bin/../lib/gcc/nios2-elf/4.7.3/../../../../../H-x86_64-mingw32/nios2-elf/lib/mhw-mulx\libc.a(lib_a-fseek.o)
                                        0x684 (size before relaxing)
 .debug_str     0x000000000000193d       0xd8 c:/develop/altera/14.0/nios2eds/bin/gnu/h-x86_64-mingw32/bin/../lib/gcc/nios2-elf/4.7.3/../../../../../H-x86_64-mingw32/nios2-elf/lib/mhw-mulx\libc.a(lib_a-fstatr.o)
                                        0x60d (size before relaxing)
 .debug_str     0x0000000000001a15       0x61 c:/develop/altera/14.0/nios2eds/bin/gnu/h-x86_64-mingw32/bin/../lib/gcc/nios2-elf/4.7.3/../../../../../H-x86_64-mingw32/nios2-elf/lib/mhw-mulx\libc.a(lib_a-fwalk.o)
                                        0x571 (size before relaxing)
 .debug_str     0x0000000000001a76       0x49 c:/develop/altera/14.0/nios2eds/bin/gnu/h-x86_64-mingw32/bin/../lib/gcc/nios2-elf/4.7.3/../../../../../H-x86_64-mingw32/nios2-elf/lib/mhw-mulx\libc.a(lib_a-impure.o)
                                        0x530 (size before relaxing)
 .debug_str     0x0000000000001abf       0x40 c:/develop/altera/14.0/nios2eds/bin/gnu/h-x86_64-mingw32/bin/../lib/gcc/nios2-elf/4.7.3/../../../../../H-x86_64-mingw32/nios2-elf/lib/mhw-mulx\libc.a(lib_a-int_errno.o)
                                        0x179 (size before relaxing)
 .debug_str     0x0000000000001aff       0x53 c:/develop/altera/14.0/nios2eds/bin/gnu/h-x86_64-mingw32/bin/../lib/gcc/nios2-elf/4.7.3/../../../../../H-x86_64-mingw32/nios2-elf/lib/mhw-mulx\libc.a(lib_a-makebuf.o)
                                        0x639 (size before relaxing)
 .debug_str     0x0000000000001b52       0xd9 c:/develop/altera/14.0/nios2eds/bin/gnu/h-x86_64-mingw32/bin/../lib/gcc/nios2-elf/4.7.3/../../../../../H-x86_64-mingw32/nios2-elf/lib/mhw-mulx\libc.a(lib_a-mallocr.o)
                                        0x73f (size before relaxing)
 .debug_str     0x0000000000001c2b       0xfb c:/develop/altera/14.0/nios2eds/bin/gnu/h-x86_64-mingw32/bin/../lib/gcc/nios2-elf/4.7.3/../../../../../H-x86_64-mingw32/nios2-elf/lib/mhw-mulx\libc.a(lib_a-memcpy.o)
                                        0x130 (size before relaxing)
 .debug_str     0x0000000000001d26       0x52 c:/develop/altera/14.0/nios2eds/bin/gnu/h-x86_64-mingw32/bin/../lib/gcc/nios2-elf/4.7.3/../../../../../H-x86_64-mingw32/nios2-elf/lib/mhw-mulx\libc.a(lib_a-memset.o)
                                        0x194 (size before relaxing)
 .debug_str     0x0000000000001d78       0x3c c:/develop/altera/14.0/nios2eds/bin/gnu/h-x86_64-mingw32/bin/../lib/gcc/nios2-elf/4.7.3/../../../../../H-x86_64-mingw32/nios2-elf/lib/mhw-mulx\libc.a(lib_a-openr.o)
                                        0x527 (size before relaxing)
 .debug_str     0x0000000000001db4       0x93 c:/develop/altera/14.0/nios2eds/bin/gnu/h-x86_64-mingw32/bin/../lib/gcc/nios2-elf/4.7.3/../../../../../H-x86_64-mingw32/nios2-elf/lib/mhw-mulx\libc.a(lib_a-printf.o)
                                        0x57b (size before relaxing)
 .debug_str     0x0000000000001e47       0x51 c:/develop/altera/14.0/nios2eds/bin/gnu/h-x86_64-mingw32/bin/../lib/gcc/nios2-elf/4.7.3/../../../../../H-x86_64-mingw32/nios2-elf/lib/mhw-mulx\libc.a(lib_a-putchar.o)
                                        0x532 (size before relaxing)
 .debug_str     0x0000000000001e98       0x8c c:/develop/altera/14.0/nios2eds/bin/gnu/h-x86_64-mingw32/bin/../lib/gcc/nios2-elf/4.7.3/../../../../../H-x86_64-mingw32/nios2-elf/lib/mhw-mulx\libc.a(lib_a-puts.o)
                                        0x578 (size before relaxing)
 .debug_str     0x0000000000001f24       0x44 c:/develop/altera/14.0/nios2eds/bin/gnu/h-x86_64-mingw32/bin/../lib/gcc/nios2-elf/4.7.3/../../../../../H-x86_64-mingw32/nios2-elf/lib/mhw-mulx\libc.a(lib_a-refill.o)
                                        0x565 (size before relaxing)
 .debug_str     0x0000000000001f68       0x46 c:/develop/altera/14.0/nios2eds/bin/gnu/h-x86_64-mingw32/bin/../lib/gcc/nios2-elf/4.7.3/../../../../../H-x86_64-mingw32/nios2-elf/lib/mhw-mulx\libc.a(lib_a-sbrkr.o)
                                        0x526 (size before relaxing)
 .debug_str     0x0000000000001fae       0x8a c:/develop/altera/14.0/nios2eds/bin/gnu/h-x86_64-mingw32/bin/../lib/gcc/nios2-elf/4.7.3/../../../../../H-x86_64-mingw32/nios2-elf/lib/mhw-mulx\libc.a(lib_a-stdio.o)
                                        0x57a (size before relaxing)
 .debug_str     0x0000000000002038       0x3e c:/develop/altera/14.0/nios2eds/bin/gnu/h-x86_64-mingw32/bin/../lib/gcc/nios2-elf/4.7.3/../../../../../H-x86_64-mingw32/nios2-elf/lib/mhw-mulx\libc.a(lib_a-strlen.o)
                                        0x193 (size before relaxing)
 .debug_str     0x0000000000002076      0x26e c:/develop/altera/14.0/nios2eds/bin/gnu/h-x86_64-mingw32/bin/../lib/gcc/nios2-elf/4.7.3/../../../../../H-x86_64-mingw32/nios2-elf/lib/mhw-mulx\libc.a(lib_a-vfprintf.o)
                                        0x892 (size before relaxing)
 .debug_str     0x00000000000022e4       0x3d c:/develop/altera/14.0/nios2eds/bin/gnu/h-x86_64-mingw32/bin/../lib/gcc/nios2-elf/4.7.3/../../../../../H-x86_64-mingw32/nios2-elf/lib/mhw-mulx\libc.a(lib_a-writer.o)
                                        0x52a (size before relaxing)
 .debug_str     0x0000000000002321       0x3d c:/develop/altera/14.0/nios2eds/bin/gnu/h-x86_64-mingw32/bin/../lib/gcc/nios2-elf/4.7.3/../../../../../H-x86_64-mingw32/nios2-elf/lib/mhw-mulx\libc.a(lib_a-wsetup.o)
                                        0x53f (size before relaxing)
 .debug_str     0x000000000000235e       0x3d c:/develop/altera/14.0/nios2eds/bin/gnu/h-x86_64-mingw32/bin/../lib/gcc/nios2-elf/4.7.3/../../../../../H-x86_64-mingw32/nios2-elf/lib/mhw-mulx\libc.a(lib_a-closer.o)
                                        0x51a (size before relaxing)
 .debug_str     0x000000000000239b      0x15a c:/develop/altera/14.0/nios2eds/bin/gnu/h-x86_64-mingw32/bin/../lib/gcc/nios2-elf/4.7.3/../../../../../H-x86_64-mingw32/nios2-elf/lib/mhw-mulx\libc.a(lib_a-dtoa.o)
                                        0x682 (size before relaxing)
 .debug_str     0x00000000000024f5       0x41 c:/develop/altera/14.0/nios2eds/bin/gnu/h-x86_64-mingw32/bin/../lib/gcc/nios2-elf/4.7.3/../../../../../H-x86_64-mingw32/nios2-elf/lib/mhw-mulx\libc.a(lib_a-flags.o)
                                        0x517 (size before relaxing)
 .debug_str     0x0000000000002536       0x6f c:/develop/altera/14.0/nios2eds/bin/gnu/h-x86_64-mingw32/bin/../lib/gcc/nios2-elf/4.7.3/../../../../../H-x86_64-mingw32/nios2-elf/lib/mhw-mulx\libc.a(lib_a-fvwrite.o)
                                        0x5c2 (size before relaxing)
 .debug_str     0x00000000000025a5       0x45 c:/develop/altera/14.0/nios2eds/bin/gnu/h-x86_64-mingw32/bin/../lib/gcc/nios2-elf/4.7.3/../../../../../H-x86_64-mingw32/nios2-elf/lib/mhw-mulx\libc.a(lib_a-isattyr.o)
                                        0x51d (size before relaxing)
 .debug_str     0x00000000000025ea      0x156 c:/develop/altera/14.0/nios2eds/bin/gnu/h-x86_64-mingw32/bin/../lib/gcc/nios2-elf/4.7.3/../../../../../H-x86_64-mingw32/nios2-elf/lib/mhw-mulx\libc.a(lib_a-locale.o)
                                        0x6c6 (size before relaxing)
 .debug_str     0x0000000000002740       0x3d c:/develop/altera/14.0/nios2eds/bin/gnu/h-x86_64-mingw32/bin/../lib/gcc/nios2-elf/4.7.3/../../../../../H-x86_64-mingw32/nios2-elf/lib/mhw-mulx\libc.a(lib_a-lseekr.o)
                                        0x52e (size before relaxing)
 .debug_str     0x000000000000277d       0x4c c:/develop/altera/14.0/nios2eds/bin/gnu/h-x86_64-mingw32/bin/../lib/gcc/nios2-elf/4.7.3/../../../../../H-x86_64-mingw32/nios2-elf/lib/mhw-mulx\libc.a(lib_a-memchr.o)
                                        0x1a1 (size before relaxing)
 .debug_str     0x00000000000027c9       0x48 c:/develop/altera/14.0/nios2eds/bin/gnu/h-x86_64-mingw32/bin/../lib/gcc/nios2-elf/4.7.3/../../../../../H-x86_64-mingw32/nios2-elf/lib/mhw-mulx\libc.a(lib_a-memmove.o)
                                        0x1b3 (size before relaxing)
 .debug_str     0x0000000000002811       0xa8 c:/develop/altera/14.0/nios2eds/bin/gnu/h-x86_64-mingw32/bin/../lib/gcc/nios2-elf/4.7.3/../../../../../H-x86_64-mingw32/nios2-elf/lib/mhw-mulx\libc.a(lib_a-mprec.o)
                                        0x63c (size before relaxing)
 .debug_str     0x00000000000028b9       0x4a c:/develop/altera/14.0/nios2eds/bin/gnu/h-x86_64-mingw32/bin/../lib/gcc/nios2-elf/4.7.3/../../../../../H-x86_64-mingw32/nios2-elf/lib/mhw-mulx\libc.a(lib_a-putc.o)
                                        0x53a (size before relaxing)
 .debug_str     0x0000000000002903       0x3c c:/develop/altera/14.0/nios2eds/bin/gnu/h-x86_64-mingw32/bin/../lib/gcc/nios2-elf/4.7.3/../../../../../H-x86_64-mingw32/nios2-elf/lib/mhw-mulx\libc.a(lib_a-readr.o)
                                        0x527 (size before relaxing)
 .debug_str     0x000000000000293f       0x4e c:/develop/altera/14.0/nios2eds/bin/gnu/h-x86_64-mingw32/bin/../lib/gcc/nios2-elf/4.7.3/../../../../../H-x86_64-mingw32/nios2-elf/lib/mhw-mulx\libc.a(lib_a-reallocr.o)
                                        0x611 (size before relaxing)
 .debug_str     0x000000000000298d       0xe0 c:/develop/altera/14.0/nios2eds/bin/gnu/h-x86_64-mingw32/bin/../lib/gcc/nios2-elf/4.7.3/../../../../../H-x86_64-mingw32/nios2-elf/lib/mhw-mulx\libc.a(lib_a-s_isinfd.o)
                                        0x1ab (size before relaxing)
 .debug_str     0x0000000000002a6d       0x40 c:/develop/altera/14.0/nios2eds/bin/gnu/h-x86_64-mingw32/bin/../lib/gcc/nios2-elf/4.7.3/../../../../../H-x86_64-mingw32/nios2-elf/lib/mhw-mulx\libc.a(lib_a-s_isnand.o)
                                        0x1ab (size before relaxing)
 .debug_str     0x0000000000002aad       0x3e c:/develop/altera/14.0/nios2eds/bin/gnu/h-x86_64-mingw32/bin/../lib/gcc/nios2-elf/4.7.3/../../../../../H-x86_64-mingw32/nios2-elf/lib/mhw-mulx\libc.a(lib_a-strcmp.o)
                                        0x179 (size before relaxing)
 .debug_str     0x0000000000002aeb       0x43 c:/develop/altera/14.0/nios2eds/bin/gnu/h-x86_64-mingw32/bin/../lib/gcc/nios2-elf/4.7.3/../../../../../H-x86_64-mingw32/nios2-elf/lib/mhw-mulx\libc.a(lib_a-wbuf.o)
                                        0x544 (size before relaxing)
 .debug_str     0x0000000000002b2e        0xf c:/develop/altera/14.0/nios2eds/bin/gnu/h-x86_64-mingw32/bin/../lib/gcc/nios2-elf/4.7.3/../../../../../H-x86_64-mingw32/nios2-elf/lib/mhw-mulx\libc.a(lib_a-callocr.o)
                                        0x569 (size before relaxing)
 .debug_str     0x0000000000002b3d       0xd8 c:/develop/altera/14.0/nios2eds/bin/gnu/h-x86_64-mingw32/bin/../lib/gcc/nios2-elf/4.7.3/mhw-mulx\libgcc.a(_udivdi3.o)
                                        0x200 (size before relaxing)
 .debug_str     0x0000000000002c15        0xa c:/develop/altera/14.0/nios2eds/bin/gnu/h-x86_64-mingw32/bin/../lib/gcc/nios2-elf/4.7.3/mhw-mulx\libgcc.a(_umoddi3.o)
                                        0x200 (size before relaxing)
 .debug_str     0x0000000000002c1f      0x172 c:/develop/altera/14.0/nios2eds/bin/gnu/h-x86_64-mingw32/bin/../lib/gcc/nios2-elf/4.7.3/mhw-mulx\libgcc.a(_addsub_df.o)
                                        0x2b3 (size before relaxing)
 .debug_str     0x0000000000002d91       0x40 c:/develop/altera/14.0/nios2eds/bin/gnu/h-x86_64-mingw32/bin/../lib/gcc/nios2-elf/4.7.3/mhw-mulx\libgcc.a(_mul_df.o)
                                        0x285 (size before relaxing)
 .debug_str     0x0000000000002dd1       0x35 c:/develop/altera/14.0/nios2eds/bin/gnu/h-x86_64-mingw32/bin/../lib/gcc/nios2-elf/4.7.3/mhw-mulx\libgcc.a(_div_df.o)
                                        0x275 (size before relaxing)
 .debug_str     0x0000000000002e06       0x20 c:/develop/altera/14.0/nios2eds/bin/gnu/h-x86_64-mingw32/bin/../lib/gcc/nios2-elf/4.7.3/mhw-mulx\libgcc.a(_eq_df.o)
                                        0x242 (size before relaxing)
 .debug_str     0x0000000000002e26        0x8 c:/develop/altera/14.0/nios2eds/bin/gnu/h-x86_64-mingw32/bin/../lib/gcc/nios2-elf/4.7.3/mhw-mulx\libgcc.a(_ne_df.o)
                                        0x242 (size before relaxing)
 .debug_str     0x0000000000002e2e        0x8 c:/develop/altera/14.0/nios2eds/bin/gnu/h-x86_64-mingw32/bin/../lib/gcc/nios2-elf/4.7.3/mhw-mulx\libgcc.a(_gt_df.o)
                                        0x242 (size before relaxing)
 .debug_str     0x0000000000002e36        0x8 c:/develop/altera/14.0/nios2eds/bin/gnu/h-x86_64-mingw32/bin/../lib/gcc/nios2-elf/4.7.3/mhw-mulx\libgcc.a(_ge_df.o)
                                        0x242 (size before relaxing)
 .debug_str     0x0000000000002e3e        0x8 c:/develop/altera/14.0/nios2eds/bin/gnu/h-x86_64-mingw32/bin/../lib/gcc/nios2-elf/4.7.3/mhw-mulx\libgcc.a(_lt_df.o)
                                        0x242 (size before relaxing)
 .debug_str     0x0000000000002e46       0x21 c:/develop/altera/14.0/nios2eds/bin/gnu/h-x86_64-mingw32/bin/../lib/gcc/nios2-elf/4.7.3/mhw-mulx\libgcc.a(_si_to_df.o)
                                        0x218 (size before relaxing)
 .debug_str     0x0000000000002e67        0xa c:/develop/altera/14.0/nios2eds/bin/gnu/h-x86_64-mingw32/bin/../lib/gcc/nios2-elf/4.7.3/mhw-mulx\libgcc.a(_df_to_si.o)
                                        0x23a (size before relaxing)
 .debug_str     0x0000000000000000      0x1cb c:/develop/altera/14.0/nios2eds/bin/gnu/h-x86_64-mingw32/bin/../lib/gcc/nios2-elf/4.7.3/mhw-mulx\libgcc.a(_thenan_df.o)
 .debug_str     0x0000000000002e71       0x14 c:/develop/altera/14.0/nios2eds/bin/gnu/h-x86_64-mingw32/bin/../lib/gcc/nios2-elf/4.7.3/mhw-mulx\libgcc.a(_usi_to_df.o)
                                        0x214 (size before relaxing)
 .debug_str     0x0000000000000000      0x16a c:/develop/altera/14.0/nios2eds/bin/gnu/h-x86_64-mingw32/bin/../lib/gcc/nios2-elf/4.7.3/mhw-mulx\libgcc.a(_clz.o)
 .debug_str     0x0000000000000000      0x187 c:/develop/altera/14.0/nios2eds/bin/gnu/h-x86_64-mingw32/bin/../lib/gcc/nios2-elf/4.7.3/mhw-mulx\libgcc.a(_clzsi2.o)
 .debug_str     0x0000000000002e85        0x7 c:/develop/altera/14.0/nios2eds/bin/gnu/h-x86_64-mingw32/bin/../lib/gcc/nios2-elf/4.7.3/mhw-mulx\libgcc.a(_pack_df.o)
                                        0x22e (size before relaxing)
 .debug_str     0x0000000000000000      0x210 c:/develop/altera/14.0/nios2eds/bin/gnu/h-x86_64-mingw32/bin/../lib/gcc/nios2-elf/4.7.3/mhw-mulx\libgcc.a(_unpack_df.o)
 .debug_str     0x0000000000000000      0x1ee c:/develop/altera/14.0/nios2eds/bin/gnu/h-x86_64-mingw32/bin/../lib/gcc/nios2-elf/4.7.3/mhw-mulx\libgcc.a(_fpcmp_parts_df.o)
 .debug_str     0x0000000000002e8c       0x23 c:/develop/altera/14.0/nios2eds/bin/gnu/h-x86_64-mingw32/bin/../lib/gcc/nios2-elf/4.7.3/mhw-mulx\libgcc.a(_lshrdi3.o)
                                        0x19e (size before relaxing)
 .debug_str     0x0000000000002eaf        0xa c:/develop/altera/14.0/nios2eds/bin/gnu/h-x86_64-mingw32/bin/../lib/gcc/nios2-elf/4.7.3/mhw-mulx\libgcc.a(_ashldi3.o)
                                        0x19e (size before relaxing)
 .debug_str     0x0000000000002eb9       0x9f ../sodalite_filetest_bsp/\libhal_bsp.a(alt_close.o)
                                        0x1e3 (size before relaxing)
 .debug_str     0x0000000000002f58       0x50 ../sodalite_filetest_bsp/\libhal_bsp.a(alt_dev.o)
                                        0x2ce (size before relaxing)
 .debug_str     0x0000000000002fa8       0x14 ../sodalite_filetest_bsp/\libhal_bsp.a(alt_errno.o)
                                        0x10e (size before relaxing)
 .debug_str     0x0000000000002fbc       0x26 ../sodalite_filetest_bsp/\libhal_bsp.a(alt_fs_reg.o)
                                        0x1d2 (size before relaxing)
 .debug_str     0x0000000000002fe2       0x14 ../sodalite_filetest_bsp/\libhal_bsp.a(alt_fstat.o)
                                        0x2b5 (size before relaxing)
 .debug_str     0x0000000000002ff6       0x15 ../sodalite_filetest_bsp/\libhal_bsp.a(alt_isatty.o)
                                        0x2bd (size before relaxing)
 .debug_str     0x000000000000300b      0x113 ../sodalite_filetest_bsp/\libhal_bsp.a(alt_load.o)
                                        0x205 (size before relaxing)
 .debug_str     0x000000000000311e       0x14 ../sodalite_filetest_bsp/\libhal_bsp.a(alt_lseek.o)
                                        0x1da (size before relaxing)
 .debug_str     0x0000000000003132       0x78 ../sodalite_filetest_bsp/\libhal_bsp.a(alt_main.o)
                                        0x1b1 (size before relaxing)
 .debug_str     0x00000000000031aa       0x1a ../sodalite_filetest_bsp/\libhal_bsp.a(alt_malloc_lock.o)
                                        0x4b7 (size before relaxing)
 .debug_str     0x00000000000031c4       0x4f ../sodalite_filetest_bsp/\libhal_bsp.a(alt_open.o)
                                        0x249 (size before relaxing)
 .debug_str     0x0000000000003213       0x13 ../sodalite_filetest_bsp/\libhal_bsp.a(alt_read.o)
                                        0x2c0 (size before relaxing)
 .debug_str     0x0000000000003226       0x19 ../sodalite_filetest_bsp/\libhal_bsp.a(alt_release_fd.o)
                                        0x1a8 (size before relaxing)
 .debug_str     0x000000000000323f       0x98 ../sodalite_filetest_bsp/\libhal_bsp.a(alt_sbrk.o)
                                        0x19d (size before relaxing)
 .debug_str     0x00000000000032d7       0x4f ../sodalite_filetest_bsp/\libhal_bsp.a(alt_uncached_malloc.o)
                                        0x161 (size before relaxing)
 .debug_str     0x0000000000003326       0x24 ../sodalite_filetest_bsp/\libhal_bsp.a(alt_usleep.o)
                                        0x120 (size before relaxing)
 .debug_str     0x000000000000334a       0x14 ../sodalite_filetest_bsp/\libhal_bsp.a(alt_write.o)
                                        0x2c1 (size before relaxing)
 .debug_str     0x000000000000335e      0x473 ../sodalite_filetest_bsp/\libhal_bsp.a(alt_sys_init.o)
                                        0x688 (size before relaxing)
 .debug_str     0x00000000000037d1      0x123 ../sodalite_filetest_bsp/\libhal_bsp.a(altera_avalon_jtag_uart_fd.o)
                                        0x3e4 (size before relaxing)
 .debug_str     0x00000000000038f4       0xc7 ../sodalite_filetest_bsp/\libhal_bsp.a(altera_avalon_jtag_uart_init.o)
                                        0x332 (size before relaxing)
 .debug_str     0x00000000000039bb       0x2c ../sodalite_filetest_bsp/\libhal_bsp.a(altera_avalon_jtag_uart_ioctl.o)
                                        0x25c (size before relaxing)
 .debug_str     0x00000000000039e7       0x2b ../sodalite_filetest_bsp/\libhal_bsp.a(altera_avalon_jtag_uart_read.o)
                                        0x2b8 (size before relaxing)
 .debug_str     0x0000000000003a12       0x2c ../sodalite_filetest_bsp/\libhal_bsp.a(altera_avalon_jtag_uart_write.o)
                                        0x2b9 (size before relaxing)
 .debug_str     0x0000000000003a3e       0x5d ../sodalite_filetest_bsp/\libhal_bsp.a(altera_avalon_timer_sc.o)
                                        0x23e (size before relaxing)
 .debug_str     0x0000000000003a9b       0x51 ../sodalite_filetest_bsp/\libhal_bsp.a(altera_modular_adc.o)
                                        0x31f (size before relaxing)
 .debug_str     0x0000000000003aec      0x2a7 ../sodalite_filetest_bsp/\libhal_bsp.a(altera_onchip_flash.o)
                                        0x6db (size before relaxing)
 .debug_str     0x0000000000003d93       0x38 ../sodalite_filetest_bsp/\libhal_bsp.a(alt_alarm_start.o)
                                        0x247 (size before relaxing)
 .debug_str     0x0000000000003dcb       0x33 ../sodalite_filetest_bsp/\libhal_bsp.a(alt_busy_sleep.o)
                                        0x134 (size before relaxing)
 .debug_str     0x0000000000003dfe       0x1b ../sodalite_filetest_bsp/\libhal_bsp.a(alt_dcache_flush.o)
                                        0x124 (size before relaxing)
 .debug_str     0x0000000000003e19       0x1f ../sodalite_filetest_bsp/\libhal_bsp.a(alt_dcache_flush_all.o)
                                        0x11e (size before relaxing)
 .debug_str     0x0000000000003e38       0x1f ../sodalite_filetest_bsp/\libhal_bsp.a(alt_dev_llist_insert.o)
                                        0x195 (size before relaxing)
 .debug_str     0x0000000000003e57       0x3e ../sodalite_filetest_bsp/\libhal_bsp.a(alt_do_ctors.o)
                                         0xa5 (size before relaxing)
 .debug_str     0x0000000000003e95       0x4c ../sodalite_filetest_bsp/\libhal_bsp.a(alt_do_dtors.o)
                                         0xa4 (size before relaxing)
 .debug_str     0x0000000000003ee1       0x17 ../sodalite_filetest_bsp/\libhal_bsp.a(alt_find_dev.o)
                                        0x1ca (size before relaxing)
 .debug_str     0x0000000000003ef8       0x18 ../sodalite_filetest_bsp/\libhal_bsp.a(alt_find_file.o)
                                        0x1d8 (size before relaxing)
 .debug_str     0x0000000000003f10       0x3f ../sodalite_filetest_bsp/\libhal_bsp.a(alt_flash_dev.o)
                                        0x313 (size before relaxing)
 .debug_str     0x0000000000003f4f       0x25 ../sodalite_filetest_bsp/\libhal_bsp.a(alt_get_fd.o)
                                        0x1e5 (size before relaxing)
 .debug_str     0x0000000000003f74       0x30 ../sodalite_filetest_bsp/\libhal_bsp.a(alt_icache_flush_all.o)
                                        0x137 (size before relaxing)
 .debug_str     0x0000000000003fa4       0xb1 ../sodalite_filetest_bsp/\libhal_bsp.a(alt_iic.o)
                                        0x21c (size before relaxing)
 .debug_str     0x0000000000004055       0x37 ../sodalite_filetest_bsp/\libhal_bsp.a(alt_iic_isr_register.o)
                                        0x1d6 (size before relaxing)
 .debug_str     0x000000000000408c       0x46 ../sodalite_filetest_bsp/\libhal_bsp.a(alt_io_redirect.o)
                                        0x2ee (size before relaxing)
 .debug_str     0x00000000000040d2       0x3a ../sodalite_filetest_bsp/\libhal_bsp.a(alt_irq_handler.o)
                                        0x160 (size before relaxing)
 .debug_str     0x000000000000410c       0x17 ../sodalite_filetest_bsp/\libhal_bsp.a(alt_irq_vars.o)
                                        0x10f (size before relaxing)
 .debug_str     0x0000000000004123       0x41 ../sodalite_filetest_bsp/\libhal_bsp.a(alt_tick.o)
                                        0x21b (size before relaxing)
 .debug_str     0x0000000000004164       0x20 ../sodalite_filetest_bsp/\libhal_bsp.a(altera_nios2_gen2_irq.o)
                                        0x125 (size before relaxing)
 .debug_str     0x0000000000004184       0x1b ../sodalite_filetest_bsp/\libhal_bsp.a(alt_icache_flush.o)
                                        0x124 (size before relaxing)
 .debug_str     0x000000000000419f      0x48b ../sodalite_filetest_bsp/\libhal_bsp.a(alt_instruction_exception_entry.o)
                                        0x568 (size before relaxing)
 .debug_str     0x000000000000462a       0x82 c:/develop/altera/14.0/nios2eds/bin/gnu/h-x86_64-mingw32/bin/../lib/gcc/nios2-elf/4.7.3/../../../../../H-x86_64-mingw32/nios2-elf/lib/mhw-mulx\libc.a(lib_a-atexit.o)
                                        0x219 (size before relaxing)
 .debug_str     0x00000000000046ac       0x4d c:/develop/altera/14.0/nios2eds/bin/gnu/h-x86_64-mingw32/bin/../lib/gcc/nios2-elf/4.7.3/../../../../../H-x86_64-mingw32/nios2-elf/lib/mhw-mulx\libc.a(lib_a-exit.o)
                                        0x539 (size before relaxing)
 .debug_str     0x00000000000046f9       0x51 c:/develop/altera/14.0/nios2eds/bin/gnu/h-x86_64-mingw32/bin/../lib/gcc/nios2-elf/4.7.3/../../../../../H-x86_64-mingw32/nios2-elf/lib/mhw-mulx\libc.a(lib_a-malign.o)
                                        0x53c (size before relaxing)
 .debug_str     0x000000000000474a       0x13 c:/develop/altera/14.0/nios2eds/bin/gnu/h-x86_64-mingw32/bin/../lib/gcc/nios2-elf/4.7.3/../../../../../H-x86_64-mingw32/nios2-elf/lib/mhw-mulx\libc.a(lib_a-malignr.o)
                                        0x5ba (size before relaxing)
 .debug_str     0x000000000000475d       0x3e c:/develop/altera/14.0/nios2eds/bin/gnu/h-x86_64-mingw32/bin/../lib/gcc/nios2-elf/4.7.3/../../../../../H-x86_64-mingw32/nios2-elf/lib/mhw-mulx\libc.a(lib_a-memcmp.o)
                                        0x180 (size before relaxing)
 .debug_str     0x000000000000479b       0x40 c:/develop/altera/14.0/nios2eds/bin/gnu/h-x86_64-mingw32/bin/../lib/gcc/nios2-elf/4.7.3/../../../../../H-x86_64-mingw32/nios2-elf/lib/mhw-mulx\libc.a(lib_a-__atexit.o)
                                        0x57d (size before relaxing)
 .debug_str     0x00000000000047db       0x5f c:/develop/altera/14.0/nios2eds/bin/gnu/h-x86_64-mingw32/bin/../lib/gcc/nios2-elf/4.7.3/../../../../../H-x86_64-mingw32/nios2-elf/lib/mhw-mulx\libc.a(lib_a-__call_atexit.o)
                                        0x55b (size before relaxing)
 .debug_str     0x000000000000483a       0x2a ../sodalite_filetest_bsp/\libhal_bsp.a(alt_exit.o)
                                        0x11a (size before relaxing)

.debug_loc      0x0000000000000000    0x1befc
 *(.debug_loc)
 .debug_loc     0x0000000000000000       0x54 obj/default/file_test.o
 .debug_loc     0x0000000000000054      0x32d obj/default/loadbmp.o
 .debug_loc     0x0000000000000381     0x5028 obj/default/mmcfs/fatfs/ff.o
 .debug_loc     0x00000000000053a9      0xa1c obj/default/mmcfs/fatfs/mmcbb.o
 .debug_loc     0x0000000000005dc5      0x155 obj/default/mmcfs/fatfs/option/cc932.o
 .debug_loc     0x0000000000005f1a      0x161 obj/default/mmcfs/mmc_spi.o
 .debug_loc     0x000000000000607b      0x5e3 obj/default/mmcfs/mmcfs.o
 .debug_loc     0x000000000000665e     0x159f obj/default/nd_lib/nd_egl.o
 .debug_loc     0x0000000000007bfd      0x470 obj/default/testuty.o
 .debug_loc     0x000000000000806d      0x338 c:/develop/altera/14.0/nios2eds/bin/gnu/h-x86_64-mingw32/bin/../lib/gcc/nios2-elf/4.7.3/mhw-mulx\libgcc.a(lib2-divmod.o)
 .debug_loc     0x00000000000083a5      0x136 c:/develop/altera/14.0/nios2eds/bin/gnu/h-x86_64-mingw32/bin/../lib/gcc/nios2-elf/4.7.3/../../../../../H-x86_64-mingw32/nios2-elf/lib/mhw-mulx\libc.a(lib_a-fclose.o)
 .debug_loc     0x00000000000084db      0x259 c:/develop/altera/14.0/nios2eds/bin/gnu/h-x86_64-mingw32/bin/../lib/gcc/nios2-elf/4.7.3/../../../../../H-x86_64-mingw32/nios2-elf/lib/mhw-mulx\libc.a(lib_a-fflush.o)
 .debug_loc     0x0000000000008734      0x29c c:/develop/altera/14.0/nios2eds/bin/gnu/h-x86_64-mingw32/bin/../lib/gcc/nios2-elf/4.7.3/../../../../../H-x86_64-mingw32/nios2-elf/lib/mhw-mulx\libc.a(lib_a-findfp.o)
 .debug_loc     0x00000000000089d0      0x1fc c:/develop/altera/14.0/nios2eds/bin/gnu/h-x86_64-mingw32/bin/../lib/gcc/nios2-elf/4.7.3/../../../../../H-x86_64-mingw32/nios2-elf/lib/mhw-mulx\libc.a(lib_a-fopen.o)
 .debug_loc     0x0000000000008bcc      0x425 c:/develop/altera/14.0/nios2eds/bin/gnu/h-x86_64-mingw32/bin/../lib/gcc/nios2-elf/4.7.3/../../../../../H-x86_64-mingw32/nios2-elf/lib/mhw-mulx\libc.a(lib_a-fread.o)
 .debug_loc     0x0000000000008ff1      0x668 c:/develop/altera/14.0/nios2eds/bin/gnu/h-x86_64-mingw32/bin/../lib/gcc/nios2-elf/4.7.3/../../../../../H-x86_64-mingw32/nios2-elf/lib/mhw-mulx\libc.a(lib_a-freer.o)
 .debug_loc     0x0000000000009659      0x3ac c:/develop/altera/14.0/nios2eds/bin/gnu/h-x86_64-mingw32/bin/../lib/gcc/nios2-elf/4.7.3/../../../../../H-x86_64-mingw32/nios2-elf/lib/mhw-mulx\libc.a(lib_a-fseek.o)
 .debug_loc     0x0000000000009a05       0xb2 c:/develop/altera/14.0/nios2eds/bin/gnu/h-x86_64-mingw32/bin/../lib/gcc/nios2-elf/4.7.3/../../../../../H-x86_64-mingw32/nios2-elf/lib/mhw-mulx\libc.a(lib_a-fstatr.o)
 .debug_loc     0x0000000000009ab7      0x2ae c:/develop/altera/14.0/nios2eds/bin/gnu/h-x86_64-mingw32/bin/../lib/gcc/nios2-elf/4.7.3/../../../../../H-x86_64-mingw32/nios2-elf/lib/mhw-mulx\libc.a(lib_a-fwalk.o)
 .debug_loc     0x0000000000009d65      0x16a c:/develop/altera/14.0/nios2eds/bin/gnu/h-x86_64-mingw32/bin/../lib/gcc/nios2-elf/4.7.3/../../../../../H-x86_64-mingw32/nios2-elf/lib/mhw-mulx\libc.a(lib_a-makebuf.o)
 .debug_loc     0x0000000000009ecf      0xb50 c:/develop/altera/14.0/nios2eds/bin/gnu/h-x86_64-mingw32/bin/../lib/gcc/nios2-elf/4.7.3/../../../../../H-x86_64-mingw32/nios2-elf/lib/mhw-mulx\libc.a(lib_a-mallocr.o)
 .debug_loc     0x000000000000aa1f      0x1f2 c:/develop/altera/14.0/nios2eds/bin/gnu/h-x86_64-mingw32/bin/../lib/gcc/nios2-elf/4.7.3/../../../../../H-x86_64-mingw32/nios2-elf/lib/mhw-mulx\libc.a(lib_a-memcpy.o)
 .debug_loc     0x000000000000ac11      0x1b7 c:/develop/altera/14.0/nios2eds/bin/gnu/h-x86_64-mingw32/bin/../lib/gcc/nios2-elf/4.7.3/../../../../../H-x86_64-mingw32/nios2-elf/lib/mhw-mulx\libc.a(lib_a-memset.o)
 .debug_loc     0x000000000000adc8       0xde c:/develop/altera/14.0/nios2eds/bin/gnu/h-x86_64-mingw32/bin/../lib/gcc/nios2-elf/4.7.3/../../../../../H-x86_64-mingw32/nios2-elf/lib/mhw-mulx\libc.a(lib_a-openr.o)
 .debug_loc     0x000000000000aea6      0x132 c:/develop/altera/14.0/nios2eds/bin/gnu/h-x86_64-mingw32/bin/../lib/gcc/nios2-elf/4.7.3/../../../../../H-x86_64-mingw32/nios2-elf/lib/mhw-mulx\libc.a(lib_a-printf.o)
 .debug_loc     0x000000000000afd8       0x6e c:/develop/altera/14.0/nios2eds/bin/gnu/h-x86_64-mingw32/bin/../lib/gcc/nios2-elf/4.7.3/../../../../../H-x86_64-mingw32/nios2-elf/lib/mhw-mulx\libc.a(lib_a-putchar.o)
 .debug_loc     0x000000000000b046       0xd9 c:/develop/altera/14.0/nios2eds/bin/gnu/h-x86_64-mingw32/bin/../lib/gcc/nios2-elf/4.7.3/../../../../../H-x86_64-mingw32/nios2-elf/lib/mhw-mulx\libc.a(lib_a-puts.o)
 .debug_loc     0x000000000000b11f      0x15b c:/develop/altera/14.0/nios2eds/bin/gnu/h-x86_64-mingw32/bin/../lib/gcc/nios2-elf/4.7.3/../../../../../H-x86_64-mingw32/nios2-elf/lib/mhw-mulx\libc.a(lib_a-refill.o)
 .debug_loc     0x000000000000b27a       0x86 c:/develop/altera/14.0/nios2eds/bin/gnu/h-x86_64-mingw32/bin/../lib/gcc/nios2-elf/4.7.3/../../../../../H-x86_64-mingw32/nios2-elf/lib/mhw-mulx\libc.a(lib_a-sbrkr.o)
 .debug_loc     0x000000000000b300      0x379 c:/develop/altera/14.0/nios2eds/bin/gnu/h-x86_64-mingw32/bin/../lib/gcc/nios2-elf/4.7.3/../../../../../H-x86_64-mingw32/nios2-elf/lib/mhw-mulx\libc.a(lib_a-stdio.o)
 .debug_loc     0x000000000000b679       0x52 c:/develop/altera/14.0/nios2eds/bin/gnu/h-x86_64-mingw32/bin/../lib/gcc/nios2-elf/4.7.3/../../../../../H-x86_64-mingw32/nios2-elf/lib/mhw-mulx\libc.a(lib_a-strlen.o)
 .debug_loc     0x000000000000b6cb     0x2b6b c:/develop/altera/14.0/nios2eds/bin/gnu/h-x86_64-mingw32/bin/../lib/gcc/nios2-elf/4.7.3/../../../../../H-x86_64-mingw32/nios2-elf/lib/mhw-mulx\libc.a(lib_a-vfprintf.o)
 .debug_loc     0x000000000000e236       0xde c:/develop/altera/14.0/nios2eds/bin/gnu/h-x86_64-mingw32/bin/../lib/gcc/nios2-elf/4.7.3/../../../../../H-x86_64-mingw32/nios2-elf/lib/mhw-mulx\libc.a(lib_a-writer.o)
 .debug_loc     0x000000000000e314       0xba c:/develop/altera/14.0/nios2eds/bin/gnu/h-x86_64-mingw32/bin/../lib/gcc/nios2-elf/4.7.3/../../../../../H-x86_64-mingw32/nios2-elf/lib/mhw-mulx\libc.a(lib_a-wsetup.o)
 .debug_loc     0x000000000000e3ce       0x86 c:/develop/altera/14.0/nios2eds/bin/gnu/h-x86_64-mingw32/bin/../lib/gcc/nios2-elf/4.7.3/../../../../../H-x86_64-mingw32/nios2-elf/lib/mhw-mulx\libc.a(lib_a-closer.o)
 .debug_loc     0x000000000000e454     0x2286 c:/develop/altera/14.0/nios2eds/bin/gnu/h-x86_64-mingw32/bin/../lib/gcc/nios2-elf/4.7.3/../../../../../H-x86_64-mingw32/nios2-elf/lib/mhw-mulx\libc.a(lib_a-dtoa.o)
 .debug_loc     0x00000000000106da       0xe0 c:/develop/altera/14.0/nios2eds/bin/gnu/h-x86_64-mingw32/bin/../lib/gcc/nios2-elf/4.7.3/../../../../../H-x86_64-mingw32/nios2-elf/lib/mhw-mulx\libc.a(lib_a-flags.o)
 .debug_loc     0x00000000000107ba      0x50c c:/develop/altera/14.0/nios2eds/bin/gnu/h-x86_64-mingw32/bin/../lib/gcc/nios2-elf/4.7.3/../../../../../H-x86_64-mingw32/nios2-elf/lib/mhw-mulx\libc.a(lib_a-fvwrite.o)
 .debug_loc     0x0000000000010cc6       0x86 c:/develop/altera/14.0/nios2eds/bin/gnu/h-x86_64-mingw32/bin/../lib/gcc/nios2-elf/4.7.3/../../../../../H-x86_64-mingw32/nios2-elf/lib/mhw-mulx\libc.a(lib_a-isattyr.o)
 .debug_loc     0x0000000000010d4c      0x13e c:/develop/altera/14.0/nios2eds/bin/gnu/h-x86_64-mingw32/bin/../lib/gcc/nios2-elf/4.7.3/../../../../../H-x86_64-mingw32/nios2-elf/lib/mhw-mulx\libc.a(lib_a-locale.o)
 .debug_loc     0x0000000000010e8a       0xde c:/develop/altera/14.0/nios2eds/bin/gnu/h-x86_64-mingw32/bin/../lib/gcc/nios2-elf/4.7.3/../../../../../H-x86_64-mingw32/nios2-elf/lib/mhw-mulx\libc.a(lib_a-lseekr.o)
 .debug_loc     0x0000000000010f68      0x239 c:/develop/altera/14.0/nios2eds/bin/gnu/h-x86_64-mingw32/bin/../lib/gcc/nios2-elf/4.7.3/../../../../../H-x86_64-mingw32/nios2-elf/lib/mhw-mulx\libc.a(lib_a-memchr.o)
 .debug_loc     0x00000000000111a1      0x240 c:/develop/altera/14.0/nios2eds/bin/gnu/h-x86_64-mingw32/bin/../lib/gcc/nios2-elf/4.7.3/../../../../../H-x86_64-mingw32/nios2-elf/lib/mhw-mulx\libc.a(lib_a-memmove.o)
 .debug_loc     0x00000000000113e1     0x1b23 c:/develop/altera/14.0/nios2eds/bin/gnu/h-x86_64-mingw32/bin/../lib/gcc/nios2-elf/4.7.3/../../../../../H-x86_64-mingw32/nios2-elf/lib/mhw-mulx\libc.a(lib_a-mprec.o)
 .debug_loc     0x0000000000012f04      0x257 c:/develop/altera/14.0/nios2eds/bin/gnu/h-x86_64-mingw32/bin/../lib/gcc/nios2-elf/4.7.3/../../../../../H-x86_64-mingw32/nios2-elf/lib/mhw-mulx\libc.a(lib_a-putc.o)
 .debug_loc     0x000000000001315b       0xde c:/develop/altera/14.0/nios2eds/bin/gnu/h-x86_64-mingw32/bin/../lib/gcc/nios2-elf/4.7.3/../../../../../H-x86_64-mingw32/nios2-elf/lib/mhw-mulx\libc.a(lib_a-readr.o)
 .debug_loc     0x0000000000013239     0x1136 c:/develop/altera/14.0/nios2eds/bin/gnu/h-x86_64-mingw32/bin/../lib/gcc/nios2-elf/4.7.3/../../../../../H-x86_64-mingw32/nios2-elf/lib/mhw-mulx\libc.a(lib_a-reallocr.o)
 .debug_loc     0x000000000001436f       0x88 c:/develop/altera/14.0/nios2eds/bin/gnu/h-x86_64-mingw32/bin/../lib/gcc/nios2-elf/4.7.3/../../../../../H-x86_64-mingw32/nios2-elf/lib/mhw-mulx\libc.a(lib_a-s_isinfd.o)
 .debug_loc     0x00000000000143f7       0xa5 c:/develop/altera/14.0/nios2eds/bin/gnu/h-x86_64-mingw32/bin/../lib/gcc/nios2-elf/4.7.3/../../../../../H-x86_64-mingw32/nios2-elf/lib/mhw-mulx\libc.a(lib_a-s_isnand.o)
 .debug_loc     0x000000000001449c       0xb0 c:/develop/altera/14.0/nios2eds/bin/gnu/h-x86_64-mingw32/bin/../lib/gcc/nios2-elf/4.7.3/../../../../../H-x86_64-mingw32/nios2-elf/lib/mhw-mulx\libc.a(lib_a-strcmp.o)
 .debug_loc     0x000000000001454c      0x193 c:/develop/altera/14.0/nios2eds/bin/gnu/h-x86_64-mingw32/bin/../lib/gcc/nios2-elf/4.7.3/../../../../../H-x86_64-mingw32/nios2-elf/lib/mhw-mulx\libc.a(lib_a-wbuf.o)
 .debug_loc     0x00000000000146df      0x283 c:/develop/altera/14.0/nios2eds/bin/gnu/h-x86_64-mingw32/bin/../lib/gcc/nios2-elf/4.7.3/../../../../../H-x86_64-mingw32/nios2-elf/lib/mhw-mulx\libc.a(lib_a-callocr.o)
 .debug_loc     0x0000000000014962     0x10da c:/develop/altera/14.0/nios2eds/bin/gnu/h-x86_64-mingw32/bin/../lib/gcc/nios2-elf/4.7.3/mhw-mulx\libgcc.a(_udivdi3.o)
 .debug_loc     0x0000000000015a3c     0x1049 c:/develop/altera/14.0/nios2eds/bin/gnu/h-x86_64-mingw32/bin/../lib/gcc/nios2-elf/4.7.3/mhw-mulx\libgcc.a(_umoddi3.o)
 .debug_loc     0x0000000000016a85      0x7a1 c:/develop/altera/14.0/nios2eds/bin/gnu/h-x86_64-mingw32/bin/../lib/gcc/nios2-elf/4.7.3/mhw-mulx\libgcc.a(_addsub_df.o)
 .debug_loc     0x0000000000017226      0x421 c:/develop/altera/14.0/nios2eds/bin/gnu/h-x86_64-mingw32/bin/../lib/gcc/nios2-elf/4.7.3/mhw-mulx\libgcc.a(_mul_df.o)
 .debug_loc     0x0000000000017647      0x25e c:/develop/altera/14.0/nios2eds/bin/gnu/h-x86_64-mingw32/bin/../lib/gcc/nios2-elf/4.7.3/mhw-mulx\libgcc.a(_div_df.o)
 .debug_loc     0x00000000000178a5       0x70 c:/develop/altera/14.0/nios2eds/bin/gnu/h-x86_64-mingw32/bin/../lib/gcc/nios2-elf/4.7.3/mhw-mulx\libgcc.a(_eq_df.o)
 .debug_loc     0x0000000000017915       0x70 c:/develop/altera/14.0/nios2eds/bin/gnu/h-x86_64-mingw32/bin/../lib/gcc/nios2-elf/4.7.3/mhw-mulx\libgcc.a(_ne_df.o)
 .debug_loc     0x0000000000017985       0x70 c:/develop/altera/14.0/nios2eds/bin/gnu/h-x86_64-mingw32/bin/../lib/gcc/nios2-elf/4.7.3/mhw-mulx\libgcc.a(_gt_df.o)
 .debug_loc     0x00000000000179f5       0x70 c:/develop/altera/14.0/nios2eds/bin/gnu/h-x86_64-mingw32/bin/../lib/gcc/nios2-elf/4.7.3/mhw-mulx\libgcc.a(_ge_df.o)
 .debug_loc     0x0000000000017a65       0x70 c:/develop/altera/14.0/nios2eds/bin/gnu/h-x86_64-mingw32/bin/../lib/gcc/nios2-elf/4.7.3/mhw-mulx\libgcc.a(_lt_df.o)
 .debug_loc     0x0000000000017ad5       0xd3 c:/develop/altera/14.0/nios2eds/bin/gnu/h-x86_64-mingw32/bin/../lib/gcc/nios2-elf/4.7.3/mhw-mulx\libgcc.a(_si_to_df.o)
 .debug_loc     0x0000000000017ba8       0xc4 c:/develop/altera/14.0/nios2eds/bin/gnu/h-x86_64-mingw32/bin/../lib/gcc/nios2-elf/4.7.3/mhw-mulx\libgcc.a(_df_to_si.o)
 .debug_loc     0x0000000000017c6c      0x168 c:/develop/altera/14.0/nios2eds/bin/gnu/h-x86_64-mingw32/bin/../lib/gcc/nios2-elf/4.7.3/mhw-mulx\libgcc.a(_usi_to_df.o)
 .debug_loc     0x0000000000017dd4      0x19a c:/develop/altera/14.0/nios2eds/bin/gnu/h-x86_64-mingw32/bin/../lib/gcc/nios2-elf/4.7.3/mhw-mulx\libgcc.a(_clzsi2.o)
 .debug_loc     0x0000000000017f6e      0x2ae c:/develop/altera/14.0/nios2eds/bin/gnu/h-x86_64-mingw32/bin/../lib/gcc/nios2-elf/4.7.3/mhw-mulx\libgcc.a(_pack_df.o)
 .debug_loc     0x000000000001821c      0x179 c:/develop/altera/14.0/nios2eds/bin/gnu/h-x86_64-mingw32/bin/../lib/gcc/nios2-elf/4.7.3/mhw-mulx\libgcc.a(_unpack_df.o)
 .debug_loc     0x0000000000018395       0x7c c:/develop/altera/14.0/nios2eds/bin/gnu/h-x86_64-mingw32/bin/../lib/gcc/nios2-elf/4.7.3/mhw-mulx\libgcc.a(_fpcmp_parts_df.o)
 .debug_loc     0x0000000000018411       0xc4 c:/develop/altera/14.0/nios2eds/bin/gnu/h-x86_64-mingw32/bin/../lib/gcc/nios2-elf/4.7.3/mhw-mulx\libgcc.a(_lshrdi3.o)
 .debug_loc     0x00000000000184d5       0xc4 c:/develop/altera/14.0/nios2eds/bin/gnu/h-x86_64-mingw32/bin/../lib/gcc/nios2-elf/4.7.3/mhw-mulx\libgcc.a(_ashldi3.o)
 .debug_loc     0x0000000000018599      0x151 ../sodalite_filetest_bsp/\libhal_bsp.a(alt_close.o)
 .debug_loc     0x00000000000186ea       0x13 ../sodalite_filetest_bsp/\libhal_bsp.a(alt_fs_reg.o)
 .debug_loc     0x00000000000186fd      0x119 ../sodalite_filetest_bsp/\libhal_bsp.a(alt_fstat.o)
 .debug_loc     0x0000000000018816       0xce ../sodalite_filetest_bsp/\libhal_bsp.a(alt_isatty.o)
 .debug_loc     0x00000000000188e4       0x20 ../sodalite_filetest_bsp/\libhal_bsp.a(alt_load.o)
 .debug_loc     0x0000000000018904      0x198 ../sodalite_filetest_bsp/\libhal_bsp.a(alt_lseek.o)
 .debug_loc     0x0000000000018a9c       0x3e ../sodalite_filetest_bsp/\libhal_bsp.a(alt_main.o)
 .debug_loc     0x0000000000018ada      0x2a6 ../sodalite_filetest_bsp/\libhal_bsp.a(alt_open.o)
 .debug_loc     0x0000000000018d80      0x233 ../sodalite_filetest_bsp/\libhal_bsp.a(alt_read.o)
 .debug_loc     0x0000000000018fb3       0x21 ../sodalite_filetest_bsp/\libhal_bsp.a(alt_release_fd.o)
 .debug_loc     0x0000000000018fd4       0x47 ../sodalite_filetest_bsp/\libhal_bsp.a(alt_sbrk.o)
 .debug_loc     0x000000000001901b       0xf7 ../sodalite_filetest_bsp/\libhal_bsp.a(alt_uncached_malloc.o)
 .debug_loc     0x0000000000019112       0x21 ../sodalite_filetest_bsp/\libhal_bsp.a(alt_usleep.o)
 .debug_loc     0x0000000000019133      0x233 ../sodalite_filetest_bsp/\libhal_bsp.a(alt_write.o)
 .debug_loc     0x0000000000019366       0x61 ../sodalite_filetest_bsp/\libhal_bsp.a(alt_sys_init.o)
 .debug_loc     0x00000000000193c7      0x1d3 ../sodalite_filetest_bsp/\libhal_bsp.a(altera_avalon_jtag_uart_fd.o)
 .debug_loc     0x000000000001959a      0x179 ../sodalite_filetest_bsp/\libhal_bsp.a(altera_avalon_jtag_uart_init.o)
 .debug_loc     0x0000000000019713       0xb3 ../sodalite_filetest_bsp/\libhal_bsp.a(altera_avalon_jtag_uart_ioctl.o)
 .debug_loc     0x00000000000197c6      0x213 ../sodalite_filetest_bsp/\libhal_bsp.a(altera_avalon_jtag_uart_read.o)
 .debug_loc     0x00000000000199d9      0x248 ../sodalite_filetest_bsp/\libhal_bsp.a(altera_avalon_jtag_uart_write.o)
 .debug_loc     0x0000000000019c21      0x14d ../sodalite_filetest_bsp/\libhal_bsp.a(altera_avalon_timer_sc.o)
 .debug_loc     0x0000000000019d6e       0x42 ../sodalite_filetest_bsp/\libhal_bsp.a(altera_modular_adc.o)
 .debug_loc     0x0000000000019db0      0xd8e ../sodalite_filetest_bsp/\libhal_bsp.a(altera_onchip_flash.o)
 .debug_loc     0x000000000001ab3e       0xaf ../sodalite_filetest_bsp/\libhal_bsp.a(alt_alarm_start.o)
 .debug_loc     0x000000000001abed       0x88 ../sodalite_filetest_bsp/\libhal_bsp.a(alt_busy_sleep.o)
 .debug_loc     0x000000000001ac75       0x60 ../sodalite_filetest_bsp/\libhal_bsp.a(alt_dcache_flush.o)
 .debug_loc     0x000000000001acd5       0x1f ../sodalite_filetest_bsp/\libhal_bsp.a(alt_dcache_flush_all.o)
 .debug_loc     0x000000000001acf4       0xd0 ../sodalite_filetest_bsp/\libhal_bsp.a(alt_dev_llist_insert.o)
 .debug_loc     0x000000000001adc4       0x33 ../sodalite_filetest_bsp/\libhal_bsp.a(alt_do_ctors.o)
 .debug_loc     0x000000000001adf7       0x33 ../sodalite_filetest_bsp/\libhal_bsp.a(alt_do_dtors.o)
 .debug_loc     0x000000000001ae2a       0xf1 ../sodalite_filetest_bsp/\libhal_bsp.a(alt_find_dev.o)
 .debug_loc     0x000000000001af1b       0x9e ../sodalite_filetest_bsp/\libhal_bsp.a(alt_find_file.o)
 .debug_loc     0x000000000001afb9       0xba ../sodalite_filetest_bsp/\libhal_bsp.a(alt_flash_dev.o)
 .debug_loc     0x000000000001b073       0x4a ../sodalite_filetest_bsp/\libhal_bsp.a(alt_get_fd.o)
 .debug_loc     0x000000000001b0bd      0x13c ../sodalite_filetest_bsp/\libhal_bsp.a(alt_iic.o)
 .debug_loc     0x000000000001b1f9      0x192 ../sodalite_filetest_bsp/\libhal_bsp.a(alt_iic_isr_register.o)
 .debug_loc     0x000000000001b38b      0x195 ../sodalite_filetest_bsp/\libhal_bsp.a(alt_io_redirect.o)
 .debug_loc     0x000000000001b520       0x84 ../sodalite_filetest_bsp/\libhal_bsp.a(alt_irq_handler.o)
 .debug_loc     0x000000000001b5a4       0xb1 ../sodalite_filetest_bsp/\libhal_bsp.a(alt_tick.o)
 .debug_loc     0x000000000001b655       0x52 ../sodalite_filetest_bsp/\libhal_bsp.a(alt_icache_flush.o)
 .debug_loc     0x000000000001b6a7       0xbe ../sodalite_filetest_bsp/\libhal_bsp.a(alt_instruction_exception_entry.o)
 .debug_loc     0x000000000001b765       0x2c c:/develop/altera/14.0/nios2eds/bin/gnu/h-x86_64-mingw32/bin/../lib/gcc/nios2-elf/4.7.3/../../../../../H-x86_64-mingw32/nios2-elf/lib/mhw-mulx\libc.a(lib_a-atexit.o)
 .debug_loc     0x000000000001b791       0x3e c:/develop/altera/14.0/nios2eds/bin/gnu/h-x86_64-mingw32/bin/../lib/gcc/nios2-elf/4.7.3/../../../../../H-x86_64-mingw32/nios2-elf/lib/mhw-mulx\libc.a(lib_a-exit.o)
 .debug_loc     0x000000000001b7cf       0x58 c:/develop/altera/14.0/nios2eds/bin/gnu/h-x86_64-mingw32/bin/../lib/gcc/nios2-elf/4.7.3/../../../../../H-x86_64-mingw32/nios2-elf/lib/mhw-mulx\libc.a(lib_a-malign.o)
 .debug_loc     0x000000000001b827      0x25d c:/develop/altera/14.0/nios2eds/bin/gnu/h-x86_64-mingw32/bin/../lib/gcc/nios2-elf/4.7.3/../../../../../H-x86_64-mingw32/nios2-elf/lib/mhw-mulx\libc.a(lib_a-malignr.o)
 .debug_loc     0x000000000001ba84      0x103 c:/develop/altera/14.0/nios2eds/bin/gnu/h-x86_64-mingw32/bin/../lib/gcc/nios2-elf/4.7.3/../../../../../H-x86_64-mingw32/nios2-elf/lib/mhw-mulx\libc.a(lib_a-memcmp.o)
 .debug_loc     0x000000000001bb87      0x194 c:/develop/altera/14.0/nios2eds/bin/gnu/h-x86_64-mingw32/bin/../lib/gcc/nios2-elf/4.7.3/../../../../../H-x86_64-mingw32/nios2-elf/lib/mhw-mulx\libc.a(lib_a-__atexit.o)
 .debug_loc     0x000000000001bd1b      0x1e1 c:/develop/altera/14.0/nios2eds/bin/gnu/h-x86_64-mingw32/bin/../lib/gcc/nios2-elf/4.7.3/../../../../../H-x86_64-mingw32/nios2-elf/lib/mhw-mulx\libc.a(lib_a-__call_atexit.o)

.debug_macinfo
 *(.debug_macinfo)

.debug_weaknames
 *(.debug_weaknames)

.debug_funcnames
 *(.debug_funcnames)

.debug_typenames
 *(.debug_typenames)

.debug_varnames
 *(.debug_varnames)

.debug_alt_sim_info
                0x0000000000000000       0x60
 *(.debug_alt_sim_info)
 .debug_alt_sim_info
                0x0000000000000000       0x30 ../sodalite_filetest_bsp//obj/HAL/src/crt0.o
 .debug_alt_sim_info
                0x0000000000000030       0x30 ../sodalite_filetest_bsp/\libhal_bsp.a(alt_busy_sleep.o)
                0x0000000002000000                __alt_data_end = 0x2000000
                0x0000000002000000                PROVIDE (__alt_stack_pointer, __alt_data_end)
                0x000000000004b708                PROVIDE (__alt_stack_limit, __alt_stack_base)
                0x000000000004b708                PROVIDE (__alt_heap_start, end)
                0x0000000002000000                PROVIDE (__alt_heap_limit, 0x2000000)
OUTPUT(sodalite_filetest.elf elf32-littlenios2)

.debug_ranges   0x0000000000000000     0x11b8
 .debug_ranges  0x0000000000000000       0x20 ../sodalite_filetest_bsp//obj/HAL/src/crt0.o
 .debug_ranges  0x0000000000000020       0x18 obj/default/file_test.o
 .debug_ranges  0x0000000000000038      0x3a8 obj/default/mmcfs/fatfs/ff.o
 .debug_ranges  0x00000000000003e0       0x38 obj/default/mmcfs/fatfs/mmcbb.o
 .debug_ranges  0x0000000000000418       0x30 obj/default/testuty.o
 .debug_ranges  0x0000000000000448       0x20 c:/develop/altera/14.0/nios2eds/bin/gnu/h-x86_64-mingw32/bin/../lib/gcc/nios2-elf/4.7.3/../../../../../H-x86_64-mingw32/nios2-elf/lib/mhw-mulx\libc.a(lib_a-fflush.o)
 .debug_ranges  0x0000000000000468       0x18 c:/develop/altera/14.0/nios2eds/bin/gnu/h-x86_64-mingw32/bin/../lib/gcc/nios2-elf/4.7.3/../../../../../H-x86_64-mingw32/nios2-elf/lib/mhw-mulx\libc.a(lib_a-fread.o)
 .debug_ranges  0x0000000000000480       0x80 c:/develop/altera/14.0/nios2eds/bin/gnu/h-x86_64-mingw32/bin/../lib/gcc/nios2-elf/4.7.3/../../../../../H-x86_64-mingw32/nios2-elf/lib/mhw-mulx\libc.a(lib_a-fwalk.o)
 .debug_ranges  0x0000000000000500       0x70 c:/develop/altera/14.0/nios2eds/bin/gnu/h-x86_64-mingw32/bin/../lib/gcc/nios2-elf/4.7.3/../../../../../H-x86_64-mingw32/nios2-elf/lib/mhw-mulx\libc.a(lib_a-mallocr.o)
 .debug_ranges  0x0000000000000570      0x150 c:/develop/altera/14.0/nios2eds/bin/gnu/h-x86_64-mingw32/bin/../lib/gcc/nios2-elf/4.7.3/../../../../../H-x86_64-mingw32/nios2-elf/lib/mhw-mulx\libc.a(lib_a-vfprintf.o)
 .debug_ranges  0x00000000000006c0       0x18 c:/develop/altera/14.0/nios2eds/bin/gnu/h-x86_64-mingw32/bin/../lib/gcc/nios2-elf/4.7.3/../../../../../H-x86_64-mingw32/nios2-elf/lib/mhw-mulx\libc.a(lib_a-fvwrite.o)
 .debug_ranges  0x00000000000006d8       0x40 c:/develop/altera/14.0/nios2eds/bin/gnu/h-x86_64-mingw32/bin/../lib/gcc/nios2-elf/4.7.3/../../../../../H-x86_64-mingw32/nios2-elf/lib/mhw-mulx\libc.a(lib_a-mprec.o)
 .debug_ranges  0x0000000000000718      0x158 c:/develop/altera/14.0/nios2eds/bin/gnu/h-x86_64-mingw32/bin/../lib/gcc/nios2-elf/4.7.3/../../../../../H-x86_64-mingw32/nios2-elf/lib/mhw-mulx\libc.a(lib_a-reallocr.o)
 .debug_ranges  0x0000000000000870       0x48 c:/develop/altera/14.0/nios2eds/bin/gnu/h-x86_64-mingw32/bin/../lib/gcc/nios2-elf/4.7.3/../../../../../H-x86_64-mingw32/nios2-elf/lib/mhw-mulx\libc.a(lib_a-callocr.o)
 .debug_ranges  0x00000000000008b8      0x1a0 c:/develop/altera/14.0/nios2eds/bin/gnu/h-x86_64-mingw32/bin/../lib/gcc/nios2-elf/4.7.3/mhw-mulx\libgcc.a(_udivdi3.o)
 .debug_ranges  0x0000000000000a58      0x160 c:/develop/altera/14.0/nios2eds/bin/gnu/h-x86_64-mingw32/bin/../lib/gcc/nios2-elf/4.7.3/mhw-mulx\libgcc.a(_umoddi3.o)
 .debug_ranges  0x0000000000000bb8       0x38 c:/develop/altera/14.0/nios2eds/bin/gnu/h-x86_64-mingw32/bin/../lib/gcc/nios2-elf/4.7.3/mhw-mulx\libgcc.a(_addsub_df.o)
 .debug_ranges  0x0000000000000bf0       0x70 c:/develop/altera/14.0/nios2eds/bin/gnu/h-x86_64-mingw32/bin/../lib/gcc/nios2-elf/4.7.3/mhw-mulx\libgcc.a(_mul_df.o)
 .debug_ranges  0x0000000000000c60       0x50 c:/develop/altera/14.0/nios2eds/bin/gnu/h-x86_64-mingw32/bin/../lib/gcc/nios2-elf/4.7.3/mhw-mulx\libgcc.a(_div_df.o)
 .debug_ranges  0x0000000000000cb0       0x30 c:/develop/altera/14.0/nios2eds/bin/gnu/h-x86_64-mingw32/bin/../lib/gcc/nios2-elf/4.7.3/mhw-mulx\libgcc.a(_si_to_df.o)
 .debug_ranges  0x0000000000000ce0       0x48 c:/develop/altera/14.0/nios2eds/bin/gnu/h-x86_64-mingw32/bin/../lib/gcc/nios2-elf/4.7.3/mhw-mulx\libgcc.a(_usi_to_df.o)
 .debug_ranges  0x0000000000000d28       0x28 c:/develop/altera/14.0/nios2eds/bin/gnu/h-x86_64-mingw32/bin/../lib/gcc/nios2-elf/4.7.3/mhw-mulx\libgcc.a(_clzsi2.o)
 .debug_ranges  0x0000000000000d50       0x18 c:/develop/altera/14.0/nios2eds/bin/gnu/h-x86_64-mingw32/bin/../lib/gcc/nios2-elf/4.7.3/mhw-mulx\libgcc.a(_pack_df.o)
 .debug_ranges  0x0000000000000d68       0x18 ../sodalite_filetest_bsp/\libhal_bsp.a(alt_close.o)
 .debug_ranges  0x0000000000000d80       0x18 ../sodalite_filetest_bsp/\libhal_bsp.a(alt_fs_reg.o)
 .debug_ranges  0x0000000000000d98       0x18 ../sodalite_filetest_bsp/\libhal_bsp.a(alt_isatty.o)
 .debug_ranges  0x0000000000000db0       0x48 ../sodalite_filetest_bsp/\libhal_bsp.a(alt_load.o)
 .debug_ranges  0x0000000000000df8       0x18 ../sodalite_filetest_bsp/\libhal_bsp.a(alt_lseek.o)
 .debug_ranges  0x0000000000000e10       0x18 ../sodalite_filetest_bsp/\libhal_bsp.a(alt_open.o)
 .debug_ranges  0x0000000000000e28       0x30 ../sodalite_filetest_bsp/\libhal_bsp.a(alt_read.o)
 .debug_ranges  0x0000000000000e58       0x30 ../sodalite_filetest_bsp/\libhal_bsp.a(alt_write.o)
 .debug_ranges  0x0000000000000e88       0x38 ../sodalite_filetest_bsp/\libhal_bsp.a(altera_avalon_jtag_uart_init.o)
 .debug_ranges  0x0000000000000ec0       0x18 ../sodalite_filetest_bsp/\libhal_bsp.a(altera_avalon_jtag_uart_read.o)
 .debug_ranges  0x0000000000000ed8       0x58 ../sodalite_filetest_bsp/\libhal_bsp.a(altera_avalon_jtag_uart_write.o)
 .debug_ranges  0x0000000000000f30       0x18 ../sodalite_filetest_bsp/\libhal_bsp.a(altera_avalon_timer_sc.o)
 .debug_ranges  0x0000000000000f48      0x148 ../sodalite_filetest_bsp/\libhal_bsp.a(altera_onchip_flash.o)
 .debug_ranges  0x0000000000001090       0x30 ../sodalite_filetest_bsp/\libhal_bsp.a(alt_dev_llist_insert.o)
 .debug_ranges  0x00000000000010c0       0x28 ../sodalite_filetest_bsp/\libhal_bsp.a(alt_irq_entry.o)
 .debug_ranges  0x00000000000010e8       0x10 ../sodalite_filetest_bsp/\libhal_bsp.a(alt_irq_handler.o)
 .debug_ranges  0x00000000000010f8       0x60 ../sodalite_filetest_bsp/\libhal_bsp.a(alt_tick.o)
 .debug_ranges  0x0000000000001158       0x30 ../sodalite_filetest_bsp/\libhal_bsp.a(alt_exception_entry.o)
 .debug_ranges  0x0000000000001188       0x18 ../sodalite_filetest_bsp/\libhal_bsp.a(alt_instruction_exception_entry.o)
 .debug_ranges  0x00000000000011a0       0x18 c:/develop/altera/14.0/nios2eds/bin/gnu/h-x86_64-mingw32/bin/../lib/gcc/nios2-elf/4.7.3/../../../../../H-x86_64-mingw32/nios2-elf/lib/mhw-mulx\libc.a(lib_a-__call_atexit.o)
