
sodalite_filetest.elf:     file format elf32-littlenios2
sodalite_filetest.elf
architecture: nios2, flags 0x00000112:
EXEC_P, HAS_SYMS, D_PAGED
start address 0x0000018c

Program Header:
    LOAD off    0x00001020 vaddr 0x00000020 paddr 0x00000020 align 2**12
         filesz 0x0004513c memsz 0x0004513c flags r-x
    LOAD off    0x0004615c vaddr 0x0004515c paddr 0x00046d1c align 2**12
         filesz 0x00001bc0 memsz 0x00001bc0 flags rw-
    LOAD off    0x000488dc vaddr 0x000488dc paddr 0x000488dc align 2**12
         filesz 0x00000000 memsz 0x00002e2c flags rw-
    LOAD off    0x00048000 vaddr 0x0f000000 paddr 0x0f000000 align 2**12
         filesz 0x00000020 memsz 0x00000020 flags r-x

Sections:
Idx Name          Size      VMA       LMA       File off  Algn
  0 .entry        00000020  0f000000  0f000000  00048000  2**5
                  CONTENTS, ALLOC, LOAD, READONLY, CODE
  1 .exceptions   0000016c  00000020  00000020  00001020  2**2
                  CONTENTS, ALLOC, LOAD, READONLY, CODE
  2 .text         00012bfc  0000018c  0000018c  0000118c  2**2
                  CONTENTS, ALLOC, LOAD, READONLY, CODE
  3 .rodata       000323d4  00012d88  00012d88  00013d88  2**2
                  CONTENTS, ALLOC, LOAD, READONLY, DATA
  4 .rwdata       00001bc0  0004515c  00046d1c  0004615c  2**2
                  CONTENTS, ALLOC, LOAD, DATA, SMALL_DATA
  5 .bss          00002e2c  000488dc  000488dc  000488dc  2**2
                  ALLOC, SMALL_DATA
  6 .comment      00000023  00000000  00000000  00048020  2**0
                  CONTENTS, READONLY
  7 .debug_aranges 00001100  00000000  00000000  00048048  2**3
                  CONTENTS, READONLY, DEBUGGING
  8 .debug_info   00034891  00000000  00000000  00049148  2**0
                  CONTENTS, READONLY, DEBUGGING
  9 .debug_abbrev 0000c9fc  00000000  00000000  0007d9d9  2**0
                  CONTENTS, READONLY, DEBUGGING
 10 .debug_line   0000e8fd  00000000  00000000  0008a3d5  2**0
                  CONTENTS, READONLY, DEBUGGING
 11 .debug_frame  00002514  00000000  00000000  00098cd4  2**2
                  CONTENTS, READONLY, DEBUGGING
 12 .debug_str    00004864  00000000  00000000  0009b1e8  2**0
                  CONTENTS, READONLY, DEBUGGING
 13 .debug_loc    0001befc  00000000  00000000  0009fa4c  2**0
                  CONTENTS, READONLY, DEBUGGING
 14 .debug_alt_sim_info 00000060  00000000  00000000  000bb948  2**2
                  CONTENTS, READONLY, DEBUGGING
 15 .debug_ranges 000011b8  00000000  00000000  000bb9a8  2**3
                  CONTENTS, READONLY, DEBUGGING
 16 .thread_model 00000003  00000000  00000000  000c1222  2**0
                  CONTENTS, READONLY
 17 .cpu          0000000c  00000000  00000000  000c1225  2**0
                  CONTENTS, READONLY
 18 .qsys         00000001  00000000  00000000  000c1231  2**0
                  CONTENTS, READONLY
 19 .simulation_enabled 00000001  00000000  00000000  000c1232  2**0
                  CONTENTS, READONLY
 20 .sysid_hash   00000004  00000000  00000000  000c1233  2**0
                  CONTENTS, READONLY
 21 .sysid_base   00000004  00000000  00000000  000c1237  2**0
                  CONTENTS, READONLY
 22 .sysid_time   00000004  00000000  00000000  000c123b  2**0
                  CONTENTS, READONLY
 23 .stderr_dev   00000009  00000000  00000000  000c123f  2**0
                  CONTENTS, READONLY
 24 .stdin_dev    00000009  00000000  00000000  000c1248  2**0
                  CONTENTS, READONLY
 25 .stdout_dev   00000009  00000000  00000000  000c1251  2**0
                  CONTENTS, READONLY
 26 .sopc_system_name 00000008  00000000  00000000  000c125a  2**0
                  CONTENTS, READONLY
 27 .quartus_project_dir 0000002c  00000000  00000000  000c1262  2**0
                  CONTENTS, READONLY
 28 .sopcinfo     00078592  00000000  00000000  000c128e  2**0
                  CONTENTS, READONLY
SYMBOL TABLE:
0f000000 l    d  .entry	00000000 .entry
00000020 l    d  .exceptions	00000000 .exceptions
0000018c l    d  .text	00000000 .text
00012d88 l    d  .rodata	00000000 .rodata
0004515c l    d  .rwdata	00000000 .rwdata
000488dc l    d  .bss	00000000 .bss
00000000 l    d  .comment	00000000 .comment
00000000 l    d  .debug_aranges	00000000 .debug_aranges
00000000 l    d  .debug_info	00000000 .debug_info
00000000 l    d  .debug_abbrev	00000000 .debug_abbrev
00000000 l    d  .debug_line	00000000 .debug_line
00000000 l    d  .debug_frame	00000000 .debug_frame
00000000 l    d  .debug_str	00000000 .debug_str
00000000 l    d  .debug_loc	00000000 .debug_loc
00000000 l    d  .debug_alt_sim_info	00000000 .debug_alt_sim_info
00000000 l    d  .debug_ranges	00000000 .debug_ranges
00000000 l    df *ABS*	00000000 ../sodalite_filetest_bsp//obj/HAL/src/crt0.o
000001d4 l       .text	00000000 alt_after_alt_main
00000000 l    df *ABS*	00000000 alt_irq_handler.c
00000000 l    df *ABS*	00000000 alt_instruction_exception_entry.c
0004511c l     O .rodata	00000040 CSWTCH.5
00000000 l    df *ABS*	00000000 file_test.c
00000000 l    df *ABS*	00000000 loadbmp.c
00000000 l    df *ABS*	00000000 ff.c
00000678 l     F .text	00000218 get_fileinfo
00000890 l     F .text	00000100 move_window
00000990 l     F .text	00000118 sync
00000aa8 l     F .text	00000050 validate
00000af8 l     F .text	000000f0 check_fs
00000be8 l     F .text	000004e4 chk_mounted
000488dc l     O .bss	00000004 FatFs
000488e0 l     O .bss	00000002 Fsid
00001270 l     F .text	00000158 dir_sdi
000015a4 l     F .text	00000150 create_chain
000016f4 l     F .text	00000214 dir_next
00001908 l     F .text	0000026c dir_find.part.4
00012e97 l     O .rodata	0000000d LfnOfs
00001b74 l     F .text	00000580 follow_path
000020f4 l     F .text	000000ac dir_remove
000021a0 l     F .text	0000021c dir_read
000023bc l     F .text	000000b0 remove_chain
000025b0 l     F .text	00000354 dir_register
0004894c l     O .bss	00000200 LfnBuf
00000000 l    df *ABS*	00000000 mmcbb.c
000043fc l     F .text	00000040 rcvr_mmc
0000443c l     F .text	0000006c wait_ready
000044a8 l     F .text	00000044 xmit_mmc
000044ec l     F .text	00000024 deselect
00004510 l     F .text	00000044 select
00004554 l     F .text	00000150 send_cmd
000046a4 l     F .text	000000c0 xmit_datablock
00004764 l     F .text	00000048 rcvr_datablock
00046cc4 l     O .rwdata	00000001 Stat
000488e4 l     O .bss	00000001 CardType
00000000 l    df *ABS*	00000000 cc932.c
0001a21c l     O .rodata	00007378 uni2sjis
00012ea4 l     O .rodata	00007378 sjis2uni
00021594 l     O .rodata	000001e0 tbl_lower.1635
00021774 l     O .rodata	000001e0 tbl_upper.1636
00000000 l    df *ABS*	00000000 gettime.c
00000000 l    df *ABS*	00000000 mmc_spi.c
000488ec l     O .bss	00000004 mmc_spi_reg
000488e8 l     O .bss	00000004 mmc_spi_ncs
00000000 l    df *ABS*	00000000 mmcfs.c
000488f0 l     O .bss	00000004 dev_mmcfs_fd_num
00048b4c l     O .bss	00000040 dev_mmcfs_fd
00048b8c l     O .bss	00002240 dev_mmcfs_table
0004adcc l     O .bss	00000230 dev_mmc_fatfsobj
0004515c l     O .rwdata	00000028 dev_mmcfs_inst
00000000 l    df *ABS*	00000000 fontx_k12x10.c
00000000 l    df *ABS*	00000000 fontx_k6x10.c
00000000 l    df *ABS*	00000000 nd_egl.c
00005460 l     F .text	00000098 nd_GsEglFontx_putkanji
000488f4 l     O .bss	00000004 nd_color
000488f8 l     O .bss	00000004 nd_bgcolor
000488fc l     O .bss	00000004 nd_pastel
00048900 l     O .bss	00000004 pFONTX_ascii_top
00048904 l     O .bss	00000004 pFONTX_kanji_top
00000000 l    df *ABS*	00000000 testuty.c
00044bd2 l     O .rodata	00000200 memcrc16table
00000000 l    df *ABS*	00000000 lib2-divmod.c
00006710 l     F .text	00000074 udivmodsi4
00000000 l    df *ABS*	00000000 fclose.c
00000000 l    df *ABS*	00000000 fflush.c
00000000 l    df *ABS*	00000000 findfp.c
00006ba8 l     F .text	00000008 __fp_lock
00006bb0 l     F .text	00000008 __fp_unlock
00000000 l    df *ABS*	00000000 fopen.c
00000000 l    df *ABS*	00000000 fread.c
00000000 l    df *ABS*	00000000 mallocr.c
00000000 l    df *ABS*	00000000 fseek.c
00000000 l    df *ABS*	00000000 fstatr.c
00000000 l    df *ABS*	00000000 fwalk.c
00000000 l    df *ABS*	00000000 impure.c
00045184 l     O .rwdata	00000400 impure_data
00000000 l    df *ABS*	00000000 int_errno.c
00000000 l    df *ABS*	00000000 makebuf.c
00000000 l    df *ABS*	00000000 mallocr.c
00000000 l    df *ABS*	00000000 memcpy.c
00000000 l    df *ABS*	00000000 memset.c
00000000 l    df *ABS*	00000000 openr.c
00000000 l    df *ABS*	00000000 printf.c
00000000 l    df *ABS*	00000000 putchar.c
00000000 l    df *ABS*	00000000 puts.c
00000000 l    df *ABS*	00000000 refill.c
00008934 l     F .text	0000001c lflush
00000000 l    df *ABS*	00000000 sbrkr.c
00000000 l    df *ABS*	00000000 stdio.c
00000000 l    df *ABS*	00000000 strlen.c
00000000 l    df *ABS*	00000000 vfprintf.c
00008d6c l     F .text	00000034 __sprint_r
00044e1a l     O .rodata	00000010 blanks.3546
00044e2a l     O .rodata	00000010 zeroes.3547
00000000 l    df *ABS*	00000000 writer.c
00000000 l    df *ABS*	00000000 wsetup.c
00000000 l    df *ABS*	00000000 closer.c
00000000 l    df *ABS*	00000000 dtoa.c
0000ae00 l     F .text	00000208 quorem
00000000 l    df *ABS*	00000000 flags.c
00000000 l    df *ABS*	00000000 fvwrite.c
00000000 l    df *ABS*	00000000 isattyr.c
00000000 l    df *ABS*	00000000 locale.c
00044e58 l     O .rodata	00000030 lconv
00000000 l    df *ABS*	00000000 lseekr.c
00000000 l    df *ABS*	00000000 memchr.c
00000000 l    df *ABS*	00000000 memmove.c
00000000 l    df *ABS*	00000000 mprec.c
00044fa0 l     O .rodata	0000000c p05.2466
00000000 l    df *ABS*	00000000 putc.c
00000000 l    df *ABS*	00000000 readr.c
00000000 l    df *ABS*	00000000 mallocr.c
00000000 l    df *ABS*	00000000 s_isinfd.c
00000000 l    df *ABS*	00000000 s_isnand.c
00000000 l    df *ABS*	00000000 strcmp.c
00000000 l    df *ABS*	00000000 wbuf.c
00000000 l    df *ABS*	00000000 mallocr.c
00000000 l    df *ABS*	00000000 libgcc2.c
00000000 l    df *ABS*	00000000 libgcc2.c
00000000 l    df *ABS*	00000000 fp-bit.c
0000f598 l     F .text	00000354 _fpadd_parts
00000000 l    df *ABS*	00000000 fp-bit.c
00000000 l    df *ABS*	00000000 fp-bit.c
00000000 l    df *ABS*	00000000 fp-bit.c
00000000 l    df *ABS*	00000000 fp-bit.c
00000000 l    df *ABS*	00000000 fp-bit.c
00000000 l    df *ABS*	00000000 fp-bit.c
00000000 l    df *ABS*	00000000 fp-bit.c
00000000 l    df *ABS*	00000000 fp-bit.c
00000000 l    df *ABS*	00000000 fp-bit.c
00000000 l    df *ABS*	00000000 fp-bit.c
00000000 l    df *ABS*	00000000 fp-bit.c
00000000 l    df *ABS*	00000000 libgcc2.c
00000000 l    df *ABS*	00000000 libgcc2.c
00000000 l    df *ABS*	00000000 fp-bit.c
00000000 l    df *ABS*	00000000 fp-bit.c
00000000 l    df *ABS*	00000000 fp-bit.c
00000000 l    df *ABS*	00000000 libgcc2.c
00000000 l    df *ABS*	00000000 libgcc2.c
00000000 l    df *ABS*	00000000 alt_close.c
00000000 l    df *ABS*	00000000 alt_dev.c
00010850 l     F .text	00000008 alt_dev_null_write
00000000 l    df *ABS*	00000000 alt_errno.c
00000000 l    df *ABS*	00000000 alt_fs_reg.c
00000000 l    df *ABS*	00000000 alt_fstat.c
00000000 l    df *ABS*	00000000 alt_isatty.c
00000000 l    df *ABS*	00000000 alt_load.c
00000000 l    df *ABS*	00000000 alt_lseek.c
00000000 l    df *ABS*	00000000 alt_main.c
00000000 l    df *ABS*	00000000 alt_malloc_lock.c
00000000 l    df *ABS*	00000000 alt_open.c
00000000 l    df *ABS*	00000000 alt_read.c
00000000 l    df *ABS*	00000000 alt_release_fd.c
00000000 l    df *ABS*	00000000 alt_sbrk.c
00046cf4 l     O .rwdata	00000004 heap_end
00000000 l    df *ABS*	00000000 alt_uncached_malloc.c
00000000 l    df *ABS*	00000000 alt_usleep.c
00000000 l    df *ABS*	00000000 alt_write.c
00000000 l    df *ABS*	00000000 alt_sys_init.c
00045b40 l     O .rwdata	00001060 jtag_uart
00046ba0 l     O .rwdata	00000028 modular_adc_0
00046bc8 l     O .rwdata	000000fc onchip_flash_0
00000000 l    df *ABS*	00000000 altera_avalon_jtag_uart_fd.c
00000000 l    df *ABS*	00000000 altera_avalon_jtag_uart_init.c
00011084 l     F .text	0000005c altera_avalon_jtag_uart_timeout
000110e0 l     F .text	00000104 altera_avalon_jtag_uart_irq
00000000 l    df *ABS*	00000000 altera_avalon_jtag_uart_ioctl.c
00000000 l    df *ABS*	00000000 altera_avalon_jtag_uart_read.c
00000000 l    df *ABS*	00000000 altera_avalon_jtag_uart_write.c
00000000 l    df *ABS*	00000000 altera_avalon_timer_sc.c
000115c4 l     F .text	0000003c alt_avalon_timer_sc_irq
00000000 l    df *ABS*	00000000 altera_modular_adc.c
00000000 l    df *ABS*	00000000 altera_onchip_flash.c
00000000 l    df *ABS*	00000000 alt_alarm_start.c
00000000 l    df *ABS*	00000000 alt_busy_sleep.c
00000000 l    df *ABS*	00000000 alt_dcache_flush.c
00000000 l    df *ABS*	00000000 alt_dcache_flush_all.c
00000000 l    df *ABS*	00000000 alt_dev_llist_insert.c
00000000 l    df *ABS*	00000000 alt_do_ctors.c
00000000 l    df *ABS*	00000000 alt_do_dtors.c
00000000 l    df *ABS*	00000000 alt_find_dev.c
00000000 l    df *ABS*	00000000 alt_find_file.c
00000000 l    df *ABS*	00000000 alt_flash_dev.c
00000000 l    df *ABS*	00000000 alt_get_fd.c
00000000 l    df *ABS*	00000000 alt_icache_flush_all.c
00000000 l    df *ABS*	00000000 alt_iic.c
00000000 l    df *ABS*	00000000 alt_iic_isr_register.c
00000000 l    df *ABS*	00000000 alt_io_redirect.c
0001255c l     F .text	00000070 alt_open_fd.constprop.0
00000000 l    df *ABS*	00000000 alt_irq_vars.c
00000000 l    df *ABS*	00000000 alt_tick.c
00000000 l    df *ABS*	00000000 altera_nios2_gen2_irq.c
00000000 l    df *ABS*	00000000 alt_icache_flush.c
00000000 l    df *ABS*	00000000 atexit.c
00000000 l    df *ABS*	00000000 exit.c
00000000 l    df *ABS*	00000000 malign.c
00000000 l    df *ABS*	00000000 mallocr.c
00000000 l    df *ABS*	00000000 memcmp.c
00000000 l    df *ABS*	00000000 __atexit.c
00000000 l    df *ABS*	00000000 __call_atexit.c
00000000 l    df *ABS*	00000000 alt_exit.c
00000000 l    df *ABS*	00000000 
00048948 g     O .bss	00000004 alt_instruction_exception_handler
00008880 g     F .text	0000001c putchar
0000dda0 g     F .text	00000074 _mprec_log10
0000de90 g     F .text	00000084 __any_on
0000cba0 g     F .text	00000064 _isatty_r
00044e88 g     O .rodata	00000028 __mprec_tinytens
00010b30 g     F .text	00000060 alt_main
0001072c g     F .text	00000044 __ashldi3
0000889c g     F .text	00000084 _puts_r
0004b478 g     O .bss	00000100 alt_irq
0000cce0 g     F .text	0000006c _lseek_r
000010f8 g     F .text	00000178 get_fat
00004edc g     F .text	00000014 mmc_spi_SetCardSelect
00046d1c g       *ABS*	00000000 __flash_rwdata_start
0000c624 g     F .text	00000098 __sflags
0000fdb4 g     F .text	0000005c __eqdf2
0004b708 g       *ABS*	00000000 __alt_heap_start
000055a4 g     F .text	0000001c nd_GsVgaSetBuffer
0000883c g     F .text	0000003c printf
00008c7c g     F .text	0000005c __sseek
00006c38 g     F .text	0000010c __sinit
0000e830 g     F .text	0000013c __swbuf_r
0000cc04 g     F .text	0000009c _setlocale_r
00006bc4 g     F .text	00000064 __sfmoreglue
00010b94 g     F .text	00000004 __malloc_unlock
000066a0 g     F .text	00000024 memdump
0004b024 g     O .bss	00000224 Mmc_fileobj
0000ce44 g     F .text	00000128 memmove
00005258 g     F .text	00000074 dev_mmcfs_close
00006c28 g     F .text	00000010 _cleanup
0000cf6c g     F .text	000000a8 _Balloc
00005670 g     F .text	00000040 nd_GsEglPage
0000fe6c g     F .text	00000064 __gtdf2
0001276c g     F .text	00000008 altera_nios2_gen2_irq_init
00000000  w      *UND*	00000000 __errno
0f000000 g     F .entry	0000001c __reset
00005188 g     F .text	00000070 dev_mmcfs_lseek
00000020 g       *ABS*	00000000 __flash_exceptions_start
00007adc g     F .text	00000068 _fstat_r
00048914 g     O .bss	00000004 errno
00004ef0 g     F .text	00000018 mmc_spi_SetCardDeselect
00011650 g     F .text	00000008 altera_modular_adc_init
00048934 g     O .bss	00000004 alt_argv
0004ecc4 g       *ABS*	00000000 _gp
00010ecc g     F .text	00000004 usleep
00005c94 g     F .text	00000134 nd_GsEglPutcharFont
00004e80 g     F .text	00000054 ff_wtoupper
00005550 g     F .text	00000020 nd_GsVgaVsync_isrdisable
00011f78 g     F .text	00000034 alt_onchip_flash_poll_for_status_write_passed
0000609c g     F .text	00000050 nd_GsEglPuthex2
00010e70 g     F .text	0000005c alt_uncached_malloc
00045998 g     O .rwdata	00000180 alt_fd_list
00008878 g     F .text	00000008 _putchar_r
00012254 g     F .text	00000094 alt_find_dev
000085d0 g     F .text	000000f8 memcpy
0f100000 g       *ABS*	00000000 __alt_mem_onchip_flash_0_data
000050ac g     F .text	00000010 mmc_spi_SetIdentClock
00006bb8 g     F .text	0000000c _cleanup_r
0000ff90 g     F .text	000000d4 __floatsidf
00010858 g     F .text	00000038 alt_fs_reg
000125cc g     F .text	00000078 alt_io_redirect
0000ff34 g     F .text	0000005c __ltdf2
00012d88 g       *ABS*	00000000 __DTOR_END__
00005070 g     F .text	00000014 mmc_spi_CheckCardDetect
0000483c g     F .text	000001e0 disk_initialize
00008920 g     F .text	00000014 puts
000127c4 g     F .text	00000030 alt_exception_cause_generated_bad_addr
0000dcfc g     F .text	000000a4 __ratio
000041f0 g     F .text	0000020c f_rename
0001130c g     F .text	00000134 altera_avalon_jtag_uart_read
00000000  w      *UND*	00000000 malloc
00008810 g     F .text	0000002c _printf_r
00006830 g     F .text	00000008 __udivsi3
0001090c g     F .text	0000008c isatty
00011f44 g     F .text	00000034 alt_onchip_flash_poll_for_status_erase_passed
00044ed8 g     O .rodata	000000c8 __mprec_tens
000066c4 g     F .text	0000004c memcrc16
0000cca0 g     F .text	0000000c __locale_charset
00012774 g     F .text	00000050 alt_icache_flush
0002195c g     O .rodata	0002216a fontx_k12x10_fnt
00048920 g     O .bss	00000004 __malloc_top_pad
00046d00 g     O .rwdata	00000008 altera_onchip_flash_list
000047ac g     F .text	00000090 disk_status
00003a70 g     F .text	00000150 f_truncate
00046cd8 g     O .rwdata	00000004 __mb_cur_max
0000ccac g     F .text	0000000c _localeconv_r
0000d36c g     F .text	0000003c __i2b
0000c6bc g     F .text	000004e4 __sfvwrite_r
00008b3c g     F .text	00000064 _sbrk_r
00048908 g     O .bss	00000004 nd_GsVgaVsyncCount
0000e0c0 g     F .text	0000006c _read_r
00046cf8 g     O .rwdata	00000008 altera_modular_adc_list
0001172c g     F .text	00000140 alt_onchip_flash_erase_block
000120c8 g     F .text	00000040 alt_dcache_flush
00004c88 g     F .text	00000168 disk_ioctl
0004598c g     O .rwdata	0000000c __lc_ctype
00046cdc g     O .rwdata	00000004 alt_max_fd
00010514 g     F .text	00000104 __unpack_d
00006840 g     F .text	0000013c _fclose_r
00006b78 g     F .text	00000030 fflush
0004891c g     O .bss	00000004 __malloc_max_sbrked_mem
00004f2c g     F .text	00000030 mmc_spi_Recvbyte
0000f8ec g     F .text	00000054 __adddf3
00005dc8 g     F .text	000000cc nd_GsEglPutstrFont
0000246c g     F .text	00000144 gen_numname
0000da70 g     F .text	00000148 __b2d
0000032c g     F .text	0000034c loadbmp
0000f00c g     F .text	0000058c __umoddi3
00010aac g     F .text	00000084 lseek
00046cc8 g     O .rwdata	00000004 _global_impure_ptr
0000e12c g     F .text	000005fc _realloc_r
0004b708 g       *ABS*	00000000 __bss_end
000124f4 g     F .text	00000068 alt_iic_isr_register
00012678 g     F .text	000000f4 alt_tick
00005fc0 g     F .text	000000dc nd_GsEglPutdec
0000ea44 g     F .text	000005c8 __udivdi3
00044eb0 g     O .rodata	00000028 __mprec_bigtens
0000d150 g     F .text	00000104 __s2b
00010128 g     F .text	0000011c __floatunsidf
0000d810 g     F .text	00000058 __mcmp
00006e50 g     F .text	00000018 __fp_lock_all
00003bc0 g     F .text	0000015c f_unlink
000124dc g     F .text	00000018 alt_ic_irq_enabled
000055c0 g     F .text	00000038 nd_GsVgaInit
00005e94 g     F .text	0000000c nd_GsEglSetFont
00012644 g     F .text	00000034 alt_alarm_stop
0004890c g     O .bss	00000004 nd_GsEglDrawBuffer
0004893c g     O .bss	00000004 alt_irq_active
000000fc g     F .exceptions	00000064 alt_irq_handler
00045b18 g     O .rwdata	00000028 alt_dev_null
000056b0 g     F .text	00000010 nd_GsEglColor
00012108 g     F .text	00000018 alt_dcache_flush_all
0000d254 g     F .text	00000068 __hi0bits
00005588 g     F .text	0000001c nd_GsVgaScanOff
00010064 g     F .text	000000c4 __fixdfsi
00046d1c g       *ABS*	00000000 __ram_rwdata_end
000052cc g     F .text	00000130 dev_mmcfs_open
00046ce0 g     O .rwdata	00000008 alt_dev_list
00010ed0 g     F .text	000000e8 write
0000df14 g     F .text	000000bc _putc_r
0004515c g       *ABS*	00000000 __ram_rodata_end
00010890 g     F .text	0000007c fstat
000106e8 g     F .text	00000044 __lshrdi3
00005570 g     F .text	00000018 nd_GsVgaScanOn
0000d588 g     F .text	0000012c __pow5mult
0004892c g     O .bss	00000004 __nlocale_changed
00006838 g     F .text	00000008 __umodsi3
0004b708 g       *ABS*	00000000 end
00007ab8 g     F .text	00000024 fseek
000111e4 g     F .text	00000080 altera_avalon_jtag_uart_init
00000160 g     F .exceptions	0000002c alt_instruction_exception_entry
00012d88 g       *ABS*	00000000 __CTOR_LIST__
02000000 g       *ABS*	00000000 __alt_stack_pointer
00011600 g     F .text	00000050 alt_avalon_timer_sc_init
00010244 g     F .text	000000ac __clzsi2
00011440 g     F .text	00000184 altera_avalon_jtag_uart_write
00006e40 g     F .text	00000004 __sfp_lock_acquire
0000cd4c g     F .text	000000f8 memchr
00008da0 g     F .text	00001df8 ___vfprintf_internal_r
000116e4 g     F .text	00000048 alt_onchip_flash_get_info
00007374 g     F .text	000002d0 _free_r
00012bd4 g     F .text	000001a0 __call_exitprocs
00048928 g     O .bss	00000004 __mlocale_changed
00003360 g     F .text	0000002c f_close
00046cd0 g     O .rwdata	00000004 __malloc_sbrk_base
0000018c g     F .text	0000004c _start
00048944 g     O .bss	00000004 _alt_tick_rate
000054f8 g     F .text	00000038 nd_GsVgaVsync_isr
0000d6b4 g     F .text	0000015c __lshift
00048940 g     O .bss	00000004 _alt_nticks
00010d14 g     F .text	000000ec read
00010fd8 g     F .text	00000070 alt_sys_init
000087a4 g     F .text	0000006c _open_r
00012aa4 g     F .text	00000130 __register_exitproc
00002c00 g     F .text	000002d8 f_read
000060ec g     F .text	00000070 nd_GsEglPuthex8
0000d3a8 g     F .text	000001e0 __multiply
00003730 g     F .text	000000b8 f_readdir
00011264 g     F .text	00000034 altera_avalon_jtag_uart_close
0004515c g       *ABS*	00000000 __ram_rwdata_start
00012d88 g       *ABS*	00000000 __ram_rodata_start
0004affc g     O .bss	00000028 __malloc_current_mallinfo
0004b248 g     O .bss	00000230 FatFs_sysobj
0000dbb8 g     F .text	00000144 __d2b
000444dc g     O .rodata	00000400 nd_GsEglRomFont
00004044 g     F .text	000000d8 f_chmod
00011048 g     F .text	00000010 altera_avalon_jtag_uart_read_fd
000123f4 g     F .text	00000058 alt_get_fd
00012040 g     F .text	00000088 alt_busy_sleep
00010618 g     F .text	000000d0 __fpcmp_parts_d
0000ad9c g     F .text	00000064 _close_r
000064f8 g     F .text	000000d4 memdump_word
00005f64 g     F .text	0000005c nd_GsEglPutstr
00012a28 g     F .text	0000007c memcmp
00011068 g     F .text	00000010 altera_avalon_jtag_uart_close_fd
0004b708 g       *ABS*	00000000 __alt_stack_base
00011078 g     F .text	0000000c altera_avalon_jtag_uart_ioctl_fd
00006428 g     F .text	000000d0 memdump_byte
0000ac28 g     F .text	00000174 __swsetup_r
000050e0 g     F .text	00000010 mmc_spi_CheckTimer
0000fc00 g     F .text	000001b4 __divdf3
00011660 g     F .text	00000084 alt_onchip_flash_read
00006d44 g     F .text	000000fc __sfp
0000de14 g     F .text	0000007c __copybits
00045584 g     O .rwdata	00000408 __malloc_av_
00006e4c g     F .text	00000004 __sinit_lock_release
0000f9a0 g     F .text	00000260 __muldf3
00008ba0 g     F .text	00000054 __sread
00004ed4 g     F .text	00000008 get_fattime
000071f8 g     F .text	00000040 fread
000122e8 g     F .text	000000ac alt_find_file
00012120 g     F .text	0000006c alt_dev_llist_insert
00010b90 g     F .text	00000004 __malloc_lock
00010e24 g     F .text	0000004c sbrk
00006990 g     F .text	000001e8 _fflush_r
0000e988 g     F .text	000000bc _calloc_r
00046d08 g     O .rwdata	00000008 alt_flash_dev_list
000001d8 g     F .text	00000004 nd_halt
00006fb0 g     F .text	0000001c fopen
000488dc g       *ABS*	00000000 __bss_start
000086c8 g     F .text	000000dc memset
000001dc g     F .text	00000150 main
00048930 g     O .bss	00000004 alt_envp
00048918 g     O .bss	00000004 __malloc_max_total_mem
00011058 g     F .text	00000010 altera_avalon_jtag_uart_write_fd
0000e96c g     F .text	0000001c __swbuf
00003220 g     F .text	00000140 f_sync
00006fcc g     F .text	0000022c _fread_r
00008cd8 g     F .text	00000008 __sclose
02000000 g       *ABS*	00000000 __alt_heap_limit
0000697c g     F .text	00000014 fclose
0004b578 g     O .bss	00000190 _atexit0
0000b008 g     F .text	0000161c _dtoa_r
00007e4c g     F .text	00000784 _malloc_r
00046cf0 g     O .rwdata	00000004 alt_errno
00002904 g     F .text	00000030 f_mount
00011f10 g     F .text	00000034 alt_onchip_flash_poll_for_status_to_go_idle
00007b44 g     F .text	000000a8 _fwalk
00003660 g     F .text	000000d0 f_opendir
0000dfd0 g     F .text	000000f0 putc
00006784 g     F .text	00000050 __divsi3
00005110 g     F .text	00000048 mmc_spi_InitSocket
00044fac g     O .rodata	00000014 __thenan_df
00007238 g     F .text	0000013c _malloc_trim_r
000051f8 g     F .text	00000030 dev_mmcfs_write
000050f0 g     F .text	00000020 mmc_spi_Wait100us
00012d88 g       *ABS*	00000000 __CTOR_END__
00011c50 g     F .text	000002c0 altera_onchip_flash_init
0000e78c g     F .text	000000a4 strcmp
00005908 g     F .text	000001a0 nd_GsEglCircle
00012d88 g       *ABS*	00000000 __flash_rodata_start
00012d88 g       *ABS*	00000000 __DTOR_LIST__
00005ea0 g     F .text	000000c4 nd_GsEglPutchar
000013c8 g     F .text	000001dc put_fat
0000fe10 g     F .text	0000005c __nedf2
00005530 g     F .text	00000020 nd_GsVgaVsync_isrenable
00010fb8 g     F .text	00000020 alt_irq_init
00010e00 g     F .text	00000024 alt_release_fd
0000338c g     F .text	000002d4 f_lseek
00012840 g     F .text	0000001c memalign
00044fc0 g     O .rodata	00000100 __clz_tab
00048924 g     O .bss	00000004 _PathLocale
000127f4 g     F .text	00000014 atexit
0000abbc g     F .text	0000006c _write_r
0000ccb8 g     F .text	0000001c setlocale
00043ac8 g     O .rodata	00000a11 fontx_k6x10_fnt
00004f08 g     F .text	00000024 mmc_spi_Sendbyte
000065cc g     F .text	000000d4 memdump_dword
00046ccc g     O .rwdata	00000004 _impure_ptr
00048938 g     O .bss	00000004 alt_argc
000121f0 g     F .text	00000064 _do_dtors
00005618 g     F .text	0000002c nd_GsVgaVsync_getcount
00007644 g     F .text	00000474 _fseek_r
00008950 g     F .text	000001ec __srefill_r
00000020 g       .exceptions	00000000 alt_irq_entry
0000da10 g     F .text	00000060 __ulp
0000e728 g     F .text	00000038 __isinfd
000037e8 g     F .text	0000009c f_stat
00006e68 g     F .text	00000018 __fp_unlock_all
00046ce8 g     O .rwdata	00000008 alt_fs_list
0001186c g     F .text	00000210 alt_onchip_flash_write_block
00000020 g       *ABS*	00000000 __ram_exceptions_start
0000ccd4 g     F .text	0000000c localeconv
000010cc g     F .text	0000002c clust2sect
00005aa8 g     F .text	00000160 nd_GsEglLine
00012458 g     F .text	00000004 alt_ic_isr_register
00046d1c g       *ABS*	00000000 _edata
0000411c g     F .text	000000d4 f_utime
00011a7c g     F .text	000001d4 alt_onchip_flash_write
0004b708 g       *ABS*	00000000 _end
00012394 g     F .text	0000004c alt_flash_open_dev
0000018c g       *ABS*	00000000 __ram_exceptions_end
00002ed8 g     F .text	00000348 f_write
00011298 g     F .text	00000074 altera_avalon_jtag_uart_ioctl
00004f5c g     F .text	00000114 mmc_spi_DmaRecv
0001249c g     F .text	00000040 alt_ic_irq_disable
0000615c g     F .text	000002cc systeminit
00008bf4 g     F .text	00000088 __swrite
00046cd4 g     O .rwdata	00000004 __malloc_trim_threshold
00002934 g     F .text	000002cc f_open
00004b34 g     F .text	00000154 disk_write
00012808 g     F .text	00000038 exit
00007bec g     F .text	000000b8 _fwalk_reent
0000d868 g     F .text	000001a8 __mdiff
000123e0 g     F .text	00000014 alt_flash_close_dev
00005644 g     F .text	0000002c nd_GsVgaVsync_setcount
000056c0 g     F .text	000000cc nd_GsEglPset
000067d4 g     F .text	0000005c __modsi3
0001285c g     F .text	000001cc _memalign_r
02000000 g       *ABS*	00000000 __alt_data_end
00000020 g     F .exceptions	00000000 alt_exception
00006e44 g     F .text	00000004 __sfp_lock_release
00000000 g       *ABS*	00000000 __alt_mem_sdram
00005228 g     F .text	00000030 dev_mmcfs_read
000053fc g     F .text	00000064 mmcfs_setup
00003d1c g     F .text	00000328 f_mkdir
00011658 g     F .text	00000008 altera_modular_adc_open
00006e80 g     F .text	00000130 _fopen_r
00012d74 g     F .text	00000014 _exit
0000e760 g     F .text	0000002c __isnand
00011fac g     F .text	00000094 alt_alarm_start
0f000000 g       *ABS*	00000000 __alt_mem_ipl_memory
00007ca4 g     F .text	000001a8 __smakebuf_r
00008ce0 g     F .text	0000008c strlen
00004a1c g     F .text	00000118 disk_read
00010b98 g     F .text	0000017c open
0000fed0 g     F .text	00000064 __gedf2
0001244c g     F .text	0000000c alt_icache_flush_all
00003884 g     F .text	000001ec f_getfree
00004df0 g     F .text	00000090 ff_convert
00005084 g     F .text	00000028 mmc_spi_CheckWritePortect
00046d10 g     O .rwdata	00000004 alt_priority_mask
00005c08 g     F .text	0000008c nd_GsEglBox
0001245c g     F .text	00000040 alt_ic_irq_enable
0000ab98 g     F .text	00000024 __vfprintf_internal
000055f8 g     F .text	00000020 nd_GsVgaWaitVsync
000050bc g     F .text	00000010 mmc_spi_SetTransClock
00005158 g     F .text	00000030 dev_mmcfs_fstat
0000f940 g     F .text	00000060 __subdf3
000050cc g     F .text	00000014 mmc_spi_SetTimer
0000d2bc g     F .text	000000b0 __lo0bits
0000578c g     F .text	0000017c nd_GsEglBoxfill
00046d14 g     O .rwdata	00000008 alt_alarm_list
0001218c g     F .text	00000064 _do_ctors
00048910 g     O .bss	00000004 nd_GsVgaVsyncFlag
00010770 g     F .text	000000e0 close
00010998 g     F .text	00000114 alt_load
000102f0 g     F .text	00000224 __pack_d
00000000  w      *UND*	00000000 free
00006e48 g     F .text	00000004 __sinit_lock_acquire
0000d03c g     F .text	00000114 __multadd
0000d014 g     F .text	00000028 _Bfree



Disassembly of section .entry:

0f000000 <__reset>:
#if NIOS2_ICACHE_SIZE > 0 && defined(ALT_ALLOW_CODE_AT_RESET) && !defined(ALT_SIM_OPTIMIZE)
    /* Assume the instruction cache size is always a power of two. */
#if NIOS2_ICACHE_SIZE > 0x8000
    movhi r2, %hi(NIOS2_ICACHE_SIZE)
#else
    movui r2, NIOS2_ICACHE_SIZE
 f000000:	00880014 	movui	r2,8192
#endif

0:
    initi r2
 f000004:	1001483a 	initi	r2
    addi r2, r2, -NIOS2_ICACHE_LINE_SIZE
 f000008:	10bff804 	addi	r2,r2,-32
    bgt r2, zero, 0b
 f00000c:	00bffd16 	blt	zero,r2,f000004 <__alt_mem_onchip_flash_0_data+0xfff00004>
 * Jump to the _start entry point in the .text section if reset code
 * is allowed or if optimizing for RTL simulation.
 */
#if defined(ALT_ALLOW_CODE_AT_RESET) || defined(ALT_SIM_OPTIMIZE)
    /* Jump to the _start entry point in the .text section. */
    movhi r1, %hi(_start)
 f000010:	00400034 	movhi	at,0
    ori r1, r1, %lo(_start)
 f000014:	08406314 	ori	at,at,396
    jmp r1
 f000018:	0800683a 	jmp	at
 f00001c:	00000000 	call	0 <__alt_mem_sdram>

Disassembly of section .exceptions:

00000020 <alt_exception>:

#else /* ALT_EXCEPTION_STACK disabled */
        /* 
         * Reserve space on normal stack for registers about to be pushed.
         */
        addi  sp, sp, -76
  20:	deffed04 	addi	sp,sp,-76
         * documentation for details).
         *
         * Leave a gap in the stack frame at 4(sp) for the muldiv handler to
         * store zero into.
         */
        stw   ra,  0(sp)
  24:	dfc00015 	stw	ra,0(sp)
        stw   r1,   8(sp)
  28:	d8400215 	stw	at,8(sp)
        stw   r2,  12(sp)
  2c:	d8800315 	stw	r2,12(sp)
        stw   r3,  16(sp)
  30:	d8c00415 	stw	r3,16(sp)
        stw   r4,  20(sp)
  34:	d9000515 	stw	r4,20(sp)
        stw   r5,  24(sp)
  38:	d9400615 	stw	r5,24(sp)
        stw   r6,  28(sp)
  3c:	d9800715 	stw	r6,28(sp)
        stw   r7,  32(sp)
  40:	d9c00815 	stw	r7,32(sp)
        rdctl r5, estatus   /* Read early to avoid usage stall */
  44:	000b307a 	rdctl	r5,estatus
        stw   r8,  36(sp)
  48:	da000915 	stw	r8,36(sp)
        stw   r9,  40(sp)
  4c:	da400a15 	stw	r9,40(sp)
        stw   r10, 44(sp)
  50:	da800b15 	stw	r10,44(sp)
        stw   r11, 48(sp)
  54:	dac00c15 	stw	r11,48(sp)
        stw   r12, 52(sp)
  58:	db000d15 	stw	r12,52(sp)
        stw   r13, 56(sp)
  5c:	db400e15 	stw	r13,56(sp)
        stw   r14, 60(sp)
  60:	db800f15 	stw	r14,60(sp)
        stw   r15, 64(sp)
  64:	dbc01015 	stw	r15,64(sp)
        /*
         * ea-4 contains the address of the instruction being executed
         * when the exception occured. For interrupt exceptions, we will
         * will be re-issue the isntruction. Store it in 72(sp)
         */
        stw   r5,  68(sp)  /* estatus */
  68:	d9401115 	stw	r5,68(sp)
        addi  r15, ea, -4  /* instruction that caused exception */
  6c:	ebffff04 	addi	r15,ea,-4
        stw   r15,  72(sp)
  70:	dbc01215 	stw	r15,72(sp)
#else
        /*
         * Test to see if the exception was a software exception or caused 
         * by an external interrupt, and vector accordingly.
         */
        rdctl r4, ipending
  74:	0009313a 	rdctl	r4,ipending
        andi  r2, r5, 1
  78:	2880004c 	andi	r2,r5,1
        beq   r2, zero, .Lnot_irq
  7c:	10000326 	beq	r2,zero,8c <alt_exception+0x6c>
        beq   r4, zero, .Lnot_irq
  80:	20000226 	beq	r4,zero,8c <alt_exception+0x6c>
        /*
         * Now that all necessary registers have been preserved, call 
         * alt_irq_handler() to process the interrupts.
         */

        call alt_irq_handler
  84:	00000fc0 	call	fc <alt_irq_handler>

        .section .exceptions.irqreturn, "xa"

        br    .Lexception_exit
  88:	00000706 	br	a8 <alt_exception+0x88>
         * upon completion, so we write ea (address of instruction *after*
         * the one where the exception occured) into 72(sp). The actual
         * instruction that caused the exception is written in r2, which these
         * handlers will utilize.
         */
        stw   ea,  72(sp)  /* Don't re-issue */
  8c:	df401215 	stw	ea,72(sp)
        ldw   r2, -4(ea)   /* Instruction that caused exception */
  90:	e8bfff17 	ldw	r2,-4(ea)
         * debugger is present) or go into an infinite loop since the
         * handling behavior is undefined; in that case we will not return here.
         */

        /* Load exception-causing address as first argument (r4) */
        addi   r4, ea, -4
  94:	e93fff04 	addi	r4,ea,-4

        /* Call the instruction-exception entry */
        call   alt_instruction_exception_entry
  98:	00001600 	call	160 <alt_instruction_exception_entry>
         * instruction
         *
         * Return code was 0: Skip. The instruction after the exception is
         * already stored in 72(sp).
         */
        bne   r2, r0, .Lexception_exit
  9c:	1000021e 	bne	r2,zero,a8 <alt_exception+0x88>

        /*
         * Otherwise, modify 72(sp) to re-issue the instruction that caused the
         * exception.
         */
        addi  r15, ea, -4  /* instruction that caused exception */
  a0:	ebffff04 	addi	r15,ea,-4
        stw   r15,  72(sp)
  a4:	dbc01215 	stw	r15,72(sp)
        /* 
         * Restore the saved registers, so that all general purpose registers 
         * have been restored to their state at the time the interrupt occured.
         */

        ldw   r5,  68(sp)
  a8:	d9401117 	ldw	r5,68(sp)
        ldw   ea,  72(sp)  /* This becomes the PC once eret is executed */
  ac:	df401217 	ldw	ea,72(sp)
        ldw   ra,   0(sp)
  b0:	dfc00017 	ldw	ra,0(sp)

        wrctl estatus, r5
  b4:	2801707a 	wrctl	estatus,r5

        ldw   r1,   8(sp)
  b8:	d8400217 	ldw	at,8(sp)
        ldw   r2,  12(sp)
  bc:	d8800317 	ldw	r2,12(sp)
        ldw   r3,  16(sp)
  c0:	d8c00417 	ldw	r3,16(sp)
        ldw   r4,  20(sp)
  c4:	d9000517 	ldw	r4,20(sp)
        ldw   r5,  24(sp)
  c8:	d9400617 	ldw	r5,24(sp)
        ldw   r6,  28(sp)
  cc:	d9800717 	ldw	r6,28(sp)
        ldw   r7,  32(sp)
  d0:	d9c00817 	ldw	r7,32(sp)

#if defined(ALT_EXCEPTION_STACK) && defined(ALT_STACK_CHECK)
        ldw   et, %gprel(alt_exception_old_stack_limit)(gp)
#endif

        ldw   r8,  36(sp)
  d4:	da000917 	ldw	r8,36(sp)
        ldw   r9,  40(sp)
  d8:	da400a17 	ldw	r9,40(sp)
        ldw   r10, 44(sp)
  dc:	da800b17 	ldw	r10,44(sp)
        ldw   r11, 48(sp)
  e0:	dac00c17 	ldw	r11,48(sp)
        ldw   r12, 52(sp)
  e4:	db000d17 	ldw	r12,52(sp)
        ldw   r13, 56(sp)
  e8:	db400e17 	ldw	r13,56(sp)
        ldw   r14, 60(sp)
  ec:	db800f17 	ldw	r14,60(sp)
        ldw   r15, 64(sp)
  f0:	dbc01017 	ldw	r15,64(sp)
        stw   et, %gprel(alt_stack_limit_value)(gp)
        stw   zero, %gprel(alt_exception_old_stack_limit)(gp)
#endif /* ALT_STACK_CHECK */
        ldw   sp,  76(sp)
#else /* ALT_EXCEPTION_STACK disabled */
        addi  sp, sp, 76
  f4:	dec01304 	addi	sp,sp,76

        /*
         * Return to the interrupted instruction.
         */

        eret
  f8:	ef80083a 	eret

000000fc <alt_irq_handler>:
 * instruction is present if the macro ALT_CI_INTERRUPT_VECTOR defined.
 */

void alt_irq_handler (void) __attribute__ ((section (".exceptions")));
void alt_irq_handler (void)
{
  fc:	defffe04 	addi	sp,sp,-8
 100:	dfc00115 	stw	ra,4(sp)
 104:	dc000015 	stw	r16,0(sp)
#ifndef NIOS2_EIC_PRESENT
static ALT_INLINE alt_u32 ALT_ALWAYS_INLINE alt_irq_pending (void)
{
  alt_u32 active;

  NIOS2_READ_IPENDING (active);
 108:	000b313a 	rdctl	r5,ipending
 10c:	04000174 	movhi	r16,5
 110:	842d1e04 	addi	r16,r16,-19336
     * called to clear the interrupt condition.
     */

    do
    {
      if (active & mask)
 114:	2880004c 	andi	r2,r5,1

  active = alt_irq_pending ();

  do
  {
    i = 0;
 118:	0007883a 	mov	r3,zero
     * called to clear the interrupt condition.
     */

    do
    {
      if (active & mask)
 11c:	1000051e 	bne	r2,zero,134 <alt_irq_handler+0x38>
 120:	00800044 	movi	r2,1
#else
        alt_irq[i].handler(alt_irq[i].context, i); 
#endif
        break;
      }
      mask <<= 1;
 124:	1085883a 	add	r2,r2,r2
     * called to clear the interrupt condition.
     */

    do
    {
      if (active & mask)
 128:	2888703a 	and	r4,r5,r2
        alt_irq[i].handler(alt_irq[i].context, i); 
#endif
        break;
      }
      mask <<= 1;
      i++;
 12c:	18c00044 	addi	r3,r3,1
     * called to clear the interrupt condition.
     */

    do
    {
      if (active & mask)
 130:	203ffc26 	beq	r4,zero,124 <__alt_mem_onchip_flash_0_data+0xf0f00124>
      { 
#ifdef ALT_ENHANCED_INTERRUPT_API_PRESENT
        alt_irq[i].handler(alt_irq[i].context); 
 134:	180690fa 	slli	r3,r3,3
 138:	80c7883a 	add	r3,r16,r3
 13c:	18800017 	ldw	r2,0(r3)
 140:	19000117 	ldw	r4,4(r3)
 144:	103ee83a 	callr	r2
 148:	000b313a 	rdctl	r5,ipending

    } while (1);

    active = alt_irq_pending ();
    
  } while (active);
 14c:	283ff11e 	bne	r5,zero,114 <__alt_mem_onchip_flash_0_data+0xf0f00114>
  /*
   * Notify the operating system that interrupt processing is complete.
   */ 

  ALT_OS_INT_EXIT();
}
 150:	dfc00117 	ldw	ra,4(sp)
 154:	dc000017 	ldw	r16,0(sp)
 158:	dec00204 	addi	sp,sp,8
 15c:	f800283a 	ret

00000160 <alt_instruction_exception_entry>:
 * that handler if it has been registered. Absent a handler, it will
 * break break or hang as discussed below.
 */
int 
alt_instruction_exception_entry (alt_u32 exception_pc)
{
 160:	200b883a 	mov	r5,r4
 * NIOS2_EXCEPTION_CAUSE_NOT_PRESENT. Your handling routine should
 * check the validity of the cause argument before proceeding.
 */
#ifdef NIOS2_HAS_EXTRA_EXCEPTION_INFO
  /* Get exception cause & "badaddr" */
  NIOS2_READ_EXCEPTION(cause);
 164:	000931fa 	rdctl	r4,exception
  cause = ( (cause & NIOS2_EXCEPTION_REG_CAUSE_MASK) >>
              NIOS2_EXCEPTION_REG_CAUSE_OFST );

  NIOS2_READ_BADADDR(badaddr);
 168:	000d333a 	rdctl	r6,badaddr
#else
  cause = NIOS2_EXCEPTION_CAUSE_NOT_PRESENT;
  badaddr = 0;
#endif /* NIOS2_HAS_EXTRA_EXCEPTION_INFO */

  if(alt_instruction_exception_handler) {
 16c:	d0a72117 	ldw	r2,-25468(gp)
 170:	10000326 	beq	r2,zero,180 <alt_instruction_exception_entry+0x20>
 * check the validity of the cause argument before proceeding.
 */
#ifdef NIOS2_HAS_EXTRA_EXCEPTION_INFO
  /* Get exception cause & "badaddr" */
  NIOS2_READ_EXCEPTION(cause);
  cause = ( (cause & NIOS2_EXCEPTION_REG_CAUSE_MASK) >>
 174:	21001f0c 	andi	r4,r4,124
     * Call handler. Its return value indicates whether the exception-causing
     * instruction should be re-issued. The code that called us,
     * alt_eceptions_entry.S, will look at this value and adjust the ea
     * register as necessary
     */
    return alt_instruction_exception_handler(cause, exception_pc, badaddr);
 178:	2008d0ba 	srli	r4,r4,2
 17c:	1000683a 	jmp	r2
   *    (a peripheral which negates its interrupt output before its
   *    interrupt handler has been executed will cause spurious interrupts)
   */
  else {
#ifdef NIOS2_HAS_DEBUG_STUB
    NIOS2_BREAK();
 180:	003da03a 	break	0
#endif /* NIOS2_HAS_DEBUG_STUB */
  }

  /* We should not get here. Remove compiler warning. */
  return NIOS2_EXCEPTION_RETURN_REISSUE_INST;
}
 184:	0005883a 	mov	r2,zero
 188:	f800283a 	ret

Disassembly of section .text:

0000018c <_start>:

    /* Assume the data cache size is always a power of two. */
#if NIOS2_DCACHE_SIZE > 0x8000
    movhi r2, %hi(NIOS2_DCACHE_SIZE)
#else
    movui r2, NIOS2_DCACHE_SIZE
     18c:	00880014 	movui	r2,8192
#endif

0:
    initd 0(r2)
     190:	10000033 	initd	0(r2)
#ifdef NIOS2_ECC_PRESENT
    addi r2, r2, -4
#else
    addi r2, r2, -NIOS2_DCACHE_LINE_SIZE
     194:	10bff804 	addi	r2,r2,-32
#endif
    bgt r2, zero, 0b
     198:	00bffd16 	blt	zero,r2,190 <__alt_mem_onchip_flash_0_data+0xf0f00190>

    /*
     * Now that the caches are initialized, set up the stack pointer and global pointer.
     * The values provided by the linker are assumed to be correctly aligned.
     */
    movhi sp, %hi(__alt_stack_pointer)
     19c:	06c08034 	movhi	sp,512
    ori sp, sp, %lo(__alt_stack_pointer)
     1a0:	dec00014 	ori	sp,sp,0
    movhi gp, %hi(_gp)
     1a4:	06800134 	movhi	gp,4
    ori gp, gp, %lo(_gp)
     1a8:	d6bb3114 	ori	gp,gp,60612
 */
#ifndef ALT_SIM_OPTIMIZE
    /* Log that the BSS is about to be cleared. */
    ALT_LOG_PUTS(alt_log_msg_bss)

    movhi r2, %hi(__bss_start)
     1ac:	00800134 	movhi	r2,4
    ori r2, r2, %lo(__bss_start)
     1b0:	10a23714 	ori	r2,r2,35036

    movhi r3, %hi(__bss_end)
     1b4:	00c00134 	movhi	r3,4
    ori r3, r3, %lo(__bss_end)
     1b8:	18edc214 	ori	r3,r3,46856

    beq r2, r3, 1f
     1bc:	10c00326 	beq	r2,r3,1cc <_start+0x40>

0:
    stw zero, (r2)
     1c0:	10000015 	stw	zero,0(r2)
    addi r2, r2, 4
     1c4:	10800104 	addi	r2,r2,4
    bltu r2, r3, 0b
     1c8:	10fffd36 	bltu	r2,r3,1c0 <__alt_mem_onchip_flash_0_data+0xf0f001c0>
     * section aren't defined until alt_load() has been called).
     */
    mov   et, zero
#endif

    call alt_load
     1cc:	00109980 	call	10998 <alt_load>

    /* Log that alt_main is about to be called. */
    ALT_LOG_PUTS(alt_log_msg_alt_main)

    /* Call the C entry point. It should never return. */
    call alt_main
     1d0:	0010b300 	call	10b30 <alt_main>

000001d4 <alt_after_alt_main>:

    /* Wait in infinite loop in case alt_main does return. */
alt_after_alt_main:
    br alt_after_alt_main
     1d4:	003fff06 	br	1d4 <__alt_mem_onchip_flash_0_data+0xf0f001d4>

000001d8 <nd_halt>:
#include "testuty.h"

int loadbmp(const char *bmpname, alt_u16 *pFrameBuffer);

void nd_halt(void)
{
     1d8:	003fff06 	br	1d8 <__alt_mem_onchip_flash_0_data+0xf0f001d8>

000001dc <main>:
	while(1) {}
}


int main(void)
{
     1dc:	defffe04 	addi	sp,sp,-8
     1e0:	dfc00115 	stw	ra,4(sp)
     1e4:	dc000015 	stw	r16,0(sp)
	alt_u16 *pFrameBuffer;


	// システム初期化 

	systeminit();
     1e8:	000615c0 	call	615c <systeminit>
	nd_GsVgaInit();
     1ec:	00055c00 	call	55c0 <nd_GsVgaInit>

	mmcfs_setup();
     1f0:	00053fc0 	call	53fc <mmcfs_setup>


	// 画像を展開 

	pFrameBuffer = (alt_u16 *)alt_uncached_malloc(na_VRAM_size);
     1f4:	010003f4 	movhi	r4,15
     1f8:	0010e700 	call	10e70 <alt_uncached_malloc>
     1fc:	1021883a 	mov	r16,r2
	if (pFrameBuffer != NULL) {
     200:	10004626 	beq	r2,zero,31c <main+0x140>
		printf("Framebuffer assignment = 0x%08X\n",(unsigned int)pFrameBuffer);
     204:	100b883a 	mov	r5,r2
     208:	01000074 	movhi	r4,1
     20c:	210b6204 	addi	r4,r4,11656
     210:	000883c0 	call	883c <printf>

		nd_GsVgaSetBuffer((nd_u32)pFrameBuffer);
     214:	8009883a 	mov	r4,r16
     218:	00055a40 	call	55a4 <nd_GsVgaSetBuffer>
        nd_GsEglPage((nd_u32)pFrameBuffer,(nd_u32)pFrameBuffer,0);
     21c:	8009883a 	mov	r4,r16
     220:	800b883a 	mov	r5,r16
     224:	000d883a 	mov	r6,zero
     228:	00056700 	call	5670 <nd_GsEglPage>

		nd_GsVgaScanOn();
     22c:	00055700 	call	5570 <nd_GsVgaScanOn>

		nd_color(nd_COLORGRAY, 0, 256);
     230:	01108404 	movi	r4,16912
     234:	000b883a 	mov	r5,zero
     238:	01804004 	movi	r6,256
     23c:	00056b00 	call	56b0 <nd_GsEglColor>
		nd_boxfill(0, 0, window_xmax, window_ymax);
     240:	01c077c4 	movi	r7,479
     244:	0009883a 	mov	r4,zero
     248:	000b883a 	mov	r5,zero
     24c:	01809fc4 	movi	r6,639
     250:	000578c0 	call	578c <nd_GsEglBoxfill>

        nd_color(nd_COLORWHITE, 0, 256);
     254:	011fffc4 	movi	r4,32767
     258:	000b883a 	mov	r5,zero
     25c:	01804004 	movi	r6,256
     260:	00056b00 	call	56b0 <nd_GsEglColor>
		nd_line(0,0, 0,window_ymax);
     264:	01c077c4 	movi	r7,479
     268:	0009883a 	mov	r4,zero
     26c:	000b883a 	mov	r5,zero
     270:	000d883a 	mov	r6,zero
     274:	0005aa80 	call	5aa8 <nd_GsEglLine>
        nd_color(nd_COLORRED, 0, 256);
     278:	011f0004 	movi	r4,31744
     27c:	000b883a 	mov	r5,zero
     280:	01804004 	movi	r6,256
     284:	00056b00 	call	56b0 <nd_GsEglColor>
		nd_line(window_xmax,0, window_xmax,window_ymax);
     288:	01009fc4 	movi	r4,639
     28c:	200d883a 	mov	r6,r4
     290:	01c077c4 	movi	r7,479
     294:	000b883a 	mov	r5,zero
     298:	0005aa80 	call	5aa8 <nd_GsEglLine>
        nd_color(nd_COLORLIGHTGREEN, 0, 256);
     29c:	0100f804 	movi	r4,992
     2a0:	000b883a 	mov	r5,zero
     2a4:	01804004 	movi	r6,256
     2a8:	00056b00 	call	56b0 <nd_GsEglColor>
		nd_line(0,0, window_xmax,0);
     2ac:	000f883a 	mov	r7,zero
     2b0:	0009883a 	mov	r4,zero
     2b4:	000b883a 	mov	r5,zero
     2b8:	01809fc4 	movi	r6,639
     2bc:	0005aa80 	call	5aa8 <nd_GsEglLine>
        nd_color(nd_COLORBLUE, 0, 256);
     2c0:	010007c4 	movi	r4,31
     2c4:	000b883a 	mov	r5,zero
     2c8:	01804004 	movi	r6,256
     2cc:	00056b00 	call	56b0 <nd_GsEglColor>
		nd_line(0,window_ymax, window_xmax,window_ymax);
     2d0:	014077c4 	movi	r5,479
     2d4:	280f883a 	mov	r7,r5
     2d8:	01809fc4 	movi	r6,639
     2dc:	0009883a 	mov	r4,zero
     2e0:	0005aa80 	call	5aa8 <nd_GsEglLine>
		usleep(1000000);
     2e4:	010003f4 	movhi	r4,15
     2e8:	21109004 	addi	r4,r4,16960
     2ec:	0010ecc0 	call	10ecc <usleep>

		loadbmp("mmcfs:/sodalite/uzuko10.bmp",pFrameBuffer);
     2f0:	01000074 	movhi	r4,1
     2f4:	210b6b04 	addi	r4,r4,11692
     2f8:	800b883a 	mov	r5,r16
     2fc:	000032c0 	call	32c <loadbmp>
		usleep(1000000);
     300:	010003f4 	movhi	r4,15
     304:	21109004 	addi	r4,r4,16960
     308:	0010ecc0 	call	10ecc <usleep>
	}


	// 終了 

	printf("done.\n");
     30c:	01000074 	movhi	r4,1
     310:	210b7b04 	addi	r4,r4,11756
     314:	00089200 	call	8920 <puts>
     318:	003fff06 	br	318 <__alt_mem_onchip_flash_0_data+0xf0f00318>

		loadbmp("mmcfs:/sodalite/uzuko10.bmp",pFrameBuffer);
		usleep(1000000);

	} else {
		printf("[!] Framebuffer not assignment.\r\n");
     31c:	01000074 	movhi	r4,1
     320:	210b7204 	addi	r4,r4,11720
     324:	00089200 	call	8920 <puts>
     328:	003ff806 	br	30c <__alt_mem_onchip_flash_0_data+0xf0f0030c>

0000032c <loadbmp>:


// 指定のBMPファイルをフレームバッファに読み込む 

int loadbmp(const char *bmpname, alt_u16 *pFrameBuffer)
{
     32c:	deffe304 	addi	sp,sp,-116
     330:	dd401815 	stw	r21,96(sp)
     334:	282b883a 	mov	r21,r5
	unsigned char bmp_pixel[4];
	alt_u16 *ppix,*pline;

	// BMPファイルを開く 

	fbmp = fopen(bmpname, "rb");
     338:	01400074 	movhi	r5,1
     33c:	294b7d04 	addi	r5,r5,11764


// 指定のBMPファイルをフレームバッファに読み込む 

int loadbmp(const char *bmpname, alt_u16 *pFrameBuffer)
{
     340:	dcc01615 	stw	r19,88(sp)
     344:	dc401415 	stw	r17,80(sp)
     348:	dfc01c15 	stw	ra,112(sp)
     34c:	df001b15 	stw	fp,108(sp)
     350:	ddc01a15 	stw	r23,104(sp)
     354:	dd801915 	stw	r22,100(sp)
     358:	dd001715 	stw	r20,92(sp)
     35c:	dc801515 	stw	r18,84(sp)
     360:	dc001315 	stw	r16,76(sp)
     364:	2027883a 	mov	r19,r4
	unsigned char bmp_pixel[4];
	alt_u16 *ppix,*pline;

	// BMPファイルを開く 

	fbmp = fopen(bmpname, "rb");
     368:	0006fb00 	call	6fb0 <fopen>
     36c:	1023883a 	mov	r17,r2
	if (fbmp == NULL) {
     370:	1000bb26 	beq	r2,zero,660 <loadbmp+0x334>
		return -1;
	}

	// ファイルヘッダの読み出し 

	fread(bmp_h, 1, 54, fbmp);
     374:	d9000204 	addi	r4,sp,8
     378:	01400044 	movi	r5,1
     37c:	01800d84 	movi	r6,54
     380:	100f883a 	mov	r7,r2
     384:	00071f80 	call	71f8 <fread>
	if ((bmp_h[0x00] == 'B') && (bmp_h[0x01] == 'M')) {
     388:	d8c00203 	ldbu	r3,8(sp)
     38c:	00801084 	movi	r2,66
     390:	1880aa1e 	bne	r3,r2,63c <loadbmp+0x310>
     394:	d8c00243 	ldbu	r3,9(sp)
     398:	00801344 	movi	r2,77
     39c:	1880a71e 	bne	r3,r2,63c <loadbmp+0x310>

		bpp = bmp_h[0x1c];
     3a0:	dd000903 	ldbu	r20,36(sp)
     3a4:	00800604 	movi	r2,24
     3a8:	a0800b26 	beq	r20,r2,3d8 <loadbmp+0xac>
     3ac:	00800804 	movi	r2,32
     3b0:	a0800926 	beq	r20,r2,3d8 <loadbmp+0xac>
     3b4:	00800404 	movi	r2,16
     3b8:	a0800726 	beq	r20,r2,3d8 <loadbmp+0xac>
		if ( !(bpp==32 || bpp==24 || bpp==16) ) {
			printf("[!] This color type cannot display.\n");
     3bc:	01000074 	movhi	r4,1
     3c0:	210b8404 	addi	r4,r4,11792
     3c4:	00089200 	call	8920 <puts>
			fclose(fbmp);
     3c8:	8809883a 	mov	r4,r17
     3cc:	000697c0 	call	697c <fclose>
			return -2;
     3d0:	00bfff84 	movi	r2,-2
     3d4:	00005c06 	br	548 <loadbmp+0x21c>
		}

		xsize = (bmp_h[0x13] << 8) | bmp_h[0x12];
     3d8:	dc8006c3 	ldbu	r18,27(sp)
     3dc:	d8800683 	ldbu	r2,26(sp)
		ysize = (bmp_h[0x17] << 8) | bmp_h[0x16];
     3e0:	dc0007c3 	ldbu	r16,31(sp)
			printf("[!] This color type cannot display.\n");
			fclose(fbmp);
			return -2;
		}

		xsize = (bmp_h[0x13] << 8) | bmp_h[0x12];
     3e4:	9024923a 	slli	r18,r18,8
		ysize = (bmp_h[0x17] << 8) | bmp_h[0x16];
     3e8:	d8c00783 	ldbu	r3,30(sp)
     3ec:	8020923a 	slli	r16,r16,8
			printf("[!] This color type cannot display.\n");
			fclose(fbmp);
			return -2;
		}

		xsize = (bmp_h[0x13] << 8) | bmp_h[0x12];
     3f0:	90a4b03a 	or	r18,r18,r2
		ysize = (bmp_h[0x17] << 8) | bmp_h[0x16];

		line = (xsize * bpp) / 8;
     3f4:	9505383a 	mul	r2,r18,r20
			fclose(fbmp);
			return -2;
		}

		xsize = (bmp_h[0x13] << 8) | bmp_h[0x12];
		ysize = (bmp_h[0x17] << 8) | bmp_h[0x16];
     3f8:	80e0b03a 	or	r16,r16,r3

		line = (xsize * bpp) / 8;
     3fc:	10008d16 	blt	r2,zero,634 <loadbmp+0x308>
     400:	1005d0fa 	srai	r2,r2,3
		if ((line % 4) != 0) line = ((line / 4) + 1) * 4;
     404:	10c000cc 	andi	r3,r2,3
		}

		xsize = (bmp_h[0x13] << 8) | bmp_h[0x12];
		ysize = (bmp_h[0x17] << 8) | bmp_h[0x16];

		line = (xsize * bpp) / 8;
     408:	1039883a 	mov	fp,r2
		if ((line % 4) != 0) line = ((line / 4) + 1) * 4;
     40c:	18000526 	beq	r3,zero,424 <loadbmp+0xf8>
     410:	10009116 	blt	r2,zero,658 <loadbmp+0x32c>
     414:	1005d0ba 	srai	r2,r2,2
     418:	17000044 	addi	fp,r2,1
     41c:	e739883a 	add	fp,fp,fp
     420:	e739883a 	add	fp,fp,fp
		return -3;
	}

	// BMP画像データをロード 

	printf("bmpfile : %s\n   %d x %d pix, %dbpp, %dbyte/line\n",bmpname,xsize,ysize,bpp,line);
     424:	dd000015 	stw	r20,0(sp)
     428:	df000115 	stw	fp,4(sp)
     42c:	01000074 	movhi	r4,1
     430:	210b9404 	addi	r4,r4,11856
     434:	980b883a 	mov	r5,r19
     438:	900d883a 	mov	r6,r18
     43c:	800f883a 	mov	r7,r16
     440:	000883c0 	call	883c <printf>
     444:	0080a004 	movi	r2,640
     448:	dc801215 	stw	r18,72(sp)
     44c:	14807416 	blt	r2,r18,620 <loadbmp+0x2f4>
     450:	00807804 	movi	r2,480
     454:	802d883a 	mov	r22,r16
     458:	14006f16 	blt	r2,r16,618 <loadbmp+0x2ec>
	if (ysize+y_offs > window_ysize) height = window_ysize-y_offs; else height = ysize;

//	pline = pFrameBuffer + (y_offs * window_xsize);
	pline = pFrameBuffer + (y_offs * (na_VRAM_linesize/2));

	for(y=0 ; y<height ; y++) {
     45c:	0400370e 	bge	zero,r16,53c <loadbmp+0x210>
#include "nd_lib/nd_egl.h"


// 指定のBMPファイルをフレームバッファに読み込む 

int loadbmp(const char *bmpname, alt_u16 *pFrameBuffer)
     460:	84ffffc4 	addi	r19,r16,-1
     464:	d8c01217 	ldw	r3,72(sp)
     468:	9f27383a 	mul	r19,r19,fp
     46c:	0739c83a 	sub	fp,zero,fp
     470:	18e1883a 	add	r16,r3,r3
     474:	df001115 	stw	fp,68(sp)
     478:	9cc00d84 	addi	r19,r19,54
     47c:	ac21883a 	add	r16,r21,r16
	if (ysize+y_offs > window_ysize) height = window_ysize-y_offs; else height = ysize;

//	pline = pFrameBuffer + (y_offs * window_xsize);
	pline = pFrameBuffer + (y_offs * (na_VRAM_linesize/2));

	for(y=0 ; y<height ; y++) {
     480:	0025883a 	mov	r18,zero
     484:	00000a06 	br	4b0 <loadbmp+0x184>
		if (bpp == 32) {
			for(x=0 ; x<width ; x++) {
				fread(bmp_pixel, 1, 4, fbmp);
				*ppix++ = set_pixel(bmp_pixel[2], bmp_pixel[1], bmp_pixel[0]);
			}
		} else if(bpp == 24) {
     488:	00800604 	movi	r2,24
     48c:	a0803a26 	beq	r20,r2,578 <loadbmp+0x24c>
			for(x=0 ; x<width ; x++) {
				fread(bmp_pixel, 1, 3, fbmp);
				*ppix++ = set_pixel(bmp_pixel[2], bmp_pixel[1], bmp_pixel[0]);
			}
		} else if(bpp == 16) {
     490:	00800404 	movi	r2,16
     494:	a0805026 	beq	r20,r2,5d8 <loadbmp+0x2ac>
     498:	d8c01117 	ldw	r3,68(sp)
	if (ysize+y_offs > window_ysize) height = window_ysize-y_offs; else height = ysize;

//	pline = pFrameBuffer + (y_offs * window_xsize);
	pline = pFrameBuffer + (y_offs * (na_VRAM_linesize/2));

	for(y=0 ; y<height ; y++) {
     49c:	94800044 	addi	r18,r18,1
				*ppix++ = (bmp_pixel[1]<<8) | bmp_pixel[0];
			}
		}

//		pline += window_xsize;
		pline += (na_VRAM_linesize/2);
     4a0:	ad420004 	addi	r21,r21,2048
     4a4:	98e7883a 	add	r19,r19,r3
     4a8:	84020004 	addi	r16,r16,2048
	if (ysize+y_offs > window_ysize) height = window_ysize-y_offs; else height = ysize;

//	pline = pFrameBuffer + (y_offs * window_xsize);
	pline = pFrameBuffer + (y_offs * (na_VRAM_linesize/2));

	for(y=0 ; y<height ; y++) {
     4ac:	95802326 	beq	r18,r22,53c <loadbmp+0x210>
		fseek(fbmp, 54 + line*(ysize-(y+1)), SEEK_SET);		// ファイルポインタを行の先頭へ移動 
     4b0:	8809883a 	mov	r4,r17
     4b4:	980b883a 	mov	r5,r19
     4b8:	000d883a 	mov	r6,zero
     4bc:	0007ab80 	call	7ab8 <fseek>
		ppix = pline;										// ピクセルポインタをラインの先頭へ移動 

		if (bpp == 32) {
     4c0:	00800804 	movi	r2,32
     4c4:	a0bff01e 	bne	r20,r2,488 <__alt_mem_onchip_flash_0_data+0xf0f00488>
			for(x=0 ; x<width ; x++) {
     4c8:	d8c01217 	ldw	r3,72(sp)
     4cc:	00fff20e 	bge	zero,r3,498 <__alt_mem_onchip_flash_0_data+0xf0f00498>
#include "nd_lib/nd_egl.h"


// 指定のBMPファイルをフレームバッファに読み込む 

int loadbmp(const char *bmpname, alt_u16 *pFrameBuffer)
     4d0:	a839883a 	mov	fp,r21
		ppix = pline;										// ピクセルポインタをラインの先頭へ移動 

		if (bpp == 32) {
			for(x=0 ; x<width ; x++) {
				fread(bmp_pixel, 1, 4, fbmp);
				*ppix++ = set_pixel(bmp_pixel[2], bmp_pixel[1], bmp_pixel[0]);
     4d4:	05fffe04 	movi	r23,-8
		fseek(fbmp, 54 + line*(ysize-(y+1)), SEEK_SET);		// ファイルポインタを行の先頭へ移動 
		ppix = pline;										// ピクセルポインタをラインの先頭へ移動 

		if (bpp == 32) {
			for(x=0 ; x<width ; x++) {
				fread(bmp_pixel, 1, 4, fbmp);
     4d8:	d9000f84 	addi	r4,sp,62
     4dc:	01400044 	movi	r5,1
     4e0:	01800104 	movi	r6,4
     4e4:	880f883a 	mov	r7,r17
     4e8:	00071f80 	call	71f8 <fread>
				*ppix++ = set_pixel(bmp_pixel[2], bmp_pixel[1], bmp_pixel[0]);
     4ec:	d9401003 	ldbu	r5,64(sp)
     4f0:	d8800fc3 	ldbu	r2,63(sp)
     4f4:	d9000f83 	ldbu	r4,62(sp)
     4f8:	b94a703a 	and	r5,r23,r5
     4fc:	280a91fa 	slli	r5,r5,7
     500:	b884703a 	and	r2,r23,r2
     504:	1085883a 	add	r2,r2,r2
     508:	2008d0fa 	srli	r4,r4,3
     50c:	1085883a 	add	r2,r2,r2
     510:	2884b03a 	or	r2,r5,r2
     514:	1104b03a 	or	r2,r2,r4
     518:	e080000d 	sth	r2,0(fp)
     51c:	e7000084 	addi	fp,fp,2
	for(y=0 ; y<height ; y++) {
		fseek(fbmp, 54 + line*(ysize-(y+1)), SEEK_SET);		// ファイルポインタを行の先頭へ移動 
		ppix = pline;										// ピクセルポインタをラインの先頭へ移動 

		if (bpp == 32) {
			for(x=0 ; x<width ; x++) {
     520:	e43fed1e 	bne	fp,r16,4d8 <__alt_mem_onchip_flash_0_data+0xf0f004d8>
     524:	d8c01117 	ldw	r3,68(sp)
	if (ysize+y_offs > window_ysize) height = window_ysize-y_offs; else height = ysize;

//	pline = pFrameBuffer + (y_offs * window_xsize);
	pline = pFrameBuffer + (y_offs * (na_VRAM_linesize/2));

	for(y=0 ; y<height ; y++) {
     528:	94800044 	addi	r18,r18,1
				*ppix++ = (bmp_pixel[1]<<8) | bmp_pixel[0];
			}
		}

//		pline += window_xsize;
		pline += (na_VRAM_linesize/2);
     52c:	ad420004 	addi	r21,r21,2048
     530:	98e7883a 	add	r19,r19,r3
     534:	84020004 	addi	r16,r16,2048
	if (ysize+y_offs > window_ysize) height = window_ysize-y_offs; else height = ysize;

//	pline = pFrameBuffer + (y_offs * window_xsize);
	pline = pFrameBuffer + (y_offs * (na_VRAM_linesize/2));

	for(y=0 ; y<height ; y++) {
     538:	95bfdd1e 	bne	r18,r22,4b0 <__alt_mem_onchip_flash_0_data+0xf0f004b0>

//		pline += window_xsize;
		pline += (na_VRAM_linesize/2);
	}

	fclose(fbmp);
     53c:	8809883a 	mov	r4,r17
     540:	000697c0 	call	697c <fclose>

	return 0;
     544:	0005883a 	mov	r2,zero
}
     548:	dfc01c17 	ldw	ra,112(sp)
     54c:	df001b17 	ldw	fp,108(sp)
     550:	ddc01a17 	ldw	r23,104(sp)
     554:	dd801917 	ldw	r22,100(sp)
     558:	dd401817 	ldw	r21,96(sp)
     55c:	dd001717 	ldw	r20,92(sp)
     560:	dcc01617 	ldw	r19,88(sp)
     564:	dc801517 	ldw	r18,84(sp)
     568:	dc401417 	ldw	r17,80(sp)
     56c:	dc001317 	ldw	r16,76(sp)
     570:	dec01d04 	addi	sp,sp,116
     574:	f800283a 	ret
			for(x=0 ; x<width ; x++) {
				fread(bmp_pixel, 1, 4, fbmp);
				*ppix++ = set_pixel(bmp_pixel[2], bmp_pixel[1], bmp_pixel[0]);
			}
		} else if(bpp == 24) {
			for(x=0 ; x<width ; x++) {
     578:	d8c01217 	ldw	r3,72(sp)
     57c:	00ffc60e 	bge	zero,r3,498 <__alt_mem_onchip_flash_0_data+0xf0f00498>
#include "nd_lib/nd_egl.h"


// 指定のBMPファイルをフレームバッファに読み込む 

int loadbmp(const char *bmpname, alt_u16 *pFrameBuffer)
     580:	a839883a 	mov	fp,r21
				*ppix++ = set_pixel(bmp_pixel[2], bmp_pixel[1], bmp_pixel[0]);
			}
		} else if(bpp == 24) {
			for(x=0 ; x<width ; x++) {
				fread(bmp_pixel, 1, 3, fbmp);
				*ppix++ = set_pixel(bmp_pixel[2], bmp_pixel[1], bmp_pixel[0]);
     584:	05fffe04 	movi	r23,-8
				fread(bmp_pixel, 1, 4, fbmp);
				*ppix++ = set_pixel(bmp_pixel[2], bmp_pixel[1], bmp_pixel[0]);
			}
		} else if(bpp == 24) {
			for(x=0 ; x<width ; x++) {
				fread(bmp_pixel, 1, 3, fbmp);
     588:	d9000f84 	addi	r4,sp,62
     58c:	01400044 	movi	r5,1
     590:	018000c4 	movi	r6,3
     594:	880f883a 	mov	r7,r17
     598:	00071f80 	call	71f8 <fread>
				*ppix++ = set_pixel(bmp_pixel[2], bmp_pixel[1], bmp_pixel[0]);
     59c:	d9401003 	ldbu	r5,64(sp)
     5a0:	d8800fc3 	ldbu	r2,63(sp)
     5a4:	d9000f83 	ldbu	r4,62(sp)
     5a8:	b94a703a 	and	r5,r23,r5
     5ac:	280a91fa 	slli	r5,r5,7
     5b0:	b884703a 	and	r2,r23,r2
     5b4:	1085883a 	add	r2,r2,r2
     5b8:	2008d0fa 	srli	r4,r4,3
     5bc:	1085883a 	add	r2,r2,r2
     5c0:	2884b03a 	or	r2,r5,r2
     5c4:	1104b03a 	or	r2,r2,r4
     5c8:	e080000d 	sth	r2,0(fp)
     5cc:	e7000084 	addi	fp,fp,2
			for(x=0 ; x<width ; x++) {
				fread(bmp_pixel, 1, 4, fbmp);
				*ppix++ = set_pixel(bmp_pixel[2], bmp_pixel[1], bmp_pixel[0]);
			}
		} else if(bpp == 24) {
			for(x=0 ; x<width ; x++) {
     5d0:	e43fed1e 	bne	fp,r16,588 <__alt_mem_onchip_flash_0_data+0xf0f00588>
     5d4:	003fb006 	br	498 <__alt_mem_onchip_flash_0_data+0xf0f00498>
				fread(bmp_pixel, 1, 3, fbmp);
				*ppix++ = set_pixel(bmp_pixel[2], bmp_pixel[1], bmp_pixel[0]);
			}
		} else if(bpp == 16) {
			for(x=0 ; x<width ; x++) {
     5d8:	d8c01217 	ldw	r3,72(sp)
     5dc:	00ffae0e 	bge	zero,r3,498 <__alt_mem_onchip_flash_0_data+0xf0f00498>
#include "nd_lib/nd_egl.h"


// 指定のBMPファイルをフレームバッファに読み込む 

int loadbmp(const char *bmpname, alt_u16 *pFrameBuffer)
     5e0:	a82f883a 	mov	r23,r21
				fread(bmp_pixel, 1, 3, fbmp);
				*ppix++ = set_pixel(bmp_pixel[2], bmp_pixel[1], bmp_pixel[0]);
			}
		} else if(bpp == 16) {
			for(x=0 ; x<width ; x++) {
				fread(bmp_pixel, 1, 2, fbmp);
     5e4:	d9000f84 	addi	r4,sp,62
     5e8:	01400044 	movi	r5,1
     5ec:	01800084 	movi	r6,2
     5f0:	880f883a 	mov	r7,r17
     5f4:	00071f80 	call	71f8 <fread>
				*ppix++ = (bmp_pixel[1]<<8) | bmp_pixel[0];
     5f8:	d8800fc3 	ldbu	r2,63(sp)
     5fc:	d9000f83 	ldbu	r4,62(sp)
     600:	bdc00084 	addi	r23,r23,2
     604:	1004923a 	slli	r2,r2,8
     608:	1104b03a 	or	r2,r2,r4
     60c:	b8bfff8d 	sth	r2,-2(r23)
			for(x=0 ; x<width ; x++) {
				fread(bmp_pixel, 1, 3, fbmp);
				*ppix++ = set_pixel(bmp_pixel[2], bmp_pixel[1], bmp_pixel[0]);
			}
		} else if(bpp == 16) {
			for(x=0 ; x<width ; x++) {
     610:	bc3ff41e 	bne	r23,r16,5e4 <__alt_mem_onchip_flash_0_data+0xf0f005e4>
     614:	003fa006 	br	498 <__alt_mem_onchip_flash_0_data+0xf0f00498>
     618:	102d883a 	mov	r22,r2
     61c:	003f9006 	br	460 <__alt_mem_onchip_flash_0_data+0xf0f00460>
     620:	d8801215 	stw	r2,72(sp)
     624:	00807804 	movi	r2,480
     628:	802d883a 	mov	r22,r16
     62c:	143f8b0e 	bge	r2,r16,45c <__alt_mem_onchip_flash_0_data+0xf0f0045c>
     630:	003ff906 	br	618 <__alt_mem_onchip_flash_0_data+0xf0f00618>
		}

		xsize = (bmp_h[0x13] << 8) | bmp_h[0x12];
		ysize = (bmp_h[0x17] << 8) | bmp_h[0x16];

		line = (xsize * bpp) / 8;
     634:	108001c4 	addi	r2,r2,7
     638:	003f7106 	br	400 <__alt_mem_onchip_flash_0_data+0xf0f00400>
		if ((line % 4) != 0) line = ((line / 4) + 1) * 4;

	} else {
		printf("[!] This file is not bmp.\n");
     63c:	01000074 	movhi	r4,1
     640:	210b8d04 	addi	r4,r4,11828
     644:	00089200 	call	8920 <puts>
		fclose(fbmp);
     648:	8809883a 	mov	r4,r17
     64c:	000697c0 	call	697c <fclose>
		return -3;
     650:	00bfff44 	movi	r2,-3
     654:	003fbc06 	br	548 <__alt_mem_onchip_flash_0_data+0xf0f00548>

		xsize = (bmp_h[0x13] << 8) | bmp_h[0x12];
		ysize = (bmp_h[0x17] << 8) | bmp_h[0x16];

		line = (xsize * bpp) / 8;
		if ((line % 4) != 0) line = ((line / 4) + 1) * 4;
     658:	108000c4 	addi	r2,r2,3
     65c:	003f6d06 	br	414 <__alt_mem_onchip_flash_0_data+0xf0f00414>

	// BMPファイルを開く 

	fbmp = fopen(bmpname, "rb");
	if (fbmp == NULL) {
		printf("[!] %s is not found.\n", bmpname);
     660:	01000074 	movhi	r4,1
     664:	210b7e04 	addi	r4,r4,11768
     668:	980b883a 	mov	r5,r19
     66c:	000883c0 	call	883c <printf>
		return -1;
     670:	00bfffc4 	movi	r2,-1
     674:	003fb406 	br	548 <__alt_mem_onchip_flash_0_data+0xf0f00548>

00000678 <get_fileinfo>:
	BYTE nt, *dir;
	TCHAR *p, c;


	p = fno->fname;
	if (dj->sect) {
     678:	20c00417 	ldw	r3,16(r4)
static
void get_fileinfo (		/* No return code */
	DIR *dj,			/* Pointer to the directory object */
	FILINFO *fno	 	/* Pointer to the file information to be filled */
)
{
     67c:	defffa04 	addi	sp,sp,-24
     680:	dc400115 	stw	r17,4(sp)
     684:	dfc00515 	stw	ra,20(sp)
     688:	dd000415 	stw	r20,16(sp)
     68c:	dcc00315 	stw	r19,12(sp)
     690:	dc800215 	stw	r18,8(sp)
     694:	dc000015 	stw	r16,0(sp)
     698:	2823883a 	mov	r17,r5
	UINT i;
	BYTE nt, *dir;
	TCHAR *p, c;


	p = fno->fname;
     69c:	28800244 	addi	r2,r5,9
	if (dj->sect) {
     6a0:	18004c26 	beq	r3,zero,7d4 <get_fileinfo+0x15c>
		dir = dj->dir;
     6a4:	21400517 	ldw	r5,20(r4)
/*-----------------------------------------------------------------------*/
/* Get file information from directory entry                             */
/*-----------------------------------------------------------------------*/
#if _FS_MINIMIZE <= 1
static
void get_fileinfo (		/* No return code */
     6a8:	8ac00444 	addi	r11,r17,17
	if (dj->sect) {
		dir = dj->dir;
		nt = dir[DIR_NTres];		/* NT flag */
		for (i = 0; i < 8; i++) {	/* Copy name body */
			c = dir[i];
			if (c == ' ') break;
     6ac:	02000804 	movi	r8,32


	p = fno->fname;
	if (dj->sect) {
		dir = dj->dir;
		nt = dir[DIR_NTres];		/* NT flag */
     6b0:	2b400303 	ldbu	r13,12(r5)
     6b4:	280d883a 	mov	r6,r5
		for (i = 0; i < 8; i++) {	/* Copy name body */
			c = dir[i];
			if (c == ' ') break;
			if (c == NDDE) c = (TCHAR)DDE;
     6b8:	02800144 	movi	r10,5
			if (_USE_LFN && (nt & NS_BODY) && IsUpper(c)) c += 0x20;
     6bc:	6a40020c 	andi	r9,r13,8
     6c0:	4a403fcc 	andi	r9,r9,255
     6c4:	03000644 	movi	r12,25
     6c8:	00000806 	br	6ec <get_fileinfo+0x74>
     6cc:	19ffefc4 	addi	r7,r3,-65
     6d0:	39c03fcc 	andi	r7,r7,255
     6d4:	48000226 	beq	r9,zero,6e0 <get_fileinfo+0x68>
     6d8:	61c00136 	bltu	r12,r7,6e0 <get_fileinfo+0x68>
     6dc:	18c00804 	addi	r3,r3,32
			if (IsDBCS1(c) && i < 7 && IsDBCS2(dir[i+1]))
				c = (c << 8) | dir[++i];
			c = ff_convert(c, 1);
			if (!c) c = '?';
#endif
			*p++ = c;
     6e0:	10c00005 	stb	r3,0(r2)
     6e4:	10800044 	addi	r2,r2,1

	p = fno->fname;
	if (dj->sect) {
		dir = dj->dir;
		nt = dir[DIR_NTres];		/* NT flag */
		for (i = 0; i < 8; i++) {	/* Copy name body */
     6e8:	12c00926 	beq	r2,r11,710 <get_fileinfo+0x98>
			c = dir[i];
     6ec:	30c00003 	ldbu	r3,0(r6)
     6f0:	31800044 	addi	r6,r6,1
			if (c == ' ') break;
     6f4:	19c03fcc 	andi	r7,r3,255
     6f8:	39c0201c 	xori	r7,r7,128
     6fc:	39ffe004 	addi	r7,r7,-128
     700:	3a000326 	beq	r7,r8,710 <get_fileinfo+0x98>
			if (c == NDDE) c = (TCHAR)DDE;
     704:	3abff11e 	bne	r7,r10,6cc <__alt_mem_onchip_flash_0_data+0xf0f006cc>
     708:	00fff944 	movi	r3,-27
     70c:	003fef06 	br	6cc <__alt_mem_onchip_flash_0_data+0xf0f006cc>
			c = ff_convert(c, 1);
			if (!c) c = '?';
#endif
			*p++ = c;
		}
		if (dir[8] != ' ') {		/* Copy name extension */
     710:	29800203 	ldbu	r6,8(r5)
     714:	00c00804 	movi	r3,32
     718:	30c01726 	beq	r6,r3,778 <get_fileinfo+0x100>
			*p++ = '.';
     71c:	01800b84 	movi	r6,46
			for (i = 8; i < 11; i++) {
				c = dir[i];
				if (c == ' ') break;
				if (_USE_LFN && (nt & NS_EXT) && IsUpper(c)) c += 0x20;
     720:	6b40040c 	andi	r13,r13,16
			if (!c) c = '?';
#endif
			*p++ = c;
		}
		if (dir[8] != ' ') {		/* Copy name extension */
			*p++ = '.';
     724:	11800005 	stb	r6,0(r2)
/*-----------------------------------------------------------------------*/
/* Get file information from directory entry                             */
/*-----------------------------------------------------------------------*/
#if _FS_MINIMIZE <= 1
static
void get_fileinfo (		/* No return code */
     728:	12800104 	addi	r10,r2,4
     72c:	29800204 	addi	r6,r5,8
			if (!c) c = '?';
#endif
			*p++ = c;
		}
		if (dir[8] != ' ') {		/* Copy name extension */
			*p++ = '.';
     730:	10800044 	addi	r2,r2,1
			for (i = 8; i < 11; i++) {
				c = dir[i];
				if (c == ' ') break;
     734:	1813883a 	mov	r9,r3
				if (_USE_LFN && (nt & NS_EXT) && IsUpper(c)) c += 0x20;
     738:	6b403fcc 	andi	r13,r13,255
     73c:	02c00644 	movi	r11,25
			*p++ = c;
		}
		if (dir[8] != ' ') {		/* Copy name extension */
			*p++ = '.';
			for (i = 8; i < 11; i++) {
				c = dir[i];
     740:	30c00003 	ldbu	r3,0(r6)
     744:	31800044 	addi	r6,r6,1
				if (c == ' ') break;
     748:	19c03fcc 	andi	r7,r3,255
     74c:	39c0201c 	xori	r7,r7,128
				if (_USE_LFN && (nt & NS_EXT) && IsUpper(c)) c += 0x20;
     750:	1a3fefc4 	addi	r8,r3,-65
		}
		if (dir[8] != ' ') {		/* Copy name extension */
			*p++ = '.';
			for (i = 8; i < 11; i++) {
				c = dir[i];
				if (c == ' ') break;
     754:	39ffe004 	addi	r7,r7,-128
				if (_USE_LFN && (nt & NS_EXT) && IsUpper(c)) c += 0x20;
     758:	42003fcc 	andi	r8,r8,255
		}
		if (dir[8] != ' ') {		/* Copy name extension */
			*p++ = '.';
			for (i = 8; i < 11; i++) {
				c = dir[i];
				if (c == ' ') break;
     75c:	3a400626 	beq	r7,r9,778 <get_fileinfo+0x100>
				if (_USE_LFN && (nt & NS_EXT) && IsUpper(c)) c += 0x20;
     760:	68000226 	beq	r13,zero,76c <get_fileinfo+0xf4>
     764:	5a000136 	bltu	r11,r8,76c <get_fileinfo+0xf4>
     768:	18c00804 	addi	r3,r3,32
				if (IsDBCS1(c) && i < 10 && IsDBCS2(dir[i+1]))
					c = (c << 8) | dir[++i];
				c = ff_convert(c, 1);
				if (!c) c = '?';
#endif
				*p++ = c;
     76c:	10c00005 	stb	r3,0(r2)
     770:	10800044 	addi	r2,r2,1
#endif
			*p++ = c;
		}
		if (dir[8] != ' ') {		/* Copy name extension */
			*p++ = '.';
			for (i = 8; i < 11; i++) {
     774:	12bff21e 	bne	r2,r10,740 <__alt_mem_onchip_flash_0_data+0xf0f00740>
				if (!c) c = '?';
#endif
				*p++ = c;
			}
		}
		fno->fattrib = dir[DIR_Attr];				/* Attribute */
     778:	28c002c3 	ldbu	r3,11(r5)
     77c:	88c00205 	stb	r3,8(r17)
		fno->fsize = LD_DWORD(dir+DIR_FileSize);	/* Size */
     780:	28c007c3 	ldbu	r3,31(r5)
     784:	2a000783 	ldbu	r8,30(r5)
     788:	29800743 	ldbu	r6,29(r5)
     78c:	1806963a 	slli	r3,r3,24
     790:	4010943a 	slli	r8,r8,16
     794:	29c00703 	ldbu	r7,28(r5)
     798:	300c923a 	slli	r6,r6,8
     79c:	1a06b03a 	or	r3,r3,r8
     7a0:	19c6b03a 	or	r3,r3,r7
     7a4:	1986b03a 	or	r3,r3,r6
     7a8:	88c00015 	stw	r3,0(r17)
		fno->fdate = LD_WORD(dir+DIR_WrtDate);		/* Date */
     7ac:	28c00643 	ldbu	r3,25(r5)
     7b0:	29800603 	ldbu	r6,24(r5)
     7b4:	1806923a 	slli	r3,r3,8
     7b8:	1986b03a 	or	r3,r3,r6
     7bc:	88c0010d 	sth	r3,4(r17)
		fno->ftime = LD_WORD(dir+DIR_WrtTime);		/* Time */
     7c0:	28c005c3 	ldbu	r3,23(r5)
     7c4:	29400583 	ldbu	r5,22(r5)
     7c8:	1806923a 	slli	r3,r3,8
     7cc:	1946b03a 	or	r3,r3,r5
     7d0:	88c0018d 	sth	r3,6(r17)
	}
	*p = 0;		/* Terminate SFN str by a \0 */
     7d4:	10000005 	stb	zero,0(r2)

#if _USE_LFN
	if (fno->lfname && fno->lfsize) {
     7d8:	8c800617 	ldw	r18,24(r17)
     7dc:	90000726 	beq	r18,zero,7fc <get_fileinfo+0x184>
     7e0:	88800717 	ldw	r2,28(r17)
     7e4:	10000526 	beq	r2,zero,7fc <get_fileinfo+0x184>
		TCHAR *tp = fno->lfname;
		WCHAR w, *lfn;

		i = 0;
		if (dj->sect && dj->lfn_idx != 0xFFFF) {/* Get LFN if available */
     7e8:	20800417 	ldw	r2,16(r4)
     7ec:	10000b1e 	bne	r2,zero,81c <get_fileinfo+0x1a4>
#if _USE_LFN
	if (fno->lfname && fno->lfsize) {
		TCHAR *tp = fno->lfname;
		WCHAR w, *lfn;

		i = 0;
     7f0:	0021883a 	mov	r16,zero
#endif
				if (i >= fno->lfsize - 1) { i = 0; break; }	/* Buffer overflow, no LFN */
				tp[i++] = (TCHAR)w;
			}
		}
		tp[i] = 0;	/* Terminate the LFN str by a \0 */
     7f4:	9421883a 	add	r16,r18,r16
     7f8:	80000005 	stb	zero,0(r16)
	}
#endif
}
     7fc:	dfc00517 	ldw	ra,20(sp)
     800:	dd000417 	ldw	r20,16(sp)
     804:	dcc00317 	ldw	r19,12(sp)
     808:	dc800217 	ldw	r18,8(sp)
     80c:	dc400117 	ldw	r17,4(sp)
     810:	dc000017 	ldw	r16,0(sp)
     814:	dec00604 	addi	sp,sp,24
     818:	f800283a 	ret
	if (fno->lfname && fno->lfsize) {
		TCHAR *tp = fno->lfname;
		WCHAR w, *lfn;

		i = 0;
		if (dj->sect && dj->lfn_idx != 0xFFFF) {/* Get LFN if available */
     81c:	20c0080b 	ldhu	r3,32(r4)
     820:	00bfffd4 	movui	r2,65535
     824:	18bff226 	beq	r3,r2,7f0 <__alt_mem_onchip_flash_0_data+0xf0f007f0>
			lfn = dj->lfn;
     828:	24c00717 	ldw	r19,28(r4)
			while ((w = *lfn++) != 0) {			/* Get an LFN char */
     82c:	9900000b 	ldhu	r4,0(r19)
     830:	9cc00084 	addi	r19,r19,2
     834:	203fee26 	beq	r4,zero,7f0 <__alt_mem_onchip_flash_0_data+0xf0f007f0>
     838:	0021883a 	mov	r16,zero
#if !_LFN_UNICODE
				w = ff_convert(w, 0);			/* Unicode -> OEM conversion */
				if (!w) { i = 0; break; }		/* Could not convert, no LFN */
				if (_DF1S && w >= 0x100)		/* Put 1st byte if it is a DBC (always false on SBCS cfg) */
     83c:	05003fc4 	movi	r20,255
     840:	00000c06 	br	874 <get_fileinfo+0x1fc>
     844:	a0c0022e 	bgeu	r20,r3,850 <get_fileinfo+0x1d8>
					tp[i++] = (TCHAR)(w >> 8);
     848:	21400005 	stb	r5,0(r4)
     84c:	84000044 	addi	r16,r16,1
#endif
				if (i >= fno->lfsize - 1) { i = 0; break; }	/* Buffer overflow, no LFN */
     850:	88c00717 	ldw	r3,28(r17)
				tp[i++] = (TCHAR)w;
     854:	9409883a 	add	r4,r18,r16
				w = ff_convert(w, 0);			/* Unicode -> OEM conversion */
				if (!w) { i = 0; break; }		/* Could not convert, no LFN */
				if (_DF1S && w >= 0x100)		/* Put 1st byte if it is a DBC (always false on SBCS cfg) */
					tp[i++] = (TCHAR)(w >> 8);
#endif
				if (i >= fno->lfsize - 1) { i = 0; break; }	/* Buffer overflow, no LFN */
     858:	18ffffc4 	addi	r3,r3,-1
     85c:	80ffe42e 	bgeu	r16,r3,7f0 <__alt_mem_onchip_flash_0_data+0xf0f007f0>
				tp[i++] = (TCHAR)w;
     860:	20800005 	stb	r2,0(r4)
		WCHAR w, *lfn;

		i = 0;
		if (dj->sect && dj->lfn_idx != 0xFFFF) {/* Get LFN if available */
			lfn = dj->lfn;
			while ((w = *lfn++) != 0) {			/* Get an LFN char */
     864:	9900000b 	ldhu	r4,0(r19)
				if (!w) { i = 0; break; }		/* Could not convert, no LFN */
				if (_DF1S && w >= 0x100)		/* Put 1st byte if it is a DBC (always false on SBCS cfg) */
					tp[i++] = (TCHAR)(w >> 8);
#endif
				if (i >= fno->lfsize - 1) { i = 0; break; }	/* Buffer overflow, no LFN */
				tp[i++] = (TCHAR)w;
     868:	84000044 	addi	r16,r16,1
		WCHAR w, *lfn;

		i = 0;
		if (dj->sect && dj->lfn_idx != 0xFFFF) {/* Get LFN if available */
			lfn = dj->lfn;
			while ((w = *lfn++) != 0) {			/* Get an LFN char */
     86c:	9cc00084 	addi	r19,r19,2
     870:	203fe026 	beq	r4,zero,7f4 <__alt_mem_onchip_flash_0_data+0xf0f007f4>
#if !_LFN_UNICODE
				w = ff_convert(w, 0);			/* Unicode -> OEM conversion */
     874:	000b883a 	mov	r5,zero
     878:	0004df00 	call	4df0 <ff_convert>
				if (!w) { i = 0; break; }		/* Could not convert, no LFN */
     87c:	10ffffcc 	andi	r3,r2,65535
				if (_DF1S && w >= 0x100)		/* Put 1st byte if it is a DBC (always false on SBCS cfg) */
					tp[i++] = (TCHAR)(w >> 8);
     880:	180ad23a 	srli	r5,r3,8
     884:	9409883a 	add	r4,r18,r16
		if (dj->sect && dj->lfn_idx != 0xFFFF) {/* Get LFN if available */
			lfn = dj->lfn;
			while ((w = *lfn++) != 0) {			/* Get an LFN char */
#if !_LFN_UNICODE
				w = ff_convert(w, 0);			/* Unicode -> OEM conversion */
				if (!w) { i = 0; break; }		/* Could not convert, no LFN */
     888:	183fee1e 	bne	r3,zero,844 <__alt_mem_onchip_flash_0_data+0xf0f00844>
     88c:	003fd806 	br	7f0 <__alt_mem_onchip_flash_0_data+0xf0f007f0>

00000890 <move_window>:
static
FRESULT move_window (
	FATFS *fs,		/* File system object */
	DWORD sector	/* Sector number to make appearance in the fs->win[] */
)					/* Move to zero only writes back dirty window */
{
     890:	defff904 	addi	sp,sp,-28
     894:	dc400115 	stw	r17,4(sp)
	DWORD wsect;


	wsect = fs->winsect;
     898:	24400b17 	ldw	r17,44(r4)
static
FRESULT move_window (
	FATFS *fs,		/* File system object */
	DWORD sector	/* Sector number to make appearance in the fs->win[] */
)					/* Move to zero only writes back dirty window */
{
     89c:	dc800215 	stw	r18,8(sp)
     8a0:	dc000015 	stw	r16,0(sp)
     8a4:	dfc00615 	stw	ra,24(sp)
     8a8:	dd400515 	stw	r21,20(sp)
     8ac:	dd000415 	stw	r20,16(sp)
     8b0:	dcc00315 	stw	r19,12(sp)
     8b4:	2021883a 	mov	r16,r4
     8b8:	2825883a 	mov	r18,r5
	DWORD wsect;


	wsect = fs->winsect;
	if (wsect != sector) {	/* Changed current window */
     8bc:	89400326 	beq	r17,r5,8cc <move_window+0x3c>
#if !_FS_READONLY
		if (fs->wflag) {	/* Write back dirty window if needed */
     8c0:	20800103 	ldbu	r2,4(r4)
     8c4:	1000131e 	bne	r2,zero,914 <move_window+0x84>
					disk_write(fs->drv, fs->win, wsect, 1);
				}
			}
		}
#endif
		if (sector) {
     8c8:	90000a1e 	bne	r18,zero,8f4 <move_window+0x64>
				return FR_DISK_ERR;
			fs->winsect = sector;
		}
	}

	return FR_OK;
     8cc:	0005883a 	mov	r2,zero
}
     8d0:	dfc00617 	ldw	ra,24(sp)
     8d4:	dd400517 	ldw	r21,20(sp)
     8d8:	dd000417 	ldw	r20,16(sp)
     8dc:	dcc00317 	ldw	r19,12(sp)
     8e0:	dc800217 	ldw	r18,8(sp)
     8e4:	dc400117 	ldw	r17,4(sp)
     8e8:	dc000017 	ldw	r16,0(sp)
     8ec:	dec00704 	addi	sp,sp,28
     8f0:	f800283a 	ret
				}
			}
		}
#endif
		if (sector) {
			if (disk_read(fs->drv, fs->win, sector, 1) != RES_OK)
     8f4:	81000043 	ldbu	r4,1(r16)
     8f8:	81400c04 	addi	r5,r16,48
     8fc:	900d883a 	mov	r6,r18
     900:	01c00044 	movi	r7,1
     904:	0004a1c0 	call	4a1c <disk_read>
     908:	10001f1e 	bne	r2,zero,988 <move_window+0xf8>
				return FR_DISK_ERR;
			fs->winsect = sector;
     90c:	84800b15 	stw	r18,44(r16)
     910:	003fef06 	br	8d0 <__alt_mem_onchip_flash_0_data+0xf0f008d0>

	wsect = fs->winsect;
	if (wsect != sector) {	/* Changed current window */
#if !_FS_READONLY
		if (fs->wflag) {	/* Write back dirty window if needed */
			if (disk_write(fs->drv, fs->win, wsect, 1) != RES_OK)
     914:	21000043 	ldbu	r4,1(r4)
     918:	85000c04 	addi	r20,r16,48
     91c:	05400044 	movi	r21,1
     920:	a00b883a 	mov	r5,r20
     924:	880d883a 	mov	r6,r17
     928:	a80f883a 	mov	r7,r21
     92c:	0004b340 	call	4b34 <disk_write>
     930:	1000151e 	bne	r2,zero,988 <move_window+0xf8>
				return FR_DISK_ERR;
			fs->wflag = 0;
			if (wsect < (fs->fatbase + fs->fsize)) {	/* In FAT area */
     934:	80800717 	ldw	r2,28(r16)
     938:	80c00817 	ldw	r3,32(r16)
	if (wsect != sector) {	/* Changed current window */
#if !_FS_READONLY
		if (fs->wflag) {	/* Write back dirty window if needed */
			if (disk_write(fs->drv, fs->win, wsect, 1) != RES_OK)
				return FR_DISK_ERR;
			fs->wflag = 0;
     93c:	80000105 	stb	zero,4(r16)
			if (wsect < (fs->fatbase + fs->fsize)) {	/* In FAT area */
     940:	10c7883a 	add	r3,r2,r3
     944:	88ffe02e 	bgeu	r17,r3,8c8 <__alt_mem_onchip_flash_0_data+0xf0f008c8>
				BYTE nf;
				for (nf = fs->n_fats; nf > 1; nf--) {	/* Reflect the change to all FAT copies */
     948:	84c000c3 	ldbu	r19,3(r16)
     94c:	98c03fcc 	andi	r3,r19,255
     950:	a8c00236 	bltu	r21,r3,95c <move_window+0xcc>
     954:	003fdc06 	br	8c8 <__alt_mem_onchip_flash_0_data+0xf0f008c8>
     958:	80800717 	ldw	r2,28(r16)
					wsect += fs->fsize;
					disk_write(fs->drv, fs->win, wsect, 1);
     95c:	81000043 	ldbu	r4,1(r16)
				return FR_DISK_ERR;
			fs->wflag = 0;
			if (wsect < (fs->fatbase + fs->fsize)) {	/* In FAT area */
				BYTE nf;
				for (nf = fs->n_fats; nf > 1; nf--) {	/* Reflect the change to all FAT copies */
					wsect += fs->fsize;
     960:	88a3883a 	add	r17,r17,r2
					disk_write(fs->drv, fs->win, wsect, 1);
     964:	a00b883a 	mov	r5,r20
     968:	880d883a 	mov	r6,r17
     96c:	01c00044 	movi	r7,1
			if (disk_write(fs->drv, fs->win, wsect, 1) != RES_OK)
				return FR_DISK_ERR;
			fs->wflag = 0;
			if (wsect < (fs->fatbase + fs->fsize)) {	/* In FAT area */
				BYTE nf;
				for (nf = fs->n_fats; nf > 1; nf--) {	/* Reflect the change to all FAT copies */
     970:	9cffffc4 	addi	r19,r19,-1
					wsect += fs->fsize;
					disk_write(fs->drv, fs->win, wsect, 1);
     974:	0004b340 	call	4b34 <disk_write>
			if (disk_write(fs->drv, fs->win, wsect, 1) != RES_OK)
				return FR_DISK_ERR;
			fs->wflag = 0;
			if (wsect < (fs->fatbase + fs->fsize)) {	/* In FAT area */
				BYTE nf;
				for (nf = fs->n_fats; nf > 1; nf--) {	/* Reflect the change to all FAT copies */
     978:	98803fcc 	andi	r2,r19,255
     97c:	157ff61e 	bne	r2,r21,958 <__alt_mem_onchip_flash_0_data+0xf0f00958>
					disk_write(fs->drv, fs->win, wsect, 1);
				}
			}
		}
#endif
		if (sector) {
     980:	903fd226 	beq	r18,zero,8cc <__alt_mem_onchip_flash_0_data+0xf0f008cc>
     984:	003fdb06 	br	8f4 <__alt_mem_onchip_flash_0_data+0xf0f008f4>
	wsect = fs->winsect;
	if (wsect != sector) {	/* Changed current window */
#if !_FS_READONLY
		if (fs->wflag) {	/* Write back dirty window if needed */
			if (disk_write(fs->drv, fs->win, wsect, 1) != RES_OK)
				return FR_DISK_ERR;
     988:	00800044 	movi	r2,1
     98c:	003fd006 	br	8d0 <__alt_mem_onchip_flash_0_data+0xf0f008d0>

00000990 <sync>:
#if !_FS_READONLY
static
FRESULT sync (	/* FR_OK: successful, FR_DISK_ERR: failed */
	FATFS *fs	/* File system object */
)
{
     990:	defffc04 	addi	sp,sp,-16
	FRESULT res;


	res = move_window(fs, 0);
     994:	000b883a 	mov	r5,zero
#if !_FS_READONLY
static
FRESULT sync (	/* FR_OK: successful, FR_DISK_ERR: failed */
	FATFS *fs	/* File system object */
)
{
     998:	dc000015 	stw	r16,0(sp)
     99c:	dfc00315 	stw	ra,12(sp)
     9a0:	dc800215 	stw	r18,8(sp)
     9a4:	dc400115 	stw	r17,4(sp)
     9a8:	2021883a 	mov	r16,r4
	FRESULT res;


	res = move_window(fs, 0);
     9ac:	00008900 	call	890 <move_window>
	if (res == FR_OK) {
     9b0:	1000081e 	bne	r2,zero,9d4 <sync+0x44>
		/* Update FSInfo sector if needed */
		if (fs->fs_type == FS_FAT32 && fs->fsi_flag) {
     9b4:	80c00003 	ldbu	r3,0(r16)
     9b8:	008000c4 	movi	r2,3
     9bc:	18800b26 	beq	r3,r2,9ec <sync+0x5c>
			/* Write it into the FSInfo sector */
			disk_write(fs->drv, fs->win, fs->fsi_sector, 1);
			fs->fsi_flag = 0;
		}
		/* Make sure that no pending write process in the physical drive */
		if (disk_ioctl(fs->drv, CTRL_SYNC, 0) != RES_OK)
     9c0:	81000043 	ldbu	r4,1(r16)
     9c4:	000b883a 	mov	r5,zero
     9c8:	000d883a 	mov	r6,zero
     9cc:	0004c880 	call	4c88 <disk_ioctl>
     9d0:	1004c03a 	cmpne	r2,r2,zero
			res = FR_DISK_ERR;
	}

	return res;
}
     9d4:	dfc00317 	ldw	ra,12(sp)
     9d8:	dc800217 	ldw	r18,8(sp)
     9dc:	dc400117 	ldw	r17,4(sp)
     9e0:	dc000017 	ldw	r16,0(sp)
     9e4:	dec00404 	addi	sp,sp,16
     9e8:	f800283a 	ret


	res = move_window(fs, 0);
	if (res == FR_OK) {
		/* Update FSInfo sector if needed */
		if (fs->fs_type == FS_FAT32 && fs->fsi_flag) {
     9ec:	80800143 	ldbu	r2,5(r16)
     9f0:	103ff326 	beq	r2,zero,9c0 <__alt_mem_onchip_flash_0_data+0xf0f009c0>
			fs->winsect = 0;
			/* Create FSInfo structure */
			mem_set(fs->win, 0, 512);
     9f4:	81400c04 	addi	r5,r16,48

	res = move_window(fs, 0);
	if (res == FR_OK) {
		/* Update FSInfo sector if needed */
		if (fs->fs_type == FS_FAT32 && fs->fsi_flag) {
			fs->winsect = 0;
     9f8:	80000b15 	stw	zero,44(r16)
/*-----------------------------------------------------------------------*/
/* Clean-up cached data                                                  */
/*-----------------------------------------------------------------------*/
#if !_FS_READONLY
static
FRESULT sync (	/* FR_OK: successful, FR_DISK_ERR: failed */
     9fc:	80c08c04 	addi	r3,r16,560
}

/* Fill memory */
static
void mem_set (void* dst, int val, UINT cnt) {
	BYTE *d = (BYTE*)dst;
     a00:	2805883a 	mov	r2,r5

	while (cnt--)
		*d++ = (BYTE)val;
     a04:	10000005 	stb	zero,0(r2)
     a08:	10800044 	addi	r2,r2,1
/* Fill memory */
static
void mem_set (void* dst, int val, UINT cnt) {
	BYTE *d = (BYTE*)dst;

	while (cnt--)
     a0c:	10fffd1e 	bne	r2,r3,a04 <__alt_mem_onchip_flash_0_data+0xf0f00a04>
			/* Create FSInfo structure */
			mem_set(fs->win, 0, 512);
			ST_WORD(fs->win+BS_55AA, 0xAA55);
			ST_DWORD(fs->win+FSI_LeadSig, 0x41615252);
			ST_DWORD(fs->win+FSI_StrucSig, 0x61417272);
			ST_DWORD(fs->win+FSI_Free_Count, fs->free_clust);
     a10:	80c00417 	ldw	r3,16(r16)
			ST_DWORD(fs->win+FSI_Nxt_Free, fs->last_clust);
     a14:	80800317 	ldw	r2,12(r16)
		/* Update FSInfo sector if needed */
		if (fs->fs_type == FS_FAT32 && fs->fsi_flag) {
			fs->winsect = 0;
			/* Create FSInfo structure */
			mem_set(fs->win, 0, 512);
			ST_WORD(fs->win+BS_55AA, 0xAA55);
     a18:	04801544 	movi	r18,85
			ST_DWORD(fs->win+FSI_LeadSig, 0x41615252);
			ST_DWORD(fs->win+FSI_StrucSig, 0x61417272);
			ST_DWORD(fs->win+FSI_Free_Count, fs->free_clust);
     a1c:	1822d23a 	srli	r17,r3,8
     a20:	181ed43a 	srli	r15,r3,16
     a24:	181cd63a 	srli	r14,r3,24
			ST_DWORD(fs->win+FSI_Nxt_Free, fs->last_clust);
     a28:	101ad23a 	srli	r13,r2,8
     a2c:	1018d43a 	srli	r12,r2,16
     a30:	1016d63a 	srli	r11,r2,24
			/* Write it into the FSInfo sector */
			disk_write(fs->drv, fs->win, fs->fsi_sector, 1);
     a34:	81000043 	ldbu	r4,1(r16)
     a38:	81800517 	ldw	r6,20(r16)
		if (fs->fs_type == FS_FAT32 && fs->fsi_flag) {
			fs->winsect = 0;
			/* Create FSInfo structure */
			mem_set(fs->win, 0, 512);
			ST_WORD(fs->win+BS_55AA, 0xAA55);
			ST_DWORD(fs->win+FSI_LeadSig, 0x41615252);
     a3c:	02801484 	movi	r10,82
     a40:	01c01844 	movi	r7,97
     a44:	02001044 	movi	r8,65
			ST_DWORD(fs->win+FSI_StrucSig, 0x61417272);
     a48:	02401c84 	movi	r9,114
		/* Update FSInfo sector if needed */
		if (fs->fs_type == FS_FAT32 && fs->fsi_flag) {
			fs->winsect = 0;
			/* Create FSInfo structure */
			mem_set(fs->win, 0, 512);
			ST_WORD(fs->win+BS_55AA, 0xAA55);
     a4c:	84808b85 	stb	r18,558(r16)
     a50:	04bfea84 	movi	r18,-86
			ST_DWORD(fs->win+FSI_LeadSig, 0x41615252);
     a54:	81c00c85 	stb	r7,50(r16)
			ST_DWORD(fs->win+FSI_StrucSig, 0x61417272);
     a58:	81c085c5 	stb	r7,535(r16)
		/* Update FSInfo sector if needed */
		if (fs->fs_type == FS_FAT32 && fs->fsi_flag) {
			fs->winsect = 0;
			/* Create FSInfo structure */
			mem_set(fs->win, 0, 512);
			ST_WORD(fs->win+BS_55AA, 0xAA55);
     a5c:	84808bc5 	stb	r18,559(r16)
			ST_DWORD(fs->win+FSI_LeadSig, 0x41615252);
     a60:	82800c05 	stb	r10,48(r16)
     a64:	82800c45 	stb	r10,49(r16)
     a68:	82000cc5 	stb	r8,51(r16)
			ST_DWORD(fs->win+FSI_StrucSig, 0x61417272);
     a6c:	82408505 	stb	r9,532(r16)
     a70:	82408545 	stb	r9,533(r16)
     a74:	82008585 	stb	r8,534(r16)
			ST_DWORD(fs->win+FSI_Free_Count, fs->free_clust);
     a78:	80c08605 	stb	r3,536(r16)
     a7c:	84408645 	stb	r17,537(r16)
     a80:	83c08685 	stb	r15,538(r16)
     a84:	838086c5 	stb	r14,539(r16)
			ST_DWORD(fs->win+FSI_Nxt_Free, fs->last_clust);
     a88:	80808705 	stb	r2,540(r16)
     a8c:	83408745 	stb	r13,541(r16)
     a90:	83008785 	stb	r12,542(r16)
     a94:	82c087c5 	stb	r11,543(r16)
			/* Write it into the FSInfo sector */
			disk_write(fs->drv, fs->win, fs->fsi_sector, 1);
     a98:	01c00044 	movi	r7,1
     a9c:	0004b340 	call	4b34 <disk_write>
			fs->fsi_flag = 0;
     aa0:	80000145 	stb	zero,5(r16)
     aa4:	003fc606 	br	9c0 <__alt_mem_onchip_flash_0_data+0xf0f009c0>

00000aa8 <validate>:
static
FRESULT validate (	/* FR_OK(0): The object is valid, !=0: Invalid */
	FATFS *fs,		/* Pointer to the file system object */
	WORD id			/* Member id of the target object to be checked */
)
{
     aa8:	deffff04 	addi	sp,sp,-4
     aac:	dfc00015 	stw	ra,0(sp)
	if (!fs || !fs->fs_type || fs->id != id)
     ab0:	20000226 	beq	r4,zero,abc <validate+0x14>
     ab4:	20800003 	ldbu	r2,0(r4)
     ab8:	1000041e 	bne	r2,zero,acc <validate+0x24>
		return FR_INVALID_OBJECT;
     abc:	00800244 	movi	r2,9

	if (disk_status(fs->drv) & STA_NOINIT)
		return FR_NOT_READY;

	return FR_OK;
}
     ac0:	dfc00017 	ldw	ra,0(sp)
     ac4:	dec00104 	addi	sp,sp,4
     ac8:	f800283a 	ret
FRESULT validate (	/* FR_OK(0): The object is valid, !=0: Invalid */
	FATFS *fs,		/* Pointer to the file system object */
	WORD id			/* Member id of the target object to be checked */
)
{
	if (!fs || !fs->fs_type || fs->id != id)
     acc:	2080018b 	ldhu	r2,6(r4)
     ad0:	297fffcc 	andi	r5,r5,65535
     ad4:	117ff91e 	bne	r2,r5,abc <__alt_mem_onchip_flash_0_data+0xf0f00abc>
		return FR_INVALID_OBJECT;

	ENTER_FF(fs);		/* Lock file system */

	if (disk_status(fs->drv) & STA_NOINIT)
     ad8:	21000043 	ldbu	r4,1(r4)
     adc:	00047ac0 	call	47ac <disk_status>
     ae0:	1080004c 	andi	r2,r2,1
     ae4:	10000226 	beq	r2,zero,af0 <validate+0x48>
		return FR_NOT_READY;
     ae8:	008000c4 	movi	r2,3
     aec:	003ff406 	br	ac0 <__alt_mem_onchip_flash_0_data+0xf0f00ac0>

	return FR_OK;
     af0:	0005883a 	mov	r2,zero
     af4:	003ff206 	br	ac0 <__alt_mem_onchip_flash_0_data+0xf0f00ac0>

00000af8 <check_fs>:
static
BYTE check_fs (	/* 0:FAT-VBR, 1:Valid BR but not FAT, 2:Not a BR, 3:Disk error */
	FATFS *fs,	/* File system object */
	DWORD sect	/* Sector# (lba) to check if it is an FAT boot record or not */
)
{
     af8:	defffe04 	addi	sp,sp,-8
     afc:	dc000015 	stw	r16,0(sp)
     b00:	dfc00115 	stw	ra,4(sp)
     b04:	2021883a 	mov	r16,r4
	if (disk_read(fs->drv, fs->win, sect, 1) != RES_OK)	/* Load boot record */
     b08:	21000043 	ldbu	r4,1(r4)
     b0c:	280d883a 	mov	r6,r5
     b10:	01c00044 	movi	r7,1
     b14:	81400c04 	addi	r5,r16,48
     b18:	0004a1c0 	call	4a1c <disk_read>
     b1c:	10000526 	beq	r2,zero,b34 <check_fs+0x3c>
		return 3;
     b20:	008000c4 	movi	r2,3
		return 0;
	if ((LD_DWORD(&fs->win[BS_FilSysType32]) & 0xFFFFFF) == 0x544146)
		return 0;

	return 1;
}
     b24:	dfc00117 	ldw	ra,4(sp)
     b28:	dc000017 	ldw	r16,0(sp)
     b2c:	dec00204 	addi	sp,sp,8
     b30:	f800283a 	ret
	DWORD sect	/* Sector# (lba) to check if it is an FAT boot record or not */
)
{
	if (disk_read(fs->drv, fs->win, sect, 1) != RES_OK)	/* Load boot record */
		return 3;
	if (LD_WORD(&fs->win[BS_55AA]) != 0xAA55)		/* Check record signature (always placed at offset 510 even if the sector size is >512) */
     b34:	80c08bc3 	ldbu	r3,559(r16)
     b38:	80808b83 	ldbu	r2,558(r16)
     b3c:	1806923a 	slli	r3,r3,8
     b40:	1886b03a 	or	r3,r3,r2
     b44:	18ffffcc 	andi	r3,r3,65535
     b48:	18e0001c 	xori	r3,r3,32768
     b4c:	18e00004 	addi	r3,r3,-32768
     b50:	00aa9544 	movi	r2,-21931
     b54:	18800526 	beq	r3,r2,b6c <check_fs+0x74>
		return 2;
     b58:	00800084 	movi	r2,2
		return 0;
	if ((LD_DWORD(&fs->win[BS_FilSysType32]) & 0xFFFFFF) == 0x544146)
		return 0;

	return 1;
}
     b5c:	dfc00117 	ldw	ra,4(sp)
     b60:	dc000017 	ldw	r16,0(sp)
     b64:	dec00204 	addi	sp,sp,8
     b68:	f800283a 	ret
	if (disk_read(fs->drv, fs->win, sect, 1) != RES_OK)	/* Load boot record */
		return 3;
	if (LD_WORD(&fs->win[BS_55AA]) != 0xAA55)		/* Check record signature (always placed at offset 510 even if the sector size is >512) */
		return 2;

	if ((LD_DWORD(&fs->win[BS_FilSysType]) & 0xFFFFFF) == 0x544146)	/* Check "FAT" string */
     b6c:	81001a43 	ldbu	r4,105(r16)
     b70:	81401a03 	ldbu	r5,104(r16)
     b74:	808019c3 	ldbu	r2,103(r16)
     b78:	2008963a 	slli	r4,r4,24
     b7c:	280a943a 	slli	r5,r5,16
     b80:	80c01983 	ldbu	r3,102(r16)
     b84:	1004923a 	slli	r2,r2,8
     b88:	2148b03a 	or	r4,r4,r5
     b8c:	20c8b03a 	or	r4,r4,r3
     b90:	2088b03a 	or	r4,r4,r2
     b94:	00c04034 	movhi	r3,256
     b98:	18ffffc4 	addi	r3,r3,-1
     b9c:	20c8703a 	and	r4,r4,r3
     ba0:	00801534 	movhi	r2,84
     ba4:	10905184 	addi	r2,r2,16710
     ba8:	20800d26 	beq	r4,r2,be0 <check_fs+0xe8>
		return 0;
	if ((LD_DWORD(&fs->win[BS_FilSysType32]) & 0xFFFFFF) == 0x544146)
     bac:	81002143 	ldbu	r4,133(r16)
     bb0:	81c02103 	ldbu	r7,132(r16)
     bb4:	814020c3 	ldbu	r5,131(r16)
     bb8:	2008963a 	slli	r4,r4,24
     bbc:	380e943a 	slli	r7,r7,16
     bc0:	81802083 	ldbu	r6,130(r16)
     bc4:	280a923a 	slli	r5,r5,8
     bc8:	21c8b03a 	or	r4,r4,r7
     bcc:	2188b03a 	or	r4,r4,r6
     bd0:	2148b03a 	or	r4,r4,r5
     bd4:	20c6703a 	and	r3,r4,r3
     bd8:	1884c03a 	cmpne	r2,r3,r2
     bdc:	003fd106 	br	b24 <__alt_mem_onchip_flash_0_data+0xf0f00b24>
		return 3;
	if (LD_WORD(&fs->win[BS_55AA]) != 0xAA55)		/* Check record signature (always placed at offset 510 even if the sector size is >512) */
		return 2;

	if ((LD_DWORD(&fs->win[BS_FilSysType]) & 0xFFFFFF) == 0x544146)	/* Check "FAT" string */
		return 0;
     be0:	0005883a 	mov	r2,zero
     be4:	003fcf06 	br	b24 <__alt_mem_onchip_flash_0_data+0xf0f00b24>

00000be8 <chk_mounted>:
	BYTE fmt, b, pi, *tbl;
	UINT vol;
	DSTATUS stat;
	DWORD bsect, fasize, tsect, sysect, nclst, szbfat;
	WORD nrsv;
	const TCHAR *p = *path;
     be8:	20800017 	ldw	r2,0(r4)
FRESULT chk_mounted (	/* FR_OK(0): successful, !=0: any error occurred */
	const TCHAR **path,	/* Pointer to pointer to the path name (drive number) */
	FATFS **rfs,		/* Pointer to pointer to the found file system object */
	BYTE chk_wp			/* !=0: Check media write protection for write access */
)
{
     bec:	defff604 	addi	sp,sp,-40
     bf0:	dfc00915 	stw	ra,36(sp)
     bf4:	ddc00815 	stw	r23,32(sp)
     bf8:	dd800715 	stw	r22,28(sp)
     bfc:	dd400615 	stw	r21,24(sp)
     c00:	dd000515 	stw	r20,20(sp)
     c04:	dcc00415 	stw	r19,16(sp)
     c08:	dc800315 	stw	r18,12(sp)
     c0c:	dc400215 	stw	r17,8(sp)
     c10:	dc000115 	stw	r16,4(sp)
	WORD nrsv;
	const TCHAR *p = *path;
	FATFS *fs;

	/* Get logical drive number from the path name */
	vol = p[0] - '0';					/* Is there a drive number? */
     c14:	10c00007 	ldb	r3,0(r2)
	if (vol <= 9 && p[1] == ':') {		/* Found a drive number, get and strip it */
     c18:	01c00244 	movi	r7,9
	WORD nrsv;
	const TCHAR *p = *path;
	FATFS *fs;

	/* Get logical drive number from the path name */
	vol = p[0] - '0';					/* Is there a drive number? */
     c1c:	18fff404 	addi	r3,r3,-48
	if (vol <= 9 && p[1] == ':') {		/* Found a drive number, get and strip it */
     c20:	38c00336 	bltu	r7,r3,c30 <chk_mounted+0x48>
     c24:	12000047 	ldb	r8,1(r2)
     c28:	01c00e84 	movi	r7,58
     c2c:	41c01e26 	beq	r8,r7,ca8 <chk_mounted+0xc0>
	}

	/* Check if the file system object is valid or not */
	if (vol >= _VOLUMES) 				/* Is the drive number valid? */
		return FR_INVALID_DRIVE;
	*rfs = fs = FatFs[vol];				/* Return pointer to the corresponding file system object */
     c30:	d4270617 	ldw	r16,-25576(gp)
     c34:	2c000015 	stw	r16,0(r5)
	if (!fs) return FR_NOT_ENABLED;		/* Is the file system object available? */
     c38:	80000f26 	beq	r16,zero,c78 <chk_mounted+0x90>

	ENTER_FF(fs);						/* Lock file system */

	if (fs->fs_type) {					/* If the logical drive has been mounted */
     c3c:	80800003 	ldbu	r2,0(r16)
     c40:	10001e26 	beq	r2,zero,cbc <chk_mounted+0xd4>
		stat = disk_status(fs->drv);
     c44:	81000043 	ldbu	r4,1(r16)
     c48:	d9800015 	stw	r6,0(sp)
     c4c:	00047ac0 	call	47ac <disk_status>
		if (!(stat & STA_NOINIT)) {		/* and the physical drive is kept initialized (has not been changed), */
     c50:	10c0004c 	andi	r3,r2,1
     c54:	d9800017 	ldw	r6,0(sp)
     c58:	1800181e 	bne	r3,zero,cbc <chk_mounted+0xd4>
			if (!_FS_READONLY && chk_wp && (stat & STA_PROTECT))	/* Check write protection if needed */
     c5c:	31803fcc 	andi	r6,r6,255
     c60:	30003126 	beq	r6,zero,d28 <chk_mounted+0x140>
     c64:	1080010c 	andi	r2,r2,4
     c68:	10803fcc 	andi	r2,r2,255
     c6c:	10002e26 	beq	r2,zero,d28 <chk_mounted+0x140>
	fs->drv = LD2PD(vol);				/* Bind the logical drive and a physical drive */
	stat = disk_initialize(fs->drv);	/* Initialize low level disk I/O layer */
	if (stat & STA_NOINIT)				/* Check if the initialization succeeded */
		return FR_NOT_READY;			/* Failed to initialize due to no media or hard error */
	if (!_FS_READONLY && chk_wp && (stat & STA_PROTECT))	/* Check disk write protection if needed */
		return FR_WRITE_PROTECTED;
     c70:	00800284 	movi	r2,10
     c74:	00000106 	br	c7c <chk_mounted+0x94>

	/* Check if the file system object is valid or not */
	if (vol >= _VOLUMES) 				/* Is the drive number valid? */
		return FR_INVALID_DRIVE;
	*rfs = fs = FatFs[vol];				/* Return pointer to the corresponding file system object */
	if (!fs) return FR_NOT_ENABLED;		/* Is the file system object available? */
     c78:	00800304 	movi	r2,12
#if _FS_SHARE				/* Clear file lock semaphores */
	clear_lock(fs);
#endif

	return FR_OK;
}
     c7c:	dfc00917 	ldw	ra,36(sp)
     c80:	ddc00817 	ldw	r23,32(sp)
     c84:	dd800717 	ldw	r22,28(sp)
     c88:	dd400617 	ldw	r21,24(sp)
     c8c:	dd000517 	ldw	r20,20(sp)
     c90:	dcc00417 	ldw	r19,16(sp)
     c94:	dc800317 	ldw	r18,12(sp)
     c98:	dc400217 	ldw	r17,8(sp)
     c9c:	dc000117 	ldw	r16,4(sp)
     ca0:	dec00a04 	addi	sp,sp,40
     ca4:	f800283a 	ret
	FATFS *fs;

	/* Get logical drive number from the path name */
	vol = p[0] - '0';					/* Is there a drive number? */
	if (vol <= 9 && p[1] == ':') {		/* Found a drive number, get and strip it */
		p += 2; *path = p;				/* Return pointer to the path name */
     ca8:	10800084 	addi	r2,r2,2
     cac:	20800015 	stw	r2,0(r4)
		vol = 0;						/* Use drive 0 */
#endif
	}

	/* Check if the file system object is valid or not */
	if (vol >= _VOLUMES) 				/* Is the drive number valid? */
     cb0:	183fdf26 	beq	r3,zero,c30 <__alt_mem_onchip_flash_0_data+0xf0f00c30>
		return FR_INVALID_DRIVE;
     cb4:	008002c4 	movi	r2,11
     cb8:	003ff006 	br	c7c <__alt_mem_onchip_flash_0_data+0xf0f00c7c>
	}

	/* The file system object is not valid. */
	/* Following code attempts to mount the volume. (analyze BPB and initialize the fs object) */

	fs->fs_type = 0;					/* Clear the file system object */
     cbc:	80000005 	stb	zero,0(r16)
	fs->drv = LD2PD(vol);				/* Bind the logical drive and a physical drive */
     cc0:	80000045 	stb	zero,1(r16)
	stat = disk_initialize(fs->drv);	/* Initialize low level disk I/O layer */
     cc4:	0009883a 	mov	r4,zero
     cc8:	d9800015 	stw	r6,0(sp)
     ccc:	000483c0 	call	483c <disk_initialize>
	if (stat & STA_NOINIT)				/* Check if the initialization succeeded */
     cd0:	10c0004c 	andi	r3,r2,1
     cd4:	d9800017 	ldw	r6,0(sp)
     cd8:	18000226 	beq	r3,zero,ce4 <chk_mounted+0xfc>
		return FR_NOT_READY;			/* Failed to initialize due to no media or hard error */
     cdc:	008000c4 	movi	r2,3
     ce0:	003fe606 	br	c7c <__alt_mem_onchip_flash_0_data+0xf0f00c7c>
	if (!_FS_READONLY && chk_wp && (stat & STA_PROTECT))	/* Check disk write protection if needed */
     ce4:	31803fcc 	andi	r6,r6,255
     ce8:	30000326 	beq	r6,zero,cf8 <chk_mounted+0x110>
     cec:	1080010c 	andi	r2,r2,4
     cf0:	10803fcc 	andi	r2,r2,255
     cf4:	103fde1e 	bne	r2,zero,c70 <__alt_mem_onchip_flash_0_data+0xf0f00c70>
#if _MAX_SS != 512						/* Get disk sector size (variable sector size cfg only) */
	if (disk_ioctl(fs->drv, GET_SECTOR_SIZE, &fs->ssize) != RES_OK)
		return FR_DISK_ERR;
#endif
	/* Search FAT partition on the drive. Supports only generic partitionings, FDISK and SFD. */
	fmt = check_fs(fs, bsect = 0);		/* Load sector 0 and check if it is an FAT-VBR (in SFD) */
     cf8:	8009883a 	mov	r4,r16
     cfc:	000b883a 	mov	r5,zero
     d00:	0000af80 	call	af8 <check_fs>
	if (LD2PT(vol) && !fmt) fmt = 1;	/* Force non-SFD if the volume is forced partition */
	if (fmt == 1) {						/* Not an FAT-VBR, the physical drive can be partitioned */
     d04:	10803fcc 	andi	r2,r2,255
     d08:	00c00044 	movi	r3,1
     d0c:	10c07c26 	beq	r2,r3,f00 <chk_mounted+0x318>
#if _MAX_SS != 512						/* Get disk sector size (variable sector size cfg only) */
	if (disk_ioctl(fs->drv, GET_SECTOR_SIZE, &fs->ssize) != RES_OK)
		return FR_DISK_ERR;
#endif
	/* Search FAT partition on the drive. Supports only generic partitionings, FDISK and SFD. */
	fmt = check_fs(fs, bsect = 0);		/* Load sector 0 and check if it is an FAT-VBR (in SFD) */
     d10:	0023883a 	mov	r17,zero
		if (tbl[4]) {						/* Is the partition existing? */
			bsect = LD_DWORD(&tbl[8]);		/* Partition offset in LBA */
			fmt = check_fs(fs, bsect);		/* Check the partition */
		}
	}
	if (fmt == 3) return FR_DISK_ERR;
     d14:	00c000c4 	movi	r3,3
     d18:	10c08a26 	beq	r2,r3,f44 <chk_mounted+0x35c>
	if (fmt) return FR_NO_FILESYSTEM;		/* No FAT volume is found */
     d1c:	10000426 	beq	r2,zero,d30 <chk_mounted+0x148>
     d20:	00800344 	movi	r2,13
     d24:	003fd506 	br	c7c <__alt_mem_onchip_flash_0_data+0xf0f00c7c>
	if (fs->fs_type) {					/* If the logical drive has been mounted */
		stat = disk_status(fs->drv);
		if (!(stat & STA_NOINIT)) {		/* and the physical drive is kept initialized (has not been changed), */
			if (!_FS_READONLY && chk_wp && (stat & STA_PROTECT))	/* Check write protection if needed */
				return FR_WRITE_PROTECTED;
			return FR_OK;				/* The file system object is valid */
     d28:	0005883a 	mov	r2,zero
     d2c:	003fd306 	br	c7c <__alt_mem_onchip_flash_0_data+0xf0f00c7c>
	if (fmt == 3) return FR_DISK_ERR;
	if (fmt) return FR_NO_FILESYSTEM;		/* No FAT volume is found */

	/* An FAT volume is found. Following code initializes the file system object */

	if (LD_WORD(fs->win+BPB_BytsPerSec) != SS(fs))		/* (BPB_BytsPerSec must be equal to the physical sector size) */
     d30:	80c00f03 	ldbu	r3,60(r16)
     d34:	80800ec3 	ldbu	r2,59(r16)
     d38:	1806923a 	slli	r3,r3,8
     d3c:	1886b03a 	or	r3,r3,r2
     d40:	18ffffcc 	andi	r3,r3,65535
     d44:	18e0001c 	xori	r3,r3,32768
     d48:	18e00004 	addi	r3,r3,-32768
     d4c:	00808004 	movi	r2,512
     d50:	18bff31e 	bne	r3,r2,d20 <__alt_mem_onchip_flash_0_data+0xf0f00d20>
		return FR_NO_FILESYSTEM;

	fasize = LD_WORD(fs->win+BPB_FATSz16);				/* Number of sectors per FAT */
     d54:	84c011c3 	ldbu	r19,71(r16)
     d58:	80801183 	ldbu	r2,70(r16)
     d5c:	9826923a 	slli	r19,r19,8
     d60:	98a6b03a 	or	r19,r19,r2
	if (!fasize) fasize = LD_DWORD(fs->win+BPB_FATSz32);
     d64:	98000a1e 	bne	r19,zero,d90 <chk_mounted+0x1a8>
     d68:	84c015c3 	ldbu	r19,87(r16)
     d6c:	81001583 	ldbu	r4,86(r16)
     d70:	80801543 	ldbu	r2,85(r16)
     d74:	9826963a 	slli	r19,r19,24
     d78:	2008943a 	slli	r4,r4,16
     d7c:	80c01503 	ldbu	r3,84(r16)
     d80:	1004923a 	slli	r2,r2,8
     d84:	9926b03a 	or	r19,r19,r4
     d88:	98e6b03a 	or	r19,r19,r3
     d8c:	98a6b03a 	or	r19,r19,r2
	fs->fsize = fasize;

	fs->n_fats = b = fs->win[BPB_NumFATs];				/* Number of FAT copies */
     d90:	80801003 	ldbu	r2,64(r16)
	if (LD_WORD(fs->win+BPB_BytsPerSec) != SS(fs))		/* (BPB_BytsPerSec must be equal to the physical sector size) */
		return FR_NO_FILESYSTEM;

	fasize = LD_WORD(fs->win+BPB_FATSz16);				/* Number of sectors per FAT */
	if (!fasize) fasize = LD_DWORD(fs->win+BPB_FATSz32);
	fs->fsize = fasize;
     d94:	84c00715 	stw	r19,28(r16)

	fs->n_fats = b = fs->win[BPB_NumFATs];				/* Number of FAT copies */
	if (b != 1 && b != 2) return FR_NO_FILESYSTEM;		/* (Must be 1 or 2) */
     d98:	01000044 	movi	r4,1
     d9c:	10ffffc4 	addi	r3,r2,-1

	fasize = LD_WORD(fs->win+BPB_FATSz16);				/* Number of sectors per FAT */
	if (!fasize) fasize = LD_DWORD(fs->win+BPB_FATSz32);
	fs->fsize = fasize;

	fs->n_fats = b = fs->win[BPB_NumFATs];				/* Number of FAT copies */
     da0:	808000c5 	stb	r2,3(r16)
	if (b != 1 && b != 2) return FR_NO_FILESYSTEM;		/* (Must be 1 or 2) */
     da4:	18c03fcc 	andi	r3,r3,255
     da8:	20ffdd36 	bltu	r4,r3,d20 <__alt_mem_onchip_flash_0_data+0xf0f00d20>
	fasize *= b;										/* Number of sectors for FAT area */

	fs->csize = b = fs->win[BPB_SecPerClus];			/* Number of sectors per cluster */
     dac:	81400f43 	ldbu	r5,61(r16)
     db0:	81400085 	stb	r5,2(r16)
	if (!b || (b & (b - 1))) return FR_NO_FILESYSTEM;	/* (Must be power of 2) */
     db4:	283fda26 	beq	r5,zero,d20 <__alt_mem_onchip_flash_0_data+0xf0f00d20>
     db8:	28ffffc4 	addi	r3,r5,-1
     dbc:	1946703a 	and	r3,r3,r5
     dc0:	183fd71e 	bne	r3,zero,d20 <__alt_mem_onchip_flash_0_data+0xf0f00d20>

	fs->n_rootdir = LD_WORD(fs->win+BPB_RootEntCnt);	/* Number of root directory entries */
     dc4:	81001083 	ldbu	r4,66(r16)
     dc8:	80c01043 	ldbu	r3,65(r16)
     dcc:	2008923a 	slli	r4,r4,8
     dd0:	20c6b03a 	or	r3,r4,r3
     dd4:	80c0020d 	sth	r3,8(r16)
	if (fs->n_rootdir % (SS(fs) / SZ_DIR)) return FR_NO_FILESYSTEM;	/* (BPB_RootEntCnt must be sector aligned) */
     dd8:	190003cc 	andi	r4,r3,15
     ddc:	203fd01e 	bne	r4,zero,d20 <__alt_mem_onchip_flash_0_data+0xf0f00d20>

	tsect = LD_WORD(fs->win+BPB_TotSec16);				/* Number of sectors on the volume */
     de0:	81801103 	ldbu	r6,68(r16)
     de4:	810010c3 	ldbu	r4,67(r16)
     de8:	300c923a 	slli	r6,r6,8
     dec:	3108b03a 	or	r4,r6,r4
	if (!tsect) tsect = LD_DWORD(fs->win+BPB_TotSec32);
     df0:	20000a1e 	bne	r4,zero,e1c <chk_mounted+0x234>
     df4:	820014c3 	ldbu	r8,83(r16)
     df8:	81c01483 	ldbu	r7,82(r16)
     dfc:	81001443 	ldbu	r4,81(r16)
     e00:	4010963a 	slli	r8,r8,24
     e04:	380e943a 	slli	r7,r7,16
     e08:	81801403 	ldbu	r6,80(r16)
     e0c:	2008923a 	slli	r4,r4,8
     e10:	41ceb03a 	or	r7,r8,r7
     e14:	398cb03a 	or	r6,r7,r6
     e18:	3108b03a 	or	r4,r6,r4

	nrsv = LD_WORD(fs->win+BPB_RsvdSecCnt);				/* Number of reserved sectors */
     e1c:	85000fc3 	ldbu	r20,63(r16)
     e20:	81800f83 	ldbu	r6,62(r16)
     e24:	a028923a 	slli	r20,r20,8
     e28:	a1a8b03a 	or	r20,r20,r6
	if (!nrsv) return FR_NO_FILESYSTEM;					/* (BPB_RsvdSecCnt must not be 0) */
     e2c:	a53fffcc 	andi	r20,r20,65535
     e30:	a03fbb26 	beq	r20,zero,d20 <__alt_mem_onchip_flash_0_data+0xf0f00d20>

	/* Determine the FAT sub type */
	sysect = nrsv + fasize + fs->n_rootdir / (SS(fs) / SZ_DIR);	/* RSV+FAT+DIR */
     e34:	1dbfffcc 	andi	r22,r3,65535
	if (!fasize) fasize = LD_DWORD(fs->win+BPB_FATSz32);
	fs->fsize = fasize;

	fs->n_fats = b = fs->win[BPB_NumFATs];				/* Number of FAT copies */
	if (b != 1 && b != 2) return FR_NO_FILESYSTEM;		/* (Must be 1 or 2) */
	fasize *= b;										/* Number of sectors for FAT area */
     e38:	10803fcc 	andi	r2,r2,255

	nrsv = LD_WORD(fs->win+BPB_RsvdSecCnt);				/* Number of reserved sectors */
	if (!nrsv) return FR_NO_FILESYSTEM;					/* (BPB_RsvdSecCnt must not be 0) */

	/* Determine the FAT sub type */
	sysect = nrsv + fasize + fs->n_rootdir / (SS(fs) / SZ_DIR);	/* RSV+FAT+DIR */
     e3c:	b02ad13a 	srli	r21,r22,4
	if (!fasize) fasize = LD_DWORD(fs->win+BPB_FATSz32);
	fs->fsize = fasize;

	fs->n_fats = b = fs->win[BPB_NumFATs];				/* Number of FAT copies */
	if (b != 1 && b != 2) return FR_NO_FILESYSTEM;		/* (Must be 1 or 2) */
	fasize *= b;										/* Number of sectors for FAT area */
     e40:	98af383a 	mul	r23,r19,r2

	nrsv = LD_WORD(fs->win+BPB_RsvdSecCnt);				/* Number of reserved sectors */
	if (!nrsv) return FR_NO_FILESYSTEM;					/* (BPB_RsvdSecCnt must not be 0) */

	/* Determine the FAT sub type */
	sysect = nrsv + fasize + fs->n_rootdir / (SS(fs) / SZ_DIR);	/* RSV+FAT+DIR */
     e44:	ad2b883a 	add	r21,r21,r20
     e48:	adeb883a 	add	r21,r21,r23
	if (tsect < sysect) return FR_NO_FILESYSTEM;		/* (Invalid volume size) */
     e4c:	257fb436 	bltu	r4,r21,d20 <__alt_mem_onchip_flash_0_data+0xf0f00d20>
	nclst = (tsect - sysect) / fs->csize;				/* Number of clusters */
     e50:	2549c83a 	sub	r4,r4,r21
     e54:	00068300 	call	6830 <__udivsi3>
	if (!nclst) return FR_NO_FILESYSTEM;				/* (Invalid volume size) */
     e58:	103fb126 	beq	r2,zero,d20 <__alt_mem_onchip_flash_0_data+0xf0f00d20>
	fmt = FS_FAT12;
	if (nclst >= MIN_FAT16) fmt = FS_FAT16;
     e5c:	00c3fd44 	movi	r3,4085
     e60:	1880982e 	bgeu	r3,r2,10c4 <chk_mounted+0x4dc>
	if (nclst >= MIN_FAT32) fmt = FS_FAT32;
     e64:	00fffd54 	movui	r3,65525
     e68:	18808036 	bltu	r3,r2,106c <chk_mounted+0x484>
	sysect = nrsv + fasize + fs->n_rootdir / (SS(fs) / SZ_DIR);	/* RSV+FAT+DIR */
	if (tsect < sysect) return FR_NO_FILESYSTEM;		/* (Invalid volume size) */
	nclst = (tsect - sysect) / fs->csize;				/* Number of clusters */
	if (!nclst) return FR_NO_FILESYSTEM;				/* (Invalid volume size) */
	fmt = FS_FAT12;
	if (nclst >= MIN_FAT16) fmt = FS_FAT16;
     e6c:	04800084 	movi	r18,2
	if (nclst >= MIN_FAT32) fmt = FS_FAT32;

	/* Boundaries and Limits */
	fs->n_fatent = nclst + 2;							/* Number of FAT entries */
     e70:	10800084 	addi	r2,r2,2
	fs->database = bsect + sysect;						/* Data start sector */
     e74:	ac6b883a 	add	r21,r21,r17
	fs->fatbase = bsect + nrsv; 						/* FAT start sector */
     e78:	8d29883a 	add	r20,r17,r20
	fmt = FS_FAT12;
	if (nclst >= MIN_FAT16) fmt = FS_FAT16;
	if (nclst >= MIN_FAT32) fmt = FS_FAT32;

	/* Boundaries and Limits */
	fs->n_fatent = nclst + 2;							/* Number of FAT entries */
     e7c:	80800615 	stw	r2,24(r16)
	fs->database = bsect + sysect;						/* Data start sector */
     e80:	85400a15 	stw	r21,40(r16)
	fs->fatbase = bsect + nrsv; 						/* FAT start sector */
     e84:	85000815 	stw	r20,32(r16)
	if (fmt == FS_FAT32) {
		if (fs->n_rootdir) return FR_NO_FILESYSTEM;		/* (BPB_RootEntCnt must be 0) */
		fs->dirbase = LD_DWORD(fs->win+BPB_RootClus);	/* Root directory start cluster */
		szbfat = fs->n_fatent * 4;						/* (Required FAT size) */
	} else {
		if (!fs->n_rootdir)	return FR_NO_FILESYSTEM;	/* (BPB_RootEntCnt must not be 0) */
     e88:	b03fa526 	beq	r22,zero,d20 <__alt_mem_onchip_flash_0_data+0xf0f00d20>
		fs->dirbase = fs->fatbase + fasize;				/* Root directory start sector */
     e8c:	bd29883a 	add	r20,r23,r20
     e90:	85000915 	stw	r20,36(r16)
		szbfat = (fmt == FS_FAT16) ?					/* (Required FAT size) */
			fs->n_fatent * 2 : fs->n_fatent * 3 / 2 + (fs->n_fatent & 1);
     e94:	91003fcc 	andi	r4,r18,255
     e98:	00c00084 	movi	r3,2
     e9c:	20c07126 	beq	r4,r3,1064 <chk_mounted+0x47c>
     ea0:	1087883a 	add	r3,r2,r2
     ea4:	1887883a 	add	r3,r3,r2
     ea8:	1806d07a 	srli	r3,r3,1
     eac:	1080004c 	andi	r2,r2,1
     eb0:	04800044 	movi	r18,1
     eb4:	1885883a 	add	r2,r3,r2
	}
	if (fs->fsize < (szbfat + (SS(fs) - 1)) / SS(fs))	/* (BPB_FATSz must not be less than required) */
     eb8:	10807fc4 	addi	r2,r2,511
     ebc:	1004d27a 	srli	r2,r2,9
     ec0:	98bf9736 	bltu	r19,r2,d20 <__alt_mem_onchip_flash_0_data+0xf0f00d20>
		return FR_NO_FILESYSTEM;

#if !_FS_READONLY
	/* Initialize cluster allocation information */
	fs->free_clust = 0xFFFFFFFF;
     ec4:	00bfffc4 	movi	r2,-1
     ec8:	80800415 	stw	r2,16(r16)
	fs->last_clust = 0;
     ecc:	80000315 	stw	zero,12(r16)

	/* Get fsinfo if available */
	if (fmt == FS_FAT32) {
     ed0:	90c03fcc 	andi	r3,r18,255
     ed4:	008000c4 	movi	r2,3
     ed8:	18801c26 	beq	r3,r2,f4c <chk_mounted+0x364>
				fs->free_clust = LD_DWORD(fs->win+FSI_Free_Count);
		}
	}
#endif
	fs->fs_type = fmt;		/* FAT sub-type */
	fs->id = ++Fsid;		/* File system mount ID */
     edc:	d0a7070b 	ldhu	r2,-25572(gp)
				fs->last_clust = LD_DWORD(fs->win+FSI_Nxt_Free);
				fs->free_clust = LD_DWORD(fs->win+FSI_Free_Count);
		}
	}
#endif
	fs->fs_type = fmt;		/* FAT sub-type */
     ee0:	84800005 	stb	r18,0(r16)
	fs->id = ++Fsid;		/* File system mount ID */
	fs->winsect = 0;		/* Invalidate sector cache */
     ee4:	80000b15 	stw	zero,44(r16)
				fs->free_clust = LD_DWORD(fs->win+FSI_Free_Count);
		}
	}
#endif
	fs->fs_type = fmt;		/* FAT sub-type */
	fs->id = ++Fsid;		/* File system mount ID */
     ee8:	10800044 	addi	r2,r2,1
     eec:	d0a7070d 	sth	r2,-25572(gp)
     ef0:	8080018d 	sth	r2,6(r16)
	fs->winsect = 0;		/* Invalidate sector cache */
	fs->wflag = 0;
     ef4:	80000105 	stb	zero,4(r16)
#endif
#if _FS_SHARE				/* Clear file lock semaphores */
	clear_lock(fs);
#endif

	return FR_OK;
     ef8:	0005883a 	mov	r2,zero
     efc:	003f5f06 	br	c7c <__alt_mem_onchip_flash_0_data+0xf0f00c7c>
	if (fmt == 1) {						/* Not an FAT-VBR, the physical drive can be partitioned */
		/* Check the partition listed in the partition table */
		pi = LD2PT(vol);
		if (pi) pi--;
		tbl = &fs->win[MBR_Table + pi * SZ_PTE];/* Partition table */
		if (tbl[4]) {						/* Is the partition existing? */
     f00:	80807c83 	ldbu	r2,498(r16)
     f04:	103f8626 	beq	r2,zero,d20 <__alt_mem_onchip_flash_0_data+0xf0f00d20>
			bsect = LD_DWORD(&tbl[8]);		/* Partition offset in LBA */
     f08:	84407e43 	ldbu	r17,505(r16)
     f0c:	81007e03 	ldbu	r4,504(r16)
     f10:	80807dc3 	ldbu	r2,503(r16)
     f14:	8822963a 	slli	r17,r17,24
     f18:	2008943a 	slli	r4,r4,16
     f1c:	80c07d83 	ldbu	r3,502(r16)
     f20:	1004923a 	slli	r2,r2,8
     f24:	8922b03a 	or	r17,r17,r4
     f28:	88e2b03a 	or	r17,r17,r3
     f2c:	88a2b03a 	or	r17,r17,r2
			fmt = check_fs(fs, bsect);		/* Check the partition */
     f30:	8009883a 	mov	r4,r16
     f34:	880b883a 	mov	r5,r17
     f38:	0000af80 	call	af8 <check_fs>
     f3c:	10803fcc 	andi	r2,r2,255
     f40:	003f7406 	br	d14 <__alt_mem_onchip_flash_0_data+0xf0f00d14>
		}
	}
	if (fmt == 3) return FR_DISK_ERR;
     f44:	00800044 	movi	r2,1
     f48:	003f4c06 	br	c7c <__alt_mem_onchip_flash_0_data+0xf0f00c7c>
	fs->last_clust = 0;

	/* Get fsinfo if available */
	if (fmt == FS_FAT32) {
	 	fs->fsi_flag = 0;
		fs->fsi_sector = bsect + LD_WORD(fs->win+BPB_FSInfo);
     f4c:	81801843 	ldbu	r6,97(r16)
     f50:	80801803 	ldbu	r2,96(r16)
		if (disk_read(fs->drv, fs->win, fs->fsi_sector, 1) == RES_OK &&
     f54:	81000043 	ldbu	r4,1(r16)
	fs->last_clust = 0;

	/* Get fsinfo if available */
	if (fmt == FS_FAT32) {
	 	fs->fsi_flag = 0;
		fs->fsi_sector = bsect + LD_WORD(fs->win+BPB_FSInfo);
     f58:	300c923a 	slli	r6,r6,8
	fs->free_clust = 0xFFFFFFFF;
	fs->last_clust = 0;

	/* Get fsinfo if available */
	if (fmt == FS_FAT32) {
	 	fs->fsi_flag = 0;
     f5c:	80000145 	stb	zero,5(r16)
		fs->fsi_sector = bsect + LD_WORD(fs->win+BPB_FSInfo);
		if (disk_read(fs->drv, fs->win, fs->fsi_sector, 1) == RES_OK &&
     f60:	81400c04 	addi	r5,r16,48
	fs->last_clust = 0;

	/* Get fsinfo if available */
	if (fmt == FS_FAT32) {
	 	fs->fsi_flag = 0;
		fs->fsi_sector = bsect + LD_WORD(fs->win+BPB_FSInfo);
     f64:	308cb03a 	or	r6,r6,r2
     f68:	898d883a 	add	r6,r17,r6
     f6c:	81800515 	stw	r6,20(r16)
		if (disk_read(fs->drv, fs->win, fs->fsi_sector, 1) == RES_OK &&
     f70:	01c00044 	movi	r7,1
     f74:	0004a1c0 	call	4a1c <disk_read>
     f78:	103fd81e 	bne	r2,zero,edc <__alt_mem_onchip_flash_0_data+0xf0f00edc>
			LD_WORD(fs->win+BS_55AA) == 0xAA55 &&
     f7c:	80c08bc3 	ldbu	r3,559(r16)
     f80:	80808b83 	ldbu	r2,558(r16)
     f84:	1806923a 	slli	r3,r3,8
     f88:	1886b03a 	or	r3,r3,r2

	/* Get fsinfo if available */
	if (fmt == FS_FAT32) {
	 	fs->fsi_flag = 0;
		fs->fsi_sector = bsect + LD_WORD(fs->win+BPB_FSInfo);
		if (disk_read(fs->drv, fs->win, fs->fsi_sector, 1) == RES_OK &&
     f8c:	18ffffcc 	andi	r3,r3,65535
     f90:	18e0001c 	xori	r3,r3,32768
     f94:	18e00004 	addi	r3,r3,-32768
     f98:	00aa9544 	movi	r2,-21931
     f9c:	18bfcf1e 	bne	r3,r2,edc <__alt_mem_onchip_flash_0_data+0xf0f00edc>
			LD_WORD(fs->win+BS_55AA) == 0xAA55 &&
			LD_DWORD(fs->win+FSI_LeadSig) == 0x41615252 &&
     fa0:	81400cc3 	ldbu	r5,51(r16)
     fa4:	81000c83 	ldbu	r4,50(r16)
     fa8:	80800c43 	ldbu	r2,49(r16)
     fac:	280a963a 	slli	r5,r5,24
     fb0:	2008943a 	slli	r4,r4,16
     fb4:	80c00c03 	ldbu	r3,48(r16)
     fb8:	1004923a 	slli	r2,r2,8
     fbc:	2908b03a 	or	r4,r5,r4
     fc0:	20c6b03a 	or	r3,r4,r3
     fc4:	1886b03a 	or	r3,r3,r2
	/* Get fsinfo if available */
	if (fmt == FS_FAT32) {
	 	fs->fsi_flag = 0;
		fs->fsi_sector = bsect + LD_WORD(fs->win+BPB_FSInfo);
		if (disk_read(fs->drv, fs->win, fs->fsi_sector, 1) == RES_OK &&
			LD_WORD(fs->win+BS_55AA) == 0xAA55 &&
     fc8:	00905874 	movhi	r2,16737
     fcc:	10949484 	addi	r2,r2,21074
     fd0:	18bfc21e 	bne	r3,r2,edc <__alt_mem_onchip_flash_0_data+0xf0f00edc>
			LD_DWORD(fs->win+FSI_LeadSig) == 0x41615252 &&
			LD_DWORD(fs->win+FSI_StrucSig) == 0x61417272) {
     fd4:	814085c3 	ldbu	r5,535(r16)
     fd8:	81008583 	ldbu	r4,534(r16)
     fdc:	80808543 	ldbu	r2,533(r16)
     fe0:	280a963a 	slli	r5,r5,24
     fe4:	2008943a 	slli	r4,r4,16
     fe8:	80c08503 	ldbu	r3,532(r16)
     fec:	1004923a 	slli	r2,r2,8
     ff0:	2908b03a 	or	r4,r5,r4
     ff4:	20c6b03a 	or	r3,r4,r3
     ff8:	1886b03a 	or	r3,r3,r2
	if (fmt == FS_FAT32) {
	 	fs->fsi_flag = 0;
		fs->fsi_sector = bsect + LD_WORD(fs->win+BPB_FSInfo);
		if (disk_read(fs->drv, fs->win, fs->fsi_sector, 1) == RES_OK &&
			LD_WORD(fs->win+BS_55AA) == 0xAA55 &&
			LD_DWORD(fs->win+FSI_LeadSig) == 0x41615252 &&
     ffc:	00985074 	movhi	r2,24897
    1000:	109c9c84 	addi	r2,r2,29298
    1004:	18bfb51e 	bne	r3,r2,edc <__alt_mem_onchip_flash_0_data+0xf0f00edc>
			LD_DWORD(fs->win+FSI_StrucSig) == 0x61417272) {
				fs->last_clust = LD_DWORD(fs->win+FSI_Nxt_Free);
    1008:	824087c3 	ldbu	r9,543(r16)
    100c:	81c08783 	ldbu	r7,542(r16)
				fs->free_clust = LD_DWORD(fs->win+FSI_Free_Count);
    1010:	820086c3 	ldbu	r8,539(r16)
    1014:	81808683 	ldbu	r6,538(r16)
		fs->fsi_sector = bsect + LD_WORD(fs->win+BPB_FSInfo);
		if (disk_read(fs->drv, fs->win, fs->fsi_sector, 1) == RES_OK &&
			LD_WORD(fs->win+BS_55AA) == 0xAA55 &&
			LD_DWORD(fs->win+FSI_LeadSig) == 0x41615252 &&
			LD_DWORD(fs->win+FSI_StrucSig) == 0x61417272) {
				fs->last_clust = LD_DWORD(fs->win+FSI_Nxt_Free);
    1018:	80c08743 	ldbu	r3,541(r16)
				fs->free_clust = LD_DWORD(fs->win+FSI_Free_Count);
    101c:	80808643 	ldbu	r2,537(r16)
		fs->fsi_sector = bsect + LD_WORD(fs->win+BPB_FSInfo);
		if (disk_read(fs->drv, fs->win, fs->fsi_sector, 1) == RES_OK &&
			LD_WORD(fs->win+BS_55AA) == 0xAA55 &&
			LD_DWORD(fs->win+FSI_LeadSig) == 0x41615252 &&
			LD_DWORD(fs->win+FSI_StrucSig) == 0x61417272) {
				fs->last_clust = LD_DWORD(fs->win+FSI_Nxt_Free);
    1020:	4812963a 	slli	r9,r9,24
    1024:	380e943a 	slli	r7,r7,16
				fs->free_clust = LD_DWORD(fs->win+FSI_Free_Count);
    1028:	4010963a 	slli	r8,r8,24
    102c:	300c943a 	slli	r6,r6,16
		fs->fsi_sector = bsect + LD_WORD(fs->win+BPB_FSInfo);
		if (disk_read(fs->drv, fs->win, fs->fsi_sector, 1) == RES_OK &&
			LD_WORD(fs->win+BS_55AA) == 0xAA55 &&
			LD_DWORD(fs->win+FSI_LeadSig) == 0x41615252 &&
			LD_DWORD(fs->win+FSI_StrucSig) == 0x61417272) {
				fs->last_clust = LD_DWORD(fs->win+FSI_Nxt_Free);
    1030:	81408703 	ldbu	r5,540(r16)
				fs->free_clust = LD_DWORD(fs->win+FSI_Free_Count);
    1034:	81008603 	ldbu	r4,536(r16)
		fs->fsi_sector = bsect + LD_WORD(fs->win+BPB_FSInfo);
		if (disk_read(fs->drv, fs->win, fs->fsi_sector, 1) == RES_OK &&
			LD_WORD(fs->win+BS_55AA) == 0xAA55 &&
			LD_DWORD(fs->win+FSI_LeadSig) == 0x41615252 &&
			LD_DWORD(fs->win+FSI_StrucSig) == 0x61417272) {
				fs->last_clust = LD_DWORD(fs->win+FSI_Nxt_Free);
    1038:	1806923a 	slli	r3,r3,8
				fs->free_clust = LD_DWORD(fs->win+FSI_Free_Count);
    103c:	1004923a 	slli	r2,r2,8
		fs->fsi_sector = bsect + LD_WORD(fs->win+BPB_FSInfo);
		if (disk_read(fs->drv, fs->win, fs->fsi_sector, 1) == RES_OK &&
			LD_WORD(fs->win+BS_55AA) == 0xAA55 &&
			LD_DWORD(fs->win+FSI_LeadSig) == 0x41615252 &&
			LD_DWORD(fs->win+FSI_StrucSig) == 0x61417272) {
				fs->last_clust = LD_DWORD(fs->win+FSI_Nxt_Free);
    1040:	49ceb03a 	or	r7,r9,r7
				fs->free_clust = LD_DWORD(fs->win+FSI_Free_Count);
    1044:	418cb03a 	or	r6,r8,r6
		fs->fsi_sector = bsect + LD_WORD(fs->win+BPB_FSInfo);
		if (disk_read(fs->drv, fs->win, fs->fsi_sector, 1) == RES_OK &&
			LD_WORD(fs->win+BS_55AA) == 0xAA55 &&
			LD_DWORD(fs->win+FSI_LeadSig) == 0x41615252 &&
			LD_DWORD(fs->win+FSI_StrucSig) == 0x61417272) {
				fs->last_clust = LD_DWORD(fs->win+FSI_Nxt_Free);
    1048:	394ab03a 	or	r5,r7,r5
				fs->free_clust = LD_DWORD(fs->win+FSI_Free_Count);
    104c:	3108b03a 	or	r4,r6,r4
		fs->fsi_sector = bsect + LD_WORD(fs->win+BPB_FSInfo);
		if (disk_read(fs->drv, fs->win, fs->fsi_sector, 1) == RES_OK &&
			LD_WORD(fs->win+BS_55AA) == 0xAA55 &&
			LD_DWORD(fs->win+FSI_LeadSig) == 0x41615252 &&
			LD_DWORD(fs->win+FSI_StrucSig) == 0x61417272) {
				fs->last_clust = LD_DWORD(fs->win+FSI_Nxt_Free);
    1050:	28c6b03a 	or	r3,r5,r3
				fs->free_clust = LD_DWORD(fs->win+FSI_Free_Count);
    1054:	2084b03a 	or	r2,r4,r2
		fs->fsi_sector = bsect + LD_WORD(fs->win+BPB_FSInfo);
		if (disk_read(fs->drv, fs->win, fs->fsi_sector, 1) == RES_OK &&
			LD_WORD(fs->win+BS_55AA) == 0xAA55 &&
			LD_DWORD(fs->win+FSI_LeadSig) == 0x41615252 &&
			LD_DWORD(fs->win+FSI_StrucSig) == 0x61417272) {
				fs->last_clust = LD_DWORD(fs->win+FSI_Nxt_Free);
    1058:	80c00315 	stw	r3,12(r16)
				fs->free_clust = LD_DWORD(fs->win+FSI_Free_Count);
    105c:	80800415 	stw	r2,16(r16)
    1060:	003f9e06 	br	edc <__alt_mem_onchip_flash_0_data+0xf0f00edc>
		szbfat = fs->n_fatent * 4;						/* (Required FAT size) */
	} else {
		if (!fs->n_rootdir)	return FR_NO_FILESYSTEM;	/* (BPB_RootEntCnt must not be 0) */
		fs->dirbase = fs->fatbase + fasize;				/* Root directory start sector */
		szbfat = (fmt == FS_FAT16) ?					/* (Required FAT size) */
			fs->n_fatent * 2 : fs->n_fatent * 3 / 2 + (fs->n_fatent & 1);
    1064:	1085883a 	add	r2,r2,r2
    1068:	003f9306 	br	eb8 <__alt_mem_onchip_flash_0_data+0xf0f00eb8>
	fmt = FS_FAT12;
	if (nclst >= MIN_FAT16) fmt = FS_FAT16;
	if (nclst >= MIN_FAT32) fmt = FS_FAT32;

	/* Boundaries and Limits */
	fs->n_fatent = nclst + 2;							/* Number of FAT entries */
    106c:	10800084 	addi	r2,r2,2
	fs->database = bsect + sysect;						/* Data start sector */
    1070:	ac6b883a 	add	r21,r21,r17
	fs->fatbase = bsect + nrsv; 						/* FAT start sector */
    1074:	8d29883a 	add	r20,r17,r20
	fmt = FS_FAT12;
	if (nclst >= MIN_FAT16) fmt = FS_FAT16;
	if (nclst >= MIN_FAT32) fmt = FS_FAT32;

	/* Boundaries and Limits */
	fs->n_fatent = nclst + 2;							/* Number of FAT entries */
    1078:	80800615 	stw	r2,24(r16)
	fs->database = bsect + sysect;						/* Data start sector */
    107c:	85400a15 	stw	r21,40(r16)
	fs->fatbase = bsect + nrsv; 						/* FAT start sector */
    1080:	85000815 	stw	r20,32(r16)
	if (fmt == FS_FAT32) {
		if (fs->n_rootdir) return FR_NO_FILESYSTEM;		/* (BPB_RootEntCnt must be 0) */
    1084:	b03f261e 	bne	r22,zero,d20 <__alt_mem_onchip_flash_0_data+0xf0f00d20>
		fs->dirbase = LD_DWORD(fs->win+BPB_RootClus);	/* Root directory start cluster */
    1088:	818017c3 	ldbu	r6,95(r16)
    108c:	81401783 	ldbu	r5,94(r16)
    1090:	80c01743 	ldbu	r3,93(r16)
    1094:	300c963a 	slli	r6,r6,24
    1098:	280a943a 	slli	r5,r5,16
    109c:	81001703 	ldbu	r4,92(r16)
    10a0:	1806923a 	slli	r3,r3,8
    10a4:	314ab03a 	or	r5,r6,r5
    10a8:	2908b03a 	or	r4,r5,r4
    10ac:	20c6b03a 	or	r3,r4,r3
		szbfat = fs->n_fatent * 4;						/* (Required FAT size) */
    10b0:	1085883a 	add	r2,r2,r2
	fs->n_fatent = nclst + 2;							/* Number of FAT entries */
	fs->database = bsect + sysect;						/* Data start sector */
	fs->fatbase = bsect + nrsv; 						/* FAT start sector */
	if (fmt == FS_FAT32) {
		if (fs->n_rootdir) return FR_NO_FILESYSTEM;		/* (BPB_RootEntCnt must be 0) */
		fs->dirbase = LD_DWORD(fs->win+BPB_RootClus);	/* Root directory start cluster */
    10b4:	80c00915 	stw	r3,36(r16)
		szbfat = fs->n_fatent * 4;						/* (Required FAT size) */
    10b8:	1085883a 	add	r2,r2,r2
	if (tsect < sysect) return FR_NO_FILESYSTEM;		/* (Invalid volume size) */
	nclst = (tsect - sysect) / fs->csize;				/* Number of clusters */
	if (!nclst) return FR_NO_FILESYSTEM;				/* (Invalid volume size) */
	fmt = FS_FAT12;
	if (nclst >= MIN_FAT16) fmt = FS_FAT16;
	if (nclst >= MIN_FAT32) fmt = FS_FAT32;
    10bc:	048000c4 	movi	r18,3
    10c0:	003f7d06 	br	eb8 <__alt_mem_onchip_flash_0_data+0xf0f00eb8>
	/* Determine the FAT sub type */
	sysect = nrsv + fasize + fs->n_rootdir / (SS(fs) / SZ_DIR);	/* RSV+FAT+DIR */
	if (tsect < sysect) return FR_NO_FILESYSTEM;		/* (Invalid volume size) */
	nclst = (tsect - sysect) / fs->csize;				/* Number of clusters */
	if (!nclst) return FR_NO_FILESYSTEM;				/* (Invalid volume size) */
	fmt = FS_FAT12;
    10c4:	04800044 	movi	r18,1
    10c8:	003f6906 	br	e70 <__alt_mem_onchip_flash_0_data+0xf0f00e70>

000010cc <clust2sect>:
	FATFS *fs,		/* File system object */
	DWORD clst		/* Cluster# to be converted */
)
{
	clst -= 2;
	if (clst >= (fs->n_fatent - 2)) return 0;		/* Invalid cluster# */
    10cc:	20800617 	ldw	r2,24(r4)
DWORD clust2sect (	/* !=0: Sector number, 0: Failed - invalid cluster# */
	FATFS *fs,		/* File system object */
	DWORD clst		/* Cluster# to be converted */
)
{
	clst -= 2;
    10d0:	297fff84 	addi	r5,r5,-2
	if (clst >= (fs->n_fatent - 2)) return 0;		/* Invalid cluster# */
    10d4:	10bfff84 	addi	r2,r2,-2
    10d8:	2880052e 	bgeu	r5,r2,10f0 <clust2sect+0x24>
	return clst * fs->csize + fs->database;
    10dc:	20800083 	ldbu	r2,2(r4)
    10e0:	20c00a17 	ldw	r3,40(r4)
    10e4:	288b383a 	mul	r5,r5,r2
    10e8:	28c5883a 	add	r2,r5,r3
    10ec:	f800283a 	ret
	FATFS *fs,		/* File system object */
	DWORD clst		/* Cluster# to be converted */
)
{
	clst -= 2;
	if (clst >= (fs->n_fatent - 2)) return 0;		/* Invalid cluster# */
    10f0:	0005883a 	mov	r2,zero
	return clst * fs->csize + fs->database;
}
    10f4:	f800283a 	ret

000010f8 <get_fat>:

DWORD get_fat (	/* 0xFFFFFFFF:Disk error, 1:Internal error, Else:Cluster status */
	FATFS *fs,	/* File system object */
	DWORD clst	/* Cluster# to get the link information */
)
{
    10f8:	defffb04 	addi	sp,sp,-20
    10fc:	dc400115 	stw	r17,4(sp)
    1100:	dc000015 	stw	r16,0(sp)
    1104:	dfc00415 	stw	ra,16(sp)
    1108:	dcc00315 	stw	r19,12(sp)
    110c:	dc800215 	stw	r18,8(sp)
	UINT wc, bc;
	BYTE *p;


	if (clst < 2 || clst >= fs->n_fatent)	/* Chack range */
    1110:	00800044 	movi	r2,1

DWORD get_fat (	/* 0xFFFFFFFF:Disk error, 1:Internal error, Else:Cluster status */
	FATFS *fs,	/* File system object */
	DWORD clst	/* Cluster# to get the link information */
)
{
    1114:	2821883a 	mov	r16,r5
    1118:	2023883a 	mov	r17,r4
	UINT wc, bc;
	BYTE *p;


	if (clst < 2 || clst >= fs->n_fatent)	/* Chack range */
    111c:	1140092e 	bgeu	r2,r5,1144 <get_fat+0x4c>
    1120:	20c00617 	ldw	r3,24(r4)
    1124:	28c0072e 	bgeu	r5,r3,1144 <get_fat+0x4c>
		return 1;

	switch (fs->fs_type) {
    1128:	20c00003 	ldbu	r3,0(r4)
    112c:	01400084 	movi	r5,2
    1130:	19403f26 	beq	r3,r5,1230 <get_fat+0x138>
    1134:	014000c4 	movi	r5,3
    1138:	19402426 	beq	r3,r5,11cc <get_fat+0xd4>
    113c:	18800826 	beq	r3,r2,1160 <get_fat+0x68>
		if (move_window(fs, fs->fatbase + (clst / (SS(fs) / 4)))) break;
		p = &fs->win[clst * 4 % SS(fs)];
		return LD_DWORD(p) & 0x0FFFFFFF;
	}

	return 0xFFFFFFFF;	/* An error occurred at the disk I/O layer */
    1140:	00bfffc4 	movi	r2,-1
}
    1144:	dfc00417 	ldw	ra,16(sp)
    1148:	dcc00317 	ldw	r19,12(sp)
    114c:	dc800217 	ldw	r18,8(sp)
    1150:	dc400117 	ldw	r17,4(sp)
    1154:	dc000017 	ldw	r16,0(sp)
    1158:	dec00504 	addi	sp,sp,20
    115c:	f800283a 	ret
	if (clst < 2 || clst >= fs->n_fatent)	/* Chack range */
		return 1;

	switch (fs->fs_type) {
	case FS_FAT12 :
		bc = (UINT)clst; bc += bc / 2;
    1160:	80a4d83a 	srl	r18,r16,r2
		if (move_window(fs, fs->fatbase + (bc / SS(fs)))) break;
    1164:	20800817 	ldw	r2,32(r4)
	if (clst < 2 || clst >= fs->n_fatent)	/* Chack range */
		return 1;

	switch (fs->fs_type) {
	case FS_FAT12 :
		bc = (UINT)clst; bc += bc / 2;
    1168:	9425883a 	add	r18,r18,r16
		if (move_window(fs, fs->fatbase + (bc / SS(fs)))) break;
    116c:	900ad27a 	srli	r5,r18,9
    1170:	288b883a 	add	r5,r5,r2
    1174:	00008900 	call	890 <move_window>
    1178:	103ff11e 	bne	r2,zero,1140 <__alt_mem_onchip_flash_0_data+0xf0f01140>
		wc = fs->win[bc % SS(fs)]; bc++;
    117c:	94c00044 	addi	r19,r18,1
		if (move_window(fs, fs->fatbase + (bc / SS(fs)))) break;
    1180:	980ad27a 	srli	r5,r19,9
    1184:	88800817 	ldw	r2,32(r17)

	switch (fs->fs_type) {
	case FS_FAT12 :
		bc = (UINT)clst; bc += bc / 2;
		if (move_window(fs, fs->fatbase + (bc / SS(fs)))) break;
		wc = fs->win[bc % SS(fs)]; bc++;
    1188:	94807fcc 	andi	r18,r18,511
    118c:	8ca5883a 	add	r18,r17,r18
		if (move_window(fs, fs->fatbase + (bc / SS(fs)))) break;
    1190:	8809883a 	mov	r4,r17
    1194:	288b883a 	add	r5,r5,r2

	switch (fs->fs_type) {
	case FS_FAT12 :
		bc = (UINT)clst; bc += bc / 2;
		if (move_window(fs, fs->fatbase + (bc / SS(fs)))) break;
		wc = fs->win[bc % SS(fs)]; bc++;
    1198:	94800c03 	ldbu	r18,48(r18)
		if (move_window(fs, fs->fatbase + (bc / SS(fs)))) break;
    119c:	00008900 	call	890 <move_window>
    11a0:	103fe71e 	bne	r2,zero,1140 <__alt_mem_onchip_flash_0_data+0xf0f01140>
		wc |= fs->win[bc % SS(fs)] << 8;
    11a4:	9cc07fcc 	andi	r19,r19,511
    11a8:	8ce3883a 	add	r17,r17,r19
    11ac:	88800c03 	ldbu	r2,48(r17)

	switch (fs->fs_type) {
	case FS_FAT12 :
		bc = (UINT)clst; bc += bc / 2;
		if (move_window(fs, fs->fatbase + (bc / SS(fs)))) break;
		wc = fs->win[bc % SS(fs)]; bc++;
    11b0:	94803fcc 	andi	r18,r18,255
		if (move_window(fs, fs->fatbase + (bc / SS(fs)))) break;
		wc |= fs->win[bc % SS(fs)] << 8;
		return (clst & 1) ? (wc >> 4) : (wc & 0xFFF);
    11b4:	8400004c 	andi	r16,r16,1
	case FS_FAT12 :
		bc = (UINT)clst; bc += bc / 2;
		if (move_window(fs, fs->fatbase + (bc / SS(fs)))) break;
		wc = fs->win[bc % SS(fs)]; bc++;
		if (move_window(fs, fs->fatbase + (bc / SS(fs)))) break;
		wc |= fs->win[bc % SS(fs)] << 8;
    11b8:	1004923a 	slli	r2,r2,8
    11bc:	1484b03a 	or	r2,r2,r18
		return (clst & 1) ? (wc >> 4) : (wc & 0xFFF);
    11c0:	80002926 	beq	r16,zero,1268 <get_fat+0x170>
    11c4:	1004d13a 	srli	r2,r2,4
    11c8:	003fde06 	br	1144 <__alt_mem_onchip_flash_0_data+0xf0f01144>
		if (move_window(fs, fs->fatbase + (clst / (SS(fs) / 2)))) break;
		p = &fs->win[clst * 2 % SS(fs)];
		return LD_WORD(p);

	case FS_FAT32 :
		if (move_window(fs, fs->fatbase + (clst / (SS(fs) / 4)))) break;
    11cc:	800ad1fa 	srli	r5,r16,7
    11d0:	20800817 	ldw	r2,32(r4)
    11d4:	288b883a 	add	r5,r5,r2
    11d8:	00008900 	call	890 <move_window>
    11dc:	103fd81e 	bne	r2,zero,1140 <__alt_mem_onchip_flash_0_data+0xf0f01140>
		p = &fs->win[clst * 4 % SS(fs)];
    11e0:	8421883a 	add	r16,r16,r16
    11e4:	8421883a 	add	r16,r16,r16
    11e8:	80c07fcc 	andi	r3,r16,511
    11ec:	18800c04 	addi	r2,r3,48
    11f0:	8885883a 	add	r2,r17,r2
		return LD_DWORD(p) & 0x0FFFFFFF;
    11f4:	11800083 	ldbu	r6,2(r2)
    11f8:	114000c3 	ldbu	r5,3(r2)
    11fc:	11000043 	ldbu	r4,1(r2)
    1200:	300c943a 	slli	r6,r6,16
    1204:	280a963a 	slli	r5,r5,24
    1208:	88c7883a 	add	r3,r17,r3
    120c:	2008923a 	slli	r4,r4,8
    1210:	18800c03 	ldbu	r2,48(r3)
    1214:	3146b03a 	or	r3,r6,r5
    1218:	1906b03a 	or	r3,r3,r4
    121c:	1886b03a 	or	r3,r3,r2
    1220:	00840034 	movhi	r2,4096
    1224:	10bfffc4 	addi	r2,r2,-1
    1228:	1884703a 	and	r2,r3,r2
    122c:	003fc506 	br	1144 <__alt_mem_onchip_flash_0_data+0xf0f01144>
		if (move_window(fs, fs->fatbase + (bc / SS(fs)))) break;
		wc |= fs->win[bc % SS(fs)] << 8;
		return (clst & 1) ? (wc >> 4) : (wc & 0xFFF);

	case FS_FAT16 :
		if (move_window(fs, fs->fatbase + (clst / (SS(fs) / 2)))) break;
    1230:	800ad23a 	srli	r5,r16,8
    1234:	20800817 	ldw	r2,32(r4)
    1238:	288b883a 	add	r5,r5,r2
    123c:	00008900 	call	890 <move_window>
    1240:	103fbf1e 	bne	r2,zero,1140 <__alt_mem_onchip_flash_0_data+0xf0f01140>
		p = &fs->win[clst * 2 % SS(fs)];
    1244:	8421883a 	add	r16,r16,r16
    1248:	84007fcc 	andi	r16,r16,511
		return LD_WORD(p);
    124c:	8c05883a 	add	r2,r17,r16
    1250:	10800c43 	ldbu	r2,49(r2)
    1254:	8c21883a 	add	r16,r17,r16
    1258:	80c00c03 	ldbu	r3,48(r16)
    125c:	1004923a 	slli	r2,r2,8
    1260:	10c4b03a 	or	r2,r2,r3
    1264:	003fb706 	br	1144 <__alt_mem_onchip_flash_0_data+0xf0f01144>
		bc = (UINT)clst; bc += bc / 2;
		if (move_window(fs, fs->fatbase + (bc / SS(fs)))) break;
		wc = fs->win[bc % SS(fs)]; bc++;
		if (move_window(fs, fs->fatbase + (bc / SS(fs)))) break;
		wc |= fs->win[bc % SS(fs)] << 8;
		return (clst & 1) ? (wc >> 4) : (wc & 0xFFF);
    1268:	1083ffcc 	andi	r2,r2,4095
    126c:	003fb506 	br	1144 <__alt_mem_onchip_flash_0_data+0xf0f01144>

00001270 <dir_sdi>:
static
FRESULT dir_sdi (
	DIR *dj,		/* Pointer to directory object */
	WORD idx		/* Directory index number */
)
{
    1270:	defff904 	addi	sp,sp,-28
	DWORD clst;
	WORD ic;


	dj->index = idx;
	clst = dj->sclust;
    1274:	20800217 	ldw	r2,8(r4)
static
FRESULT dir_sdi (
	DIR *dj,		/* Pointer to directory object */
	WORD idx		/* Directory index number */
)
{
    1278:	dc400115 	stw	r17,4(sp)
    127c:	dc000015 	stw	r16,0(sp)
    1280:	dfc00615 	stw	ra,24(sp)
    1284:	dd400515 	stw	r21,20(sp)
    1288:	dd000415 	stw	r20,16(sp)
    128c:	dcc00315 	stw	r19,12(sp)
    1290:	dc800215 	stw	r18,8(sp)
	DWORD clst;
	WORD ic;


	dj->index = idx;
    1294:	2140018d 	sth	r5,6(r4)
	clst = dj->sclust;
	if (clst == 1 || clst >= dj->fs->n_fatent)	/* Check start cluster range */
    1298:	00c00044 	movi	r3,1
static
FRESULT dir_sdi (
	DIR *dj,		/* Pointer to directory object */
	WORD idx		/* Directory index number */
)
{
    129c:	2021883a 	mov	r16,r4
    12a0:	2823883a 	mov	r17,r5
	WORD ic;


	dj->index = idx;
	clst = dj->sclust;
	if (clst == 1 || clst >= dj->fs->n_fatent)	/* Check start cluster range */
    12a4:	10c00326 	beq	r2,r3,12b4 <dir_sdi+0x44>
    12a8:	21000017 	ldw	r4,0(r4)
    12ac:	20c00617 	ldw	r3,24(r4)
    12b0:	10c00a36 	bltu	r2,r3,12dc <dir_sdi+0x6c>
		return FR_INT_ERR;
    12b4:	00800084 	movi	r2,2
	}

	dj->dir = dj->fs->win + (idx % (SS(dj->fs) / SZ_DIR)) * SZ_DIR;	/* Ptr to the entry in the sector */

	return FR_OK;	/* Seek succeeded */
}
    12b8:	dfc00617 	ldw	ra,24(sp)
    12bc:	dd400517 	ldw	r21,20(sp)
    12c0:	dd000417 	ldw	r20,16(sp)
    12c4:	dcc00317 	ldw	r19,12(sp)
    12c8:	dc800217 	ldw	r18,8(sp)
    12cc:	dc400117 	ldw	r17,4(sp)
    12d0:	dc000017 	ldw	r16,0(sp)
    12d4:	dec00704 	addi	sp,sp,28
    12d8:	f800283a 	ret

	dj->index = idx;
	clst = dj->sclust;
	if (clst == 1 || clst >= dj->fs->n_fatent)	/* Check start cluster range */
		return FR_INT_ERR;
	if (!clst && dj->fs->fs_type == FS_FAT32)	/* Replace cluster# 0 with root cluster# if in FAT32 */
    12dc:	1000141e 	bne	r2,zero,1330 <dir_sdi+0xc0>
    12e0:	20c00003 	ldbu	r3,0(r4)
    12e4:	008000c4 	movi	r2,3
    12e8:	18800f26 	beq	r3,r2,1328 <dir_sdi+0xb8>
		clst = dj->fs->dirbase;

	if (clst == 0) {	/* Static table (root-dir in FAT12/16) */
		dj->clust = clst;
		if (idx >= dj->fs->n_rootdir)		/* Index is out of range */
    12ec:	20c0020b 	ldhu	r3,8(r4)
    12f0:	88bfffcc 	andi	r2,r17,65535
		return FR_INT_ERR;
	if (!clst && dj->fs->fs_type == FS_FAT32)	/* Replace cluster# 0 with root cluster# if in FAT32 */
		clst = dj->fs->dirbase;

	if (clst == 0) {	/* Static table (root-dir in FAT12/16) */
		dj->clust = clst;
    12f4:	80000315 	stw	zero,12(r16)
		if (idx >= dj->fs->n_rootdir)		/* Index is out of range */
    12f8:	10ffee2e 	bgeu	r2,r3,12b4 <__alt_mem_onchip_flash_0_data+0xf0f012b4>
			return FR_INT_ERR;
		dj->sect = dj->fs->dirbase + idx / (SS(dj->fs) / SZ_DIR);	/* Sector# */
    12fc:	20c00917 	ldw	r3,36(r4)
    1300:	1004d13a 	srli	r2,r2,4
    1304:	10c5883a 	add	r2,r2,r3
    1308:	80800415 	stw	r2,16(r16)
		}
		dj->clust = clst;
		dj->sect = clust2sect(dj->fs, clst) + idx / (SS(dj->fs) / SZ_DIR);	/* Sector# */
	}

	dj->dir = dj->fs->win + (idx % (SS(dj->fs) / SZ_DIR)) * SZ_DIR;	/* Ptr to the entry in the sector */
    130c:	88c003cc 	andi	r3,r17,15
    1310:	1806917a 	slli	r3,r3,5

	return FR_OK;	/* Seek succeeded */
    1314:	0005883a 	mov	r2,zero
		}
		dj->clust = clst;
		dj->sect = clust2sect(dj->fs, clst) + idx / (SS(dj->fs) / SZ_DIR);	/* Sector# */
	}

	dj->dir = dj->fs->win + (idx % (SS(dj->fs) / SZ_DIR)) * SZ_DIR;	/* Ptr to the entry in the sector */
    1318:	18c00c04 	addi	r3,r3,48
    131c:	20c9883a 	add	r4,r4,r3
    1320:	81000515 	stw	r4,20(r16)

	return FR_OK;	/* Seek succeeded */
    1324:	003fe406 	br	12b8 <__alt_mem_onchip_flash_0_data+0xf0f012b8>
	dj->index = idx;
	clst = dj->sclust;
	if (clst == 1 || clst >= dj->fs->n_fatent)	/* Check start cluster range */
		return FR_INT_ERR;
	if (!clst && dj->fs->fs_type == FS_FAT32)	/* Replace cluster# 0 with root cluster# if in FAT32 */
		clst = dj->fs->dirbase;
    1328:	20800917 	ldw	r2,36(r4)

	if (clst == 0) {	/* Static table (root-dir in FAT12/16) */
    132c:	103fef26 	beq	r2,zero,12ec <__alt_mem_onchip_flash_0_data+0xf0f012ec>
		if (idx >= dj->fs->n_rootdir)		/* Index is out of range */
			return FR_INT_ERR;
		dj->sect = dj->fs->dirbase + idx / (SS(dj->fs) / SZ_DIR);	/* Sector# */
	}
	else {				/* Dynamic table (sub-dirs or root-dir in FAT32) */
		ic = SS(dj->fs) / SZ_DIR * dj->fs->csize;	/* Entries per cluster */
    1330:	21800083 	ldbu	r6,2(r4)
		while (idx >= ic) {	/* Follow cluster chain */
    1334:	88ffffcc 	andi	r3,r17,65535
		if (idx >= dj->fs->n_rootdir)		/* Index is out of range */
			return FR_INT_ERR;
		dj->sect = dj->fs->dirbase + idx / (SS(dj->fs) / SZ_DIR);	/* Sector# */
	}
	else {				/* Dynamic table (sub-dirs or root-dir in FAT32) */
		ic = SS(dj->fs) / SZ_DIR * dj->fs->csize;	/* Entries per cluster */
    1338:	300c913a 	slli	r6,r6,4
		while (idx >= ic) {	/* Follow cluster chain */
    133c:	34ffffcc 	andi	r19,r6,65535
		if (idx >= dj->fs->n_rootdir)		/* Index is out of range */
			return FR_INT_ERR;
		dj->sect = dj->fs->dirbase + idx / (SS(dj->fs) / SZ_DIR);	/* Sector# */
	}
	else {				/* Dynamic table (sub-dirs or root-dir in FAT32) */
		ic = SS(dj->fs) / SZ_DIR * dj->fs->csize;	/* Entries per cluster */
    1340:	3025883a 	mov	r18,r6
		while (idx >= ic) {	/* Follow cluster chain */
    1344:	1cc01136 	bltu	r3,r19,138c <dir_sdi+0x11c>
    1348:	29a3c83a 	sub	r17,r5,r6
			clst = get_fat(dj->fs, clst);				/* Get next cluster */
			if (clst == 0xFFFFFFFF) return FR_DISK_ERR;	/* Disk error */
    134c:	053fffc4 	movi	r20,-1
			if (clst < 2 || clst >= dj->fs->n_fatent)	/* Reached to end of table or int error */
    1350:	05400044 	movi	r21,1
    1354:	00000706 	br	1374 <dir_sdi+0x104>
    1358:	a8bfd62e 	bgeu	r21,r2,12b4 <__alt_mem_onchip_flash_0_data+0xf0f012b4>
    135c:	81000017 	ldw	r4,0(r16)
    1360:	8c8dc83a 	sub	r6,r17,r18
    1364:	21400617 	ldw	r5,24(r4)
    1368:	117fd22e 	bgeu	r2,r5,12b4 <__alt_mem_onchip_flash_0_data+0xf0f012b4>
			return FR_INT_ERR;
		dj->sect = dj->fs->dirbase + idx / (SS(dj->fs) / SZ_DIR);	/* Sector# */
	}
	else {				/* Dynamic table (sub-dirs or root-dir in FAT32) */
		ic = SS(dj->fs) / SZ_DIR * dj->fs->csize;	/* Entries per cluster */
		while (idx >= ic) {	/* Follow cluster chain */
    136c:	1cc00736 	bltu	r3,r19,138c <dir_sdi+0x11c>
    1370:	3023883a 	mov	r17,r6
			clst = get_fat(dj->fs, clst);				/* Get next cluster */
    1374:	100b883a 	mov	r5,r2
    1378:	00010f80 	call	10f8 <get_fat>
			return FR_INT_ERR;
		dj->sect = dj->fs->dirbase + idx / (SS(dj->fs) / SZ_DIR);	/* Sector# */
	}
	else {				/* Dynamic table (sub-dirs or root-dir in FAT32) */
		ic = SS(dj->fs) / SZ_DIR * dj->fs->csize;	/* Entries per cluster */
		while (idx >= ic) {	/* Follow cluster chain */
    137c:	88ffffcc 	andi	r3,r17,65535
			clst = get_fat(dj->fs, clst);				/* Get next cluster */
			if (clst == 0xFFFFFFFF) return FR_DISK_ERR;	/* Disk error */
    1380:	153ff51e 	bne	r2,r20,1358 <__alt_mem_onchip_flash_0_data+0xf0f01358>
    1384:	00800044 	movi	r2,1
    1388:	003fcb06 	br	12b8 <__alt_mem_onchip_flash_0_data+0xf0f012b8>
	FATFS *fs,		/* File system object */
	DWORD clst		/* Cluster# to be converted */
)
{
	clst -= 2;
	if (clst >= (fs->n_fatent - 2)) return 0;		/* Invalid cluster# */
    138c:	21400617 	ldw	r5,24(r4)
			if (clst == 0xFFFFFFFF) return FR_DISK_ERR;	/* Disk error */
			if (clst < 2 || clst >= dj->fs->n_fatent)	/* Reached to end of table or int error */
				return FR_INT_ERR;
			idx -= ic;
		}
		dj->clust = clst;
    1390:	80800315 	stw	r2,12(r16)
DWORD clust2sect (	/* !=0: Sector number, 0: Failed - invalid cluster# */
	FATFS *fs,		/* File system object */
	DWORD clst		/* Cluster# to be converted */
)
{
	clst -= 2;
    1394:	10bfff84 	addi	r2,r2,-2
	if (clst >= (fs->n_fatent - 2)) return 0;		/* Invalid cluster# */
    1398:	297fff84 	addi	r5,r5,-2
    139c:	1140082e 	bgeu	r2,r5,13c0 <dir_sdi+0x150>
	return clst * fs->csize + fs->database;
    13a0:	21800083 	ldbu	r6,2(r4)
    13a4:	21400a17 	ldw	r5,40(r4)
    13a8:	1185383a 	mul	r2,r2,r6
    13ac:	1145883a 	add	r2,r2,r5
			if (clst < 2 || clst >= dj->fs->n_fatent)	/* Reached to end of table or int error */
				return FR_INT_ERR;
			idx -= ic;
		}
		dj->clust = clst;
		dj->sect = clust2sect(dj->fs, clst) + idx / (SS(dj->fs) / SZ_DIR);	/* Sector# */
    13b0:	1806d13a 	srli	r3,r3,4
    13b4:	10c7883a 	add	r3,r2,r3
    13b8:	80c00415 	stw	r3,16(r16)
    13bc:	003fd306 	br	130c <__alt_mem_onchip_flash_0_data+0xf0f0130c>
	FATFS *fs,		/* File system object */
	DWORD clst		/* Cluster# to be converted */
)
{
	clst -= 2;
	if (clst >= (fs->n_fatent - 2)) return 0;		/* Invalid cluster# */
    13c0:	0005883a 	mov	r2,zero
    13c4:	003ffa06 	br	13b0 <__alt_mem_onchip_flash_0_data+0xf0f013b0>

000013c8 <put_fat>:
FRESULT put_fat (
	FATFS *fs,	/* File system object */
	DWORD clst,	/* Cluster# to be changed in range of 2 to fs->n_fatent - 1 */
	DWORD val	/* New value to mark the cluster */
)
{
    13c8:	defffb04 	addi	sp,sp,-20
    13cc:	dc400215 	stw	r17,8(sp)
    13d0:	dc000115 	stw	r16,4(sp)
    13d4:	dfc00415 	stw	ra,16(sp)
    13d8:	dc800315 	stw	r18,12(sp)
	UINT bc;
	BYTE *p;
	FRESULT res;


	if (clst < 2 || clst >= fs->n_fatent) {	/* Check range */
    13dc:	00c00044 	movi	r3,1
FRESULT put_fat (
	FATFS *fs,	/* File system object */
	DWORD clst,	/* Cluster# to be changed in range of 2 to fs->n_fatent - 1 */
	DWORD val	/* New value to mark the cluster */
)
{
    13e0:	2821883a 	mov	r16,r5
    13e4:	2023883a 	mov	r17,r4
	UINT bc;
	BYTE *p;
	FRESULT res;


	if (clst < 2 || clst >= fs->n_fatent) {	/* Check range */
    13e8:	1940022e 	bgeu	r3,r5,13f4 <put_fat+0x2c>
    13ec:	20800617 	ldw	r2,24(r4)
    13f0:	28800736 	bltu	r5,r2,1410 <put_fat+0x48>
		res = FR_INT_ERR;
    13f4:	00800084 	movi	r2,2
		}
		fs->wflag = 1;
	}

	return res;
}
    13f8:	dfc00417 	ldw	ra,16(sp)
    13fc:	dc800317 	ldw	r18,12(sp)
    1400:	dc400217 	ldw	r17,8(sp)
    1404:	dc000117 	ldw	r16,4(sp)
    1408:	dec00504 	addi	sp,sp,20
    140c:	f800283a 	ret

	if (clst < 2 || clst >= fs->n_fatent) {	/* Check range */
		res = FR_INT_ERR;

	} else {
		switch (fs->fs_type) {
    1410:	21400003 	ldbu	r5,0(r4)
    1414:	00800084 	movi	r2,2
    1418:	28802426 	beq	r5,r2,14ac <put_fat+0xe4>
    141c:	01c000c4 	movi	r7,3
    1420:	29c00926 	beq	r5,r7,1448 <put_fat+0x80>
    1424:	28c02f26 	beq	r5,r3,14e4 <put_fat+0x11c>
			break;

		default :
			res = FR_INT_ERR;
		}
		fs->wflag = 1;
    1428:	00c00044 	movi	r3,1
    142c:	88c00105 	stb	r3,4(r17)
	}

	return res;
}
    1430:	dfc00417 	ldw	ra,16(sp)
    1434:	dc800317 	ldw	r18,12(sp)
    1438:	dc400217 	ldw	r17,8(sp)
    143c:	dc000117 	ldw	r16,4(sp)
    1440:	dec00504 	addi	sp,sp,20
    1444:	f800283a 	ret
			p = &fs->win[clst * 2 % SS(fs)];
			ST_WORD(p, (WORD)val);
			break;

		case FS_FAT32 :
			res = move_window(fs, fs->fatbase + (clst / (SS(fs) / 4)));
    1448:	20800817 	ldw	r2,32(r4)
    144c:	800ad1fa 	srli	r5,r16,7
    1450:	d9800015 	stw	r6,0(sp)
    1454:	288b883a 	add	r5,r5,r2
    1458:	00008900 	call	890 <move_window>
			if (res != FR_OK) break;
    145c:	d9800017 	ldw	r6,0(sp)
    1460:	103ff11e 	bne	r2,zero,1428 <__alt_mem_onchip_flash_0_data+0xf0f01428>
			p = &fs->win[clst * 4 % SS(fs)];
    1464:	8421883a 	add	r16,r16,r16
    1468:	8421883a 	add	r16,r16,r16
    146c:	81007fcc 	andi	r4,r16,511
    1470:	20c00c04 	addi	r3,r4,48
    1474:	88c7883a 	add	r3,r17,r3
			val |= LD_DWORD(p) & 0xF0000000;
    1478:	194000c3 	ldbu	r5,3(r3)
    147c:	8909883a 	add	r4,r17,r4
    1480:	280a963a 	slli	r5,r5,24
    1484:	297c002c 	andhi	r5,r5,61440
    1488:	298cb03a 	or	r6,r5,r6
			ST_DWORD(p, val);
    148c:	3010d23a 	srli	r8,r6,8
    1490:	300ed43a 	srli	r7,r6,16
    1494:	300ad63a 	srli	r5,r6,24
    1498:	21800c05 	stb	r6,48(r4)
    149c:	1a000045 	stb	r8,1(r3)
    14a0:	19c00085 	stb	r7,2(r3)
    14a4:	194000c5 	stb	r5,3(r3)
    14a8:	003fdf06 	br	1428 <__alt_mem_onchip_flash_0_data+0xf0f01428>
			p = &fs->win[bc % SS(fs)];
			*p = (clst & 1) ? (BYTE)(val >> 4) : ((*p & 0xF0) | ((BYTE)(val >> 8) & 0x0F));
			break;

		case FS_FAT16 :
			res = move_window(fs, fs->fatbase + (clst / (SS(fs) / 2)));
    14ac:	20800817 	ldw	r2,32(r4)
    14b0:	800ad23a 	srli	r5,r16,8
    14b4:	d9800015 	stw	r6,0(sp)
    14b8:	288b883a 	add	r5,r5,r2
    14bc:	00008900 	call	890 <move_window>
			if (res != FR_OK) break;
    14c0:	d9800017 	ldw	r6,0(sp)
    14c4:	103fd81e 	bne	r2,zero,1428 <__alt_mem_onchip_flash_0_data+0xf0f01428>
			p = &fs->win[clst * 2 % SS(fs)];
    14c8:	8421883a 	add	r16,r16,r16
			ST_WORD(p, (WORD)val);
    14cc:	3006d23a 	srli	r3,r6,8
			break;

		case FS_FAT16 :
			res = move_window(fs, fs->fatbase + (clst / (SS(fs) / 2)));
			if (res != FR_OK) break;
			p = &fs->win[clst * 2 % SS(fs)];
    14d0:	84007fcc 	andi	r16,r16,511
			ST_WORD(p, (WORD)val);
    14d4:	8c09883a 	add	r4,r17,r16
    14d8:	21800c05 	stb	r6,48(r4)
    14dc:	20c00c45 	stb	r3,49(r4)
    14e0:	003fd106 	br	1428 <__alt_mem_onchip_flash_0_data+0xf0f01428>
		res = FR_INT_ERR;

	} else {
		switch (fs->fs_type) {
		case FS_FAT12 :
			bc = clst; bc += bc / 2;
    14e4:	80e4d83a 	srl	r18,r16,r3
			res = move_window(fs, fs->fatbase + (bc / SS(fs)));
    14e8:	20800817 	ldw	r2,32(r4)
    14ec:	d9800015 	stw	r6,0(sp)
		res = FR_INT_ERR;

	} else {
		switch (fs->fs_type) {
		case FS_FAT12 :
			bc = clst; bc += bc / 2;
    14f0:	9425883a 	add	r18,r18,r16
			res = move_window(fs, fs->fatbase + (bc / SS(fs)));
    14f4:	900ad27a 	srli	r5,r18,9
    14f8:	288b883a 	add	r5,r5,r2
    14fc:	00008900 	call	890 <move_window>
			if (res != FR_OK) break;
    1500:	d9800017 	ldw	r6,0(sp)
    1504:	103fc81e 	bne	r2,zero,1428 <__alt_mem_onchip_flash_0_data+0xf0f01428>
			p = &fs->win[bc % SS(fs)];
			*p = (clst & 1) ? ((*p & 0x0F) | ((BYTE)val << 4)) : (BYTE)val;
    1508:	8400004c 	andi	r16,r16,1
		switch (fs->fs_type) {
		case FS_FAT12 :
			bc = clst; bc += bc / 2;
			res = move_window(fs, fs->fatbase + (bc / SS(fs)));
			if (res != FR_OK) break;
			p = &fs->win[bc % SS(fs)];
    150c:	90807fcc 	andi	r2,r18,511
			*p = (clst & 1) ? ((*p & 0x0F) | ((BYTE)val << 4)) : (BYTE)val;
    1510:	80001826 	beq	r16,zero,1574 <put_fat+0x1ac>
    1514:	8885883a 	add	r2,r17,r2
    1518:	11000c03 	ldbu	r4,48(r2)
			}
		}
		FREE_BUF();
	}
	LEAVE_FF(djo.fs, res);
}
    151c:	30c03fcc 	andi	r3,r6,255
		case FS_FAT12 :
			bc = clst; bc += bc / 2;
			res = move_window(fs, fs->fatbase + (bc / SS(fs)));
			if (res != FR_OK) break;
			p = &fs->win[bc % SS(fs)];
			*p = (clst & 1) ? ((*p & 0x0F) | ((BYTE)val << 4)) : (BYTE)val;
    1520:	1806913a 	slli	r3,r3,4
    1524:	210003cc 	andi	r4,r4,15
    1528:	20c8b03a 	or	r4,r4,r3
			bc++;
    152c:	94800044 	addi	r18,r18,1
			fs->wflag = 1;
			res = move_window(fs, fs->fatbase + (bc / SS(fs)));
    1530:	88c00817 	ldw	r3,32(r17)
    1534:	900ad27a 	srli	r5,r18,9
		case FS_FAT12 :
			bc = clst; bc += bc / 2;
			res = move_window(fs, fs->fatbase + (bc / SS(fs)));
			if (res != FR_OK) break;
			p = &fs->win[bc % SS(fs)];
			*p = (clst & 1) ? ((*p & 0x0F) | ((BYTE)val << 4)) : (BYTE)val;
    1538:	11000c05 	stb	r4,48(r2)
			bc++;
			fs->wflag = 1;
    153c:	00800044 	movi	r2,1
    1540:	88800105 	stb	r2,4(r17)
			res = move_window(fs, fs->fatbase + (bc / SS(fs)));
    1544:	8809883a 	mov	r4,r17
    1548:	28cb883a 	add	r5,r5,r3
    154c:	d9800015 	stw	r6,0(sp)
    1550:	00008900 	call	890 <move_window>
			if (res != FR_OK) break;
    1554:	d9800017 	ldw	r6,0(sp)
    1558:	103fb31e 	bne	r2,zero,1428 <__alt_mem_onchip_flash_0_data+0xf0f01428>
			p = &fs->win[bc % SS(fs)];
    155c:	94807fcc 	andi	r18,r18,511
			*p = (clst & 1) ? (BYTE)(val >> 4) : ((*p & 0xF0) | ((BYTE)(val >> 8) & 0x0F));
    1560:	80000726 	beq	r16,zero,1580 <put_fat+0x1b8>
    1564:	300cd13a 	srli	r6,r6,4
    1568:	8ca5883a 	add	r18,r17,r18
    156c:	91800c05 	stb	r6,48(r18)
    1570:	003fad06 	br	1428 <__alt_mem_onchip_flash_0_data+0xf0f01428>
		case FS_FAT12 :
			bc = clst; bc += bc / 2;
			res = move_window(fs, fs->fatbase + (bc / SS(fs)));
			if (res != FR_OK) break;
			p = &fs->win[bc % SS(fs)];
			*p = (clst & 1) ? ((*p & 0x0F) | ((BYTE)val << 4)) : (BYTE)val;
    1574:	3009883a 	mov	r4,r6
    1578:	8885883a 	add	r2,r17,r2
    157c:	003feb06 	br	152c <__alt_mem_onchip_flash_0_data+0xf0f0152c>
			bc++;
			fs->wflag = 1;
			res = move_window(fs, fs->fatbase + (bc / SS(fs)));
			if (res != FR_OK) break;
			p = &fs->win[bc % SS(fs)];
			*p = (clst & 1) ? (BYTE)(val >> 4) : ((*p & 0xF0) | ((BYTE)(val >> 8) & 0x0F));
    1580:	8ca5883a 	add	r18,r17,r18
    1584:	91400c03 	ldbu	r5,48(r18)
    1588:	3006d23a 	srli	r3,r6,8
    158c:	013ffc04 	movi	r4,-16
    1590:	2908703a 	and	r4,r5,r4
    1594:	18c003cc 	andi	r3,r3,15
    1598:	20ccb03a 	or	r6,r4,r3
    159c:	91800c05 	stb	r6,48(r18)
    15a0:	003fa106 	br	1428 <__alt_mem_onchip_flash_0_data+0xf0f01428>

000015a4 <create_chain>:
static
DWORD create_chain (	/* 0:No free cluster, 1:Internal error, 0xFFFFFFFF:Disk error, >=2:New cluster# */
	FATFS *fs,			/* File system object */
	DWORD clst			/* Cluster# to stretch. 0 means create a new chain. */
)
{
    15a4:	defff904 	addi	sp,sp,-28
    15a8:	dd400515 	stw	r21,20(sp)
    15ac:	dc400115 	stw	r17,4(sp)
    15b0:	dfc00615 	stw	ra,24(sp)
    15b4:	dd000415 	stw	r20,16(sp)
    15b8:	dcc00315 	stw	r19,12(sp)
    15bc:	dc800215 	stw	r18,8(sp)
    15c0:	dc000015 	stw	r16,0(sp)
    15c4:	282b883a 	mov	r21,r5
    15c8:	2023883a 	mov	r17,r4
	DWORD cs, ncl, scl;
	FRESULT res;


	if (clst == 0) {		/* Create a new chain */
    15cc:	2800231e 	bne	r5,zero,165c <create_chain+0xb8>
		scl = fs->last_clust;			/* Get suggested start point */
    15d0:	24800317 	ldw	r18,12(r4)
    15d4:	20c00617 	ldw	r3,24(r4)
		if (!scl || scl >= fs->n_fatent) scl = 1;
    15d8:	90001e1e 	bne	r18,zero,1654 <create_chain+0xb0>
    15dc:	04800044 	movi	r18,1
    15e0:	9021883a 	mov	r16,r18
		scl = clst;
	}

	ncl = scl;				/* Start cluster */
	for (;;) {
		ncl++;							/* Next cluster */
    15e4:	84000044 	addi	r16,r16,1
		if (ncl >= fs->n_fatent) {		/* Wrap around */
			ncl = 2;
			if (ncl > scl) return 0;	/* No free cluster */
    15e8:	04c00044 	movi	r19,1
		}
		cs = get_fat(fs, ncl);			/* Get the cluster status */
		if (cs == 0) break;				/* Found a free cluster */
		if (cs == 0xFFFFFFFF || cs == 1)/* An error occurred */
    15ec:	053fffc4 	movi	r20,-1
		ncl++;							/* Next cluster */
		if (ncl >= fs->n_fatent) {		/* Wrap around */
			ncl = 2;
			if (ncl > scl) return 0;	/* No free cluster */
		}
		cs = get_fat(fs, ncl);			/* Get the cluster status */
    15f0:	8809883a 	mov	r4,r17
	}

	ncl = scl;				/* Start cluster */
	for (;;) {
		ncl++;							/* Next cluster */
		if (ncl >= fs->n_fatent) {		/* Wrap around */
    15f4:	80c00236 	bltu	r16,r3,1600 <create_chain+0x5c>
			ncl = 2;
			if (ncl > scl) return 0;	/* No free cluster */
    15f8:	9c800c2e 	bgeu	r19,r18,162c <create_chain+0x88>

	ncl = scl;				/* Start cluster */
	for (;;) {
		ncl++;							/* Next cluster */
		if (ncl >= fs->n_fatent) {		/* Wrap around */
			ncl = 2;
    15fc:	04000084 	movi	r16,2
			if (ncl > scl) return 0;	/* No free cluster */
		}
		cs = get_fat(fs, ncl);			/* Get the cluster status */
    1600:	800b883a 	mov	r5,r16
    1604:	00010f80 	call	10f8 <get_fat>
		if (cs == 0) break;				/* Found a free cluster */
    1608:	10001d26 	beq	r2,zero,1680 <create_chain+0xdc>
		if (cs == 0xFFFFFFFF || cs == 1)/* An error occurred */
    160c:	15002426 	beq	r2,r20,16a0 <create_chain+0xfc>
    1610:	14c01926 	beq	r2,r19,1678 <create_chain+0xd4>
			return cs;
		if (ncl == scl) return 0;		/* No free cluster */
    1614:	84800526 	beq	r16,r18,162c <create_chain+0x88>
    1618:	88c00617 	ldw	r3,24(r17)
		scl = clst;
	}

	ncl = scl;				/* Start cluster */
	for (;;) {
		ncl++;							/* Next cluster */
    161c:	84000044 	addi	r16,r16,1
		if (ncl >= fs->n_fatent) {		/* Wrap around */
			ncl = 2;
			if (ncl > scl) return 0;	/* No free cluster */
		}
		cs = get_fat(fs, ncl);			/* Get the cluster status */
    1620:	8809883a 	mov	r4,r17
	}

	ncl = scl;				/* Start cluster */
	for (;;) {
		ncl++;							/* Next cluster */
		if (ncl >= fs->n_fatent) {		/* Wrap around */
    1624:	80fff42e 	bgeu	r16,r3,15f8 <__alt_mem_onchip_flash_0_data+0xf0f015f8>
    1628:	003ff506 	br	1600 <__alt_mem_onchip_flash_0_data+0xf0f01600>
			ncl = 2;
			if (ncl > scl) return 0;	/* No free cluster */
    162c:	0005883a 	mov	r2,zero
	} else {
		ncl = (res == FR_DISK_ERR) ? 0xFFFFFFFF : 1;
	}

	return ncl;		/* Return new cluster number or error code */
}
    1630:	dfc00617 	ldw	ra,24(sp)
    1634:	dd400517 	ldw	r21,20(sp)
    1638:	dd000417 	ldw	r20,16(sp)
    163c:	dcc00317 	ldw	r19,12(sp)
    1640:	dc800217 	ldw	r18,8(sp)
    1644:	dc400117 	ldw	r17,4(sp)
    1648:	dc000017 	ldw	r16,0(sp)
    164c:	dec00704 	addi	sp,sp,28
    1650:	f800283a 	ret
	FRESULT res;


	if (clst == 0) {		/* Create a new chain */
		scl = fs->last_clust;			/* Get suggested start point */
		if (!scl || scl >= fs->n_fatent) scl = 1;
    1654:	90ffe12e 	bgeu	r18,r3,15dc <__alt_mem_onchip_flash_0_data+0xf0f015dc>
    1658:	003fe106 	br	15e0 <__alt_mem_onchip_flash_0_data+0xf0f015e0>
	}
	else {					/* Stretch the current chain */
		cs = get_fat(fs, clst);			/* Check the cluster status */
    165c:	00010f80 	call	10f8 <get_fat>
		if (cs < 2) return 1;			/* It is an invalid cluster */
    1660:	00c00044 	movi	r3,1
    1664:	1880042e 	bgeu	r3,r2,1678 <create_chain+0xd4>
		if (cs < fs->n_fatent) return cs;	/* It is already followed by next cluster */
    1668:	88c00617 	ldw	r3,24(r17)
    166c:	10fff036 	bltu	r2,r3,1630 <__alt_mem_onchip_flash_0_data+0xf0f01630>
    1670:	a825883a 	mov	r18,r21
    1674:	003fda06 	br	15e0 <__alt_mem_onchip_flash_0_data+0xf0f015e0>
		scl = fs->last_clust;			/* Get suggested start point */
		if (!scl || scl >= fs->n_fatent) scl = 1;
	}
	else {					/* Stretch the current chain */
		cs = get_fat(fs, clst);			/* Check the cluster status */
		if (cs < 2) return 1;			/* It is an invalid cluster */
    1678:	00800044 	movi	r2,1
    167c:	003fec06 	br	1630 <__alt_mem_onchip_flash_0_data+0xf0f01630>
		if (cs == 0xFFFFFFFF || cs == 1)/* An error occurred */
			return cs;
		if (ncl == scl) return 0;		/* No free cluster */
	}

	res = put_fat(fs, ncl, 0x0FFFFFFF);	/* Mark the new cluster "last link" */
    1680:	8809883a 	mov	r4,r17
    1684:	800b883a 	mov	r5,r16
    1688:	01840034 	movhi	r6,4096
    168c:	31bfffc4 	addi	r6,r6,-1
    1690:	00013c80 	call	13c8 <put_fat>
	if (res == FR_OK && clst != 0) {
    1694:	10000426 	beq	r2,zero,16a8 <create_chain+0x104>
		if (fs->free_clust != 0xFFFFFFFF) {
			fs->free_clust--;
			fs->fsi_flag = 1;
		}
	} else {
		ncl = (res == FR_DISK_ERR) ? 0xFFFFFFFF : 1;
    1698:	04000044 	movi	r16,1
    169c:	14000d1e 	bne	r2,r16,16d4 <create_chain+0x130>
    16a0:	00bfffc4 	movi	r2,-1
    16a4:	003fe206 	br	1630 <__alt_mem_onchip_flash_0_data+0xf0f01630>
			return cs;
		if (ncl == scl) return 0;		/* No free cluster */
	}

	res = put_fat(fs, ncl, 0x0FFFFFFF);	/* Mark the new cluster "last link" */
	if (res == FR_OK && clst != 0) {
    16a8:	a8000c1e 	bne	r21,zero,16dc <create_chain+0x138>
		res = put_fat(fs, clst, ncl);	/* Link it to the previous one if needed */
	}
	if (res == FR_OK) {
		fs->last_clust = ncl;			/* Update FSINFO */
		if (fs->free_clust != 0xFFFFFFFF) {
    16ac:	88800417 	ldw	r2,16(r17)
	res = put_fat(fs, ncl, 0x0FFFFFFF);	/* Mark the new cluster "last link" */
	if (res == FR_OK && clst != 0) {
		res = put_fat(fs, clst, ncl);	/* Link it to the previous one if needed */
	}
	if (res == FR_OK) {
		fs->last_clust = ncl;			/* Update FSINFO */
    16b0:	8c000315 	stw	r16,12(r17)
		if (fs->free_clust != 0xFFFFFFFF) {
    16b4:	00ffffc4 	movi	r3,-1
    16b8:	10c00626 	beq	r2,r3,16d4 <create_chain+0x130>
			fs->free_clust--;
    16bc:	10bfffc4 	addi	r2,r2,-1
    16c0:	88800415 	stw	r2,16(r17)
			fs->fsi_flag = 1;
    16c4:	00800044 	movi	r2,1
    16c8:	88800145 	stb	r2,5(r17)
    16cc:	8005883a 	mov	r2,r16
    16d0:	003fd706 	br	1630 <__alt_mem_onchip_flash_0_data+0xf0f01630>
		}
	} else {
		ncl = (res == FR_DISK_ERR) ? 0xFFFFFFFF : 1;
    16d4:	8005883a 	mov	r2,r16
    16d8:	003fd506 	br	1630 <__alt_mem_onchip_flash_0_data+0xf0f01630>
		if (ncl == scl) return 0;		/* No free cluster */
	}

	res = put_fat(fs, ncl, 0x0FFFFFFF);	/* Mark the new cluster "last link" */
	if (res == FR_OK && clst != 0) {
		res = put_fat(fs, clst, ncl);	/* Link it to the previous one if needed */
    16dc:	8809883a 	mov	r4,r17
    16e0:	a80b883a 	mov	r5,r21
    16e4:	800d883a 	mov	r6,r16
    16e8:	00013c80 	call	13c8 <put_fat>
	}
	if (res == FR_OK) {
    16ec:	103fef26 	beq	r2,zero,16ac <__alt_mem_onchip_flash_0_data+0xf0f016ac>
    16f0:	003fe906 	br	1698 <__alt_mem_onchip_flash_0_data+0xf0f01698>

000016f4 <dir_next>:
	DWORD clst;
	WORD i;


	stretch = stretch;		/* To suppress warning on read-only cfg. */
	i = dj->index + 1;
    16f4:	2080018b 	ldhu	r2,6(r4)
static
FRESULT dir_next (	/* FR_OK:Succeeded, FR_NO_FILE:End of table, FR_DENIED:EOT and could not stretch */
	DIR *dj,		/* Pointer to directory object */
	int stretch		/* 0: Do not stretch table, 1: Stretch table if needed */
)
{
    16f8:	defff804 	addi	sp,sp,-32
    16fc:	dc800215 	stw	r18,8(sp)
	DWORD clst;
	WORD i;


	stretch = stretch;		/* To suppress warning on read-only cfg. */
	i = dj->index + 1;
    1700:	10800044 	addi	r2,r2,1
static
FRESULT dir_next (	/* FR_OK:Succeeded, FR_NO_FILE:End of table, FR_DENIED:EOT and could not stretch */
	DIR *dj,		/* Pointer to directory object */
	int stretch		/* 0: Do not stretch table, 1: Stretch table if needed */
)
{
    1704:	dc400115 	stw	r17,4(sp)
    1708:	dc000015 	stw	r16,0(sp)
    170c:	dfc00715 	stw	ra,28(sp)
    1710:	dd800615 	stw	r22,24(sp)
    1714:	dd400515 	stw	r21,20(sp)
    1718:	dd000415 	stw	r20,16(sp)
    171c:	dcc00315 	stw	r19,12(sp)
	WORD i;


	stretch = stretch;		/* To suppress warning on read-only cfg. */
	i = dj->index + 1;
	if (!i || !dj->sect)	/* Report EOT when index has reached 65535 */
    1720:	10ffffcc 	andi	r3,r2,65535
static
FRESULT dir_next (	/* FR_OK:Succeeded, FR_NO_FILE:End of table, FR_DENIED:EOT and could not stretch */
	DIR *dj,		/* Pointer to directory object */
	int stretch		/* 0: Do not stretch table, 1: Stretch table if needed */
)
{
    1724:	2021883a 	mov	r16,r4
    1728:	2825883a 	mov	r18,r5
	DWORD clst;
	WORD i;


	stretch = stretch;		/* To suppress warning on read-only cfg. */
	i = dj->index + 1;
    172c:	1023883a 	mov	r17,r2
	if (!i || !dj->sect)	/* Report EOT when index has reached 65535 */
    1730:	18000b1e 	bne	r3,zero,1760 <dir_next+0x6c>
		return FR_NO_FILE;
    1734:	00800104 	movi	r2,4

	dj->index = i;
	dj->dir = dj->fs->win + (i % (SS(dj->fs) / SZ_DIR)) * SZ_DIR;

	return FR_OK;
}
    1738:	dfc00717 	ldw	ra,28(sp)
    173c:	dd800617 	ldw	r22,24(sp)
    1740:	dd400517 	ldw	r21,20(sp)
    1744:	dd000417 	ldw	r20,16(sp)
    1748:	dcc00317 	ldw	r19,12(sp)
    174c:	dc800217 	ldw	r18,8(sp)
    1750:	dc400117 	ldw	r17,4(sp)
    1754:	dc000017 	ldw	r16,0(sp)
    1758:	dec00804 	addi	sp,sp,32
    175c:	f800283a 	ret
	WORD i;


	stretch = stretch;		/* To suppress warning on read-only cfg. */
	i = dj->index + 1;
	if (!i || !dj->sect)	/* Report EOT when index has reached 65535 */
    1760:	21000417 	ldw	r4,16(r4)
    1764:	203ff326 	beq	r4,zero,1734 <__alt_mem_onchip_flash_0_data+0xf0f01734>
		return FR_NO_FILE;

	if (!(i % (SS(dj->fs) / SZ_DIR))) {	/* Sector changed? */
    1768:	14c003cc 	andi	r19,r2,15
    176c:	98000826 	beq	r19,zero,1790 <dir_next+0x9c>
    1770:	81000017 	ldw	r4,0(r16)
			}
		}
	}

	dj->index = i;
	dj->dir = dj->fs->win + (i % (SS(dj->fs) / SZ_DIR)) * SZ_DIR;
    1774:	9826917a 	slli	r19,r19,5
				dj->sect = clust2sect(dj->fs, clst);
			}
		}
	}

	dj->index = i;
    1778:	8440018d 	sth	r17,6(r16)
	dj->dir = dj->fs->win + (i % (SS(dj->fs) / SZ_DIR)) * SZ_DIR;

	return FR_OK;
    177c:	0005883a 	mov	r2,zero
			}
		}
	}

	dj->index = i;
	dj->dir = dj->fs->win + (i % (SS(dj->fs) / SZ_DIR)) * SZ_DIR;
    1780:	9cc00c04 	addi	r19,r19,48
    1784:	24c9883a 	add	r4,r4,r19
    1788:	81000515 	stw	r4,20(r16)

	return FR_OK;
    178c:	003fea06 	br	1738 <__alt_mem_onchip_flash_0_data+0xf0f01738>
		return FR_NO_FILE;

	if (!(i % (SS(dj->fs) / SZ_DIR))) {	/* Sector changed? */
		dj->sect++;					/* Next sector */

		if (dj->clust == 0) {	/* Static table */
    1790:	81400317 	ldw	r5,12(r16)
	i = dj->index + 1;
	if (!i || !dj->sect)	/* Report EOT when index has reached 65535 */
		return FR_NO_FILE;

	if (!(i % (SS(dj->fs) / SZ_DIR))) {	/* Sector changed? */
		dj->sect++;					/* Next sector */
    1794:	21000044 	addi	r4,r4,1
    1798:	81000415 	stw	r4,16(r16)

		if (dj->clust == 0) {	/* Static table */
			if (i >= dj->fs->n_rootdir)	/* Report EOT when end of table */
    179c:	81000017 	ldw	r4,0(r16)
		return FR_NO_FILE;

	if (!(i % (SS(dj->fs) / SZ_DIR))) {	/* Sector changed? */
		dj->sect++;					/* Next sector */

		if (dj->clust == 0) {	/* Static table */
    17a0:	28001926 	beq	r5,zero,1808 <dir_next+0x114>
			if (i >= dj->fs->n_rootdir)	/* Report EOT when end of table */
				return FR_NO_FILE;
		}
		else {					/* Dynamic table */
			if (((i / (SS(dj->fs) / SZ_DIR)) & (dj->fs->csize - 1)) == 0) {	/* Cluster changed? */
    17a4:	20800083 	ldbu	r2,2(r4)
    17a8:	1806d13a 	srli	r3,r3,4
    17ac:	10bfffc4 	addi	r2,r2,-1
    17b0:	10c6703a 	and	r3,r2,r3
    17b4:	183fef1e 	bne	r3,zero,1774 <__alt_mem_onchip_flash_0_data+0xf0f01774>
				clst = get_fat(dj->fs, dj->clust);				/* Get next cluster */
    17b8:	00010f80 	call	10f8 <get_fat>
    17bc:	1029883a 	mov	r20,r2
				if (clst <= 1) return FR_INT_ERR;
    17c0:	00800044 	movi	r2,1
    17c4:	1500132e 	bgeu	r2,r20,1814 <dir_next+0x120>
				if (clst == 0xFFFFFFFF) return FR_DISK_ERR;
    17c8:	00bfffc4 	movi	r2,-1
    17cc:	a0801a26 	beq	r20,r2,1838 <dir_next+0x144>
				if (clst >= dj->fs->n_fatent) {					/* When it reached end of dynamic table */
    17d0:	81000017 	ldw	r4,0(r16)
    17d4:	20800617 	ldw	r2,24(r4)
    17d8:	a080102e 	bgeu	r20,r2,181c <dir_next+0x128>
    17dc:	a4bfff84 	addi	r18,r20,-2
	FATFS *fs,		/* File system object */
	DWORD clst		/* Cluster# to be converted */
)
{
	clst -= 2;
	if (clst >= (fs->n_fatent - 2)) return 0;		/* Invalid cluster# */
    17e0:	20800617 	ldw	r2,24(r4)
					dj->fs->winsect -= c;						/* Rewind window address */
#else
					return FR_NO_FILE;			/* Report EOT */
#endif
				}
				dj->clust = clst;				/* Initialize data for new cluster */
    17e4:	85000315 	stw	r20,12(r16)
	FATFS *fs,		/* File system object */
	DWORD clst		/* Cluster# to be converted */
)
{
	clst -= 2;
	if (clst >= (fs->n_fatent - 2)) return 0;		/* Invalid cluster# */
    17e8:	10bfff84 	addi	r2,r2,-2
    17ec:	9080142e 	bgeu	r18,r2,1840 <dir_next+0x14c>
	return clst * fs->csize + fs->database;
    17f0:	20c00083 	ldbu	r3,2(r4)
    17f4:	20800a17 	ldw	r2,40(r4)
    17f8:	90e5383a 	mul	r18,r18,r3
    17fc:	9085883a 	add	r2,r18,r2
#else
					return FR_NO_FILE;			/* Report EOT */
#endif
				}
				dj->clust = clst;				/* Initialize data for new cluster */
				dj->sect = clust2sect(dj->fs, clst);
    1800:	80800415 	stw	r2,16(r16)
    1804:	003fdb06 	br	1774 <__alt_mem_onchip_flash_0_data+0xf0f01774>

	if (!(i % (SS(dj->fs) / SZ_DIR))) {	/* Sector changed? */
		dj->sect++;					/* Next sector */

		if (dj->clust == 0) {	/* Static table */
			if (i >= dj->fs->n_rootdir)	/* Report EOT when end of table */
    1808:	2080020b 	ldhu	r2,8(r4)
    180c:	18bfc92e 	bgeu	r3,r2,1734 <__alt_mem_onchip_flash_0_data+0xf0f01734>
    1810:	003fd806 	br	1774 <__alt_mem_onchip_flash_0_data+0xf0f01774>
				return FR_NO_FILE;
		}
		else {					/* Dynamic table */
			if (((i / (SS(dj->fs) / SZ_DIR)) & (dj->fs->csize - 1)) == 0) {	/* Cluster changed? */
				clst = get_fat(dj->fs, dj->clust);				/* Get next cluster */
				if (clst <= 1) return FR_INT_ERR;
    1814:	00800084 	movi	r2,2
    1818:	003fc706 	br	1738 <__alt_mem_onchip_flash_0_data+0xf0f01738>
				if (clst == 0xFFFFFFFF) return FR_DISK_ERR;
				if (clst >= dj->fs->n_fatent) {					/* When it reached end of dynamic table */
#if !_FS_READONLY
					BYTE c;
					if (!stretch) return FR_NO_FILE;			/* When do not stretch, report EOT */
    181c:	903fc526 	beq	r18,zero,1734 <__alt_mem_onchip_flash_0_data+0xf0f01734>
					clst = create_chain(dj->fs, dj->clust);		/* Stretch cluster chain */
    1820:	81400317 	ldw	r5,12(r16)
    1824:	00015a40 	call	15a4 <create_chain>
    1828:	1029883a 	mov	r20,r2
					if (clst == 0) return FR_DENIED;			/* No free cluster */
    182c:	1000071e 	bne	r2,zero,184c <dir_next+0x158>
    1830:	008001c4 	movi	r2,7
    1834:	003fc006 	br	1738 <__alt_mem_onchip_flash_0_data+0xf0f01738>
		}
		else {					/* Dynamic table */
			if (((i / (SS(dj->fs) / SZ_DIR)) & (dj->fs->csize - 1)) == 0) {	/* Cluster changed? */
				clst = get_fat(dj->fs, dj->clust);				/* Get next cluster */
				if (clst <= 1) return FR_INT_ERR;
				if (clst == 0xFFFFFFFF) return FR_DISK_ERR;
    1838:	00800044 	movi	r2,1
    183c:	003fbe06 	br	1738 <__alt_mem_onchip_flash_0_data+0xf0f01738>
	FATFS *fs,		/* File system object */
	DWORD clst		/* Cluster# to be converted */
)
{
	clst -= 2;
	if (clst >= (fs->n_fatent - 2)) return 0;		/* Invalid cluster# */
    1840:	0005883a 	mov	r2,zero
#else
					return FR_NO_FILE;			/* Report EOT */
#endif
				}
				dj->clust = clst;				/* Initialize data for new cluster */
				dj->sect = clust2sect(dj->fs, clst);
    1844:	80800415 	stw	r2,16(r16)
    1848:	003fca06 	br	1774 <__alt_mem_onchip_flash_0_data+0xf0f01774>
#if !_FS_READONLY
					BYTE c;
					if (!stretch) return FR_NO_FILE;			/* When do not stretch, report EOT */
					clst = create_chain(dj->fs, dj->clust);		/* Stretch cluster chain */
					if (clst == 0) return FR_DENIED;			/* No free cluster */
					if (clst == 1) return FR_INT_ERR;
    184c:	00800044 	movi	r2,1
    1850:	a0bff026 	beq	r20,r2,1814 <__alt_mem_onchip_flash_0_data+0xf0f01814>
					if (clst == 0xFFFFFFFF) return FR_DISK_ERR;
    1854:	00bfffc4 	movi	r2,-1
    1858:	a0bff726 	beq	r20,r2,1838 <__alt_mem_onchip_flash_0_data+0xf0f01838>
					/* Clean-up stretched table */
					if (move_window(dj->fs, 0)) return FR_DISK_ERR;	/* Flush active window */
    185c:	81000017 	ldw	r4,0(r16)
    1860:	000b883a 	mov	r5,zero
    1864:	00008900 	call	890 <move_window>
    1868:	103ff31e 	bne	r2,zero,1838 <__alt_mem_onchip_flash_0_data+0xf0f01838>
					mem_set(dj->fs->win, 0, SS(dj->fs));			/* Clear window buffer */
    186c:	80c00017 	ldw	r3,0(r16)
    1870:	18800c04 	addi	r2,r3,48
/*-----------------------------------------------------------------------*/
/* Directory handling - Move directory index next                        */
/*-----------------------------------------------------------------------*/

static
FRESULT dir_next (	/* FR_OK:Succeeded, FR_NO_FILE:End of table, FR_DENIED:EOT and could not stretch */
    1874:	18c08c04 	addi	r3,r3,560
static
void mem_set (void* dst, int val, UINT cnt) {
	BYTE *d = (BYTE*)dst;

	while (cnt--)
		*d++ = (BYTE)val;
    1878:	10000005 	stb	zero,0(r2)
    187c:	10800044 	addi	r2,r2,1
/* Fill memory */
static
void mem_set (void* dst, int val, UINT cnt) {
	BYTE *d = (BYTE*)dst;

	while (cnt--)
    1880:	10fffd1e 	bne	r2,r3,1878 <__alt_mem_onchip_flash_0_data+0xf0f01878>
					if (clst == 1) return FR_INT_ERR;
					if (clst == 0xFFFFFFFF) return FR_DISK_ERR;
					/* Clean-up stretched table */
					if (move_window(dj->fs, 0)) return FR_DISK_ERR;	/* Flush active window */
					mem_set(dj->fs->win, 0, SS(dj->fs));			/* Clear window buffer */
					dj->fs->winsect = clust2sect(dj->fs, clst);	/* Cluster start sector */
    1884:	80800017 	ldw	r2,0(r16)
DWORD clust2sect (	/* !=0: Sector number, 0: Failed - invalid cluster# */
	FATFS *fs,		/* File system object */
	DWORD clst		/* Cluster# to be converted */
)
{
	clst -= 2;
    1888:	a4bfff84 	addi	r18,r20,-2
	if (clst >= (fs->n_fatent - 2)) return 0;		/* Invalid cluster# */
    188c:	10c00617 	ldw	r3,24(r2)
    1890:	18ffff84 	addi	r3,r3,-2
    1894:	90c01a2e 	bgeu	r18,r3,1900 <dir_next+0x20c>
	return clst * fs->csize + fs->database;
    1898:	11000083 	ldbu	r4,2(r2)
    189c:	10c00a17 	ldw	r3,40(r2)
    18a0:	9109383a 	mul	r4,r18,r4
    18a4:	20c7883a 	add	r3,r4,r3
					if (clst == 1) return FR_INT_ERR;
					if (clst == 0xFFFFFFFF) return FR_DISK_ERR;
					/* Clean-up stretched table */
					if (move_window(dj->fs, 0)) return FR_DISK_ERR;	/* Flush active window */
					mem_set(dj->fs->win, 0, SS(dj->fs));			/* Clear window buffer */
					dj->fs->winsect = clust2sect(dj->fs, clst);	/* Cluster start sector */
    18a8:	10c00b15 	stw	r3,44(r2)
					for (c = 0; c < dj->fs->csize; c++) {		/* Fill the new cluster with 0 */
    18ac:	002b883a 	mov	r21,zero
						dj->fs->wflag = 1;
    18b0:	05800044 	movi	r22,1
					if (clst == 0xFFFFFFFF) return FR_DISK_ERR;
					/* Clean-up stretched table */
					if (move_window(dj->fs, 0)) return FR_DISK_ERR;	/* Flush active window */
					mem_set(dj->fs->win, 0, SS(dj->fs));			/* Clear window buffer */
					dj->fs->winsect = clust2sect(dj->fs, clst);	/* Cluster start sector */
					for (c = 0; c < dj->fs->csize; c++) {		/* Fill the new cluster with 0 */
    18b4:	00000906 	br	18dc <dir_next+0x1e8>
						dj->fs->wflag = 1;
    18b8:	15800105 	stb	r22,4(r2)
						if (move_window(dj->fs, 0)) return FR_DISK_ERR;
    18bc:	81000017 	ldw	r4,0(r16)
					if (clst == 0xFFFFFFFF) return FR_DISK_ERR;
					/* Clean-up stretched table */
					if (move_window(dj->fs, 0)) return FR_DISK_ERR;	/* Flush active window */
					mem_set(dj->fs->win, 0, SS(dj->fs));			/* Clear window buffer */
					dj->fs->winsect = clust2sect(dj->fs, clst);	/* Cluster start sector */
					for (c = 0; c < dj->fs->csize; c++) {		/* Fill the new cluster with 0 */
    18c0:	ad400044 	addi	r21,r21,1
						dj->fs->wflag = 1;
						if (move_window(dj->fs, 0)) return FR_DISK_ERR;
    18c4:	00008900 	call	890 <move_window>
    18c8:	103fdb1e 	bne	r2,zero,1838 <__alt_mem_onchip_flash_0_data+0xf0f01838>
						dj->fs->winsect++;
    18cc:	80800017 	ldw	r2,0(r16)
    18d0:	10c00b17 	ldw	r3,44(r2)
    18d4:	18c00044 	addi	r3,r3,1
    18d8:	10c00b15 	stw	r3,44(r2)
					if (clst == 0xFFFFFFFF) return FR_DISK_ERR;
					/* Clean-up stretched table */
					if (move_window(dj->fs, 0)) return FR_DISK_ERR;	/* Flush active window */
					mem_set(dj->fs->win, 0, SS(dj->fs));			/* Clear window buffer */
					dj->fs->winsect = clust2sect(dj->fs, clst);	/* Cluster start sector */
					for (c = 0; c < dj->fs->csize; c++) {		/* Fill the new cluster with 0 */
    18dc:	11800083 	ldbu	r6,2(r2)
    18e0:	a8c03fcc 	andi	r3,r21,255
						dj->fs->wflag = 1;
						if (move_window(dj->fs, 0)) return FR_DISK_ERR;
    18e4:	000b883a 	mov	r5,zero
					if (clst == 0xFFFFFFFF) return FR_DISK_ERR;
					/* Clean-up stretched table */
					if (move_window(dj->fs, 0)) return FR_DISK_ERR;	/* Flush active window */
					mem_set(dj->fs->win, 0, SS(dj->fs));			/* Clear window buffer */
					dj->fs->winsect = clust2sect(dj->fs, clst);	/* Cluster start sector */
					for (c = 0; c < dj->fs->csize; c++) {		/* Fill the new cluster with 0 */
    18e8:	1009883a 	mov	r4,r2
    18ec:	19bff236 	bltu	r3,r6,18b8 <__alt_mem_onchip_flash_0_data+0xf0f018b8>
						dj->fs->wflag = 1;
						if (move_window(dj->fs, 0)) return FR_DISK_ERR;
						dj->fs->winsect++;
					}
					dj->fs->winsect -= c;						/* Rewind window address */
    18f0:	10800b17 	ldw	r2,44(r2)
    18f4:	10c7c83a 	sub	r3,r2,r3
    18f8:	20c00b15 	stw	r3,44(r4)
    18fc:	003fb806 	br	17e0 <__alt_mem_onchip_flash_0_data+0xf0f017e0>
	FATFS *fs,		/* File system object */
	DWORD clst		/* Cluster# to be converted */
)
{
	clst -= 2;
	if (clst >= (fs->n_fatent - 2)) return 0;		/* Invalid cluster# */
    1900:	0007883a 	mov	r3,zero
    1904:	003fe806 	br	18a8 <__alt_mem_onchip_flash_0_data+0xf0f018a8>

00001908 <dir_find.part.4>:
/*-----------------------------------------------------------------------*/
/* Directory handling - Find an object in the directory                  */
/*-----------------------------------------------------------------------*/

static
FRESULT dir_find (
    1908:	defff404 	addi	sp,sp,-48
    190c:	dd000615 	stw	r20,24(sp)
    1910:	053fffc4 	movi	r20,-1
    1914:	ddc00915 	stw	r23,36(sp)
    1918:	dd800815 	stw	r22,32(sp)
    191c:	dd400715 	stw	r21,28(sp)
    1920:	dcc00515 	stw	r19,20(sp)
    1924:	dc800415 	stw	r18,16(sp)
    1928:	dfc00b15 	stw	ra,44(sp)
    192c:	df000a15 	stw	fp,40(sp)
    1930:	dc400315 	stw	r17,12(sp)
    1934:	dc000215 	stw	r16,8(sp)
    1938:	2025883a 	mov	r18,r4
    193c:	a02f883a 	mov	r23,r20
		dir = dj->dir;					/* Ptr to the directory entry of current index */
		c = dir[DIR_Name];
		if (c == 0) { res = FR_NO_FILE; break; }	/* Reached to end of table */
#if _USE_LFN	/* LFN configuration */
		a = dir[DIR_Attr] & AM_MASK;
		if (c == DDE || ((a & AM_VOL) && a != AM_LFN)) {	/* An entry without valid data */
    1940:	04c03944 	movi	r19,229
{
	UINT i, s;
	WCHAR wc, uc;


	i = ((dir[LDIR_Ord] & ~LLE) - 1) * 13;	/* Get offset in the LFN buffer */
    1944:	057fefc4 	movi	r21,-65
/*-----------------------------------------------------------------------*/
/* Directory handling - Find an object in the directory                  */
/*-----------------------------------------------------------------------*/

static
FRESULT dir_find (
    1948:	05800074 	movhi	r22,1
    194c:	b58ba904 	addi	r22,r22,11940

#if _USE_LFN
	ord = sum = 0xFF;
#endif
	do {
		res = move_window(dj->fs, dj->sect);
    1950:	91000017 	ldw	r4,0(r18)
    1954:	91400417 	ldw	r5,16(r18)
    1958:	00008900 	call	890 <move_window>
		if (res != FR_OK) break;
    195c:	1000121e 	bne	r2,zero,19a8 <dir_find.part.4+0xa0>
		dir = dj->dir;					/* Ptr to the directory entry of current index */
    1960:	94000517 	ldw	r16,20(r18)
		c = dir[DIR_Name];
    1964:	84400003 	ldbu	r17,0(r16)
		if (c == 0) { res = FR_NO_FILE; break; }	/* Reached to end of table */
    1968:	88c03fcc 	andi	r3,r17,255
    196c:	18006a26 	beq	r3,zero,1b18 <dir_find.part.4+0x210>
#if _USE_LFN	/* LFN configuration */
		a = dir[DIR_Attr] & AM_MASK;
    1970:	810002c3 	ldbu	r4,11(r16)
    1974:	21400fcc 	andi	r5,r4,63
		if (c == DDE || ((a & AM_VOL) && a != AM_LFN)) {	/* An entry without valid data */
    1978:	1cc00626 	beq	r3,r19,1994 <dir_find.part.4+0x8c>
    197c:	2100020c 	andi	r4,r4,8
    1980:	21003fcc 	andi	r4,r4,255
    1984:	29403fcc 	andi	r5,r5,255
    1988:	20003f26 	beq	r4,zero,1a88 <dir_find.part.4+0x180>
    198c:	008003c4 	movi	r2,15
    1990:	28801126 	beq	r5,r2,19d8 <dir_find.part.4+0xd0>
						sum = dir[LDIR_Chksum];
						c &= ~LLE; ord = c;	/* LFN start order */
						dj->lfn_idx = dj->index;
					}
					/* Check validity of the LFN entry and compare it with given name */
					ord = (c == ord && sum == dir[LDIR_Chksum] && cmp_lfn(dj->lfn, dir)) ? ord - 1 : 0xFF;
    1994:	05ffffc4 	movi	r23,-1
		}
#else		/* Non LFN configuration */
		if (!(dir[DIR_Attr] & AM_VOL) && !mem_cmp(dir, dj->fn, 11)) /* Is it a valid entry? */
			break;
#endif
		res = dir_next(dj, 0);		/* Next entry */
    1998:	9009883a 	mov	r4,r18
    199c:	000b883a 	mov	r5,zero
    19a0:	00016f40 	call	16f4 <dir_next>
	} while (res == FR_OK);
    19a4:	103fea26 	beq	r2,zero,1950 <__alt_mem_onchip_flash_0_data+0xf0f01950>

	return res;
}
    19a8:	dfc00b17 	ldw	ra,44(sp)
    19ac:	df000a17 	ldw	fp,40(sp)
    19b0:	ddc00917 	ldw	r23,36(sp)
    19b4:	dd800817 	ldw	r22,32(sp)
    19b8:	dd400717 	ldw	r21,28(sp)
    19bc:	dd000617 	ldw	r20,24(sp)
    19c0:	dcc00517 	ldw	r19,20(sp)
    19c4:	dc800417 	ldw	r18,16(sp)
    19c8:	dc400317 	ldw	r17,12(sp)
    19cc:	dc000217 	ldw	r16,8(sp)
    19d0:	dec00c04 	addi	sp,sp,48
    19d4:	f800283a 	ret
		a = dir[DIR_Attr] & AM_MASK;
		if (c == DDE || ((a & AM_VOL) && a != AM_LFN)) {	/* An entry without valid data */
			ord = 0xFF;
		} else {
			if (a == AM_LFN) {			/* An LFN entry is found */
				if (dj->lfn) {
    19d8:	97000717 	ldw	fp,28(r18)
    19dc:	e03fee26 	beq	fp,zero,1998 <__alt_mem_onchip_flash_0_data+0xf0f01998>
					if (c & LLE) {		/* Is it start of LFN sequence? */
    19e0:	8880100c 	andi	r2,r17,64
    19e4:	10803fcc 	andi	r2,r2,255
    19e8:	10004826 	beq	r2,zero,1b0c <dir_find.part.4+0x204>
						sum = dir[LDIR_Chksum];
						c &= ~LLE; ord = c;	/* LFN start order */
						dj->lfn_idx = dj->index;
    19ec:	9080018b 	ldhu	r2,6(r18)
			ord = 0xFF;
		} else {
			if (a == AM_LFN) {			/* An LFN entry is found */
				if (dj->lfn) {
					if (c & LLE) {		/* Is it start of LFN sequence? */
						sum = dir[LDIR_Chksum];
    19f0:	85000343 	ldbu	r20,13(r16)
						c &= ~LLE; ord = c;	/* LFN start order */
    19f4:	ac62703a 	and	r17,r21,r17
						dj->lfn_idx = dj->index;
    19f8:	9080080d 	sth	r2,32(r18)
					}
					/* Check validity of the LFN entry and compare it with given name */
					ord = (c == ord && sum == dir[LDIR_Chksum] && cmp_lfn(dj->lfn, dir)) ? ord - 1 : 0xFF;
    19fc:	82000343 	ldbu	r8,13(r16)
    1a00:	a0803fcc 	andi	r2,r20,255
    1a04:	40c03fcc 	andi	r3,r8,255
    1a08:	18bfe21e 	bne	r3,r2,1994 <__alt_mem_onchip_flash_0_data+0xf0f01994>
{
	UINT i, s;
	WCHAR wc, uc;


	i = ((dir[LDIR_Ord] & ~LLE) - 1) * 13;	/* Get offset in the LFN buffer */
    1a0c:	82400003 	ldbu	r9,0(r16)
    1a10:	05000074 	movhi	r20,1
    1a14:	a50ba5c4 	addi	r20,r20,11927
    1a18:	01c00044 	movi	r7,1
    1a1c:	4d52703a 	and	r9,r9,r21
    1a20:	4a7fffc4 	addi	r9,r9,-1
    1a24:	4dc00364 	muli	r23,r9,13
	s = 0; wc = 1;
	do {
		uc = LD_WORD(dir+LfnOfs[s]);	/* Pick an LFN character from the entry */
    1a28:	a1000003 	ldbu	r4,0(r20)
    1a2c:	a5000044 	addi	r20,r20,1
    1a30:	8109883a 	add	r4,r16,r4
    1a34:	21800043 	ldbu	r6,1(r4)
    1a38:	21400003 	ldbu	r5,0(r4)
    1a3c:	3008923a 	slli	r4,r6,8
    1a40:	2148b03a 	or	r4,r4,r5
		if (wc) {	/* Last char has not been processed */
			wc = ff_wtoupper(uc);		/* Convert it to upper case */
			if (i >= _MAX_LFN || wc != ff_wtoupper(lfnbuf[i++]))	/* Compare it */
				return 0;				/* Not matched */
		} else {
			if (uc != 0xFFFF) return 0;	/* Check filler */
    1a44:	20bfffcc 	andi	r2,r4,65535

	i = ((dir[LDIR_Ord] & ~LLE) - 1) * 13;	/* Get offset in the LFN buffer */
	s = 0; wc = 1;
	do {
		uc = LD_WORD(dir+LfnOfs[s]);	/* Pick an LFN character from the entry */
		if (wc) {	/* Last char has not been processed */
    1a48:	3800351e 	bne	r7,zero,1b20 <dir_find.part.4+0x218>
			wc = ff_wtoupper(uc);		/* Convert it to upper case */
			if (i >= _MAX_LFN || wc != ff_wtoupper(lfnbuf[i++]))	/* Compare it */
				return 0;				/* Not matched */
		} else {
			if (uc != 0xFFFF) return 0;	/* Check filler */
    1a4c:	00ffffd4 	movui	r3,65535
    1a50:	10c0451e 	bne	r2,r3,1b68 <dir_find.part.4+0x260>
		}
	} while (++s < 13);				/* Repeat until all chars in the entry are checked */
    1a54:	a5bff41e 	bne	r20,r22,1a28 <__alt_mem_onchip_flash_0_data+0xf0f01a28>

	if ((dir[LDIR_Ord] & LLE) && wc && lfnbuf[i])	/* Last segment matched but different length */
    1a58:	80800003 	ldbu	r2,0(r16)
    1a5c:	1080100c 	andi	r2,r2,64
    1a60:	10803fcc 	andi	r2,r2,255
    1a64:	10000526 	beq	r2,zero,1a7c <dir_find.part.4+0x174>
    1a68:	38000426 	beq	r7,zero,1a7c <dir_find.part.4+0x174>
    1a6c:	bdd3883a 	add	r9,r23,r23
    1a70:	e279883a 	add	fp,fp,r9
    1a74:	e080000b 	ldhu	r2,0(fp)
    1a78:	10003b1e 	bne	r2,zero,1b68 <dir_find.part.4+0x260>
						sum = dir[LDIR_Chksum];
						c &= ~LLE; ord = c;	/* LFN start order */
						dj->lfn_idx = dj->index;
					}
					/* Check validity of the LFN entry and compare it with given name */
					ord = (c == ord && sum == dir[LDIR_Chksum] && cmp_lfn(dj->lfn, dir)) ? ord - 1 : 0xFF;
    1a7c:	8dffffc4 	addi	r23,r17,-1
    1a80:	4029883a 	mov	r20,r8
    1a84:	003fc406 	br	1998 <__alt_mem_onchip_flash_0_data+0xf0f01998>
#if _USE_LFN	/* LFN configuration */
		a = dir[DIR_Attr] & AM_MASK;
		if (c == DDE || ((a & AM_VOL) && a != AM_LFN)) {	/* An entry without valid data */
			ord = 0xFF;
		} else {
			if (a == AM_LFN) {			/* An LFN entry is found */
    1a88:	010003c4 	movi	r4,15
    1a8c:	293fd226 	beq	r5,r4,19d8 <__alt_mem_onchip_flash_0_data+0xf0f019d8>
					}
					/* Check validity of the LFN entry and compare it with given name */
					ord = (c == ord && sum == dir[LDIR_Chksum] && cmp_lfn(dj->lfn, dir)) ? ord - 1 : 0xFF;
				}
			} else {					/* An SFN entry is found */
				if (!ord && sum == sum_sfn(dir)) break;	/* LFN matched? */
    1a90:	bdc03fcc 	andi	r23,r23,255
    1a94:	b8000f1e 	bne	r23,zero,1ad4 <dir_find.part.4+0x1cc>
/*-----------------------------------------------------------------------*/
/* Directory handling - Find an object in the directory                  */
/*-----------------------------------------------------------------------*/

static
FRESULT dir_find (
    1a98:	80c00044 	addi	r3,r16,1
    1a9c:	818002c4 	addi	r6,r16,11
    1aa0:	000b883a 	mov	r5,zero
    1aa4:	00000206 	br	1ab0 <dir_find.part.4+0x1a8>
    1aa8:	1c400003 	ldbu	r17,0(r3)
    1aac:	18c00044 	addi	r3,r3,1
)
{
	BYTE sum = 0;
	UINT n = 11;

	do sum = (sum >> 1) + (sum << 7) + *dir++; while (--n);
    1ab0:	29003fcc 	andi	r4,r5,255
    1ab4:	2008d07a 	srli	r4,r4,1
    1ab8:	280a91fa 	slli	r5,r5,7
    1abc:	214ab03a 	or	r5,r4,r5
    1ac0:	2c4b883a 	add	r5,r5,r17
    1ac4:	19bff81e 	bne	r3,r6,1aa8 <__alt_mem_onchip_flash_0_data+0xf0f01aa8>
					}
					/* Check validity of the LFN entry and compare it with given name */
					ord = (c == ord && sum == dir[LDIR_Chksum] && cmp_lfn(dj->lfn, dir)) ? ord - 1 : 0xFF;
				}
			} else {					/* An SFN entry is found */
				if (!ord && sum == sum_sfn(dir)) break;	/* LFN matched? */
    1ac8:	29403fcc 	andi	r5,r5,255
    1acc:	a0c03fcc 	andi	r3,r20,255
    1ad0:	28ffb526 	beq	r5,r3,19a8 <__alt_mem_onchip_flash_0_data+0xf0f019a8>
				ord = 0xFF; dj->lfn_idx = 0xFFFF;	/* Reset LFN sequence */
				if (!(dj->fn[NS] & NS_LOSS) && !mem_cmp(dir, dj->fn, 11)) break;	/* SFN matched? */
    1ad4:	90c00617 	ldw	r3,24(r18)
					/* Check validity of the LFN entry and compare it with given name */
					ord = (c == ord && sum == dir[LDIR_Chksum] && cmp_lfn(dj->lfn, dir)) ? ord - 1 : 0xFF;
				}
			} else {					/* An SFN entry is found */
				if (!ord && sum == sum_sfn(dir)) break;	/* LFN matched? */
				ord = 0xFF; dj->lfn_idx = 0xFFFF;	/* Reset LFN sequence */
    1ad8:	05ffffc4 	movi	r23,-1
    1adc:	95c0080d 	sth	r23,32(r18)
				if (!(dj->fn[NS] & NS_LOSS) && !mem_cmp(dir, dj->fn, 11)) break;	/* SFN matched? */
    1ae0:	190002c3 	ldbu	r4,11(r3)
    1ae4:	2100004c 	andi	r4,r4,1
    1ae8:	203fab1e 	bne	r4,zero,1998 <__alt_mem_onchip_flash_0_data+0xf0f01998>
/*-----------------------------------------------------------------------*/
/* Directory handling - Find an object in the directory                  */
/*-----------------------------------------------------------------------*/

static
FRESULT dir_find (
    1aec:	818002c4 	addi	r6,r16,11
static
int mem_cmp (const void* dst, const void* src, UINT cnt) {
	const BYTE *d = (const BYTE *)dst, *s = (const BYTE *)src;
	int r = 0;

	while (cnt-- && (r = *d++ - *s++) == 0) ;
    1af0:	81400003 	ldbu	r5,0(r16)
    1af4:	19000003 	ldbu	r4,0(r3)
    1af8:	84000044 	addi	r16,r16,1
    1afc:	18c00044 	addi	r3,r3,1
    1b00:	293fa41e 	bne	r5,r4,1994 <__alt_mem_onchip_flash_0_data+0xf0f01994>
    1b04:	81bffa1e 	bne	r16,r6,1af0 <__alt_mem_onchip_flash_0_data+0xf0f01af0>
    1b08:	003fa706 	br	19a8 <__alt_mem_onchip_flash_0_data+0xf0f019a8>
						sum = dir[LDIR_Chksum];
						c &= ~LLE; ord = c;	/* LFN start order */
						dj->lfn_idx = dj->index;
					}
					/* Check validity of the LFN entry and compare it with given name */
					ord = (c == ord && sum == dir[LDIR_Chksum] && cmp_lfn(dj->lfn, dir)) ? ord - 1 : 0xFF;
    1b0c:	bdc03fcc 	andi	r23,r23,255
    1b10:	1dffa01e 	bne	r3,r23,1994 <__alt_mem_onchip_flash_0_data+0xf0f01994>
    1b14:	003fb906 	br	19fc <__alt_mem_onchip_flash_0_data+0xf0f019fc>
	do {
		res = move_window(dj->fs, dj->sect);
		if (res != FR_OK) break;
		dir = dj->dir;					/* Ptr to the directory entry of current index */
		c = dir[DIR_Name];
		if (c == 0) { res = FR_NO_FILE; break; }	/* Reached to end of table */
    1b18:	00800104 	movi	r2,4
    1b1c:	003fa206 	br	19a8 <__alt_mem_onchip_flash_0_data+0xf0f019a8>
	i = ((dir[LDIR_Ord] & ~LLE) - 1) * 13;	/* Get offset in the LFN buffer */
	s = 0; wc = 1;
	do {
		uc = LD_WORD(dir+LfnOfs[s]);	/* Pick an LFN character from the entry */
		if (wc) {	/* Last char has not been processed */
			wc = ff_wtoupper(uc);		/* Convert it to upper case */
    1b20:	1009883a 	mov	r4,r2
    1b24:	da000115 	stw	r8,4(sp)
    1b28:	0004e800 	call	4e80 <ff_wtoupper>
    1b2c:	100f883a 	mov	r7,r2
			if (i >= _MAX_LFN || wc != ff_wtoupper(lfnbuf[i++]))	/* Compare it */
    1b30:	00c03f84 	movi	r3,254
    1b34:	bdc5883a 	add	r2,r23,r23
    1b38:	e085883a 	add	r2,fp,r2
    1b3c:	da000117 	ldw	r8,4(sp)
    1b40:	1dc00936 	bltu	r3,r23,1b68 <dir_find.part.4+0x260>
    1b44:	1100000b 	ldhu	r4,0(r2)
    1b48:	d9c00015 	stw	r7,0(sp)
    1b4c:	bdc00044 	addi	r23,r23,1
    1b50:	0004e800 	call	4e80 <ff_wtoupper>
    1b54:	d9c00017 	ldw	r7,0(sp)
    1b58:	10bfffcc 	andi	r2,r2,65535
    1b5c:	da000117 	ldw	r8,4(sp)
    1b60:	39ffffcc 	andi	r7,r7,65535
    1b64:	38bfbb26 	beq	r7,r2,1a54 <__alt_mem_onchip_flash_0_data+0xf0f01a54>
						sum = dir[LDIR_Chksum];
						c &= ~LLE; ord = c;	/* LFN start order */
						dj->lfn_idx = dj->index;
					}
					/* Check validity of the LFN entry and compare it with given name */
					ord = (c == ord && sum == dir[LDIR_Chksum] && cmp_lfn(dj->lfn, dir)) ? ord - 1 : 0xFF;
    1b68:	4029883a 	mov	r20,r8
    1b6c:	05ffffc4 	movi	r23,-1
    1b70:	003f8906 	br	1998 <__alt_mem_onchip_flash_0_data+0xf0f01998>

00001b74 <follow_path>:
static
FRESULT follow_path (	/* FR_OK(0): successful, !=0: error code */
	DIR *dj,			/* Directory object to return last directory and found object */
	const TCHAR *path	/* Full-path string to find a file or directory */
)
{
    1b74:	defff104 	addi	sp,sp,-60
    1b78:	ddc00c15 	stw	r23,48(sp)
    1b7c:	dcc00815 	stw	r19,32(sp)
    1b80:	dfc00e15 	stw	ra,56(sp)
    1b84:	df000d15 	stw	fp,52(sp)
    1b88:	dd800b15 	stw	r22,44(sp)
    1b8c:	dd400a15 	stw	r21,40(sp)
    1b90:	dd000915 	stw	r20,36(sp)
    1b94:	dc800715 	stw	r18,28(sp)
    1b98:	dc400615 	stw	r17,24(sp)
    1b9c:	dc000515 	stw	r16,20(sp)
		path++;	dj->sclust = 0;		/* Strip it and start from the root dir */
	} else {							/* No heading separator */
		dj->sclust = dj->fs->cdir;	/* Start from the current dir */
	}
#else
	if (*path == '/' || *path == '\\')	/* Strip heading separator if exist */
    1ba0:	28800007 	ldb	r2,0(r5)
    1ba4:	00c00bc4 	movi	r3,47
static
FRESULT follow_path (	/* FR_OK(0): successful, !=0: error code */
	DIR *dj,			/* Directory object to return last directory and found object */
	const TCHAR *path	/* Full-path string to find a file or directory */
)
{
    1ba8:	282f883a 	mov	r23,r5
    1bac:	2027883a 	mov	r19,r4
		path++;	dj->sclust = 0;		/* Strip it and start from the root dir */
	} else {							/* No heading separator */
		dj->sclust = dj->fs->cdir;	/* Start from the current dir */
	}
#else
	if (*path == '/' || *path == '\\')	/* Strip heading separator if exist */
    1bb0:	10c11826 	beq	r2,r3,2014 <follow_path+0x4a0>
    1bb4:	00c01704 	movi	r3,92
    1bb8:	10c11626 	beq	r2,r3,2014 <follow_path+0x4a0>
		path++;
	dj->sclust = 0;						/* Start from the root dir */
    1bbc:	98000215 	stw	zero,8(r19)
#endif

	if ((UINT)*path < ' ') {			/* Nul path means the start directory itself */
    1bc0:	b8c00003 	ldbu	r3,0(r23)
    1bc4:	010007c4 	movi	r4,31
    1bc8:	18803fcc 	andi	r2,r3,255
    1bcc:	2081172e 	bgeu	r4,r2,202c <follow_path+0x4b8>
	WCHAR w, *lfn;
	UINT i, ni, si, di;
	const TCHAR *p;

	/* Create LFN in Unicode */
	for (p = *path; *p == '/' || *p == '\\'; p++) ;	/* Strip duplicated separator */
    1bd0:	05800bc4 	movi	r22,47
    1bd4:	05401704 	movi	r21,92
    1bd8:	00000206 	br	1be4 <follow_path+0x70>
    1bdc:	b8c00043 	ldbu	r3,1(r23)
    1be0:	bdc00044 	addi	r23,r23,1
    1be4:	18803fcc 	andi	r2,r3,255
    1be8:	1080201c 	xori	r2,r2,128
    1bec:	10bfe004 	addi	r2,r2,-128
    1bf0:	15bffa26 	beq	r2,r22,1bdc <__alt_mem_onchip_flash_0_data+0xf0f01bdc>
    1bf4:	157ff926 	beq	r2,r21,1bdc <__alt_mem_onchip_flash_0_data+0xf0f01bdc>
	lfn = dj->lfn;
	si = di = 0;
	for (;;) {
		w = p[si++];					/* Get a character */
    1bf8:	18c03fcc 	andi	r3,r3,255
	UINT i, ni, si, di;
	const TCHAR *p;

	/* Create LFN in Unicode */
	for (p = *path; *p == '/' || *p == '\\'; p++) ;	/* Strip duplicated separator */
	lfn = dj->lfn;
    1bfc:	99800717 	ldw	r6,28(r19)
	si = di = 0;
	for (;;) {
		w = p[si++];					/* Get a character */
    1c00:	18c0201c 	xori	r3,r3,128
    1c04:	18ffe004 	addi	r3,r3,-128
		if (w < ' ' || w == '/' || w == '\\') break;	/* Break on end of segment */
    1c08:	18bfffcc 	andi	r2,r3,65535
	UINT i, ni, si, di;
	const TCHAR *p;

	/* Create LFN in Unicode */
	for (p = *path; *p == '/' || *p == '\\'; p++) ;	/* Strip duplicated separator */
	lfn = dj->lfn;
    1c0c:	d9800015 	stw	r6,0(sp)
	si = di = 0;
	for (;;) {
		w = p[si++];					/* Get a character */
		if (w < ' ' || w == '/' || w == '\\') break;	/* Break on end of segment */
    1c10:	010007c4 	movi	r4,31
    1c14:	2080e82e 	bgeu	r4,r2,1fb8 <follow_path+0x444>
    1c18:	01000bc4 	movi	r4,47
    1c1c:	11004926 	beq	r2,r4,1d44 <follow_path+0x1d0>
    1c20:	3025883a 	mov	r18,r6
	const TCHAR *p;

	/* Create LFN in Unicode */
	for (p = *path; *p == '/' || *p == '\\'; p++) ;	/* Strip duplicated separator */
	lfn = dj->lfn;
	si = di = 0;
    1c24:	0039883a 	mov	fp,zero
	for (;;) {
		w = p[si++];					/* Get a character */
    1c28:	01400044 	movi	r5,1
	const TCHAR *p;

	/* Create LFN in Unicode */
	for (p = *path; *p == '/' || *p == '\\'; p++) ;	/* Strip duplicated separator */
	lfn = dj->lfn;
	si = di = 0;
    1c2c:	0029883a 	mov	r20,zero
		if (w < ' ' || w == '/' || w == '\\') break;	/* Break on end of segment */
		if (di >= _MAX_LFN)				/* Reject too long name */
			return FR_INVALID_NAME;
#if !_LFN_UNICODE
		w &= 0xFF;
		if (IsDBCS1(w)) {				/* Check if it is a DBC 1st byte (always false on SBCS cfg) */
    1c30:	04000784 	movi	r16,30
			b = (BYTE)p[si++];			/* Get 2nd byte */
			if (!IsDBCS2(b))
    1c34:	04400f84 	movi	r17,62
		w = p[si++];					/* Get a character */
		if (w < ' ' || w == '/' || w == '\\') break;	/* Break on end of segment */
		if (di >= _MAX_LFN)				/* Reject too long name */
			return FR_INVALID_NAME;
#if !_LFN_UNICODE
		w &= 0xFF;
    1c38:	18c03fcc 	andi	r3,r3,255
		if (IsDBCS1(w)) {				/* Check if it is a DBC 1st byte (always false on SBCS cfg) */
    1c3c:	1805883a 	mov	r2,r3
    1c40:	11801fc4 	addi	r6,r2,127
    1c44:	31803fcc 	andi	r6,r6,255
		w = p[si++];					/* Get a character */
		if (w < ' ' || w == '/' || w == '\\') break;	/* Break on end of segment */
		if (di >= _MAX_LFN)				/* Reject too long name */
			return FR_INVALID_NAME;
#if !_LFN_UNICODE
		w &= 0xFF;
    1c48:	1809883a 	mov	r4,r3
		if (IsDBCS1(w)) {				/* Check if it is a DBC 1st byte (always false on SBCS cfg) */
    1c4c:	81802f2e 	bgeu	r16,r6,1d0c <follow_path+0x198>
    1c50:	10800804 	addi	r2,r2,32
    1c54:	10803fcc 	andi	r2,r2,255
    1c58:	01800704 	movi	r6,28
    1c5c:	30802b2e 	bgeu	r6,r2,1d0c <follow_path+0x198>
    1c60:	2829883a 	mov	r20,r5
			b = (BYTE)p[si++];			/* Get 2nd byte */
			if (!IsDBCS2(b))
				return FR_INVALID_NAME;	/* Reject invalid sequence */
			w = (w << 8) + b;			/* Create a DBC */
		}
		w = ff_convert(w, 1);			/* Convert ANSI/OEM to Unicode */
    1c64:	213fffcc 	andi	r4,r4,65535
    1c68:	01400044 	movi	r5,1
    1c6c:	0004df00 	call	4df0 <ff_convert>
		if (!w) return FR_INVALID_NAME;	/* Reject invalid code */
    1c70:	113fffcc 	andi	r4,r2,65535
    1c74:	20001826 	beq	r4,zero,1cd8 <follow_path+0x164>
#endif
		if (w < 0x80 && chk_chr("\"*:<>\?|\x7F", w)) /* Reject illegal chars for LFN */
    1c78:	00c01fc4 	movi	r3,127
    1c7c:	19000936 	bltu	r3,r4,1ca4 <follow_path+0x130>
}

/* Check if chr is contained in the string */
static
int chk_chr (const char* str, int chr) {
	while (*str && *str != chr) str++;
    1c80:	00c00884 	movi	r3,34
    1c84:	20c01426 	beq	r4,r3,1cd8 <follow_path+0x164>
    1c88:	00c00074 	movhi	r3,1
    1c8c:	18cba144 	addi	r3,r3,11909
    1c90:	00000106 	br	1c98 <follow_path+0x124>
    1c94:	21801026 	beq	r4,r6,1cd8 <follow_path+0x164>
    1c98:	19800007 	ldb	r6,0(r3)
    1c9c:	18c00044 	addi	r3,r3,1
    1ca0:	303ffc1e 	bne	r6,zero,1c94 <__alt_mem_onchip_flash_0_data+0xf0f01c94>
		w = ff_convert(w, 1);			/* Convert ANSI/OEM to Unicode */
		if (!w) return FR_INVALID_NAME;	/* Reject invalid code */
#endif
		if (w < 0x80 && chk_chr("\"*:<>\?|\x7F", w)) /* Reject illegal chars for LFN */
			return FR_INVALID_NAME;
		lfn[di++] = w;					/* Store the Unicode char */
    1ca4:	9080000d 	sth	r2,0(r18)
	/* Create LFN in Unicode */
	for (p = *path; *p == '/' || *p == '\\'; p++) ;	/* Strip duplicated separator */
	lfn = dj->lfn;
	si = di = 0;
	for (;;) {
		w = p[si++];					/* Get a character */
    1ca8:	bd05883a 	add	r2,r23,r20
    1cac:	10c00007 	ldb	r3,0(r2)
		if (w < ' ' || w == '/' || w == '\\') break;	/* Break on end of segment */
    1cb0:	010007c4 	movi	r4,31
		w = ff_convert(w, 1);			/* Convert ANSI/OEM to Unicode */
		if (!w) return FR_INVALID_NAME;	/* Reject invalid code */
#endif
		if (w < 0x80 && chk_chr("\"*:<>\?|\x7F", w)) /* Reject illegal chars for LFN */
			return FR_INVALID_NAME;
		lfn[di++] = w;					/* Store the Unicode char */
    1cb4:	e7000044 	addi	fp,fp,1
	for (p = *path; *p == '/' || *p == '\\'; p++) ;	/* Strip duplicated separator */
	lfn = dj->lfn;
	si = di = 0;
	for (;;) {
		w = p[si++];					/* Get a character */
		if (w < ' ' || w == '/' || w == '\\') break;	/* Break on end of segment */
    1cb8:	18bfffcc 	andi	r2,r3,65535
	/* Create LFN in Unicode */
	for (p = *path; *p == '/' || *p == '\\'; p++) ;	/* Strip duplicated separator */
	lfn = dj->lfn;
	si = di = 0;
	for (;;) {
		w = p[si++];					/* Get a character */
    1cbc:	a1400044 	addi	r5,r20,1
		if (w < ' ' || w == '/' || w == '\\') break;	/* Break on end of segment */
    1cc0:	2080bf2e 	bgeu	r4,r2,1fc0 <follow_path+0x44c>
    1cc4:	15802126 	beq	r2,r22,1d4c <follow_path+0x1d8>
    1cc8:	15402026 	beq	r2,r21,1d4c <follow_path+0x1d8>
		if (di >= _MAX_LFN)				/* Reject too long name */
    1ccc:	00803fc4 	movi	r2,255
    1cd0:	94800084 	addi	r18,r18,2
    1cd4:	e0bfd81e 	bne	fp,r2,1c38 <__alt_mem_onchip_flash_0_data+0xf0f01c38>
		if (i >= ni || si == di) {		/* Extension or end of SFN */
			if (ni == 11) {				/* Long extension */
				cf |= NS_LOSS | NS_LFN; break;
			}
			if (si != di) cf |= NS_LOSS | NS_LFN;	/* Out of 8.3 format */
			if (si > di) break;			/* No extension */
    1cd8:	00800184 	movi	r2,6
			dj->sclust = LD_CLUST(dir);
		}
	}

	return res;
}
    1cdc:	dfc00e17 	ldw	ra,56(sp)
    1ce0:	df000d17 	ldw	fp,52(sp)
    1ce4:	ddc00c17 	ldw	r23,48(sp)
    1ce8:	dd800b17 	ldw	r22,44(sp)
    1cec:	dd400a17 	ldw	r21,40(sp)
    1cf0:	dd000917 	ldw	r20,36(sp)
    1cf4:	dcc00817 	ldw	r19,32(sp)
    1cf8:	dc800717 	ldw	r18,28(sp)
    1cfc:	dc400617 	ldw	r17,24(sp)
    1d00:	dc000517 	ldw	r16,20(sp)
    1d04:	dec00f04 	addi	sp,sp,60
    1d08:	f800283a 	ret
		if (di >= _MAX_LFN)				/* Reject too long name */
			return FR_INVALID_NAME;
#if !_LFN_UNICODE
		w &= 0xFF;
		if (IsDBCS1(w)) {				/* Check if it is a DBC 1st byte (always false on SBCS cfg) */
			b = (BYTE)p[si++];			/* Get 2nd byte */
    1d0c:	b94b883a 	add	r5,r23,r5
    1d10:	28800003 	ldbu	r2,0(r5)
    1d14:	a5000084 	addi	r20,r20,2
			if (!IsDBCS2(b))
    1d18:	113ff004 	addi	r4,r2,-64
    1d1c:	21003fcc 	andi	r4,r4,255
    1d20:	8900042e 	bgeu	r17,r4,1d34 <follow_path+0x1c0>
    1d24:	113fe004 	addi	r4,r2,-128
    1d28:	21003fcc 	andi	r4,r4,255
    1d2c:	01401f04 	movi	r5,124
    1d30:	293fe936 	bltu	r5,r4,1cd8 <__alt_mem_onchip_flash_0_data+0xf0f01cd8>
				return FR_INVALID_NAME;	/* Reject invalid sequence */
			w = (w << 8) + b;			/* Create a DBC */
    1d34:	1806923a 	slli	r3,r3,8
    1d38:	10803fcc 	andi	r2,r2,255
    1d3c:	1889883a 	add	r4,r3,r2
    1d40:	003fc806 	br	1c64 <__alt_mem_onchip_flash_0_data+0xf0f01c64>
	const TCHAR *p;

	/* Create LFN in Unicode */
	for (p = *path; *p == '/' || *p == '\\'; p++) ;	/* Strip duplicated separator */
	lfn = dj->lfn;
	si = di = 0;
    1d44:	0039883a 	mov	fp,zero
	for (;;) {
		w = p[si++];					/* Get a character */
    1d48:	01400044 	movi	r5,1
#endif
		if (w < 0x80 && chk_chr("\"*:<>\?|\x7F", w)) /* Reject illegal chars for LFN */
			return FR_INVALID_NAME;
		lfn[di++] = w;					/* Store the Unicode char */
	}
	*path = &p[si];						/* Return pointer to the next segment */
    1d4c:	b96f883a 	add	r23,r23,r5
	cf = (w < ' ') ? NS_LAST : 0;		/* Set last segment flag if end of path */
    1d50:	0023883a 	mov	r17,zero
			dj->fn[i] = (i < di) ? '.' : ' ';
		dj->fn[i] = cf | NS_DOT;		/* This is a dot entry */
		return FR_OK;
	}
#endif
	while (di) {						/* Strip trailing spaces and dots */
    1d54:	e03fe026 	beq	fp,zero,1cd8 <__alt_mem_onchip_flash_0_data+0xf0f01cd8>
/*-----------------------------------------------------------------------*/
/* Follow a file path                                                    */
/*-----------------------------------------------------------------------*/

static
FRESULT follow_path (	/* FR_OK(0): successful, !=0: error code */
    1d58:	d9800017 	ldw	r6,0(sp)
    1d5c:	e0ffffc4 	addi	r3,fp,-1
    1d60:	18c5883a 	add	r2,r3,r3
    1d64:	3085883a 	add	r2,r6,r2
		return FR_OK;
	}
#endif
	while (di) {						/* Strip trailing spaces and dots */
		w = lfn[di-1];
		if (w != ' ' && w != '.') break;
    1d68:	01c00b84 	movi	r7,46
    1d6c:	01800804 	movi	r6,32
    1d70:	00000106 	br	1d78 <follow_path+0x204>
    1d74:	18ffffc4 	addi	r3,r3,-1
    1d78:	1100000b 	ldhu	r4,0(r2)
    1d7c:	10bfff84 	addi	r2,r2,-2
    1d80:	21800126 	beq	r4,r6,1d88 <follow_path+0x214>
    1d84:	21c0031e 	bne	r4,r7,1d94 <follow_path+0x220>
		di--;
    1d88:	1839883a 	mov	fp,r3
			dj->fn[i] = (i < di) ? '.' : ' ';
		dj->fn[i] = cf | NS_DOT;		/* This is a dot entry */
		return FR_OK;
	}
#endif
	while (di) {						/* Strip trailing spaces and dots */
    1d8c:	183ff91e 	bne	r3,zero,1d74 <__alt_mem_onchip_flash_0_data+0xf0f01d74>
    1d90:	003fd106 	br	1cd8 <__alt_mem_onchip_flash_0_data+0xf0f01cd8>
		if (w != ' ' && w != '.') break;
		di--;
	}
	if (!di) return FR_INVALID_NAME;	/* Reject nul string */

	lfn[di] = 0;						/* LFN is created */
    1d94:	d9800017 	ldw	r6,0(sp)

	/* Create SFN in directory form */
	mem_set(dj->fn, ' ', 11);
    1d98:	98800617 	ldw	r2,24(r19)
		if (w != ' ' && w != '.') break;
		di--;
	}
	if (!di) return FR_INVALID_NAME;	/* Reject nul string */

	lfn[di] = 0;						/* LFN is created */
    1d9c:	e709883a 	add	r4,fp,fp
    1da0:	3109883a 	add	r4,r6,r4
    1da4:	2000000d 	sth	zero,0(r4)
/*-----------------------------------------------------------------------*/
/* Follow a file path                                                    */
/*-----------------------------------------------------------------------*/

static
FRESULT follow_path (	/* FR_OK(0): successful, !=0: error code */
    1da8:	114002c4 	addi	r5,r2,11
static
void mem_set (void* dst, int val, UINT cnt) {
	BYTE *d = (BYTE*)dst;

	while (cnt--)
		*d++ = (BYTE)val;
    1dac:	01000804 	movi	r4,32
    1db0:	11000005 	stb	r4,0(r2)
    1db4:	10800044 	addi	r2,r2,1
/* Fill memory */
static
void mem_set (void* dst, int val, UINT cnt) {
	BYTE *d = (BYTE*)dst;

	while (cnt--)
    1db8:	117ffd1e 	bne	r2,r5,1db0 <__alt_mem_onchip_flash_0_data+0xf0f01db0>
    1dbc:	d9800017 	ldw	r6,0(sp)
    1dc0:	0021883a 	mov	r16,zero

	lfn[di] = 0;						/* LFN is created */

	/* Create SFN in directory form */
	mem_set(dj->fn, ' ', 11);
	for (si = 0; lfn[si] == ' ' || lfn[si] == '.'; si++) ;	/* Strip leading spaces and dots */
    1dc4:	01400804 	movi	r5,32
    1dc8:	01c00b84 	movi	r7,46
    1dcc:	3080000b 	ldhu	r2,0(r6)
    1dd0:	31800084 	addi	r6,r6,2
    1dd4:	113fffcc 	andi	r4,r2,65535
    1dd8:	21400126 	beq	r4,r5,1de0 <follow_path+0x26c>
    1ddc:	21c0021e 	bne	r4,r7,1de8 <follow_path+0x274>
    1de0:	84000044 	addi	r16,r16,1
    1de4:	003ff906 	br	1dcc <__alt_mem_onchip_flash_0_data+0xf0f01dcc>
	if (si) cf |= NS_LOSS | NS_LFN;
    1de8:	80000126 	beq	r16,zero,1df0 <follow_path+0x27c>
    1dec:	8c4000d4 	ori	r17,r17,3
/*-----------------------------------------------------------------------*/
/* Follow a file path                                                    */
/*-----------------------------------------------------------------------*/

static
FRESULT follow_path (	/* FR_OK(0): successful, !=0: error code */
    1df0:	d9800017 	ldw	r6,0(sp)
    1df4:	18c7883a 	add	r3,r3,r3
    1df8:	30c7883a 	add	r3,r6,r3

	/* Create SFN in directory form */
	mem_set(dj->fn, ' ', 11);
	for (si = 0; lfn[si] == ' ' || lfn[si] == '.'; si++) ;	/* Strip leading spaces and dots */
	if (si) cf |= NS_LOSS | NS_LFN;
	while (di && lfn[di - 1] != '.') di--;	/* Find extension (di<=si: no extension) */
    1dfc:	01800b84 	movi	r6,46
    1e00:	1940000b 	ldhu	r5,0(r3)
    1e04:	18ffff84 	addi	r3,r3,-2
    1e08:	29800226 	beq	r5,r6,1e14 <follow_path+0x2a0>
    1e0c:	e73fffc4 	addi	fp,fp,-1
    1e10:	e03ffb1e 	bne	fp,zero,1e00 <__alt_mem_onchip_flash_0_data+0xf0f01e00>
			if (ni == 11) {				/* Long extension */
				cf |= NS_LOSS | NS_LFN; break;
			}
			if (si != di) cf |= NS_LOSS | NS_LFN;	/* Out of 8.3 format */
			if (si > di) break;			/* No extension */
			si = di; i = 8; ni = 11;	/* Enter extension section */
    1e14:	04800204 	movi	r18,8
    1e18:	0029883a 	mov	r20,zero
    1e1c:	000d883a 	mov	r6,zero

	b = i = 0; ni = 8;
	for (;;) {
		w = lfn[si++];					/* Get an LFN char */
		if (!w) break;					/* Break on end of the LFN */
		if (w == ' ' || (w == '.' && si != di)) {	/* Remove spaces and dots */
    1e20:	01c00804 	movi	r7,32
    1e24:	02800b84 	movi	r10,46
			if (ni == 11) {				/* Long extension */
				cf |= NS_LOSS | NS_LFN; break;
			}
			if (si != di) cf |= NS_LOSS | NS_LFN;	/* Out of 8.3 format */
			if (si > di) break;			/* No extension */
			si = di; i = 8; ni = 11;	/* Enter extension section */
    1e28:	02c002c4 	movi	r11,11
	if (si) cf |= NS_LOSS | NS_LFN;
	while (di && lfn[di - 1] != '.') di--;	/* Find extension (di<=si: no extension) */

	b = i = 0; ni = 8;
	for (;;) {
		w = lfn[si++];					/* Get an LFN char */
    1e2c:	84000044 	addi	r16,r16,1
		if (!w) break;					/* Break on end of the LFN */
    1e30:	20002526 	beq	r4,zero,1ec8 <follow_path+0x354>
		if (w == ' ' || (w == '.' && si != di)) {	/* Remove spaces and dots */
    1e34:	21c01926 	beq	r4,r7,1e9c <follow_path+0x328>
    1e38:	22801726 	beq	r4,r10,1e98 <follow_path+0x324>
			cf |= NS_LOSS | NS_LFN; continue;
		}

		if (i >= ni || si == di) {		/* Extension or end of SFN */
    1e3c:	a4801e2e 	bgeu	r20,r18,1eb8 <follow_path+0x344>
    1e40:	e4006226 	beq	fp,r16,1fcc <follow_path+0x458>
			if (si > di) break;			/* No extension */
			si = di; i = 8; ni = 11;	/* Enter extension section */
			b <<= 2; continue;
		}

		if (w >= 0x80) {				/* Non ASCII char */
    1e44:	00c01fc4 	movi	r3,127
    1e48:	19008536 	bltu	r3,r4,2060 <follow_path+0x4ec>
}

/* Check if chr is contained in the string */
static
int chk_chr (const char* str, int chr) {
	while (*str && *str != chr) str++;
    1e4c:	00c00ac4 	movi	r3,43
    1e50:	20c06926 	beq	r4,r3,1ff8 <follow_path+0x484>
    1e54:	00c00074 	movhi	r3,1
    1e58:	18cba444 	addi	r3,r3,11921
    1e5c:	00000106 	br	1e64 <follow_path+0x2f0>
    1e60:	21406526 	beq	r4,r5,1ff8 <follow_path+0x484>
    1e64:	19400007 	ldb	r5,0(r3)
    1e68:	18c00044 	addi	r3,r3,1
    1e6c:	283ffc1e 	bne	r5,zero,1e60 <__alt_mem_onchip_flash_0_data+0xf0f01e60>
			dj->fn[i++] = (BYTE)(w >> 8);
		} else {						/* Single byte char */
			if (!w || chk_chr("+,;=[]", w)) {	/* Replace illegal chars for SFN */
				w = '_'; cf |= NS_LOSS | NS_LFN;/* Lossy conversion */
			} else {
				if (IsUpper(w)) {		/* ASCII large capital */
    1e70:	113fefc4 	addi	r4,r2,-65
    1e74:	213fffcc 	andi	r4,r4,65535
    1e78:	00c00644 	movi	r3,25
    1e7c:	1900982e 	bgeu	r3,r4,20e0 <follow_path+0x56c>
					b |= 2;
				} else {
					if (IsLower(w)) {	/* ASCII small capital */
    1e80:	113fe7c4 	addi	r4,r2,-97
    1e84:	213fffcc 	andi	r4,r4,65535
    1e88:	19005d36 	bltu	r3,r4,2000 <follow_path+0x48c>
						b |= 1; w -= 0x20;
    1e8c:	31800054 	ori	r6,r6,1
    1e90:	10bff804 	addi	r2,r2,-32
    1e94:	00005a06 	br	2000 <follow_path+0x48c>

	b = i = 0; ni = 8;
	for (;;) {
		w = lfn[si++];					/* Get an LFN char */
		if (!w) break;					/* Break on end of the LFN */
		if (w == ' ' || (w == '.' && si != di)) {	/* Remove spaces and dots */
    1e98:	e4004c26 	beq	fp,r16,1fcc <follow_path+0x458>
			cf |= NS_LOSS | NS_LFN; continue;
    1e9c:	8c4000d4 	ori	r17,r17,3
    1ea0:	d8c00017 	ldw	r3,0(sp)
    1ea4:	8405883a 	add	r2,r16,r16
    1ea8:	1885883a 	add	r2,r3,r2
    1eac:	1080000b 	ldhu	r2,0(r2)
    1eb0:	113fffcc 	andi	r4,r2,65535
    1eb4:	003fdd06 	br	1e2c <__alt_mem_onchip_flash_0_data+0xf0f01e2c>
		}

		if (i >= ni || si == di) {		/* Extension or end of SFN */
			if (ni == 11) {				/* Long extension */
    1eb8:	92c08b26 	beq	r18,r11,20e8 <follow_path+0x574>
				cf |= NS_LOSS | NS_LFN; break;
			}
			if (si != di) cf |= NS_LOSS | NS_LFN;	/* Out of 8.3 format */
    1ebc:	e4004426 	beq	fp,r16,1fd0 <follow_path+0x45c>
    1ec0:	8c4000d4 	ori	r17,r17,3
			if (si > di) break;			/* No extension */
    1ec4:	e400422e 	bgeu	fp,r16,1fd0 <follow_path+0x45c>
			}
		}
		dj->fn[i++] = (BYTE)w;
	}

	if (dj->fn[0] == DDE) dj->fn[0] = NDDE;	/* If the first char collides with deleted mark, replace it with 0x05 */
    1ec8:	98800617 	ldw	r2,24(r19)
    1ecc:	00c03944 	movi	r3,229
    1ed0:	11000003 	ldbu	r4,0(r2)
    1ed4:	20c05a26 	beq	r4,r3,2040 <follow_path+0x4cc>

	if (ni == 8) b <<= 2;
    1ed8:	00c00204 	movi	r3,8
    1edc:	90c05d26 	beq	r18,r3,2054 <follow_path+0x4e0>
	if ((b & 0x0C) == 0x0C || (b & 0x03) == 0x03)	/* Create LFN entry when there are composite capitals */
    1ee0:	30c0030c 	andi	r3,r6,12
    1ee4:	01000304 	movi	r4,12
    1ee8:	19003f26 	beq	r3,r4,1fe8 <follow_path+0x474>
    1eec:	314000cc 	andi	r5,r6,3
    1ef0:	010000c4 	movi	r4,3
    1ef4:	29003c26 	beq	r5,r4,1fe8 <follow_path+0x474>
		cf |= NS_LFN;
	if (!(cf & NS_LFN)) {						/* When LFN is in 8.3 format without extended char, NT flags are created */
    1ef8:	8900008c 	andi	r4,r17,2
    1efc:	21003fcc 	andi	r4,r4,255
    1f00:	2000051e 	bne	r4,zero,1f18 <follow_path+0x3a4>
		if ((b & 0x03) == 0x01) cf |= NS_EXT;	/* NT flag (Extension has only small capital) */
    1f04:	318000cc 	andi	r6,r6,3
    1f08:	01000044 	movi	r4,1
    1f0c:	31007226 	beq	r6,r4,20d8 <follow_path+0x564>
		if ((b & 0x0C) == 0x04) cf |= NS_BODY;	/* NT flag (Filename has only small capital) */
    1f10:	01000104 	movi	r4,4
    1f14:	19006e26 	beq	r3,r4,20d0 <follow_path+0x55c>
	}

	dj->fn[NS] = cf;	/* SFN is created */
    1f18:	144002c5 	stb	r17,11(r2)
	BYTE c, *dir;
#if _USE_LFN
	BYTE a, ord, sum;
#endif

	res = dir_sdi(dj, 0);			/* Rewind directory object */
    1f1c:	9809883a 	mov	r4,r19
    1f20:	000b883a 	mov	r5,zero
    1f24:	00012700 	call	1270 <dir_sdi>
	if (res != FR_OK) return res;
    1f28:	10001a1e 	bne	r2,zero,1f94 <follow_path+0x420>
    1f2c:	9809883a 	mov	r4,r19
    1f30:	00019080 	call	1908 <dir_find.part.4>
	} else {							/* Follow path */
		for (;;) {
			res = create_name(dj, &path);	/* Get a segment */
			if (res != FR_OK) break;
			res = dir_find(dj);				/* Find it */
			ns = *(dj->fn+NS);
    1f34:	98c00617 	ldw	r3,24(r19)
    1f38:	18c002c3 	ldbu	r3,11(r3)
			if (res != FR_OK) {				/* Failed to find the object */
    1f3c:	1000171e 	bne	r2,zero,1f9c <follow_path+0x428>
				} else {							/* Could not find the object */
					if (!(ns & NS_LAST)) res = FR_NO_PATH;
				}
				break;
			}
			if (ns & NS_LAST) break;			/* Last segment match. Function completed. */
    1f40:	18c0010c 	andi	r3,r3,4
    1f44:	18c03fcc 	andi	r3,r3,255
    1f48:	183f641e 	bne	r3,zero,1cdc <__alt_mem_onchip_flash_0_data+0xf0f01cdc>
			dir = dj->dir;						/* There is next segment. Follow the sub directory */
    1f4c:	98800517 	ldw	r2,20(r19)
			if (!(dir[DIR_Attr] & AM_DIR)) {	/* Cannot follow because it is a file */
    1f50:	10c002c3 	ldbu	r3,11(r2)
    1f54:	18c0040c 	andi	r3,r3,16
    1f58:	18c03fcc 	andi	r3,r3,255
    1f5c:	18001426 	beq	r3,zero,1fb0 <follow_path+0x43c>
				res = FR_NO_PATH; break;
			}
			dj->sclust = LD_CLUST(dir);
    1f60:	10c00543 	ldbu	r3,21(r2)
    1f64:	11400503 	ldbu	r5,20(r2)
    1f68:	118006c3 	ldbu	r6,27(r2)
    1f6c:	1806923a 	slli	r3,r3,8
    1f70:	11000683 	ldbu	r4,26(r2)
    1f74:	3004923a 	slli	r2,r6,8
    1f78:	1946b03a 	or	r3,r3,r5
    1f7c:	1806943a 	slli	r3,r3,16
    1f80:	1104b03a 	or	r2,r2,r4
    1f84:	1884b03a 	or	r2,r3,r2
    1f88:	98800215 	stw	r2,8(r19)
    1f8c:	b8c00003 	ldbu	r3,0(r23)
		}
    1f90:	003f1406 	br	1be4 <__alt_mem_onchip_flash_0_data+0xf0f01be4>
	} else {							/* Follow path */
		for (;;) {
			res = create_name(dj, &path);	/* Get a segment */
			if (res != FR_OK) break;
			res = dir_find(dj);				/* Find it */
			ns = *(dj->fn+NS);
    1f94:	98c00617 	ldw	r3,24(r19)
    1f98:	18c002c3 	ldbu	r3,11(r3)
			if (res != FR_OK) {				/* Failed to find the object */
				if (res != FR_NO_FILE) break;	/* Abort if any hard error occured */
    1f9c:	01000104 	movi	r4,4
    1fa0:	113f4e1e 	bne	r2,r4,1cdc <__alt_mem_onchip_flash_0_data+0xf0f01cdc>
				if (_FS_RPATH && (ns & NS_DOT)) {	/* If dot entry is not exit */
					dj->sclust = 0; dj->dir = 0;	/* It is the root dir */
					res = FR_OK;
					if (!(ns & NS_LAST)) continue;
				} else {							/* Could not find the object */
					if (!(ns & NS_LAST)) res = FR_NO_PATH;
    1fa4:	1906703a 	and	r3,r3,r4
    1fa8:	18c03fcc 	andi	r3,r3,255
    1fac:	183f4b1e 	bne	r3,zero,1cdc <__alt_mem_onchip_flash_0_data+0xf0f01cdc>
				break;
			}
			if (ns & NS_LAST) break;			/* Last segment match. Function completed. */
			dir = dj->dir;						/* There is next segment. Follow the sub directory */
			if (!(dir[DIR_Attr] & AM_DIR)) {	/* Cannot follow because it is a file */
				res = FR_NO_PATH; break;
    1fb0:	00800144 	movi	r2,5
    1fb4:	003f4906 	br	1cdc <__alt_mem_onchip_flash_0_data+0xf0f01cdc>
	const TCHAR *p;

	/* Create LFN in Unicode */
	for (p = *path; *p == '/' || *p == '\\'; p++) ;	/* Strip duplicated separator */
	lfn = dj->lfn;
	si = di = 0;
    1fb8:	0039883a 	mov	fp,zero
	for (;;) {
		w = p[si++];					/* Get a character */
    1fbc:	01400044 	movi	r5,1
#endif
		if (w < 0x80 && chk_chr("\"*:<>\?|\x7F", w)) /* Reject illegal chars for LFN */
			return FR_INVALID_NAME;
		lfn[di++] = w;					/* Store the Unicode char */
	}
	*path = &p[si];						/* Return pointer to the next segment */
    1fc0:	b96f883a 	add	r23,r23,r5
	cf = (w < ' ') ? NS_LAST : 0;		/* Set last segment flag if end of path */
    1fc4:	04400104 	movi	r17,4
    1fc8:	003f6206 	br	1d54 <__alt_mem_onchip_flash_0_data+0xf0f01d54>
		if (w == ' ' || (w == '.' && si != di)) {	/* Remove spaces and dots */
			cf |= NS_LOSS | NS_LFN; continue;
		}

		if (i >= ni || si == di) {		/* Extension or end of SFN */
			if (ni == 11) {				/* Long extension */
    1fcc:	92c04626 	beq	r18,r11,20e8 <follow_path+0x574>
				cf |= NS_LOSS | NS_LFN; break;
			}
			if (si != di) cf |= NS_LOSS | NS_LFN;	/* Out of 8.3 format */
			if (si > di) break;			/* No extension */
			si = di; i = 8; ni = 11;	/* Enter extension section */
			b <<= 2; continue;
    1fd0:	318d883a 	add	r6,r6,r6
    1fd4:	318d883a 	add	r6,r6,r6
    1fd8:	e021883a 	mov	r16,fp
			if (ni == 11) {				/* Long extension */
				cf |= NS_LOSS | NS_LFN; break;
			}
			if (si != di) cf |= NS_LOSS | NS_LFN;	/* Out of 8.3 format */
			if (si > di) break;			/* No extension */
			si = di; i = 8; ni = 11;	/* Enter extension section */
    1fdc:	048002c4 	movi	r18,11
    1fe0:	05000204 	movi	r20,8
    1fe4:	003fae06 	br	1ea0 <__alt_mem_onchip_flash_0_data+0xf0f01ea0>

	if (dj->fn[0] == DDE) dj->fn[0] = NDDE;	/* If the first char collides with deleted mark, replace it with 0x05 */

	if (ni == 8) b <<= 2;
	if ((b & 0x0C) == 0x0C || (b & 0x03) == 0x03)	/* Create LFN entry when there are composite capitals */
		cf |= NS_LFN;
    1fe8:	8c400094 	ori	r17,r17,2
    1fec:	003fc206 	br	1ef8 <__alt_mem_onchip_flash_0_data+0xf0f01ef8>
			w = ff_convert(w, 0);		/* Unicode -> OEM code */
			if (w) w = excvt[w - 0x80];	/* Convert extended char to upper (SBCS) */
#else
			w = ff_convert(ff_wtoupper(w), 0);	/* Upper converted Unicode -> OEM code */
#endif
			cf |= NS_LFN;				/* Force create LFN entry */
    1ff0:	1823883a 	mov	r17,r3
			if (i >= ni - 1) {
				cf |= NS_LOSS | NS_LFN; i = ni; continue;
			}
			dj->fn[i++] = (BYTE)(w >> 8);
		} else {						/* Single byte char */
			if (!w || chk_chr("+,;=[]", w)) {	/* Replace illegal chars for SFN */
    1ff4:	203f951e 	bne	r4,zero,1e4c <__alt_mem_onchip_flash_0_data+0xf0f01e4c>
				w = '_'; cf |= NS_LOSS | NS_LFN;/* Lossy conversion */
    1ff8:	8c4000d4 	ori	r17,r17,3
    1ffc:	008017c4 	movi	r2,95
						b |= 1; w -= 0x20;
					}
				}
			}
		}
		dj->fn[i++] = (BYTE)w;
    2000:	98c00617 	ldw	r3,24(r19)
    2004:	1d07883a 	add	r3,r3,r20
    2008:	18800005 	stb	r2,0(r3)
    200c:	a5000044 	addi	r20,r20,1
    2010:	003fa306 	br	1ea0 <__alt_mem_onchip_flash_0_data+0xf0f01ea0>
	} else {							/* No heading separator */
		dj->sclust = dj->fs->cdir;	/* Start from the current dir */
	}
#else
	if (*path == '/' || *path == '\\')	/* Strip heading separator if exist */
		path++;
    2014:	bdc00044 	addi	r23,r23,1
	dj->sclust = 0;						/* Start from the root dir */
    2018:	98000215 	stw	zero,8(r19)
#endif

	if ((UINT)*path < ' ') {			/* Nul path means the start directory itself */
    201c:	b8c00003 	ldbu	r3,0(r23)
    2020:	010007c4 	movi	r4,31
    2024:	18803fcc 	andi	r2,r3,255
    2028:	20bee936 	bltu	r4,r2,1bd0 <__alt_mem_onchip_flash_0_data+0xf0f01bd0>
		res = dir_sdi(dj, 0);
    202c:	9809883a 	mov	r4,r19
    2030:	000b883a 	mov	r5,zero
    2034:	00012700 	call	1270 <dir_sdi>
		dj->dir = 0;
    2038:	98000515 	stw	zero,20(r19)
    203c:	003f2706 	br	1cdc <__alt_mem_onchip_flash_0_data+0xf0f01cdc>
			}
		}
		dj->fn[i++] = (BYTE)w;
	}

	if (dj->fn[0] == DDE) dj->fn[0] = NDDE;	/* If the first char collides with deleted mark, replace it with 0x05 */
    2040:	00c00144 	movi	r3,5
    2044:	10c00005 	stb	r3,0(r2)

	if (ni == 8) b <<= 2;
    2048:	00c00204 	movi	r3,8
    204c:	98800617 	ldw	r2,24(r19)
    2050:	90ffa31e 	bne	r18,r3,1ee0 <__alt_mem_onchip_flash_0_data+0xf0f01ee0>
    2054:	318d883a 	add	r6,r6,r6
    2058:	318d883a 	add	r6,r6,r6
    205c:	003fa006 	br	1ee0 <__alt_mem_onchip_flash_0_data+0xf0f01ee0>
		if (w >= 0x80) {				/* Non ASCII char */
#ifdef _EXCVT
			w = ff_convert(w, 0);		/* Unicode -> OEM code */
			if (w) w = excvt[w - 0x80];	/* Convert extended char to upper (SBCS) */
#else
			w = ff_convert(ff_wtoupper(w), 0);	/* Upper converted Unicode -> OEM code */
    2060:	d9800115 	stw	r6,4(sp)
    2064:	d9c00215 	stw	r7,8(sp)
    2068:	da800315 	stw	r10,12(sp)
    206c:	dac00415 	stw	r11,16(sp)
    2070:	0004e800 	call	4e80 <ff_wtoupper>
    2074:	113fffcc 	andi	r4,r2,65535
    2078:	000b883a 	mov	r5,zero
    207c:	0004df00 	call	4df0 <ff_convert>
#endif
			cf |= NS_LFN;				/* Force create LFN entry */
		}

		if (_DF1S && w >= 0x100) {		/* Double byte char (always false on SBCS cfg) */
    2080:	113fffcc 	andi	r4,r2,65535
    2084:	01403fc4 	movi	r5,255
			w = ff_convert(w, 0);		/* Unicode -> OEM code */
			if (w) w = excvt[w - 0x80];	/* Convert extended char to upper (SBCS) */
#else
			w = ff_convert(ff_wtoupper(w), 0);	/* Upper converted Unicode -> OEM code */
#endif
			cf |= NS_LFN;				/* Force create LFN entry */
    2088:	88c00094 	ori	r3,r17,2
		}

		if (_DF1S && w >= 0x100) {		/* Double byte char (always false on SBCS cfg) */
    208c:	d9800117 	ldw	r6,4(sp)
    2090:	d9c00217 	ldw	r7,8(sp)
    2094:	da800317 	ldw	r10,12(sp)
    2098:	dac00417 	ldw	r11,16(sp)
    209c:	293fd42e 	bgeu	r5,r4,1ff0 <__alt_mem_onchip_flash_0_data+0xf0f01ff0>
			if (i >= ni - 1) {
    20a0:	917fffc4 	addi	r5,r18,-1
    20a4:	a1400336 	bltu	r20,r5,20b4 <follow_path+0x540>
				cf |= NS_LOSS | NS_LFN; i = ni; continue;
    20a8:	8c4000d4 	ori	r17,r17,3
    20ac:	9029883a 	mov	r20,r18
    20b0:	003f7b06 	br	1ea0 <__alt_mem_onchip_flash_0_data+0xf0f01ea0>
			}
			dj->fn[i++] = (BYTE)(w >> 8);
    20b4:	99400617 	ldw	r5,24(r19)
    20b8:	2008d23a 	srli	r4,r4,8
			w = ff_convert(w, 0);		/* Unicode -> OEM code */
			if (w) w = excvt[w - 0x80];	/* Convert extended char to upper (SBCS) */
#else
			w = ff_convert(ff_wtoupper(w), 0);	/* Upper converted Unicode -> OEM code */
#endif
			cf |= NS_LFN;				/* Force create LFN entry */
    20bc:	1823883a 	mov	r17,r3

		if (_DF1S && w >= 0x100) {		/* Double byte char (always false on SBCS cfg) */
			if (i >= ni - 1) {
				cf |= NS_LOSS | NS_LFN; i = ni; continue;
			}
			dj->fn[i++] = (BYTE)(w >> 8);
    20c0:	2d0b883a 	add	r5,r5,r20
    20c4:	29000005 	stb	r4,0(r5)
    20c8:	a5000044 	addi	r20,r20,1
    20cc:	003fcc06 	br	2000 <__alt_mem_onchip_flash_0_data+0xf0f02000>
	if (ni == 8) b <<= 2;
	if ((b & 0x0C) == 0x0C || (b & 0x03) == 0x03)	/* Create LFN entry when there are composite capitals */
		cf |= NS_LFN;
	if (!(cf & NS_LFN)) {						/* When LFN is in 8.3 format without extended char, NT flags are created */
		if ((b & 0x03) == 0x01) cf |= NS_EXT;	/* NT flag (Extension has only small capital) */
		if ((b & 0x0C) == 0x04) cf |= NS_BODY;	/* NT flag (Filename has only small capital) */
    20d0:	8c400214 	ori	r17,r17,8
    20d4:	003f9006 	br	1f18 <__alt_mem_onchip_flash_0_data+0xf0f01f18>

	if (ni == 8) b <<= 2;
	if ((b & 0x0C) == 0x0C || (b & 0x03) == 0x03)	/* Create LFN entry when there are composite capitals */
		cf |= NS_LFN;
	if (!(cf & NS_LFN)) {						/* When LFN is in 8.3 format without extended char, NT flags are created */
		if ((b & 0x03) == 0x01) cf |= NS_EXT;	/* NT flag (Extension has only small capital) */
    20d8:	8c400414 	ori	r17,r17,16
    20dc:	003f8c06 	br	1f10 <__alt_mem_onchip_flash_0_data+0xf0f01f10>
		} else {						/* Single byte char */
			if (!w || chk_chr("+,;=[]", w)) {	/* Replace illegal chars for SFN */
				w = '_'; cf |= NS_LOSS | NS_LFN;/* Lossy conversion */
			} else {
				if (IsUpper(w)) {		/* ASCII large capital */
					b |= 2;
    20e0:	31800094 	ori	r6,r6,2
    20e4:	003fc606 	br	2000 <__alt_mem_onchip_flash_0_data+0xf0f02000>
			cf |= NS_LOSS | NS_LFN; continue;
		}

		if (i >= ni || si == di) {		/* Extension or end of SFN */
			if (ni == 11) {				/* Long extension */
				cf |= NS_LOSS | NS_LFN; break;
    20e8:	8c4000d4 	ori	r17,r17,3
    20ec:	048002c4 	movi	r18,11
    20f0:	003f7506 	br	1ec8 <__alt_mem_onchip_flash_0_data+0xf0f01ec8>

000020f4 <dir_remove>:
	FRESULT res;
#if _USE_LFN	/* LFN configuration */
	WORD i;

	i = dj->index;	/* SFN index */
	res = dir_sdi(dj, (WORD)((dj->lfn_idx == 0xFFFF) ? i : dj->lfn_idx));	/* Goto the SFN or top of the LFN entries */
    20f4:	2140080b 	ldhu	r5,32(r4)
#if !_FS_READONLY && !_FS_MINIMIZE
static
FRESULT dir_remove (	/* FR_OK: Successful, FR_DISK_ERR: A disk error */
	DIR *dj				/* Directory object pointing the entry to be removed */
)
{
    20f8:	defffb04 	addi	sp,sp,-20
    20fc:	dc400115 	stw	r17,4(sp)
    2100:	dc000015 	stw	r16,0(sp)
    2104:	dfc00415 	stw	ra,16(sp)
    2108:	dcc00315 	stw	r19,12(sp)
    210c:	dc800215 	stw	r18,8(sp)
	FRESULT res;
#if _USE_LFN	/* LFN configuration */
	WORD i;

	i = dj->index;	/* SFN index */
	res = dir_sdi(dj, (WORD)((dj->lfn_idx == 0xFFFF) ? i : dj->lfn_idx));	/* Goto the SFN or top of the LFN entries */
    2110:	00bfffd4 	movui	r2,65535
#if !_FS_READONLY && !_FS_MINIMIZE
static
FRESULT dir_remove (	/* FR_OK: Successful, FR_DISK_ERR: A disk error */
	DIR *dj				/* Directory object pointing the entry to be removed */
)
{
    2114:	2021883a 	mov	r16,r4
	FRESULT res;
#if _USE_LFN	/* LFN configuration */
	WORD i;

	i = dj->index;	/* SFN index */
    2118:	2440018b 	ldhu	r17,6(r4)
	res = dir_sdi(dj, (WORD)((dj->lfn_idx == 0xFFFF) ? i : dj->lfn_idx));	/* Goto the SFN or top of the LFN entries */
    211c:	28801e26 	beq	r5,r2,2198 <dir_remove+0xa4>
    2120:	8009883a 	mov	r4,r16
    2124:	00012700 	call	1270 <dir_sdi>
	if (res == FR_OK) {
    2128:	1000141e 	bne	r2,zero,217c <dir_remove+0x88>
		do {
			res = move_window(dj->fs, dj->sect);
			if (res != FR_OK) break;
			*dj->dir = DDE;			/* Mark the entry "deleted" */
    212c:	04fff944 	movi	r19,-27
			dj->fs->wflag = 1;
    2130:	04800044 	movi	r18,1
			if (dj->index >= i) break;	/* When reached SFN, all entries of the object has been deleted. */
    2134:	8c7fffcc 	andi	r17,r17,65535

	i = dj->index;	/* SFN index */
	res = dir_sdi(dj, (WORD)((dj->lfn_idx == 0xFFFF) ? i : dj->lfn_idx));	/* Goto the SFN or top of the LFN entries */
	if (res == FR_OK) {
		do {
			res = move_window(dj->fs, dj->sect);
    2138:	81000017 	ldw	r4,0(r16)
    213c:	81400417 	ldw	r5,16(r16)
    2140:	00008900 	call	890 <move_window>
			if (res != FR_OK) break;
			*dj->dir = DDE;			/* Mark the entry "deleted" */
			dj->fs->wflag = 1;
			if (dj->index >= i) break;	/* When reached SFN, all entries of the object has been deleted. */
			res = dir_next(dj, 0);		/* Next entry */
    2144:	8009883a 	mov	r4,r16
    2148:	000b883a 	mov	r5,zero
	i = dj->index;	/* SFN index */
	res = dir_sdi(dj, (WORD)((dj->lfn_idx == 0xFFFF) ? i : dj->lfn_idx));	/* Goto the SFN or top of the LFN entries */
	if (res == FR_OK) {
		do {
			res = move_window(dj->fs, dj->sect);
			if (res != FR_OK) break;
    214c:	1000081e 	bne	r2,zero,2170 <dir_remove+0x7c>
			*dj->dir = DDE;			/* Mark the entry "deleted" */
    2150:	80c00517 	ldw	r3,20(r16)
    2154:	1cc00005 	stb	r19,0(r3)
			dj->fs->wflag = 1;
    2158:	80c00017 	ldw	r3,0(r16)
    215c:	1c800105 	stb	r18,4(r3)
			if (dj->index >= i) break;	/* When reached SFN, all entries of the object has been deleted. */
    2160:	80c0018b 	ldhu	r3,6(r16)
    2164:	1c40052e 	bgeu	r3,r17,217c <dir_remove+0x88>
			res = dir_next(dj, 0);		/* Next entry */
    2168:	00016f40 	call	16f4 <dir_next>
		} while (res == FR_OK);
    216c:	103ff226 	beq	r2,zero,2138 <__alt_mem_onchip_flash_0_data+0xf0f02138>
		if (res == FR_NO_FILE) res = FR_INT_ERR;
    2170:	00c00104 	movi	r3,4
    2174:	10c0011e 	bne	r2,r3,217c <dir_remove+0x88>
    2178:	00800084 	movi	r2,2
		}
	}
#endif

	return res;
}
    217c:	dfc00417 	ldw	ra,16(sp)
    2180:	dcc00317 	ldw	r19,12(sp)
    2184:	dc800217 	ldw	r18,8(sp)
    2188:	dc400117 	ldw	r17,4(sp)
    218c:	dc000017 	ldw	r16,0(sp)
    2190:	dec00504 	addi	sp,sp,20
    2194:	f800283a 	ret
	FRESULT res;
#if _USE_LFN	/* LFN configuration */
	WORD i;

	i = dj->index;	/* SFN index */
	res = dir_sdi(dj, (WORD)((dj->lfn_idx == 0xFFFF) ? i : dj->lfn_idx));	/* Goto the SFN or top of the LFN entries */
    2198:	897fffcc 	andi	r5,r17,65535
    219c:	003fe006 	br	2120 <__alt_mem_onchip_flash_0_data+0xf0f02120>

000021a0 <dir_read>:
#if _FS_MINIMIZE <= 1
static
FRESULT dir_read (
	DIR *dj			/* Pointer to the directory object that pointing the entry to be read */
)
{
    21a0:	defff904 	addi	sp,sp,-28
    21a4:	dd000415 	stw	r20,16(sp)
	FRESULT res;
	BYTE c, *dir;
#if _USE_LFN
	BYTE a, ord = 0xFF, sum = 0xFF;
    21a8:	053fffc4 	movi	r20,-1
#if _FS_MINIMIZE <= 1
static
FRESULT dir_read (
	DIR *dj			/* Pointer to the directory object that pointing the entry to be read */
)
{
    21ac:	dd400515 	stw	r21,20(sp)
    21b0:	dcc00315 	stw	r19,12(sp)
    21b4:	dc800215 	stw	r18,8(sp)
    21b8:	dc400115 	stw	r17,4(sp)
    21bc:	dc000015 	stw	r16,0(sp)
    21c0:	dfc00615 	stw	ra,24(sp)
    21c4:	2021883a 	mov	r16,r4
	FRESULT res;
	BYTE c, *dir;
#if _USE_LFN
	BYTE a, ord = 0xFF, sum = 0xFF;
    21c8:	a023883a 	mov	r17,r20
#endif

	res = FR_NO_FILE;
    21cc:	00800104 	movi	r2,4
		dir = dj->dir;					/* Ptr to the directory entry of current index */
		c = dir[DIR_Name];
		if (c == 0) { res = FR_NO_FILE; break; }	/* Reached to end of table */
#if _USE_LFN	/* LFN configuration */
		a = dir[DIR_Attr] & AM_MASK;
		if (c == DDE || (!_FS_RPATH && c == '.') || ((a & AM_VOL) && a != AM_LFN)) {	/* An entry without valid data */
    21d0:	04803944 	movi	r18,229
    21d4:	04c00b84 	movi	r19,46
/*-----------------------------------------------------------------------*/
/* Read an object from the directory                                     */
/*-----------------------------------------------------------------------*/
#if _FS_MINIMIZE <= 1
static
FRESULT dir_read (
    21d8:	05400074 	movhi	r21,1
    21dc:	ad4ba904 	addi	r21,r21,11940
#if _USE_LFN
	BYTE a, ord = 0xFF, sum = 0xFF;
#endif

	res = FR_NO_FILE;
	while (dj->sect) {
    21e0:	81400417 	ldw	r5,16(r16)
    21e4:	28005126 	beq	r5,zero,232c <dir_read+0x18c>
		res = move_window(dj->fs, dj->sect);
    21e8:	81000017 	ldw	r4,0(r16)
    21ec:	00008900 	call	890 <move_window>
		if (res != FR_OK) break;
    21f0:	1000131e 	bne	r2,zero,2240 <dir_read+0xa0>
		dir = dj->dir;					/* Ptr to the directory entry of current index */
    21f4:	81000517 	ldw	r4,20(r16)
		c = dir[DIR_Name];
    21f8:	21400003 	ldbu	r5,0(r4)
		if (c == 0) { res = FR_NO_FILE; break; }	/* Reached to end of table */
    21fc:	28c03fcc 	andi	r3,r5,255
    2200:	18004c26 	beq	r3,zero,2334 <dir_read+0x194>
#if _USE_LFN	/* LFN configuration */
		a = dir[DIR_Attr] & AM_MASK;
    2204:	218002c3 	ldbu	r6,11(r4)
		if (c == DDE || (!_FS_RPATH && c == '.') || ((a & AM_VOL) && a != AM_LFN)) {	/* An entry without valid data */
    2208:	1c800826 	beq	r3,r18,222c <dir_read+0x8c>
    220c:	1cc00726 	beq	r3,r19,222c <dir_read+0x8c>
    2210:	31c0020c 	andi	r7,r6,8
    2214:	39c03fcc 	andi	r7,r7,255
		if (res != FR_OK) break;
		dir = dj->dir;					/* Ptr to the directory entry of current index */
		c = dir[DIR_Name];
		if (c == 0) { res = FR_NO_FILE; break; }	/* Reached to end of table */
#if _USE_LFN	/* LFN configuration */
		a = dir[DIR_Attr] & AM_MASK;
    2218:	31800fcc 	andi	r6,r6,63
		if (c == DDE || (!_FS_RPATH && c == '.') || ((a & AM_VOL) && a != AM_LFN)) {	/* An entry without valid data */
    221c:	31803fcc 	andi	r6,r6,255
    2220:	38001126 	beq	r7,zero,2268 <dir_read+0xc8>
    2224:	008003c4 	movi	r2,15
    2228:	30801126 	beq	r6,r2,2270 <dir_read+0xd0>
					sum = dir[LDIR_Chksum];
					c &= ~LLE; ord = c;
					dj->lfn_idx = dj->index;
				}
				/* Check LFN validity and capture it */
				ord = (c == ord && sum == dir[LDIR_Chksum] && pick_lfn(dj->lfn, dir)) ? ord - 1 : 0xFF;
    222c:	047fffc4 	movi	r17,-1
		}
#else		/* Non LFN configuration */
		if (c != DDE && (_FS_RPATH || c != '.') && !(dir[DIR_Attr] & AM_VOL))	/* Is it a valid entry? */
			break;
#endif
		res = dir_next(dj, 0);				/* Next entry */
    2230:	8009883a 	mov	r4,r16
    2234:	000b883a 	mov	r5,zero
    2238:	00016f40 	call	16f4 <dir_next>
		if (res != FR_OK) break;
    223c:	103fe826 	beq	r2,zero,21e0 <__alt_mem_onchip_flash_0_data+0xf0f021e0>
	}

	if (res != FR_OK) dj->sect = 0;
    2240:	80000415 	stw	zero,16(r16)

	return res;
}
    2244:	dfc00617 	ldw	ra,24(sp)
    2248:	dd400517 	ldw	r21,20(sp)
    224c:	dd000417 	ldw	r20,16(sp)
    2250:	dcc00317 	ldw	r19,12(sp)
    2254:	dc800217 	ldw	r18,8(sp)
    2258:	dc400117 	ldw	r17,4(sp)
    225c:	dc000017 	ldw	r16,0(sp)
    2260:	dec00704 	addi	sp,sp,28
    2264:	f800283a 	ret
#if _USE_LFN	/* LFN configuration */
		a = dir[DIR_Attr] & AM_MASK;
		if (c == DDE || (!_FS_RPATH && c == '.') || ((a & AM_VOL) && a != AM_LFN)) {	/* An entry without valid data */
			ord = 0xFF;
		} else {
			if (a == AM_LFN) {			/* An LFN entry is found */
    2268:	01c003c4 	movi	r7,15
    226c:	31c03f1e 	bne	r6,r7,236c <dir_read+0x1cc>
				if (c & LLE) {			/* Is it start of LFN sequence? */
    2270:	2880100c 	andi	r2,r5,64
    2274:	10803fcc 	andi	r2,r2,255
    2278:	10002926 	beq	r2,zero,2320 <dir_read+0x180>
					sum = dir[LDIR_Chksum];
					c &= ~LLE; ord = c;
					dj->lfn_idx = dj->index;
    227c:	8080018b 	ldhu	r2,6(r16)
			ord = 0xFF;
		} else {
			if (a == AM_LFN) {			/* An LFN entry is found */
				if (c & LLE) {			/* Is it start of LFN sequence? */
					sum = dir[LDIR_Chksum];
					c &= ~LLE; ord = c;
    2280:	047fefc4 	movi	r17,-65
		if (c == DDE || (!_FS_RPATH && c == '.') || ((a & AM_VOL) && a != AM_LFN)) {	/* An entry without valid data */
			ord = 0xFF;
		} else {
			if (a == AM_LFN) {			/* An LFN entry is found */
				if (c & LLE) {			/* Is it start of LFN sequence? */
					sum = dir[LDIR_Chksum];
    2284:	25000343 	ldbu	r20,13(r4)
					c &= ~LLE; ord = c;
    2288:	8962703a 	and	r17,r17,r5
					dj->lfn_idx = dj->index;
    228c:	8080080d 	sth	r2,32(r16)
				}
				/* Check LFN validity and capture it */
				ord = (c == ord && sum == dir[LDIR_Chksum] && pick_lfn(dj->lfn, dir)) ? ord - 1 : 0xFF;
    2290:	22800343 	ldbu	r10,13(r4)
    2294:	a0803fcc 	andi	r2,r20,255
    2298:	50c03fcc 	andi	r3,r10,255
    229c:	18bfe31e 	bne	r3,r2,222c <__alt_mem_onchip_flash_0_data+0xf0f0222c>
{
	UINT i, s;
	WCHAR wc, uc;


	i = ((dir[LDIR_Ord] & 0x3F) - 1) * 13;	/* Offset in the LFN buffer */
    22a0:	20c00003 	ldbu	r3,0(r4)
					sum = dir[LDIR_Chksum];
					c &= ~LLE; ord = c;
					dj->lfn_idx = dj->index;
				}
				/* Check LFN validity and capture it */
				ord = (c == ord && sum == dir[LDIR_Chksum] && pick_lfn(dj->lfn, dir)) ? ord - 1 : 0xFF;
    22a4:	83000717 	ldw	r12,28(r16)
    22a8:	00800074 	movhi	r2,1
    22ac:	108ba5c4 	addi	r2,r2,11927
{
	UINT i, s;
	WCHAR wc, uc;


	i = ((dir[LDIR_Ord] & 0x3F) - 1) * 13;	/* Offset in the LFN buffer */
    22b0:	18c00fcc 	andi	r3,r3,63
    22b4:	18ffffc4 	addi	r3,r3,-1
    22b8:	18c00364 	muli	r3,r3,13

	s = 0; wc = 1;
    22bc:	02c00044 	movi	r11,1
		uc = LD_WORD(dir+LfnOfs[s]);		/* Pick an LFN character from the entry */
		if (wc) {	/* Last char has not been processed */
			if (i >= _MAX_LFN) return 0;	/* Buffer overflow? */
			lfnbuf[i++] = wc = uc;			/* Store it */
		} else {
			if (uc != 0xFFFF) return 0;		/* Check filler */
    22c0:	03bfffd4 	movui	r14,65535

	s = 0; wc = 1;
	do {
		uc = LD_WORD(dir+LfnOfs[s]);		/* Pick an LFN character from the entry */
		if (wc) {	/* Last char has not been processed */
			if (i >= _MAX_LFN) return 0;	/* Buffer overflow? */
    22c4:	03403f84 	movi	r13,254
    22c8:	00000606 	br	22e4 <dir_read+0x144>
    22cc:	68c01136 	bltu	r13,r3,2314 <dir_read+0x174>
			lfnbuf[i++] = wc = uc;			/* Store it */
    22d0:	4940000d 	sth	r5,0(r9)
    22d4:	18c00044 	addi	r3,r3,1

	i = ((dir[LDIR_Ord] & 0x3F) - 1) * 13;	/* Offset in the LFN buffer */

	s = 0; wc = 1;
	do {
		uc = LD_WORD(dir+LfnOfs[s]);		/* Pick an LFN character from the entry */
    22d8:	2817883a 	mov	r11,r5
    22dc:	10800044 	addi	r2,r2,1
			if (i >= _MAX_LFN) return 0;	/* Buffer overflow? */
			lfnbuf[i++] = wc = uc;			/* Store it */
		} else {
			if (uc != 0xFFFF) return 0;		/* Check filler */
		}
	} while (++s < 13);						/* Read all character in the entry */
    22e0:	15401626 	beq	r2,r21,233c <dir_read+0x19c>

	i = ((dir[LDIR_Ord] & 0x3F) - 1) * 13;	/* Offset in the LFN buffer */

	s = 0; wc = 1;
	do {
		uc = LD_WORD(dir+LfnOfs[s]);		/* Pick an LFN character from the entry */
    22e4:	11400003 	ldbu	r5,0(r2)
		if (wc) {	/* Last char has not been processed */
			if (i >= _MAX_LFN) return 0;	/* Buffer overflow? */
			lfnbuf[i++] = wc = uc;			/* Store it */
    22e8:	18d3883a 	add	r9,r3,r3
	i = ((dir[LDIR_Ord] & 0x3F) - 1) * 13;	/* Offset in the LFN buffer */

	s = 0; wc = 1;
	do {
		uc = LD_WORD(dir+LfnOfs[s]);		/* Pick an LFN character from the entry */
		if (wc) {	/* Last char has not been processed */
    22ec:	59bfffcc 	andi	r6,r11,65535

	i = ((dir[LDIR_Ord] & 0x3F) - 1) * 13;	/* Offset in the LFN buffer */

	s = 0; wc = 1;
	do {
		uc = LD_WORD(dir+LfnOfs[s]);		/* Pick an LFN character from the entry */
    22f0:	214b883a 	add	r5,r4,r5
    22f4:	2a000043 	ldbu	r8,1(r5)
    22f8:	29c00003 	ldbu	r7,0(r5)
		if (wc) {	/* Last char has not been processed */
			if (i >= _MAX_LFN) return 0;	/* Buffer overflow? */
			lfnbuf[i++] = wc = uc;			/* Store it */
    22fc:	6253883a 	add	r9,r12,r9

	i = ((dir[LDIR_Ord] & 0x3F) - 1) * 13;	/* Offset in the LFN buffer */

	s = 0; wc = 1;
	do {
		uc = LD_WORD(dir+LfnOfs[s]);		/* Pick an LFN character from the entry */
    2300:	400a923a 	slli	r5,r8,8
    2304:	29cab03a 	or	r5,r5,r7
		if (wc) {	/* Last char has not been processed */
			if (i >= _MAX_LFN) return 0;	/* Buffer overflow? */
			lfnbuf[i++] = wc = uc;			/* Store it */
		} else {
			if (uc != 0xFFFF) return 0;		/* Check filler */
    2308:	29ffffcc 	andi	r7,r5,65535
	i = ((dir[LDIR_Ord] & 0x3F) - 1) * 13;	/* Offset in the LFN buffer */

	s = 0; wc = 1;
	do {
		uc = LD_WORD(dir+LfnOfs[s]);		/* Pick an LFN character from the entry */
		if (wc) {	/* Last char has not been processed */
    230c:	303fef1e 	bne	r6,zero,22cc <__alt_mem_onchip_flash_0_data+0xf0f022cc>
			if (i >= _MAX_LFN) return 0;	/* Buffer overflow? */
			lfnbuf[i++] = wc = uc;			/* Store it */
		} else {
			if (uc != 0xFFFF) return 0;		/* Check filler */
    2310:	3bbff226 	beq	r7,r14,22dc <__alt_mem_onchip_flash_0_data+0xf0f022dc>
					sum = dir[LDIR_Chksum];
					c &= ~LLE; ord = c;
					dj->lfn_idx = dj->index;
				}
				/* Check LFN validity and capture it */
				ord = (c == ord && sum == dir[LDIR_Chksum] && pick_lfn(dj->lfn, dir)) ? ord - 1 : 0xFF;
    2314:	5029883a 	mov	r20,r10
    2318:	047fffc4 	movi	r17,-1
    231c:	003fc406 	br	2230 <__alt_mem_onchip_flash_0_data+0xf0f02230>
    2320:	88803fcc 	andi	r2,r17,255
    2324:	10ffc11e 	bne	r2,r3,222c <__alt_mem_onchip_flash_0_data+0xf0f0222c>
    2328:	003fd906 	br	2290 <__alt_mem_onchip_flash_0_data+0xf0f02290>
#endif
		res = dir_next(dj, 0);				/* Next entry */
		if (res != FR_OK) break;
	}

	if (res != FR_OK) dj->sect = 0;
    232c:	103fc526 	beq	r2,zero,2244 <__alt_mem_onchip_flash_0_data+0xf0f02244>
    2330:	003fc306 	br	2240 <__alt_mem_onchip_flash_0_data+0xf0f02240>
	while (dj->sect) {
		res = move_window(dj->fs, dj->sect);
		if (res != FR_OK) break;
		dir = dj->dir;					/* Ptr to the directory entry of current index */
		c = dir[DIR_Name];
		if (c == 0) { res = FR_NO_FILE; break; }	/* Reached to end of table */
    2334:	00800104 	movi	r2,4
    2338:	003fc106 	br	2240 <__alt_mem_onchip_flash_0_data+0xf0f02240>
		} else {
			if (uc != 0xFFFF) return 0;		/* Check filler */
		}
	} while (++s < 13);						/* Read all character in the entry */

	if (dir[LDIR_Ord] & LLE) {				/* Put terminator if it is the last LFN part */
    233c:	20800003 	ldbu	r2,0(r4)
    2340:	1080100c 	andi	r2,r2,64
    2344:	10803fcc 	andi	r2,r2,255
    2348:	10000526 	beq	r2,zero,2360 <dir_read+0x1c0>
		if (i >= _MAX_LFN) return 0;		/* Buffer overflow? */
    234c:	00803f84 	movi	r2,254
    2350:	10fff036 	bltu	r2,r3,2314 <__alt_mem_onchip_flash_0_data+0xf0f02314>
		lfnbuf[i] = 0;
    2354:	18c7883a 	add	r3,r3,r3
    2358:	60d9883a 	add	r12,r12,r3
    235c:	6000000d 	sth	zero,0(r12)
					sum = dir[LDIR_Chksum];
					c &= ~LLE; ord = c;
					dj->lfn_idx = dj->index;
				}
				/* Check LFN validity and capture it */
				ord = (c == ord && sum == dir[LDIR_Chksum] && pick_lfn(dj->lfn, dir)) ? ord - 1 : 0xFF;
    2360:	8c7fffc4 	addi	r17,r17,-1
    2364:	5029883a 	mov	r20,r10
    2368:	003fb106 	br	2230 <__alt_mem_onchip_flash_0_data+0xf0f02230>
			} else {					/* An SFN entry is found */
				if (ord || sum != sum_sfn(dir))	/* Is there a valid LFN? */
    236c:	8c403fcc 	andi	r17,r17,255
    2370:	88000f1e 	bne	r17,zero,23b0 <dir_read+0x210>
/*-----------------------------------------------------------------------*/
/* Read an object from the directory                                     */
/*-----------------------------------------------------------------------*/
#if _FS_MINIMIZE <= 1
static
FRESULT dir_read (
    2374:	20c00044 	addi	r3,r4,1
    2378:	000d883a 	mov	r6,zero
    237c:	210002c4 	addi	r4,r4,11
    2380:	00000206 	br	238c <dir_read+0x1ec>
    2384:	19400003 	ldbu	r5,0(r3)
    2388:	18c00044 	addi	r3,r3,1
)
{
	BYTE sum = 0;
	UINT n = 11;

	do sum = (sum >> 1) + (sum << 7) + *dir++; while (--n);
    238c:	31c03fcc 	andi	r7,r6,255
    2390:	380ed07a 	srli	r7,r7,1
    2394:	300c91fa 	slli	r6,r6,7
    2398:	398cb03a 	or	r6,r7,r6
    239c:	314d883a 	add	r6,r6,r5
    23a0:	193ff81e 	bne	r3,r4,2384 <__alt_mem_onchip_flash_0_data+0xf0f02384>
					dj->lfn_idx = dj->index;
				}
				/* Check LFN validity and capture it */
				ord = (c == ord && sum == dir[LDIR_Chksum] && pick_lfn(dj->lfn, dir)) ? ord - 1 : 0xFF;
			} else {					/* An SFN entry is found */
				if (ord || sum != sum_sfn(dir))	/* Is there a valid LFN? */
    23a4:	a5003fcc 	andi	r20,r20,255
    23a8:	31803fcc 	andi	r6,r6,255
    23ac:	a1bfa526 	beq	r20,r6,2244 <__alt_mem_onchip_flash_0_data+0xf0f02244>
					dj->lfn_idx = 0xFFFF;		/* It has no LFN. */
    23b0:	00ffffc4 	movi	r3,-1
    23b4:	80c0080d 	sth	r3,32(r16)
    23b8:	003fa206 	br	2244 <__alt_mem_onchip_flash_0_data+0xf0f02244>

000023bc <remove_chain>:
static
FRESULT remove_chain (
	FATFS *fs,			/* File system object */
	DWORD clst			/* Cluster# to remove a chain from */
)
{
    23bc:	defffb04 	addi	sp,sp,-20
    23c0:	dcc00315 	stw	r19,12(sp)
    23c4:	dc400115 	stw	r17,4(sp)
    23c8:	dc000015 	stw	r16,0(sp)
    23cc:	dfc00415 	stw	ra,16(sp)
    23d0:	dc800215 	stw	r18,8(sp)
	DWORD nxt;
#if _USE_ERASE
	DWORD scl = clst, ecl = clst, resion[2];
#endif

	if (clst < 2 || clst >= fs->n_fatent) {	/* Check range */
    23d4:	04c00044 	movi	r19,1
static
FRESULT remove_chain (
	FATFS *fs,			/* File system object */
	DWORD clst			/* Cluster# to remove a chain from */
)
{
    23d8:	2823883a 	mov	r17,r5
    23dc:	2021883a 	mov	r16,r4
	DWORD nxt;
#if _USE_ERASE
	DWORD scl = clst, ecl = clst, resion[2];
#endif

	if (clst < 2 || clst >= fs->n_fatent) {	/* Check range */
    23e0:	9940022e 	bgeu	r19,r5,23ec <remove_chain+0x30>
    23e4:	20800617 	ldw	r2,24(r4)
    23e8:	28800836 	bltu	r5,r2,240c <remove_chain+0x50>
		res = FR_INT_ERR;
    23ec:	00800084 	movi	r2,2
			clst = nxt;	/* Next cluster */
		}
	}

	return res;
}
    23f0:	dfc00417 	ldw	ra,16(sp)
    23f4:	dcc00317 	ldw	r19,12(sp)
    23f8:	dc800217 	ldw	r18,8(sp)
    23fc:	dc400117 	ldw	r17,4(sp)
    2400:	dc000017 	ldw	r16,0(sp)
    2404:	dec00504 	addi	sp,sp,20
    2408:	f800283a 	ret
		res = FR_OK;
		while (clst < fs->n_fatent) {			/* Not a last link? */
			nxt = get_fat(fs, clst);			/* Get cluster status */
			if (nxt == 0) break;				/* Empty cluster? */
			if (nxt == 1) { res = FR_INT_ERR; break; }	/* Internal error? */
			if (nxt == 0xFFFFFFFF) { res = FR_DISK_ERR; break; }	/* Disk error? */
    240c:	04bfffc4 	movi	r18,-1
		res = FR_INT_ERR;

	} else {
		res = FR_OK;
		while (clst < fs->n_fatent) {			/* Not a last link? */
			nxt = get_fat(fs, clst);			/* Get cluster status */
    2410:	880b883a 	mov	r5,r17
    2414:	8009883a 	mov	r4,r16
    2418:	00010f80 	call	10f8 <get_fat>
			if (nxt == 0) break;				/* Empty cluster? */
			if (nxt == 1) { res = FR_INT_ERR; break; }	/* Internal error? */
			if (nxt == 0xFFFFFFFF) { res = FR_DISK_ERR; break; }	/* Disk error? */
			res = put_fat(fs, clst, 0);			/* Mark the cluster "empty" */
    241c:	880b883a 	mov	r5,r17
    2420:	8009883a 	mov	r4,r16
    2424:	000d883a 	mov	r6,zero
    2428:	1023883a 	mov	r17,r2

	} else {
		res = FR_OK;
		while (clst < fs->n_fatent) {			/* Not a last link? */
			nxt = get_fat(fs, clst);			/* Get cluster status */
			if (nxt == 0) break;				/* Empty cluster? */
    242c:	10000b26 	beq	r2,zero,245c <remove_chain+0xa0>
			if (nxt == 1) { res = FR_INT_ERR; break; }	/* Internal error? */
    2430:	14ffee26 	beq	r2,r19,23ec <__alt_mem_onchip_flash_0_data+0xf0f023ec>
			if (nxt == 0xFFFFFFFF) { res = FR_DISK_ERR; break; }	/* Disk error? */
    2434:	14800b26 	beq	r2,r18,2464 <remove_chain+0xa8>
			res = put_fat(fs, clst, 0);			/* Mark the cluster "empty" */
    2438:	00013c80 	call	13c8 <put_fat>
			if (res != FR_OK) break;
    243c:	103fec1e 	bne	r2,zero,23f0 <__alt_mem_onchip_flash_0_data+0xf0f023f0>
			if (fs->free_clust != 0xFFFFFFFF) {	/* Update FSInfo */
    2440:	80800417 	ldw	r2,16(r16)
				fs->free_clust++;
    2444:	10c00044 	addi	r3,r2,1
			if (nxt == 0) break;				/* Empty cluster? */
			if (nxt == 1) { res = FR_INT_ERR; break; }	/* Internal error? */
			if (nxt == 0xFFFFFFFF) { res = FR_DISK_ERR; break; }	/* Disk error? */
			res = put_fat(fs, clst, 0);			/* Mark the cluster "empty" */
			if (res != FR_OK) break;
			if (fs->free_clust != 0xFFFFFFFF) {	/* Update FSInfo */
    2448:	14800226 	beq	r2,r18,2454 <remove_chain+0x98>
				fs->free_clust++;
    244c:	80c00415 	stw	r3,16(r16)
				fs->fsi_flag = 1;
    2450:	84c00145 	stb	r19,5(r16)
	if (clst < 2 || clst >= fs->n_fatent) {	/* Check range */
		res = FR_INT_ERR;

	} else {
		res = FR_OK;
		while (clst < fs->n_fatent) {			/* Not a last link? */
    2454:	80800617 	ldw	r2,24(r16)
    2458:	88bfed36 	bltu	r17,r2,2410 <__alt_mem_onchip_flash_0_data+0xf0f02410>
static
FRESULT remove_chain (
	FATFS *fs,			/* File system object */
	DWORD clst			/* Cluster# to remove a chain from */
)
{
    245c:	0005883a 	mov	r2,zero
    2460:	003fe306 	br	23f0 <__alt_mem_onchip_flash_0_data+0xf0f023f0>
		res = FR_OK;
		while (clst < fs->n_fatent) {			/* Not a last link? */
			nxt = get_fat(fs, clst);			/* Get cluster status */
			if (nxt == 0) break;				/* Empty cluster? */
			if (nxt == 1) { res = FR_INT_ERR; break; }	/* Internal error? */
			if (nxt == 0xFFFFFFFF) { res = FR_DISK_ERR; break; }	/* Disk error? */
    2464:	00800044 	movi	r2,1
    2468:	003fe106 	br	23f0 <__alt_mem_onchip_flash_0_data+0xf0f023f0>

0000246c <gen_numname>:
	BYTE *dst,			/* Pointer to generated SFN */
	const BYTE *src,	/* Pointer to source SFN to be modified */
	const WCHAR *lfn,	/* Pointer to LFN */
	WORD seq			/* Sequence number */
)
{
    246c:	defffe04 	addi	sp,sp,-8

/*-----------------------------------------------------------------------*/
/* Create numbered name                                                  */
/*-----------------------------------------------------------------------*/
#if _USE_LFN
void gen_numname (
    2470:	2a0002c4 	addi	r8,r5,11
    2474:	2005883a 	mov	r2,r4
		d += sizeof(int); s += sizeof(int);
		cnt -= sizeof(int);
	}
#endif
	while (cnt--)
		*d++ = *s++;
    2478:	28c00003 	ldbu	r3,0(r5)
    247c:	10800044 	addi	r2,r2,1
    2480:	29400044 	addi	r5,r5,1
    2484:	10ffffc5 	stb	r3,-1(r2)
		*(int*)d = *(int*)s;
		d += sizeof(int); s += sizeof(int);
		cnt -= sizeof(int);
	}
#endif
	while (cnt--)
    2488:	2a3ffb1e 	bne	r5,r8,2478 <__alt_mem_onchip_flash_0_data+0xf0f02478>
	UINT i, j;


	mem_cpy(dst, src, 11);

	if (seq > 5) {	/* On many collisions, generate a hash number instead of sequential number */
    248c:	38bfffcc 	andi	r2,r7,65535
    2490:	00c00144 	movi	r3,5
    2494:	18800a2e 	bgeu	r3,r2,24c0 <gen_numname+0x54>
    2498:	30c0000b 	ldhu	r3,0(r6)
		do seq = (seq >> 1) + (seq << 15) + (WORD)*lfn++; while (*lfn);
    249c:	1004d07a 	srli	r2,r2,1
    24a0:	380e93fa 	slli	r7,r7,15
    24a4:	31800084 	addi	r6,r6,2
    24a8:	388eb03a 	or	r7,r7,r2
    24ac:	38cf883a 	add	r7,r7,r3
    24b0:	30c0000b 	ldhu	r3,0(r6)
    24b4:	38bfffcc 	andi	r2,r7,65535
    24b8:	197fffcc 	andi	r5,r3,65535
    24bc:	283ff71e 	bne	r5,zero,249c <__alt_mem_onchip_flash_0_data+0xf0f0249c>

/*-----------------------------------------------------------------------*/
/* Create numbered name                                                  */
/*-----------------------------------------------------------------------*/
#if _USE_LFN
void gen_numname (
    24c0:	00c001c4 	movi	r3,7

	/* itoa (hexdecimal) */
	i = 7;
	do {
		c = (seq % 16) + '0';
		if (c > '9') c += 7;
    24c4:	02800e44 	movi	r10,57
	}

	/* itoa (hexdecimal) */
	i = 7;
	do {
		c = (seq % 16) + '0';
    24c8:	398003cc 	andi	r6,r7,15
		if (c > '9') c += 7;
		ns[i--] = c;
		seq /= 16;
    24cc:	100ed13a 	srli	r7,r2,4
	}

	/* itoa (hexdecimal) */
	i = 7;
	do {
		c = (seq % 16) + '0';
    24d0:	31400c04 	addi	r5,r6,48
		if (c > '9') c += 7;
    24d4:	2a403fcc 	andi	r9,r5,255

/*-----------------------------------------------------------------------*/
/* Create numbered name                                                  */
/*-----------------------------------------------------------------------*/
#if _USE_LFN
void gen_numname (
    24d8:	d8d1883a 	add	r8,sp,r3
	do {
		c = (seq % 16) + '0';
		if (c > '9') c += 7;
		ns[i--] = c;
		seq /= 16;
	} while (seq);
    24dc:	38bfffcc 	andi	r2,r7,65535

	/* itoa (hexdecimal) */
	i = 7;
	do {
		c = (seq % 16) + '0';
		if (c > '9') c += 7;
    24e0:	5240012e 	bgeu	r10,r9,24e8 <gen_numname+0x7c>
    24e4:	31400dc4 	addi	r5,r6,55
		ns[i--] = c;
    24e8:	41400005 	stb	r5,0(r8)
    24ec:	18ffffc4 	addi	r3,r3,-1
		seq /= 16;
	} while (seq);
    24f0:	103ff51e 	bne	r2,zero,24c8 <__alt_mem_onchip_flash_0_data+0xf0f024c8>
	ns[i] = '~';
    24f4:	d8c5883a 	add	r2,sp,r3
    24f8:	01401f84 	movi	r5,126
    24fc:	11400005 	stb	r5,0(r2)

	/* Append the number */
	for (j = 0; j < i && dst[j] != ' '; j++) {
    2500:	18002826 	beq	r3,zero,25a4 <gen_numname+0x138>
    2504:	21400003 	ldbu	r5,0(r4)
    2508:	02400804 	movi	r9,32
    250c:	28803fcc 	andi	r2,r5,255
    2510:	12402426 	beq	r2,r9,25a4 <gen_numname+0x138>
    2514:	0005883a 	mov	r2,zero
		if (IsDBCS1(dst[j])) {
    2518:	02000784 	movi	r8,30
			if (j == i - 1) break;
    251c:	1abfffc4 	addi	r10,r3,-1
	} while (seq);
	ns[i] = '~';

	/* Append the number */
	for (j = 0; j < i && dst[j] != ' '; j++) {
		if (IsDBCS1(dst[j])) {
    2520:	02c00704 	movi	r11,28
    2524:	29801fc4 	addi	r6,r5,127
    2528:	31803fcc 	andi	r6,r6,255
    252c:	29400804 	addi	r5,r5,32
    2530:	29403fcc 	andi	r5,r5,255
    2534:	4180012e 	bgeu	r8,r6,253c <gen_numname+0xd0>
    2538:	59400236 	bltu	r11,r5,2544 <gen_numname+0xd8>
			if (j == i - 1) break;
    253c:	50801726 	beq	r10,r2,259c <gen_numname+0x130>
			j++;
    2540:	10800044 	addi	r2,r2,1
		seq /= 16;
	} while (seq);
	ns[i] = '~';

	/* Append the number */
	for (j = 0; j < i && dst[j] != ' '; j++) {
    2544:	10800044 	addi	r2,r2,1
    2548:	208d883a 	add	r6,r4,r2
    254c:	10c0032e 	bgeu	r2,r3,255c <gen_numname+0xf0>
    2550:	31400003 	ldbu	r5,0(r6)
    2554:	29c03fcc 	andi	r7,r5,255
    2558:	3a7ff21e 	bne	r7,r9,2524 <__alt_mem_onchip_flash_0_data+0xf0f02524>
			if (j == i - 1) break;
			j++;
		}
	}
	do {
		dst[j++] = (i < 8) ? ns[i++] : ' ';
    255c:	014001c4 	movi	r5,7
    2560:	00000606 	br	257c <gen_numname+0x110>
    2564:	39c00003 	ldbu	r7,0(r7)
    2568:	10800044 	addi	r2,r2,1
    256c:	18c00044 	addi	r3,r3,1
    2570:	31c00005 	stb	r7,0(r6)
	} while (j < 8);
    2574:	28800736 	bltu	r5,r2,2594 <gen_numname+0x128>
    2578:	208d883a 	add	r6,r4,r2
			if (j == i - 1) break;
			j++;
		}
	}
	do {
		dst[j++] = (i < 8) ? ns[i++] : ' ';
    257c:	d8cf883a 	add	r7,sp,r3
    2580:	28fff82e 	bgeu	r5,r3,2564 <__alt_mem_onchip_flash_0_data+0xf0f02564>
    2584:	01c00804 	movi	r7,32
    2588:	31c00005 	stb	r7,0(r6)
    258c:	10800044 	addi	r2,r2,1
	} while (j < 8);
    2590:	28bff92e 	bgeu	r5,r2,2578 <__alt_mem_onchip_flash_0_data+0xf0f02578>
}
    2594:	dec00204 	addi	sp,sp,8
    2598:	f800283a 	ret
    259c:	208d883a 	add	r6,r4,r2
    25a0:	003fee06 	br	255c <__alt_mem_onchip_flash_0_data+0xf0f0255c>
		seq /= 16;
	} while (seq);
	ns[i] = '~';

	/* Append the number */
	for (j = 0; j < i && dst[j] != ' '; j++) {
    25a4:	0005883a 	mov	r2,zero
    25a8:	200d883a 	mov	r6,r4
    25ac:	003feb06 	br	255c <__alt_mem_onchip_flash_0_data+0xf0f0255c>

000025b0 <dir_register>:
#if !_FS_READONLY
static
FRESULT dir_register (	/* FR_OK:Successful, FR_DENIED:No free entry or too many SFN collision, FR_DISK_ERR:Disk error */
	DIR *dj				/* Target directory with object name to be created */
)
{
    25b0:	defff504 	addi	sp,sp,-44
    25b4:	dcc00615 	stw	r19,24(sp)
	WORD n, ne, is;
	BYTE sn[12], *fn, sum;
	WCHAR *lfn;


	fn = dj->fn; lfn = dj->lfn;
    25b8:	24c00617 	ldw	r19,24(r4)
#if !_FS_READONLY
static
FRESULT dir_register (	/* FR_OK:Successful, FR_DENIED:No free entry or too many SFN collision, FR_DISK_ERR:Disk error */
	DIR *dj				/* Target directory with object name to be created */
)
{
    25bc:	dc800515 	stw	r18,20(sp)
	WORD n, ne, is;
	BYTE sn[12], *fn, sum;
	WCHAR *lfn;


	fn = dj->fn; lfn = dj->lfn;
    25c0:	24800717 	ldw	r18,28(r4)
#if !_FS_READONLY
static
FRESULT dir_register (	/* FR_OK:Successful, FR_DENIED:No free entry or too many SFN collision, FR_DISK_ERR:Disk error */
	DIR *dj				/* Target directory with object name to be created */
)
{
    25c4:	dc400415 	stw	r17,16(sp)
    25c8:	dfc00a15 	stw	ra,40(sp)
    25cc:	dd800915 	stw	r22,36(sp)
    25d0:	dd400815 	stw	r21,32(sp)
    25d4:	dd000715 	stw	r20,28(sp)
    25d8:	dc000315 	stw	r16,12(sp)
    25dc:	2023883a 	mov	r17,r4
/*-----------------------------------------------------------------------*/

/* Copy memory to memory */
static
void mem_cpy (void* dst, const void* src, UINT cnt) {
	BYTE *d = (BYTE*)dst;
    25e0:	d807883a 	mov	r3,sp
/*-----------------------------------------------------------------------*/
/* Register an object to the directory                                   */
/*-----------------------------------------------------------------------*/
#if !_FS_READONLY
static
FRESULT dir_register (	/* FR_OK:Successful, FR_DENIED:No free entry or too many SFN collision, FR_DISK_ERR:Disk error */
    25e4:	99800304 	addi	r6,r19,12
	WORD n, ne, is;
	BYTE sn[12], *fn, sum;
	WCHAR *lfn;


	fn = dj->fn; lfn = dj->lfn;
    25e8:	9805883a 	mov	r2,r19
		d += sizeof(int); s += sizeof(int);
		cnt -= sizeof(int);
	}
#endif
	while (cnt--)
		*d++ = *s++;
    25ec:	11400003 	ldbu	r5,0(r2)
    25f0:	18c00044 	addi	r3,r3,1
    25f4:	10800044 	addi	r2,r2,1
    25f8:	197fffc5 	stb	r5,-1(r3)
		*(int*)d = *(int*)s;
		d += sizeof(int); s += sizeof(int);
		cnt -= sizeof(int);
	}
#endif
	while (cnt--)
    25fc:	11bffb1e 	bne	r2,r6,25ec <__alt_mem_onchip_flash_0_data+0xf0f025ec>
	mem_cpy(sn, fn, 12);

	if (_FS_RPATH && (sn[NS] & NS_DOT))		/* Cannot create dot entry */
		return FR_INVALID_NAME;

	if (sn[NS] & NS_LOSS) {			/* When LFN is out of 8.3 format, generate a numbered name */
    2600:	d88002c3 	ldbu	r2,11(sp)
    2604:	10c0004c 	andi	r3,r2,1
    2608:	18002326 	beq	r3,zero,2698 <dir_register+0xe8>
		fn[NS] = 0; dj->lfn = 0;			/* Find only SFN */
    260c:	980002c5 	stb	zero,11(r19)
    2610:	88000715 	stw	zero,28(r17)
    2614:	04000044 	movi	r16,1
		for (n = 1; n < 100; n++) {
    2618:	05001904 	movi	r20,100
    261c:	00000306 	br	262c <dir_register+0x7c>
    2620:	00019080 	call	1908 <dir_find.part.4>
			gen_numname(fn, sn, lfn, n);	/* Generate a numbered name */
			res = dir_find(dj);				/* Check if the name collides with existing SFN */
			if (res != FR_OK) break;
    2624:	10000c1e 	bne	r2,zero,2658 <dir_register+0xa8>
	if (_FS_RPATH && (sn[NS] & NS_DOT))		/* Cannot create dot entry */
		return FR_INVALID_NAME;

	if (sn[NS] & NS_LOSS) {			/* When LFN is out of 8.3 format, generate a numbered name */
		fn[NS] = 0; dj->lfn = 0;			/* Find only SFN */
		for (n = 1; n < 100; n++) {
    2628:	85006526 	beq	r16,r20,27c0 <dir_register+0x210>
			gen_numname(fn, sn, lfn, n);	/* Generate a numbered name */
    262c:	800f883a 	mov	r7,r16
    2630:	900d883a 	mov	r6,r18
    2634:	d80b883a 	mov	r5,sp
    2638:	9809883a 	mov	r4,r19
    263c:	000246c0 	call	246c <gen_numname>
	BYTE c, *dir;
#if _USE_LFN
	BYTE a, ord, sum;
#endif

	res = dir_sdi(dj, 0);			/* Rewind directory object */
    2640:	8809883a 	mov	r4,r17
    2644:	000b883a 	mov	r5,zero
    2648:	00012700 	call	1270 <dir_sdi>
    264c:	8809883a 	mov	r4,r17
    2650:	84000044 	addi	r16,r16,1
	if (res != FR_OK) return res;
    2654:	103ff226 	beq	r2,zero,2620 <__alt_mem_onchip_flash_0_data+0xf0f02620>
			gen_numname(fn, sn, lfn, n);	/* Generate a numbered name */
			res = dir_find(dj);				/* Check if the name collides with existing SFN */
			if (res != FR_OK) break;
		}
		if (n == 100) return FR_DENIED;		/* Abort if too many collisions */
		if (res != FR_NO_FILE) return res;	/* Abort if the result is other than 'not collided' */
