Archive member included because of file (symbol)

c:/develop/altera/14.0/nios2eds/bin/gnu/h-x86_64-mingw32/bin/../lib/gcc/nios2-elf/4.7.3/mhw-mulx\libgcc.a(lib2-divmod.o)
                              obj/default/mmcfs/fatfs/ff.o (__divsi3)
c:/develop/altera/14.0/nios2eds/bin/gnu/h-x86_64-mingw32/bin/../lib/gcc/nios2-elf/4.7.3/../../../../../H-x86_64-mingw32/nios2-elf/lib/mhw-mulx\libc.a(lib_a-malloc.o)
                              obj/default/ckplay_peridot.o (malloc)
c:/develop/altera/14.0/nios2eds/bin/gnu/h-x86_64-mingw32/bin/../lib/gcc/nios2-elf/4.7.3/../../../../../H-x86_64-mingw32/nios2-elf/lib/mhw-mulx\libc.a(lib_a-mallocr.o)
                              c:/develop/altera/14.0/nios2eds/bin/gnu/h-x86_64-mingw32/bin/../lib/gcc/nios2-elf/4.7.3/../../../../../H-x86_64-mingw32/nios2-elf/lib/mhw-mulx\libc.a(lib_a-malloc.o) (_malloc_r)
c:/develop/altera/14.0/nios2eds/bin/gnu/h-x86_64-mingw32/bin/../lib/gcc/nios2-elf/4.7.3/../../../../../H-x86_64-mingw32/nios2-elf/lib/mhw-mulx\libc.a(lib_a-memcpy.o)
                              obj/default/mmcfs/mmcfs.o (memcpy)
c:/develop/altera/14.0/nios2eds/bin/gnu/h-x86_64-mingw32/bin/../lib/gcc/nios2-elf/4.7.3/../../../../../H-x86_64-mingw32/nios2-elf/lib/mhw-mulx\libc.a(lib_a-memset.o)
                              obj/default/ckplay_peridot.o (memset)
c:/develop/altera/14.0/nios2eds/bin/gnu/h-x86_64-mingw32/bin/../lib/gcc/nios2-elf/4.7.3/../../../../../H-x86_64-mingw32/nios2-elf/lib/mhw-mulx\libc.a(lib_a-printf.o)
                              obj/default/ckplay_peridot.o (printf)
c:/develop/altera/14.0/nios2eds/bin/gnu/h-x86_64-mingw32/bin/../lib/gcc/nios2-elf/4.7.3/../../../../../H-x86_64-mingw32/nios2-elf/lib/mhw-mulx\libc.a(lib_a-puts.o)
                              obj/default/ckplay_peridot.o (puts)
c:/develop/altera/14.0/nios2eds/bin/gnu/h-x86_64-mingw32/bin/../lib/gcc/nios2-elf/4.7.3/../../../../../H-x86_64-mingw32/nios2-elf/lib/mhw-mulx\libc.a(lib_a-sbrkr.o)
                              c:/develop/altera/14.0/nios2eds/bin/gnu/h-x86_64-mingw32/bin/../lib/gcc/nios2-elf/4.7.3/../../../../../H-x86_64-mingw32/nios2-elf/lib/mhw-mulx\libc.a(lib_a-mallocr.o) (_sbrk_r)
c:/develop/altera/14.0/nios2eds/bin/gnu/h-x86_64-mingw32/bin/../lib/gcc/nios2-elf/4.7.3/../../../../../H-x86_64-mingw32/nios2-elf/lib/mhw-mulx\libc.a(lib_a-strcpy.o)
                              obj/default/ckplay_peridot.o (strcpy)
c:/develop/altera/14.0/nios2eds/bin/gnu/h-x86_64-mingw32/bin/../lib/gcc/nios2-elf/4.7.3/../../../../../H-x86_64-mingw32/nios2-elf/lib/mhw-mulx\libc.a(lib_a-strlen.o)
                              obj/default/ckplay_peridot.o (strlen)
c:/develop/altera/14.0/nios2eds/bin/gnu/h-x86_64-mingw32/bin/../lib/gcc/nios2-elf/4.7.3/../../../../../H-x86_64-mingw32/nios2-elf/lib/mhw-mulx\libc.a(lib_a-vfprintf.o)
                              c:/develop/altera/14.0/nios2eds/bin/gnu/h-x86_64-mingw32/bin/../lib/gcc/nios2-elf/4.7.3/../../../../../H-x86_64-mingw32/nios2-elf/lib/mhw-mulx\libc.a(lib_a-printf.o) (___vfprintf_internal_r)
c:/develop/altera/14.0/nios2eds/bin/gnu/h-x86_64-mingw32/bin/../lib/gcc/nios2-elf/4.7.3/../../../../../H-x86_64-mingw32/nios2-elf/lib/mhw-mulx\libc.a(lib_a-wsetup.o)
                              c:/develop/altera/14.0/nios2eds/bin/gnu/h-x86_64-mingw32/bin/../lib/gcc/nios2-elf/4.7.3/../../../../../H-x86_64-mingw32/nios2-elf/lib/mhw-mulx\libc.a(lib_a-vfprintf.o) (__swsetup_r)
c:/develop/altera/14.0/nios2eds/bin/gnu/h-x86_64-mingw32/bin/../lib/gcc/nios2-elf/4.7.3/../../../../../H-x86_64-mingw32/nios2-elf/lib/mhw-mulx\libc.a(lib_a-dtoa.o)
                              c:/develop/altera/14.0/nios2eds/bin/gnu/h-x86_64-mingw32/bin/../lib/gcc/nios2-elf/4.7.3/../../../../../H-x86_64-mingw32/nios2-elf/lib/mhw-mulx\libc.a(lib_a-vfprintf.o) (_dtoa_r)
c:/develop/altera/14.0/nios2eds/bin/gnu/h-x86_64-mingw32/bin/../lib/gcc/nios2-elf/4.7.3/../../../../../H-x86_64-mingw32/nios2-elf/lib/mhw-mulx\libc.a(lib_a-fflush.o)
                              c:/develop/altera/14.0/nios2eds/bin/gnu/h-x86_64-mingw32/bin/../lib/gcc/nios2-elf/4.7.3/../../../../../H-x86_64-mingw32/nios2-elf/lib/mhw-mulx\libc.a(lib_a-vfprintf.o) (_fflush_r)
c:/develop/altera/14.0/nios2eds/bin/gnu/h-x86_64-mingw32/bin/../lib/gcc/nios2-elf/4.7.3/../../../../../H-x86_64-mingw32/nios2-elf/lib/mhw-mulx\libc.a(lib_a-findfp.o)
                              c:/develop/altera/14.0/nios2eds/bin/gnu/h-x86_64-mingw32/bin/../lib/gcc/nios2-elf/4.7.3/../../../../../H-x86_64-mingw32/nios2-elf/lib/mhw-mulx\libc.a(lib_a-vfprintf.o) (__sinit)
c:/develop/altera/14.0/nios2eds/bin/gnu/h-x86_64-mingw32/bin/../lib/gcc/nios2-elf/4.7.3/../../../../../H-x86_64-mingw32/nios2-elf/lib/mhw-mulx\libc.a(lib_a-freer.o)
                              c:/develop/altera/14.0/nios2eds/bin/gnu/h-x86_64-mingw32/bin/../lib/gcc/nios2-elf/4.7.3/../../../../../H-x86_64-mingw32/nios2-elf/lib/mhw-mulx\libc.a(lib_a-malloc.o) (_free_r)
c:/develop/altera/14.0/nios2eds/bin/gnu/h-x86_64-mingw32/bin/../lib/gcc/nios2-elf/4.7.3/../../../../../H-x86_64-mingw32/nios2-elf/lib/mhw-mulx\libc.a(lib_a-fvwrite.o)
                              c:/develop/altera/14.0/nios2eds/bin/gnu/h-x86_64-mingw32/bin/../lib/gcc/nios2-elf/4.7.3/../../../../../H-x86_64-mingw32/nios2-elf/lib/mhw-mulx\libc.a(lib_a-puts.o) (__sfvwrite_r)
c:/develop/altera/14.0/nios2eds/bin/gnu/h-x86_64-mingw32/bin/../lib/gcc/nios2-elf/4.7.3/../../../../../H-x86_64-mingw32/nios2-elf/lib/mhw-mulx\libc.a(lib_a-fwalk.o)
                              c:/develop/altera/14.0/nios2eds/bin/gnu/h-x86_64-mingw32/bin/../lib/gcc/nios2-elf/4.7.3/../../../../../H-x86_64-mingw32/nios2-elf/lib/mhw-mulx\libc.a(lib_a-findfp.o) (_fwalk)
c:/develop/altera/14.0/nios2eds/bin/gnu/h-x86_64-mingw32/bin/../lib/gcc/nios2-elf/4.7.3/../../../../../H-x86_64-mingw32/nios2-elf/lib/mhw-mulx\libc.a(lib_a-impure.o)
                              c:/develop/altera/14.0/nios2eds/bin/gnu/h-x86_64-mingw32/bin/../lib/gcc/nios2-elf/4.7.3/../../../../../H-x86_64-mingw32/nios2-elf/lib/mhw-mulx\libc.a(lib_a-fflush.o) (_global_impure_ptr)
c:/develop/altera/14.0/nios2eds/bin/gnu/h-x86_64-mingw32/bin/../lib/gcc/nios2-elf/4.7.3/../../../../../H-x86_64-mingw32/nios2-elf/lib/mhw-mulx\libc.a(lib_a-int_errno.o)
                              c:/develop/altera/14.0/nios2eds/bin/gnu/h-x86_64-mingw32/bin/../lib/gcc/nios2-elf/4.7.3/../../../../../H-x86_64-mingw32/nios2-elf/lib/mhw-mulx\libc.a(lib_a-sbrkr.o) (errno)
c:/develop/altera/14.0/nios2eds/bin/gnu/h-x86_64-mingw32/bin/../lib/gcc/nios2-elf/4.7.3/../../../../../H-x86_64-mingw32/nios2-elf/lib/mhw-mulx\libc.a(lib_a-locale.o)
                              c:/develop/altera/14.0/nios2eds/bin/gnu/h-x86_64-mingw32/bin/../lib/gcc/nios2-elf/4.7.3/../../../../../H-x86_64-mingw32/nios2-elf/lib/mhw-mulx\libc.a(lib_a-vfprintf.o) (_localeconv_r)
c:/develop/altera/14.0/nios2eds/bin/gnu/h-x86_64-mingw32/bin/../lib/gcc/nios2-elf/4.7.3/../../../../../H-x86_64-mingw32/nios2-elf/lib/mhw-mulx\libc.a(lib_a-makebuf.o)
                              c:/develop/altera/14.0/nios2eds/bin/gnu/h-x86_64-mingw32/bin/../lib/gcc/nios2-elf/4.7.3/../../../../../H-x86_64-mingw32/nios2-elf/lib/mhw-mulx\libc.a(lib_a-wsetup.o) (__smakebuf_r)
c:/develop/altera/14.0/nios2eds/bin/gnu/h-x86_64-mingw32/bin/../lib/gcc/nios2-elf/4.7.3/../../../../../H-x86_64-mingw32/nios2-elf/lib/mhw-mulx\libc.a(lib_a-memchr.o)
                              c:/develop/altera/14.0/nios2eds/bin/gnu/h-x86_64-mingw32/bin/../lib/gcc/nios2-elf/4.7.3/../../../../../H-x86_64-mingw32/nios2-elf/lib/mhw-mulx\libc.a(lib_a-vfprintf.o) (memchr)
c:/develop/altera/14.0/nios2eds/bin/gnu/h-x86_64-mingw32/bin/../lib/gcc/nios2-elf/4.7.3/../../../../../H-x86_64-mingw32/nios2-elf/lib/mhw-mulx\libc.a(lib_a-memmove.o)
                              c:/develop/altera/14.0/nios2eds/bin/gnu/h-x86_64-mingw32/bin/../lib/gcc/nios2-elf/4.7.3/../../../../../H-x86_64-mingw32/nios2-elf/lib/mhw-mulx\libc.a(lib_a-fvwrite.o) (memmove)
c:/develop/altera/14.0/nios2eds/bin/gnu/h-x86_64-mingw32/bin/../lib/gcc/nios2-elf/4.7.3/../../../../../H-x86_64-mingw32/nios2-elf/lib/mhw-mulx\libc.a(lib_a-mprec.o)
                              c:/develop/altera/14.0/nios2eds/bin/gnu/h-x86_64-mingw32/bin/../lib/gcc/nios2-elf/4.7.3/../../../../../H-x86_64-mingw32/nios2-elf/lib/mhw-mulx\libc.a(lib_a-dtoa.o) (_Balloc)
c:/develop/altera/14.0/nios2eds/bin/gnu/h-x86_64-mingw32/bin/../lib/gcc/nios2-elf/4.7.3/../../../../../H-x86_64-mingw32/nios2-elf/lib/mhw-mulx\libc.a(lib_a-reallocr.o)
                              c:/develop/altera/14.0/nios2eds/bin/gnu/h-x86_64-mingw32/bin/../lib/gcc/nios2-elf/4.7.3/../../../../../H-x86_64-mingw32/nios2-elf/lib/mhw-mulx\libc.a(lib_a-fvwrite.o) (_realloc_r)
c:/develop/altera/14.0/nios2eds/bin/gnu/h-x86_64-mingw32/bin/../lib/gcc/nios2-elf/4.7.3/../../../../../H-x86_64-mingw32/nios2-elf/lib/mhw-mulx\libc.a(lib_a-s_isinfd.o)
                              c:/develop/altera/14.0/nios2eds/bin/gnu/h-x86_64-mingw32/bin/../lib/gcc/nios2-elf/4.7.3/../../../../../H-x86_64-mingw32/nios2-elf/lib/mhw-mulx\libc.a(lib_a-vfprintf.o) (__isinfd)
c:/develop/altera/14.0/nios2eds/bin/gnu/h-x86_64-mingw32/bin/../lib/gcc/nios2-elf/4.7.3/../../../../../H-x86_64-mingw32/nios2-elf/lib/mhw-mulx\libc.a(lib_a-s_isnand.o)
                              c:/develop/altera/14.0/nios2eds/bin/gnu/h-x86_64-mingw32/bin/../lib/gcc/nios2-elf/4.7.3/../../../../../H-x86_64-mingw32/nios2-elf/lib/mhw-mulx\libc.a(lib_a-vfprintf.o) (__isnand)
c:/develop/altera/14.0/nios2eds/bin/gnu/h-x86_64-mingw32/bin/../lib/gcc/nios2-elf/4.7.3/../../../../../H-x86_64-mingw32/nios2-elf/lib/mhw-mulx\libc.a(lib_a-stdio.o)
                              c:/develop/altera/14.0/nios2eds/bin/gnu/h-x86_64-mingw32/bin/../lib/gcc/nios2-elf/4.7.3/../../../../../H-x86_64-mingw32/nios2-elf/lib/mhw-mulx\libc.a(lib_a-findfp.o) (__sread)
c:/develop/altera/14.0/nios2eds/bin/gnu/h-x86_64-mingw32/bin/../lib/gcc/nios2-elf/4.7.3/../../../../../H-x86_64-mingw32/nios2-elf/lib/mhw-mulx\libc.a(lib_a-strcmp.o)
                              c:/develop/altera/14.0/nios2eds/bin/gnu/h-x86_64-mingw32/bin/../lib/gcc/nios2-elf/4.7.3/../../../../../H-x86_64-mingw32/nios2-elf/lib/mhw-mulx\libc.a(lib_a-locale.o) (strcmp)
c:/develop/altera/14.0/nios2eds/bin/gnu/h-x86_64-mingw32/bin/../lib/gcc/nios2-elf/4.7.3/../../../../../H-x86_64-mingw32/nios2-elf/lib/mhw-mulx\libc.a(lib_a-writer.o)
                              c:/develop/altera/14.0/nios2eds/bin/gnu/h-x86_64-mingw32/bin/../lib/gcc/nios2-elf/4.7.3/../../../../../H-x86_64-mingw32/nios2-elf/lib/mhw-mulx\libc.a(lib_a-stdio.o) (_write_r)
c:/develop/altera/14.0/nios2eds/bin/gnu/h-x86_64-mingw32/bin/../lib/gcc/nios2-elf/4.7.3/../../../../../H-x86_64-mingw32/nios2-elf/lib/mhw-mulx\libc.a(lib_a-callocr.o)
                              c:/develop/altera/14.0/nios2eds/bin/gnu/h-x86_64-mingw32/bin/../lib/gcc/nios2-elf/4.7.3/../../../../../H-x86_64-mingw32/nios2-elf/lib/mhw-mulx\libc.a(lib_a-mprec.o) (_calloc_r)
c:/develop/altera/14.0/nios2eds/bin/gnu/h-x86_64-mingw32/bin/../lib/gcc/nios2-elf/4.7.3/../../../../../H-x86_64-mingw32/nios2-elf/lib/mhw-mulx\libc.a(lib_a-closer.o)
                              c:/develop/altera/14.0/nios2eds/bin/gnu/h-x86_64-mingw32/bin/../lib/gcc/nios2-elf/4.7.3/../../../../../H-x86_64-mingw32/nios2-elf/lib/mhw-mulx\libc.a(lib_a-stdio.o) (_close_r)
c:/develop/altera/14.0/nios2eds/bin/gnu/h-x86_64-mingw32/bin/../lib/gcc/nios2-elf/4.7.3/../../../../../H-x86_64-mingw32/nios2-elf/lib/mhw-mulx\libc.a(lib_a-fclose.o)
                              c:/develop/altera/14.0/nios2eds/bin/gnu/h-x86_64-mingw32/bin/../lib/gcc/nios2-elf/4.7.3/../../../../../H-x86_64-mingw32/nios2-elf/lib/mhw-mulx\libc.a(lib_a-findfp.o) (fclose)
c:/develop/altera/14.0/nios2eds/bin/gnu/h-x86_64-mingw32/bin/../lib/gcc/nios2-elf/4.7.3/../../../../../H-x86_64-mingw32/nios2-elf/lib/mhw-mulx\libc.a(lib_a-fstatr.o)
                              c:/develop/altera/14.0/nios2eds/bin/gnu/h-x86_64-mingw32/bin/../lib/gcc/nios2-elf/4.7.3/../../../../../H-x86_64-mingw32/nios2-elf/lib/mhw-mulx\libc.a(lib_a-makebuf.o) (_fstat_r)
c:/develop/altera/14.0/nios2eds/bin/gnu/h-x86_64-mingw32/bin/../lib/gcc/nios2-elf/4.7.3/../../../../../H-x86_64-mingw32/nios2-elf/lib/mhw-mulx\libc.a(lib_a-isattyr.o)
                              c:/develop/altera/14.0/nios2eds/bin/gnu/h-x86_64-mingw32/bin/../lib/gcc/nios2-elf/4.7.3/../../../../../H-x86_64-mingw32/nios2-elf/lib/mhw-mulx\libc.a(lib_a-makebuf.o) (_isatty_r)
c:/develop/altera/14.0/nios2eds/bin/gnu/h-x86_64-mingw32/bin/../lib/gcc/nios2-elf/4.7.3/../../../../../H-x86_64-mingw32/nios2-elf/lib/mhw-mulx\libc.a(lib_a-lseekr.o)
                              c:/develop/altera/14.0/nios2eds/bin/gnu/h-x86_64-mingw32/bin/../lib/gcc/nios2-elf/4.7.3/../../../../../H-x86_64-mingw32/nios2-elf/lib/mhw-mulx\libc.a(lib_a-stdio.o) (_lseek_r)
c:/develop/altera/14.0/nios2eds/bin/gnu/h-x86_64-mingw32/bin/../lib/gcc/nios2-elf/4.7.3/../../../../../H-x86_64-mingw32/nios2-elf/lib/mhw-mulx\libc.a(lib_a-readr.o)
                              c:/develop/altera/14.0/nios2eds/bin/gnu/h-x86_64-mingw32/bin/../lib/gcc/nios2-elf/4.7.3/../../../../../H-x86_64-mingw32/nios2-elf/lib/mhw-mulx\libc.a(lib_a-stdio.o) (_read_r)
c:/develop/altera/14.0/nios2eds/bin/gnu/h-x86_64-mingw32/bin/../lib/gcc/nios2-elf/4.7.3/mhw-mulx\libgcc.a(_udivdi3.o)
                              c:/develop/altera/14.0/nios2eds/bin/gnu/h-x86_64-mingw32/bin/../lib/gcc/nios2-elf/4.7.3/../../../../../H-x86_64-mingw32/nios2-elf/lib/mhw-mulx\libc.a(lib_a-vfprintf.o) (__udivdi3)
c:/develop/altera/14.0/nios2eds/bin/gnu/h-x86_64-mingw32/bin/../lib/gcc/nios2-elf/4.7.3/mhw-mulx\libgcc.a(_umoddi3.o)
                              c:/develop/altera/14.0/nios2eds/bin/gnu/h-x86_64-mingw32/bin/../lib/gcc/nios2-elf/4.7.3/../../../../../H-x86_64-mingw32/nios2-elf/lib/mhw-mulx\libc.a(lib_a-vfprintf.o) (__umoddi3)
c:/develop/altera/14.0/nios2eds/bin/gnu/h-x86_64-mingw32/bin/../lib/gcc/nios2-elf/4.7.3/mhw-mulx\libgcc.a(_addsub_df.o)
                              c:/develop/altera/14.0/nios2eds/bin/gnu/h-x86_64-mingw32/bin/../lib/gcc/nios2-elf/4.7.3/../../../../../H-x86_64-mingw32/nios2-elf/lib/mhw-mulx\libc.a(lib_a-dtoa.o) (__adddf3)
c:/develop/altera/14.0/nios2eds/bin/gnu/h-x86_64-mingw32/bin/../lib/gcc/nios2-elf/4.7.3/mhw-mulx\libgcc.a(_mul_df.o)
                              c:/develop/altera/14.0/nios2eds/bin/gnu/h-x86_64-mingw32/bin/../lib/gcc/nios2-elf/4.7.3/../../../../../H-x86_64-mingw32/nios2-elf/lib/mhw-mulx\libc.a(lib_a-dtoa.o) (__muldf3)
c:/develop/altera/14.0/nios2eds/bin/gnu/h-x86_64-mingw32/bin/../lib/gcc/nios2-elf/4.7.3/mhw-mulx\libgcc.a(_div_df.o)
                              c:/develop/altera/14.0/nios2eds/bin/gnu/h-x86_64-mingw32/bin/../lib/gcc/nios2-elf/4.7.3/../../../../../H-x86_64-mingw32/nios2-elf/lib/mhw-mulx\libc.a(lib_a-dtoa.o) (__divdf3)
c:/develop/altera/14.0/nios2eds/bin/gnu/h-x86_64-mingw32/bin/../lib/gcc/nios2-elf/4.7.3/mhw-mulx\libgcc.a(_eq_df.o)
                              c:/develop/altera/14.0/nios2eds/bin/gnu/h-x86_64-mingw32/bin/../lib/gcc/nios2-elf/4.7.3/../../../../../H-x86_64-mingw32/nios2-elf/lib/mhw-mulx\libc.a(lib_a-vfprintf.o) (__eqdf2)
c:/develop/altera/14.0/nios2eds/bin/gnu/h-x86_64-mingw32/bin/../lib/gcc/nios2-elf/4.7.3/mhw-mulx\libgcc.a(_ne_df.o)
                              c:/develop/altera/14.0/nios2eds/bin/gnu/h-x86_64-mingw32/bin/../lib/gcc/nios2-elf/4.7.3/../../../../../H-x86_64-mingw32/nios2-elf/lib/mhw-mulx\libc.a(lib_a-vfprintf.o) (__nedf2)
c:/develop/altera/14.0/nios2eds/bin/gnu/h-x86_64-mingw32/bin/../lib/gcc/nios2-elf/4.7.3/mhw-mulx\libgcc.a(_gt_df.o)
                              c:/develop/altera/14.0/nios2eds/bin/gnu/h-x86_64-mingw32/bin/../lib/gcc/nios2-elf/4.7.3/../../../../../H-x86_64-mingw32/nios2-elf/lib/mhw-mulx\libc.a(lib_a-dtoa.o) (__gtdf2)
c:/develop/altera/14.0/nios2eds/bin/gnu/h-x86_64-mingw32/bin/../lib/gcc/nios2-elf/4.7.3/mhw-mulx\libgcc.a(_ge_df.o)
                              c:/develop/altera/14.0/nios2eds/bin/gnu/h-x86_64-mingw32/bin/../lib/gcc/nios2-elf/4.7.3/../../../../../H-x86_64-mingw32/nios2-elf/lib/mhw-mulx\libc.a(lib_a-dtoa.o) (__gedf2)
c:/develop/altera/14.0/nios2eds/bin/gnu/h-x86_64-mingw32/bin/../lib/gcc/nios2-elf/4.7.3/mhw-mulx\libgcc.a(_lt_df.o)
                              c:/develop/altera/14.0/nios2eds/bin/gnu/h-x86_64-mingw32/bin/../lib/gcc/nios2-elf/4.7.3/../../../../../H-x86_64-mingw32/nios2-elf/lib/mhw-mulx\libc.a(lib_a-vfprintf.o) (__ltdf2)
c:/develop/altera/14.0/nios2eds/bin/gnu/h-x86_64-mingw32/bin/../lib/gcc/nios2-elf/4.7.3/mhw-mulx\libgcc.a(_si_to_df.o)
                              c:/develop/altera/14.0/nios2eds/bin/gnu/h-x86_64-mingw32/bin/../lib/gcc/nios2-elf/4.7.3/../../../../../H-x86_64-mingw32/nios2-elf/lib/mhw-mulx\libc.a(lib_a-dtoa.o) (__floatsidf)
c:/develop/altera/14.0/nios2eds/bin/gnu/h-x86_64-mingw32/bin/../lib/gcc/nios2-elf/4.7.3/mhw-mulx\libgcc.a(_df_to_si.o)
                              c:/develop/altera/14.0/nios2eds/bin/gnu/h-x86_64-mingw32/bin/../lib/gcc/nios2-elf/4.7.3/../../../../../H-x86_64-mingw32/nios2-elf/lib/mhw-mulx\libc.a(lib_a-dtoa.o) (__fixdfsi)
c:/develop/altera/14.0/nios2eds/bin/gnu/h-x86_64-mingw32/bin/../lib/gcc/nios2-elf/4.7.3/mhw-mulx\libgcc.a(_thenan_df.o)
                              c:/develop/altera/14.0/nios2eds/bin/gnu/h-x86_64-mingw32/bin/../lib/gcc/nios2-elf/4.7.3/mhw-mulx\libgcc.a(_addsub_df.o) (__thenan_df)
c:/develop/altera/14.0/nios2eds/bin/gnu/h-x86_64-mingw32/bin/../lib/gcc/nios2-elf/4.7.3/mhw-mulx\libgcc.a(_usi_to_df.o)
                              c:/develop/altera/14.0/nios2eds/bin/gnu/h-x86_64-mingw32/bin/../lib/gcc/nios2-elf/4.7.3/../../../../../H-x86_64-mingw32/nios2-elf/lib/mhw-mulx\libc.a(lib_a-dtoa.o) (__floatunsidf)
c:/develop/altera/14.0/nios2eds/bin/gnu/h-x86_64-mingw32/bin/../lib/gcc/nios2-elf/4.7.3/mhw-mulx\libgcc.a(_clz.o)
                              c:/develop/altera/14.0/nios2eds/bin/gnu/h-x86_64-mingw32/bin/../lib/gcc/nios2-elf/4.7.3/mhw-mulx\libgcc.a(_udivdi3.o) (__clz_tab)
c:/develop/altera/14.0/nios2eds/bin/gnu/h-x86_64-mingw32/bin/../lib/gcc/nios2-elf/4.7.3/mhw-mulx\libgcc.a(_clzsi2.o)
                              c:/develop/altera/14.0/nios2eds/bin/gnu/h-x86_64-mingw32/bin/../lib/gcc/nios2-elf/4.7.3/mhw-mulx\libgcc.a(_si_to_df.o) (__clzsi2)
c:/develop/altera/14.0/nios2eds/bin/gnu/h-x86_64-mingw32/bin/../lib/gcc/nios2-elf/4.7.3/mhw-mulx\libgcc.a(_pack_df.o)
                              c:/develop/altera/14.0/nios2eds/bin/gnu/h-x86_64-mingw32/bin/../lib/gcc/nios2-elf/4.7.3/mhw-mulx\libgcc.a(_addsub_df.o) (__pack_d)
c:/develop/altera/14.0/nios2eds/bin/gnu/h-x86_64-mingw32/bin/../lib/gcc/nios2-elf/4.7.3/mhw-mulx\libgcc.a(_unpack_df.o)
                              c:/develop/altera/14.0/nios2eds/bin/gnu/h-x86_64-mingw32/bin/../lib/gcc/nios2-elf/4.7.3/mhw-mulx\libgcc.a(_addsub_df.o) (__unpack_d)
c:/develop/altera/14.0/nios2eds/bin/gnu/h-x86_64-mingw32/bin/../lib/gcc/nios2-elf/4.7.3/mhw-mulx\libgcc.a(_fpcmp_parts_df.o)
                              c:/develop/altera/14.0/nios2eds/bin/gnu/h-x86_64-mingw32/bin/../lib/gcc/nios2-elf/4.7.3/mhw-mulx\libgcc.a(_eq_df.o) (__fpcmp_parts_d)
c:/develop/altera/14.0/nios2eds/bin/gnu/h-x86_64-mingw32/bin/../lib/gcc/nios2-elf/4.7.3/mhw-mulx\libgcc.a(_lshrdi3.o)
                              c:/develop/altera/14.0/nios2eds/bin/gnu/h-x86_64-mingw32/bin/../lib/gcc/nios2-elf/4.7.3/mhw-mulx\libgcc.a(_pack_df.o) (__lshrdi3)
c:/develop/altera/14.0/nios2eds/bin/gnu/h-x86_64-mingw32/bin/../lib/gcc/nios2-elf/4.7.3/mhw-mulx\libgcc.a(_ashldi3.o)
                              c:/develop/altera/14.0/nios2eds/bin/gnu/h-x86_64-mingw32/bin/../lib/gcc/nios2-elf/4.7.3/mhw-mulx\libgcc.a(_pack_df.o) (__ashldi3)
../sodalite_ckplay_bsp/\libhal_bsp.a(alt_close.o)
                              c:/develop/altera/14.0/nios2eds/bin/gnu/h-x86_64-mingw32/bin/../lib/gcc/nios2-elf/4.7.3/../../../../../H-x86_64-mingw32/nios2-elf/lib/mhw-mulx\libc.a(lib_a-closer.o) (close)
../sodalite_ckplay_bsp/\libhal_bsp.a(alt_dcache_flush.o)
                              obj/default/nd_lib/nd_acm.o (alt_dcache_flush)
../sodalite_ckplay_bsp/\libhal_bsp.a(alt_dev.o)
                              ../sodalite_ckplay_bsp/\libhal_bsp.a(alt_close.o) (alt_fd_list)
../sodalite_ckplay_bsp/\libhal_bsp.a(alt_errno.o)
                              ../sodalite_ckplay_bsp/\libhal_bsp.a(alt_close.o) (alt_errno)
../sodalite_ckplay_bsp/\libhal_bsp.a(alt_fs_reg.o)
                              obj/default/mmcfs/mmcfs.o (alt_fs_reg)
../sodalite_ckplay_bsp/\libhal_bsp.a(alt_fstat.o)
                              c:/develop/altera/14.0/nios2eds/bin/gnu/h-x86_64-mingw32/bin/../lib/gcc/nios2-elf/4.7.3/../../../../../H-x86_64-mingw32/nios2-elf/lib/mhw-mulx\libc.a(lib_a-fstatr.o) (fstat)
../sodalite_ckplay_bsp/\libhal_bsp.a(alt_isatty.o)
                              c:/develop/altera/14.0/nios2eds/bin/gnu/h-x86_64-mingw32/bin/../lib/gcc/nios2-elf/4.7.3/../../../../../H-x86_64-mingw32/nios2-elf/lib/mhw-mulx\libc.a(lib_a-isattyr.o) (isatty)
../sodalite_ckplay_bsp/\libhal_bsp.a(alt_load.o)
                              ../sodalite_ckplay_bsp//obj/HAL/src/crt0.o (alt_load)
../sodalite_ckplay_bsp/\libhal_bsp.a(alt_lseek.o)
                              c:/develop/altera/14.0/nios2eds/bin/gnu/h-x86_64-mingw32/bin/../lib/gcc/nios2-elf/4.7.3/../../../../../H-x86_64-mingw32/nios2-elf/lib/mhw-mulx\libc.a(lib_a-lseekr.o) (lseek)
../sodalite_ckplay_bsp/\libhal_bsp.a(alt_main.o)
                              ../sodalite_ckplay_bsp//obj/HAL/src/crt0.o (alt_main)
../sodalite_ckplay_bsp/\libhal_bsp.a(alt_malloc_lock.o)
                              c:/develop/altera/14.0/nios2eds/bin/gnu/h-x86_64-mingw32/bin/../lib/gcc/nios2-elf/4.7.3/../../../../../H-x86_64-mingw32/nios2-elf/lib/mhw-mulx\libc.a(lib_a-mallocr.o) (__malloc_lock)
../sodalite_ckplay_bsp/\libhal_bsp.a(alt_read.o)
                              c:/develop/altera/14.0/nios2eds/bin/gnu/h-x86_64-mingw32/bin/../lib/gcc/nios2-elf/4.7.3/../../../../../H-x86_64-mingw32/nios2-elf/lib/mhw-mulx\libc.a(lib_a-readr.o) (read)
../sodalite_ckplay_bsp/\libhal_bsp.a(alt_release_fd.o)
                              ../sodalite_ckplay_bsp/\libhal_bsp.a(alt_close.o) (alt_release_fd)
../sodalite_ckplay_bsp/\libhal_bsp.a(alt_sbrk.o)
                              c:/develop/altera/14.0/nios2eds/bin/gnu/h-x86_64-mingw32/bin/../lib/gcc/nios2-elf/4.7.3/../../../../../H-x86_64-mingw32/nios2-elf/lib/mhw-mulx\libc.a(lib_a-sbrkr.o) (sbrk)
../sodalite_ckplay_bsp/\libhal_bsp.a(alt_uncached_free.o)
                              obj/default/nd_lib/nd_acm.o (alt_uncached_free)
../sodalite_ckplay_bsp/\libhal_bsp.a(alt_uncached_malloc.o)
                              obj/default/nd_lib/nd_acm.o (alt_uncached_malloc)
../sodalite_ckplay_bsp/\libhal_bsp.a(alt_write.o)
                              c:/develop/altera/14.0/nios2eds/bin/gnu/h-x86_64-mingw32/bin/../lib/gcc/nios2-elf/4.7.3/../../../../../H-x86_64-mingw32/nios2-elf/lib/mhw-mulx\libc.a(lib_a-writer.o) (write)
../sodalite_ckplay_bsp/\libhal_bsp.a(alt_sys_init.o)
                              ../sodalite_ckplay_bsp/\libhal_bsp.a(alt_main.o) (alt_irq_init)
../sodalite_ckplay_bsp/\libhal_bsp.a(altera_avalon_jtag_uart_fd.o)
                              ../sodalite_ckplay_bsp/\libhal_bsp.a(alt_sys_init.o) (altera_avalon_jtag_uart_read_fd)
../sodalite_ckplay_bsp/\libhal_bsp.a(altera_avalon_jtag_uart_init.o)
                              ../sodalite_ckplay_bsp/\libhal_bsp.a(alt_sys_init.o) (altera_avalon_jtag_uart_init)
../sodalite_ckplay_bsp/\libhal_bsp.a(altera_avalon_jtag_uart_ioctl.o)
                              ../sodalite_ckplay_bsp/\libhal_bsp.a(altera_avalon_jtag_uart_fd.o) (altera_avalon_jtag_uart_ioctl)
../sodalite_ckplay_bsp/\libhal_bsp.a(altera_avalon_jtag_uart_read.o)
                              ../sodalite_ckplay_bsp/\libhal_bsp.a(altera_avalon_jtag_uart_fd.o) (altera_avalon_jtag_uart_read)
../sodalite_ckplay_bsp/\libhal_bsp.a(altera_avalon_jtag_uart_write.o)
                              ../sodalite_ckplay_bsp/\libhal_bsp.a(altera_avalon_jtag_uart_fd.o) (altera_avalon_jtag_uart_write)
../sodalite_ckplay_bsp/\libhal_bsp.a(altera_avalon_timer_sc.o)
                              ../sodalite_ckplay_bsp/\libhal_bsp.a(alt_sys_init.o) (alt_avalon_timer_sc_init)
../sodalite_ckplay_bsp/\libhal_bsp.a(altera_modular_adc.o)
                              ../sodalite_ckplay_bsp/\libhal_bsp.a(alt_sys_init.o) (altera_modular_adc_init)
../sodalite_ckplay_bsp/\libhal_bsp.a(altera_onchip_flash.o)
                              ../sodalite_ckplay_bsp/\libhal_bsp.a(alt_sys_init.o) (alt_onchip_flash_read)
../sodalite_ckplay_bsp/\libhal_bsp.a(alt_alarm_start.o)
                              ../sodalite_ckplay_bsp/\libhal_bsp.a(altera_avalon_jtag_uart_init.o) (alt_alarm_start)
../sodalite_ckplay_bsp/\libhal_bsp.a(alt_dcache_flush_all.o)
                              ../sodalite_ckplay_bsp/\libhal_bsp.a(alt_load.o) (alt_dcache_flush_all)
../sodalite_ckplay_bsp/\libhal_bsp.a(alt_dev_llist_insert.o)
                              ../sodalite_ckplay_bsp/\libhal_bsp.a(alt_sys_init.o) (alt_dev_llist_insert)
../sodalite_ckplay_bsp/\libhal_bsp.a(alt_do_ctors.o)
                              ../sodalite_ckplay_bsp/\libhal_bsp.a(alt_main.o) (_do_ctors)
../sodalite_ckplay_bsp/\libhal_bsp.a(alt_do_dtors.o)
                              ../sodalite_ckplay_bsp/\libhal_bsp.a(alt_main.o) (_do_dtors)
../sodalite_ckplay_bsp/\libhal_bsp.a(alt_find_dev.o)
                              ../sodalite_ckplay_bsp/\libhal_bsp.a(altera_modular_adc.o) (alt_find_dev)
../sodalite_ckplay_bsp/\libhal_bsp.a(alt_flash_dev.o)
                              ../sodalite_ckplay_bsp/\libhal_bsp.a(altera_onchip_flash.o) (alt_flash_dev_list)
../sodalite_ckplay_bsp/\libhal_bsp.a(alt_icache_flush_all.o)
                              ../sodalite_ckplay_bsp/\libhal_bsp.a(alt_load.o) (alt_icache_flush_all)
../sodalite_ckplay_bsp/\libhal_bsp.a(alt_iic.o)
                              ../sodalite_ckplay_bsp/\libhal_bsp.a(altera_avalon_jtag_uart_init.o) (alt_ic_isr_register)
../sodalite_ckplay_bsp/\libhal_bsp.a(alt_iic_isr_register.o)
                              ../sodalite_ckplay_bsp/\libhal_bsp.a(alt_iic.o) (alt_iic_isr_register)
../sodalite_ckplay_bsp/\libhal_bsp.a(alt_io_redirect.o)
                              ../sodalite_ckplay_bsp/\libhal_bsp.a(alt_main.o) (alt_io_redirect)
../sodalite_ckplay_bsp/\libhal_bsp.a(alt_irq_entry.o)
                              ../sodalite_ckplay_bsp/\libhal_bsp.a(alt_iic_isr_register.o) (alt_irq_entry)
../sodalite_ckplay_bsp/\libhal_bsp.a(alt_irq_handler.o)
                              ../sodalite_ckplay_bsp/\libhal_bsp.a(alt_iic_isr_register.o) (alt_irq_handler)
../sodalite_ckplay_bsp/\libhal_bsp.a(alt_irq_vars.o)
                              ../sodalite_ckplay_bsp/\libhal_bsp.a(alt_iic.o) (alt_irq_active)
../sodalite_ckplay_bsp/\libhal_bsp.a(alt_open.o)
                              ../sodalite_ckplay_bsp/\libhal_bsp.a(alt_io_redirect.o) (open)
../sodalite_ckplay_bsp/\libhal_bsp.a(alt_tick.o)
                              ../sodalite_ckplay_bsp/\libhal_bsp.a(altera_avalon_timer_sc.o) (alt_tick)
../sodalite_ckplay_bsp/\libhal_bsp.a(altera_nios2_gen2_irq.o)
                              ../sodalite_ckplay_bsp/\libhal_bsp.a(alt_sys_init.o) (altera_nios2_gen2_irq_init)
../sodalite_ckplay_bsp/\libhal_bsp.a(alt_exception_entry.o)
                              ../sodalite_ckplay_bsp/\libhal_bsp.a(alt_irq_entry.o) (alt_exception)
../sodalite_ckplay_bsp/\libhal_bsp.a(alt_find_file.o)
                              ../sodalite_ckplay_bsp/\libhal_bsp.a(alt_open.o) (alt_find_file)
../sodalite_ckplay_bsp/\libhal_bsp.a(alt_get_fd.o)
                              ../sodalite_ckplay_bsp/\libhal_bsp.a(alt_open.o) (alt_get_fd)
../sodalite_ckplay_bsp/\libhal_bsp.a(alt_icache_flush.o)
                              ../sodalite_ckplay_bsp/\libhal_bsp.a(alt_icache_flush_all.o) (alt_icache_flush)
../sodalite_ckplay_bsp/\libhal_bsp.a(alt_instruction_exception_entry.o)
                              ../sodalite_ckplay_bsp/\libhal_bsp.a(alt_exception_entry.o) (alt_instruction_exception_entry)
c:/develop/altera/14.0/nios2eds/bin/gnu/h-x86_64-mingw32/bin/../lib/gcc/nios2-elf/4.7.3/../../../../../H-x86_64-mingw32/nios2-elf/lib/mhw-mulx\libc.a(lib_a-atexit.o)
                              ../sodalite_ckplay_bsp/\libhal_bsp.a(alt_main.o) (atexit)
c:/develop/altera/14.0/nios2eds/bin/gnu/h-x86_64-mingw32/bin/../lib/gcc/nios2-elf/4.7.3/../../../../../H-x86_64-mingw32/nios2-elf/lib/mhw-mulx\libc.a(lib_a-exit.o)
                              ../sodalite_ckplay_bsp/\libhal_bsp.a(alt_main.o) (exit)
c:/develop/altera/14.0/nios2eds/bin/gnu/h-x86_64-mingw32/bin/../lib/gcc/nios2-elf/4.7.3/../../../../../H-x86_64-mingw32/nios2-elf/lib/mhw-mulx\libc.a(lib_a-malign.o)
                              ../sodalite_ckplay_bsp/\libhal_bsp.a(alt_uncached_malloc.o) (memalign)
c:/develop/altera/14.0/nios2eds/bin/gnu/h-x86_64-mingw32/bin/../lib/gcc/nios2-elf/4.7.3/../../../../../H-x86_64-mingw32/nios2-elf/lib/mhw-mulx\libc.a(lib_a-malignr.o)
                              c:/develop/altera/14.0/nios2eds/bin/gnu/h-x86_64-mingw32/bin/../lib/gcc/nios2-elf/4.7.3/../../../../../H-x86_64-mingw32/nios2-elf/lib/mhw-mulx\libc.a(lib_a-malign.o) (_memalign_r)
c:/develop/altera/14.0/nios2eds/bin/gnu/h-x86_64-mingw32/bin/../lib/gcc/nios2-elf/4.7.3/../../../../../H-x86_64-mingw32/nios2-elf/lib/mhw-mulx\libc.a(lib_a-memcmp.o)
                              ../sodalite_ckplay_bsp/\libhal_bsp.a(altera_onchip_flash.o) (memcmp)
c:/develop/altera/14.0/nios2eds/bin/gnu/h-x86_64-mingw32/bin/../lib/gcc/nios2-elf/4.7.3/../../../../../H-x86_64-mingw32/nios2-elf/lib/mhw-mulx\libc.a(lib_a-__atexit.o)
                              c:/develop/altera/14.0/nios2eds/bin/gnu/h-x86_64-mingw32/bin/../lib/gcc/nios2-elf/4.7.3/../../../../../H-x86_64-mingw32/nios2-elf/lib/mhw-mulx\libc.a(lib_a-atexit.o) (__register_exitproc)
c:/develop/altera/14.0/nios2eds/bin/gnu/h-x86_64-mingw32/bin/../lib/gcc/nios2-elf/4.7.3/../../../../../H-x86_64-mingw32/nios2-elf/lib/mhw-mulx\libc.a(lib_a-__call_atexit.o)
                              c:/develop/altera/14.0/nios2eds/bin/gnu/h-x86_64-mingw32/bin/../lib/gcc/nios2-elf/4.7.3/../../../../../H-x86_64-mingw32/nios2-elf/lib/mhw-mulx\libc.a(lib_a-exit.o) (__call_exitprocs)
../sodalite_ckplay_bsp/\libhal_bsp.a(alt_exit.o)
                              c:/develop/altera/14.0/nios2eds/bin/gnu/h-x86_64-mingw32/bin/../lib/gcc/nios2-elf/4.7.3/../../../../../H-x86_64-mingw32/nios2-elf/lib/mhw-mulx\libc.a(lib_a-exit.o) (_exit)

Allocating common symbols
Common symbol       size              file

alt_irq             0x100             ../sodalite_ckplay_bsp/\libhal_bsp.a(alt_irq_handler.o)
errno               0x4               c:/develop/altera/14.0/nios2eds/bin/gnu/h-x86_64-mingw32/bin/../lib/gcc/nios2-elf/4.7.3/../../../../../H-x86_64-mingw32/nios2-elf/lib/mhw-mulx\libc.a(lib_a-int_errno.o)
nd_GsVgaVsyncCount  0x4               obj/default/nd_lib/nd_egl.o
nd_GsEglDrawBuffer  0x4               obj/default/nd_lib/nd_egl.o
_atexit0            0x190             c:/develop/altera/14.0/nios2eds/bin/gnu/h-x86_64-mingw32/bin/../lib/gcc/nios2-elf/4.7.3/../../../../../H-x86_64-mingw32/nios2-elf/lib/mhw-mulx\libc.a(lib_a-atexit.o)
nd_GsVgaVsyncFlag   0x4               obj/default/nd_lib/nd_egl.o

Memory Configuration

Name             Origin             Length             Attributes
sdram_BEFORE_EXCEPTION 0x0000000000000000 0x0000000000000020
sdram            0x0000000000000020 0x0000000001ffffe0
reset            0x000000000f000000 0x0000000000000020
ipl_memory       0x000000000f000020 0x0000000000001fe0
onchip_flash_0_data 0x000000000f100000 0x0000000000008000
*default*        0x0000000000000000 0xffffffffffffffff

Linker script and memory map

LOAD ../sodalite_ckplay_bsp//obj/HAL/src/crt0.o
LOAD obj/default/ckplay_peridot.o
LOAD obj/default/mmcfs/fatfs/ff.o
LOAD obj/default/mmcfs/fatfs/mmcbb.o
LOAD obj/default/mmcfs/fatfs/option/cc932.o
LOAD obj/default/mmcfs/gettime.o
LOAD obj/default/mmcfs/mmc_spi.o
LOAD obj/default/mmcfs/mmcfs.o
LOAD obj/default/nd_lib/nd_acm.o
LOAD obj/default/nd_lib/nd_egl.o
LOAD obj/default/nd_lib/nd_acm_mcudecode.o
LOAD c:/develop/altera/14.0/nios2eds/bin/gnu/h-x86_64-mingw32/bin/../lib/gcc/nios2-elf/4.7.3/../../../../../H-x86_64-mingw32/nios2-elf/lib/mhw-mulx\libstdc++.a
LOAD c:/develop/altera/14.0/nios2eds/bin/gnu/h-x86_64-mingw32/bin/../lib/gcc/nios2-elf/4.7.3/../../../../../H-x86_64-mingw32/nios2-elf/lib/mhw-mulx\libm.a
LOAD c:/develop/altera/14.0/nios2eds/bin/gnu/h-x86_64-mingw32/bin/../lib/gcc/nios2-elf/4.7.3/mhw-mulx\libgcc.a
START GROUP
LOAD c:/develop/altera/14.0/nios2eds/bin/gnu/h-x86_64-mingw32/bin/../lib/gcc/nios2-elf/4.7.3/../../../../../H-x86_64-mingw32/nios2-elf/lib/mhw-mulx\libc.a
LOAD c:/develop/altera/14.0/nios2eds/bin/gnu/h-x86_64-mingw32/bin/../lib/gcc/nios2-elf/4.7.3/mhw-mulx\libgcc.a
LOAD ../sodalite_ckplay_bsp/\libhal_bsp.a
END GROUP
LOAD c:/develop/altera/14.0/nios2eds/bin/gnu/h-x86_64-mingw32/bin/../lib/gcc/nios2-elf/4.7.3/mhw-mulx\libgcc.a
                0x0000000000000000                __alt_mem_sdram = 0x0
                0x000000000f000000                __alt_mem_ipl_memory = 0xf000000
                0x000000000f100000                __alt_mem_onchip_flash_0_data = 0xf100000

.entry          0x000000000f000000       0x20
 *(.entry)
 .entry         0x000000000f000000       0x20 ../sodalite_ckplay_bsp//obj/HAL/src/crt0.o
                0x000000000f000000                __reset

.exceptions     0x0000000000000020      0x16c
                0x0000000000000020                PROVIDE (__ram_exceptions_start, ABSOLUTE (.))
                0x0000000000000020                . = ALIGN (0x20)
 *(.irq)
 *(.exceptions.entry.label)
 .exceptions.entry.label
                0x0000000000000020        0x0 ../sodalite_ckplay_bsp/\libhal_bsp.a(alt_irq_entry.o)
                0x0000000000000020                alt_irq_entry
 .exceptions.entry.label
                0x0000000000000020        0x0 ../sodalite_ckplay_bsp/\libhal_bsp.a(alt_exception_entry.o)
                0x0000000000000020                alt_exception
 *(.exceptions.entry.user)
 *(.exceptions.entry.ecc_fatal)
 *(.exceptions.entry)
 .exceptions.entry
                0x0000000000000020       0x54 ../sodalite_ckplay_bsp/\libhal_bsp.a(alt_exception_entry.o)
 *(.exceptions.irqtest.user)
 *(.exceptions.irqtest)
 .exceptions.irqtest
                0x0000000000000074       0x10 ../sodalite_ckplay_bsp/\libhal_bsp.a(alt_irq_entry.o)
 *(.exceptions.irqhandler.user)
 *(.exceptions.irqhandler)
 .exceptions.irqhandler
                0x0000000000000084        0x4 ../sodalite_ckplay_bsp/\libhal_bsp.a(alt_irq_entry.o)
 *(.exceptions.irqreturn.user)
 *(.exceptions.irqreturn)
 .exceptions.irqreturn
                0x0000000000000088        0x4 ../sodalite_ckplay_bsp/\libhal_bsp.a(alt_irq_entry.o)
 *(.exceptions.notirq.label)
 .exceptions.notirq.label
                0x000000000000008c        0x0 ../sodalite_ckplay_bsp/\libhal_bsp.a(alt_irq_entry.o)
 *(.exceptions.notirq.user)
 *(.exceptions.notirq)
 .exceptions.notirq
                0x000000000000008c        0x8 ../sodalite_ckplay_bsp/\libhal_bsp.a(alt_exception_entry.o)
 *(.exceptions.soft.user)
 *(.exceptions.soft)
 *(.exceptions.unknown.user)
 *(.exceptions.unknown)
 .exceptions.unknown
                0x0000000000000094       0x14 ../sodalite_ckplay_bsp/\libhal_bsp.a(alt_exception_entry.o)
 *(.exceptions.exit.label)
 .exceptions.exit.label
                0x00000000000000a8        0x0 ../sodalite_ckplay_bsp/\libhal_bsp.a(alt_irq_entry.o)
 .exceptions.exit.label
                0x00000000000000a8        0x0 ../sodalite_ckplay_bsp/\libhal_bsp.a(alt_exception_entry.o)
 *(.exceptions.exit.user)
 *(.exceptions.exit)
 .exceptions.exit
                0x00000000000000a8       0x54 ../sodalite_ckplay_bsp/\libhal_bsp.a(alt_exception_entry.o)
 *(.exceptions)
 .exceptions    0x00000000000000fc       0x64 ../sodalite_ckplay_bsp/\libhal_bsp.a(alt_irq_handler.o)
                0x00000000000000fc                alt_irq_handler
 .exceptions    0x0000000000000160       0x2c ../sodalite_ckplay_bsp/\libhal_bsp.a(alt_instruction_exception_entry.o)
                0x0000000000000160                alt_instruction_exception_entry
                0x000000000000018c                PROVIDE (__ram_exceptions_end, ABSOLUTE (.))
                0x0000000000000020                PROVIDE (__flash_exceptions_start, LOADADDR (.exceptions))

.text           0x000000000000018c    0x1262c
                0x000000000000018c                PROVIDE (stext, ABSOLUTE (.))
 *(.interp)
 *(.hash)
 *(.dynsym)
 *(.dynstr)
 *(.gnu.version)
 *(.gnu.version_d)
 *(.gnu.version_r)
 *(.rel.init)
 *(.rela.init)
 *(.rel.text .rel.text.* .rel.gnu.linkonce.t.*)
 *(.rela.text .rela.text.* .rela.gnu.linkonce.t.*)
 *(.rel.fini)
 *(.rela.fini)
 *(.rel.rodata .rel.rodata.* .rel.gnu.linkonce.r.*)
 *(.rela.rodata .rela.rodata.* .rela.gnu.linkonce.r.*)
 *(.rel.data .rel.data.* .rel.gnu.linkonce.d.*)
 *(.rela.data .rela.data.* .rela.gnu.linkonce.d.*)
 *(.rel.tdata .rel.tdata.* .rel.gnu.linkonce.td.*)
 *(.rela.tdata .rela.tdata.* .rela.gnu.linkonce.td.*)
 *(.rel.tbss .rel.tbss.* .rel.gnu.linkonce.tb.*)
 *(.rela.tbss .rela.tbss.* .rela.gnu.linkonce.tb.*)
 *(.rel.ctors)
 *(.rela.ctors)
 *(.rel.dtors)
 *(.rela.dtors)
 *(.rel.got)
 *(.rela.got)
 *(.rel.sdata .rel.sdata.* .rel.gnu.linkonce.s.*)
 *(.rela.sdata .rela.sdata.* .rela.gnu.linkonce.s.*)
 *(.rel.sbss .rel.sbss.* .rel.gnu.linkonce.sb.*)
 *(.rela.sbss .rela.sbss.* .rela.gnu.linkonce.sb.*)
 *(.rel.sdata2 .rel.sdata2.* .rel.gnu.linkonce.s2.*)
 *(.rela.sdata2 .rela.sdata2.* .rela.gnu.linkonce.s2.*)
 *(.rel.sbss2 .rel.sbss2.* .rel.gnu.linkonce.sb2.*)
 *(.rela.sbss2 .rela.sbss2.* .rela.gnu.linkonce.sb2.*)
 *(.rel.bss .rel.bss.* .rel.gnu.linkonce.b.*)
 *(.rela.bss .rela.bss.* .rela.gnu.linkonce.b.*)
 *(.rel.plt)
 *(.rela.plt)
 *(.rel.dyn)
 *(.init)
 *(.plt)
 *(.text .stub .text.* .gnu.linkonce.t.*)
 .text          0x000000000000018c       0x4c ../sodalite_ckplay_bsp//obj/HAL/src/crt0.o
                0x000000000000018c                _start
 .text          0x00000000000001d8      0x168 obj/default/ckplay_peridot.o
                0x00000000000001d8                open_ckdir
                0x000000000000021c                check_extck
                0x0000000000000290                get_ckfilename
 .text.startup  0x0000000000000340      0x1cc obj/default/ckplay_peridot.o
                0x0000000000000340                main
 .text          0x000000000000050c     0x3d84 obj/default/mmcfs/fatfs/ff.o
                0x0000000000000f60                clust2sect
                0x0000000000000f8c                get_fat
                0x000000000000125c                put_fat
                0x0000000000002300                gen_numname
                0x0000000000002798                f_mount
                0x00000000000027c8                f_open
                0x0000000000002a94                f_read
                0x0000000000002d6c                f_write
                0x00000000000030b4                f_sync
                0x00000000000031f4                f_close
                0x0000000000003220                f_lseek
                0x00000000000034f4                f_opendir
                0x00000000000035c4                f_readdir
                0x000000000000367c                f_stat
                0x0000000000003718                f_getfree
                0x0000000000003904                f_truncate
                0x0000000000003a54                f_unlink
                0x0000000000003bb0                f_mkdir
                0x0000000000003ed8                f_chmod
                0x0000000000003fb0                f_utime
                0x0000000000004084                f_rename
 .text          0x0000000000004290      0x9f4 obj/default/mmcfs/fatfs/mmcbb.o
                0x0000000000004640                disk_status
                0x00000000000046d0                disk_initialize
                0x00000000000048b0                disk_read
                0x00000000000049c8                disk_write
                0x0000000000004b1c                disk_ioctl
 .text          0x0000000000004c84       0xe4 obj/default/mmcfs/fatfs/option/cc932.o
                0x0000000000004c84                ff_convert
                0x0000000000004d14                ff_wtoupper
 .text          0x0000000000004d68        0x8 obj/default/mmcfs/gettime.o
                0x0000000000004d68                get_fattime
 .text          0x0000000000004d70      0x280 obj/default/mmcfs/mmc_spi.o
                0x0000000000004d70                mmc_spi_SetCardSelect
                0x0000000000004d84                mmc_spi_SetCardDeselect
                0x0000000000004d9c                mmc_spi_Sendbyte
                0x0000000000004dc0                mmc_spi_Recvbyte
                0x0000000000004df0                mmc_spi_DmaRecv
                0x0000000000004f04                mmc_spi_CheckCardDetect
                0x0000000000004f18                mmc_spi_CheckWritePortect
                0x0000000000004f40                mmc_spi_SetIdentClock
                0x0000000000004f50                mmc_spi_SetTransClock
                0x0000000000004f60                mmc_spi_SetTimer
                0x0000000000004f78                mmc_spi_CheckTimer
                0x0000000000004f88                mmc_spi_Wait100us
                0x0000000000004fa8                mmc_spi_InitSocket
 .text          0x0000000000004ff0      0x2fc obj/default/mmcfs/mmcfs.o
                0x0000000000004ff0                dev_mmcfs_fstat
                0x0000000000005020                dev_mmcfs_lseek
                0x0000000000005090                dev_mmcfs_write
                0x00000000000050c0                dev_mmcfs_read
                0x00000000000050f0                dev_mmcfs_close
                0x0000000000005160                dev_mmcfs_open
                0x000000000000528c                mmcfs_setup
 .text          0x00000000000052ec      0xa94 obj/default/nd_lib/nd_acm.o
                0x0000000000005578                nd_GsCkPlay
                0x00000000000059bc                nd_GsAcmDecode
                0x0000000000005a94                nd_acm_mcudecode_c
 .text          0x0000000000005d80      0xd1c obj/default/nd_lib/nd_egl.o
                0x0000000000005e18                nd_GsVgaVsync_isr
                0x0000000000005e50                nd_GsVgaVsync_isrenable
                0x0000000000005e70                nd_GsVgaVsync_isrdisable
                0x0000000000005e90                nd_GsVgaScanOn
                0x0000000000005ea8                nd_GsVgaScanOff
                0x0000000000005ec4                nd_GsVgaSetBuffer
                0x0000000000005ee0                nd_GsVgaInit
                0x0000000000005f18                nd_GsVgaWaitVsync
                0x0000000000005f38                nd_GsVgaVsync_getcount
                0x0000000000005f64                nd_GsVgaVsync_setcount
                0x0000000000005f90                nd_GsEglPage
                0x0000000000005ff0                nd_GsEglColor
                0x0000000000006000                nd_GsEglPset
                0x00000000000060cc                nd_GsEglBoxfill
                0x0000000000006248                nd_GsEglCircle
                0x00000000000063e8                nd_GsEglLine
                0x0000000000006548                nd_GsEglBox
                0x00000000000065d4                nd_GsEglPutcharFont
                0x0000000000006708                nd_GsEglPutstrFont
                0x00000000000067d4                nd_GsEglSetFont
                0x00000000000067e0                nd_GsEglPutchar
                0x00000000000068a4                nd_GsEglPutstr
                0x0000000000006900                nd_GsEglPutdec
                0x00000000000069dc                nd_GsEglPuthex2
                0x0000000000006a2c                nd_GsEglPuthex8
 .text          0x0000000000006a9c      0x4e8 obj/default/nd_lib/nd_acm_mcudecode.o
                0x0000000000006a9c                nd_acm_mcudecode_asm
 .text          0x0000000000006f84      0x130 c:/develop/altera/14.0/nios2eds/bin/gnu/h-x86_64-mingw32/bin/../lib/gcc/nios2-elf/4.7.3/mhw-mulx\libgcc.a(lib2-divmod.o)
                0x0000000000006ff8                __divsi3
                0x0000000000007048                __modsi3
                0x00000000000070a4                __udivsi3
                0x00000000000070ac                __umodsi3
 .text          0x00000000000070b4       0x28 c:/develop/altera/14.0/nios2eds/bin/gnu/h-x86_64-mingw32/bin/../lib/gcc/nios2-elf/4.7.3/../../../../../H-x86_64-mingw32/nios2-elf/lib/mhw-mulx\libc.a(lib_a-malloc.o)
                0x00000000000070b4                malloc
                0x00000000000070c8                free
 .text          0x00000000000070dc      0x784 c:/develop/altera/14.0/nios2eds/bin/gnu/h-x86_64-mingw32/bin/../lib/gcc/nios2-elf/4.7.3/../../../../../H-x86_64-mingw32/nios2-elf/lib/mhw-mulx\libc.a(lib_a-mallocr.o)
                0x00000000000070dc                _malloc_r
 .text          0x0000000000007860       0xf8 c:/develop/altera/14.0/nios2eds/bin/gnu/h-x86_64-mingw32/bin/../lib/gcc/nios2-elf/4.7.3/../../../../../H-x86_64-mingw32/nios2-elf/lib/mhw-mulx\libc.a(lib_a-memcpy.o)
                0x0000000000007860                memcpy
 .text          0x0000000000007958       0xdc c:/develop/altera/14.0/nios2eds/bin/gnu/h-x86_64-mingw32/bin/../lib/gcc/nios2-elf/4.7.3/../../../../../H-x86_64-mingw32/nios2-elf/lib/mhw-mulx\libc.a(lib_a-memset.o)
                0x0000000000007958                memset
 .text          0x0000000000007a34       0x68 c:/develop/altera/14.0/nios2eds/bin/gnu/h-x86_64-mingw32/bin/../lib/gcc/nios2-elf/4.7.3/../../../../../H-x86_64-mingw32/nios2-elf/lib/mhw-mulx\libc.a(lib_a-printf.o)
                0x0000000000007a34                _printf_r
                0x0000000000007a60                printf
 .text          0x0000000000007a9c       0x98 c:/develop/altera/14.0/nios2eds/bin/gnu/h-x86_64-mingw32/bin/../lib/gcc/nios2-elf/4.7.3/../../../../../H-x86_64-mingw32/nios2-elf/lib/mhw-mulx\libc.a(lib_a-puts.o)
                0x0000000000007a9c                _puts_r
                0x0000000000007b20                puts
 .text          0x0000000000007b34       0x64 c:/develop/altera/14.0/nios2eds/bin/gnu/h-x86_64-mingw32/bin/../lib/gcc/nios2-elf/4.7.3/../../../../../H-x86_64-mingw32/nios2-elf/lib/mhw-mulx\libc.a(lib_a-sbrkr.o)
                0x0000000000007b34                _sbrk_r
 .text          0x0000000000007b98       0x94 c:/develop/altera/14.0/nios2eds/bin/gnu/h-x86_64-mingw32/bin/../lib/gcc/nios2-elf/4.7.3/../../../../../H-x86_64-mingw32/nios2-elf/lib/mhw-mulx\libc.a(lib_a-strcpy.o)
                0x0000000000007b98                strcpy
 .text          0x0000000000007c2c       0x8c c:/develop/altera/14.0/nios2eds/bin/gnu/h-x86_64-mingw32/bin/../lib/gcc/nios2-elf/4.7.3/../../../../../H-x86_64-mingw32/nios2-elf/lib/mhw-mulx\libc.a(lib_a-strlen.o)
                0x0000000000007c2c                strlen
 .text          0x0000000000007cb8     0x1e50 c:/develop/altera/14.0/nios2eds/bin/gnu/h-x86_64-mingw32/bin/../lib/gcc/nios2-elf/4.7.3/../../../../../H-x86_64-mingw32/nios2-elf/lib/mhw-mulx\libc.a(lib_a-vfprintf.o)
                0x0000000000007cec                ___vfprintf_internal_r
                0x0000000000009ae4                __vfprintf_internal
 .text          0x0000000000009b08      0x174 c:/develop/altera/14.0/nios2eds/bin/gnu/h-x86_64-mingw32/bin/../lib/gcc/nios2-elf/4.7.3/../../../../../H-x86_64-mingw32/nios2-elf/lib/mhw-mulx\libc.a(lib_a-wsetup.o)
                0x0000000000009b08                __swsetup_r
 .text          0x0000000000009c7c     0x1824 c:/develop/altera/14.0/nios2eds/bin/gnu/h-x86_64-mingw32/bin/../lib/gcc/nios2-elf/4.7.3/../../../../../H-x86_64-mingw32/nios2-elf/lib/mhw-mulx\libc.a(lib_a-dtoa.o)
                0x0000000000009e84                _dtoa_r
 .text          0x000000000000b4a0      0x218 c:/develop/altera/14.0/nios2eds/bin/gnu/h-x86_64-mingw32/bin/../lib/gcc/nios2-elf/4.7.3/../../../../../H-x86_64-mingw32/nios2-elf/lib/mhw-mulx\libc.a(lib_a-fflush.o)
                0x000000000000b4a0                _fflush_r
                0x000000000000b688                fflush
 .text          0x000000000000b6b8      0x2d8 c:/develop/altera/14.0/nios2eds/bin/gnu/h-x86_64-mingw32/bin/../lib/gcc/nios2-elf/4.7.3/../../../../../H-x86_64-mingw32/nios2-elf/lib/mhw-mulx\libc.a(lib_a-findfp.o)
                0x000000000000b6c8                _cleanup_r
                0x000000000000b6d4                __sfmoreglue
                0x000000000000b738                _cleanup
                0x000000000000b748                __sinit
                0x000000000000b854                __sfp
                0x000000000000b950                __sfp_lock_acquire
                0x000000000000b954                __sfp_lock_release
                0x000000000000b958                __sinit_lock_acquire
                0x000000000000b95c                __sinit_lock_release
                0x000000000000b960                __fp_lock_all
                0x000000000000b978                __fp_unlock_all
 .text          0x000000000000b990      0x40c c:/develop/altera/14.0/nios2eds/bin/gnu/h-x86_64-mingw32/bin/../lib/gcc/nios2-elf/4.7.3/../../../../../H-x86_64-mingw32/nios2-elf/lib/mhw-mulx\libc.a(lib_a-freer.o)
                0x000000000000b990                _malloc_trim_r
                0x000000000000bacc                _free_r
 .text          0x000000000000bd9c      0x4e4 c:/develop/altera/14.0/nios2eds/bin/gnu/h-x86_64-mingw32/bin/../lib/gcc/nios2-elf/4.7.3/../../../../../H-x86_64-mingw32/nios2-elf/lib/mhw-mulx\libc.a(lib_a-fvwrite.o)
                0x000000000000bd9c                __sfvwrite_r
 .text          0x000000000000c280      0x160 c:/develop/altera/14.0/nios2eds/bin/gnu/h-x86_64-mingw32/bin/../lib/gcc/nios2-elf/4.7.3/../../../../../H-x86_64-mingw32/nios2-elf/lib/mhw-mulx\libc.a(lib_a-fwalk.o)
                0x000000000000c280                _fwalk
                0x000000000000c328                _fwalk_reent
 .text          0x000000000000c3e0        0x0 c:/develop/altera/14.0/nios2eds/bin/gnu/h-x86_64-mingw32/bin/../lib/gcc/nios2-elf/4.7.3/../../../../../H-x86_64-mingw32/nios2-elf/lib/mhw-mulx\libc.a(lib_a-impure.o)
 .text          0x000000000000c3e0        0x0 c:/develop/altera/14.0/nios2eds/bin/gnu/h-x86_64-mingw32/bin/../lib/gcc/nios2-elf/4.7.3/../../../../../H-x86_64-mingw32/nios2-elf/lib/mhw-mulx\libc.a(lib_a-int_errno.o)
 .text          0x000000000000c3e0       0xdc c:/develop/altera/14.0/nios2eds/bin/gnu/h-x86_64-mingw32/bin/../lib/gcc/nios2-elf/4.7.3/../../../../../H-x86_64-mingw32/nios2-elf/lib/mhw-mulx\libc.a(lib_a-locale.o)
                0x000000000000c3e0                _setlocale_r
                0x000000000000c47c                __locale_charset
                0x000000000000c488                _localeconv_r
                0x000000000000c494                setlocale
                0x000000000000c4b0                localeconv
 .text          0x000000000000c4bc      0x1a8 c:/develop/altera/14.0/nios2eds/bin/gnu/h-x86_64-mingw32/bin/../lib/gcc/nios2-elf/4.7.3/../../../../../H-x86_64-mingw32/nios2-elf/lib/mhw-mulx\libc.a(lib_a-makebuf.o)
                0x000000000000c4bc                __smakebuf_r
 .text          0x000000000000c664       0xf8 c:/develop/altera/14.0/nios2eds/bin/gnu/h-x86_64-mingw32/bin/../lib/gcc/nios2-elf/4.7.3/../../../../../H-x86_64-mingw32/nios2-elf/lib/mhw-mulx\libc.a(lib_a-memchr.o)
                0x000000000000c664                memchr
 .text          0x000000000000c75c      0x128 c:/develop/altera/14.0/nios2eds/bin/gnu/h-x86_64-mingw32/bin/../lib/gcc/nios2-elf/4.7.3/../../../../../H-x86_64-mingw32/nios2-elf/lib/mhw-mulx\libc.a(lib_a-memmove.o)
                0x000000000000c75c                memmove
 .text          0x000000000000c884      0xfa8 c:/develop/altera/14.0/nios2eds/bin/gnu/h-x86_64-mingw32/bin/../lib/gcc/nios2-elf/4.7.3/../../../../../H-x86_64-mingw32/nios2-elf/lib/mhw-mulx\libc.a(lib_a-mprec.o)
                0x000000000000c884                _Balloc
                0x000000000000c92c                _Bfree
                0x000000000000c954                __multadd
                0x000000000000ca68                __s2b
                0x000000000000cb6c                __hi0bits
                0x000000000000cbd4                __lo0bits
                0x000000000000cc84                __i2b
                0x000000000000ccc0                __multiply
                0x000000000000cea0                __pow5mult
                0x000000000000cfcc                __lshift
                0x000000000000d128                __mcmp
                0x000000000000d180                __mdiff
                0x000000000000d328                __ulp
                0x000000000000d388                __b2d
                0x000000000000d4d0                __d2b
                0x000000000000d614                __ratio
                0x000000000000d6b8                _mprec_log10
                0x000000000000d72c                __copybits
                0x000000000000d7a8                __any_on
 .text          0x000000000000d82c      0x5fc c:/develop/altera/14.0/nios2eds/bin/gnu/h-x86_64-mingw32/bin/../lib/gcc/nios2-elf/4.7.3/../../../../../H-x86_64-mingw32/nios2-elf/lib/mhw-mulx\libc.a(lib_a-reallocr.o)
                0x000000000000d82c                _realloc_r
 .text          0x000000000000de28       0x38 c:/develop/altera/14.0/nios2eds/bin/gnu/h-x86_64-mingw32/bin/../lib/gcc/nios2-elf/4.7.3/../../../../../H-x86_64-mingw32/nios2-elf/lib/mhw-mulx\libc.a(lib_a-s_isinfd.o)
                0x000000000000de28                __isinfd
 .text          0x000000000000de60       0x2c c:/develop/altera/14.0/nios2eds/bin/gnu/h-x86_64-mingw32/bin/../lib/gcc/nios2-elf/4.7.3/../../../../../H-x86_64-mingw32/nios2-elf/lib/mhw-mulx\libc.a(lib_a-s_isnand.o)
                0x000000000000de60                __isnand
 .text          0x000000000000de8c      0x140 c:/develop/altera/14.0/nios2eds/bin/gnu/h-x86_64-mingw32/bin/../lib/gcc/nios2-elf/4.7.3/../../../../../H-x86_64-mingw32/nios2-elf/lib/mhw-mulx\libc.a(lib_a-stdio.o)
                0x000000000000de8c                __sread
                0x000000000000dee0                __swrite
                0x000000000000df68                __sseek
                0x000000000000dfc4                __sclose
 .text          0x000000000000dfcc       0xa4 c:/develop/altera/14.0/nios2eds/bin/gnu/h-x86_64-mingw32/bin/../lib/gcc/nios2-elf/4.7.3/../../../../../H-x86_64-mingw32/nios2-elf/lib/mhw-mulx\libc.a(lib_a-strcmp.o)
                0x000000000000dfcc                strcmp
 .text          0x000000000000e070       0x6c c:/develop/altera/14.0/nios2eds/bin/gnu/h-x86_64-mingw32/bin/../lib/gcc/nios2-elf/4.7.3/../../../../../H-x86_64-mingw32/nios2-elf/lib/mhw-mulx\libc.a(lib_a-writer.o)
                0x000000000000e070                _write_r
 .text          0x000000000000e0dc       0xbc c:/develop/altera/14.0/nios2eds/bin/gnu/h-x86_64-mingw32/bin/../lib/gcc/nios2-elf/4.7.3/../../../../../H-x86_64-mingw32/nios2-elf/lib/mhw-mulx\libc.a(lib_a-callocr.o)
                0x000000000000e0dc                _calloc_r
 .text          0x000000000000e198       0x64 c:/develop/altera/14.0/nios2eds/bin/gnu/h-x86_64-mingw32/bin/../lib/gcc/nios2-elf/4.7.3/../../../../../H-x86_64-mingw32/nios2-elf/lib/mhw-mulx\libc.a(lib_a-closer.o)
                0x000000000000e198                _close_r
 .text          0x000000000000e1fc      0x150 c:/develop/altera/14.0/nios2eds/bin/gnu/h-x86_64-mingw32/bin/../lib/gcc/nios2-elf/4.7.3/../../../../../H-x86_64-mingw32/nios2-elf/lib/mhw-mulx\libc.a(lib_a-fclose.o)
                0x000000000000e1fc                _fclose_r
                0x000000000000e338                fclose
 .text          0x000000000000e34c       0x68 c:/develop/altera/14.0/nios2eds/bin/gnu/h-x86_64-mingw32/bin/../lib/gcc/nios2-elf/4.7.3/../../../../../H-x86_64-mingw32/nios2-elf/lib/mhw-mulx\libc.a(lib_a-fstatr.o)
                0x000000000000e34c                _fstat_r
 .text          0x000000000000e3b4       0x64 c:/develop/altera/14.0/nios2eds/bin/gnu/h-x86_64-mingw32/bin/../lib/gcc/nios2-elf/4.7.3/../../../../../H-x86_64-mingw32/nios2-elf/lib/mhw-mulx\libc.a(lib_a-isattyr.o)
                0x000000000000e3b4                _isatty_r
 .text          0x000000000000e418       0x6c c:/develop/altera/14.0/nios2eds/bin/gnu/h-x86_64-mingw32/bin/../lib/gcc/nios2-elf/4.7.3/../../../../../H-x86_64-mingw32/nios2-elf/lib/mhw-mulx\libc.a(lib_a-lseekr.o)
                0x000000000000e418                _lseek_r
 .text          0x000000000000e484       0x6c c:/develop/altera/14.0/nios2eds/bin/gnu/h-x86_64-mingw32/bin/../lib/gcc/nios2-elf/4.7.3/../../../../../H-x86_64-mingw32/nios2-elf/lib/mhw-mulx\libc.a(lib_a-readr.o)
                0x000000000000e484                _read_r
 .text          0x000000000000e4f0      0x5c8 c:/develop/altera/14.0/nios2eds/bin/gnu/h-x86_64-mingw32/bin/../lib/gcc/nios2-elf/4.7.3/mhw-mulx\libgcc.a(_udivdi3.o)
                0x000000000000e4f0                __udivdi3
 .text          0x000000000000eab8      0x58c c:/develop/altera/14.0/nios2eds/bin/gnu/h-x86_64-mingw32/bin/../lib/gcc/nios2-elf/4.7.3/mhw-mulx\libgcc.a(_umoddi3.o)
                0x000000000000eab8                __umoddi3
 .text          0x000000000000f044      0x408 c:/develop/altera/14.0/nios2eds/bin/gnu/h-x86_64-mingw32/bin/../lib/gcc/nios2-elf/4.7.3/mhw-mulx\libgcc.a(_addsub_df.o)
                0x000000000000f398                __adddf3
                0x000000000000f3ec                __subdf3
 .text          0x000000000000f44c      0x260 c:/develop/altera/14.0/nios2eds/bin/gnu/h-x86_64-mingw32/bin/../lib/gcc/nios2-elf/4.7.3/mhw-mulx\libgcc.a(_mul_df.o)
                0x000000000000f44c                __muldf3
 .text          0x000000000000f6ac      0x1b4 c:/develop/altera/14.0/nios2eds/bin/gnu/h-x86_64-mingw32/bin/../lib/gcc/nios2-elf/4.7.3/mhw-mulx\libgcc.a(_div_df.o)
                0x000000000000f6ac                __divdf3
 .text          0x000000000000f860       0x5c c:/develop/altera/14.0/nios2eds/bin/gnu/h-x86_64-mingw32/bin/../lib/gcc/nios2-elf/4.7.3/mhw-mulx\libgcc.a(_eq_df.o)
                0x000000000000f860                __eqdf2
 .text          0x000000000000f8bc       0x5c c:/develop/altera/14.0/nios2eds/bin/gnu/h-x86_64-mingw32/bin/../lib/gcc/nios2-elf/4.7.3/mhw-mulx\libgcc.a(_ne_df.o)
                0x000000000000f8bc                __nedf2
 .text          0x000000000000f918       0x64 c:/develop/altera/14.0/nios2eds/bin/gnu/h-x86_64-mingw32/bin/../lib/gcc/nios2-elf/4.7.3/mhw-mulx\libgcc.a(_gt_df.o)
                0x000000000000f918                __gtdf2
 .text          0x000000000000f97c       0x64 c:/develop/altera/14.0/nios2eds/bin/gnu/h-x86_64-mingw32/bin/../lib/gcc/nios2-elf/4.7.3/mhw-mulx\libgcc.a(_ge_df.o)
                0x000000000000f97c                __gedf2
 .text          0x000000000000f9e0       0x5c c:/develop/altera/14.0/nios2eds/bin/gnu/h-x86_64-mingw32/bin/../lib/gcc/nios2-elf/4.7.3/mhw-mulx\libgcc.a(_lt_df.o)
                0x000000000000f9e0                __ltdf2
 .text          0x000000000000fa3c       0xd4 c:/develop/altera/14.0/nios2eds/bin/gnu/h-x86_64-mingw32/bin/../lib/gcc/nios2-elf/4.7.3/mhw-mulx\libgcc.a(_si_to_df.o)
                0x000000000000fa3c                __floatsidf
 .text          0x000000000000fb10       0xc4 c:/develop/altera/14.0/nios2eds/bin/gnu/h-x86_64-mingw32/bin/../lib/gcc/nios2-elf/4.7.3/mhw-mulx\libgcc.a(_df_to_si.o)
                0x000000000000fb10                __fixdfsi
 .text          0x000000000000fbd4        0x0 c:/develop/altera/14.0/nios2eds/bin/gnu/h-x86_64-mingw32/bin/../lib/gcc/nios2-elf/4.7.3/mhw-mulx\libgcc.a(_thenan_df.o)
 .text          0x000000000000fbd4      0x11c c:/develop/altera/14.0/nios2eds/bin/gnu/h-x86_64-mingw32/bin/../lib/gcc/nios2-elf/4.7.3/mhw-mulx\libgcc.a(_usi_to_df.o)
                0x000000000000fbd4                __floatunsidf
 .text          0x000000000000fcf0        0x0 c:/develop/altera/14.0/nios2eds/bin/gnu/h-x86_64-mingw32/bin/../lib/gcc/nios2-elf/4.7.3/mhw-mulx\libgcc.a(_clz.o)
 .text          0x000000000000fcf0       0xac c:/develop/altera/14.0/nios2eds/bin/gnu/h-x86_64-mingw32/bin/../lib/gcc/nios2-elf/4.7.3/mhw-mulx\libgcc.a(_clzsi2.o)
                0x000000000000fcf0                __clzsi2
 .text          0x000000000000fd9c      0x224 c:/develop/altera/14.0/nios2eds/bin/gnu/h-x86_64-mingw32/bin/../lib/gcc/nios2-elf/4.7.3/mhw-mulx\libgcc.a(_pack_df.o)
                0x000000000000fd9c                __pack_d
 .text          0x000000000000ffc0      0x104 c:/develop/altera/14.0/nios2eds/bin/gnu/h-x86_64-mingw32/bin/../lib/gcc/nios2-elf/4.7.3/mhw-mulx\libgcc.a(_unpack_df.o)
                0x000000000000ffc0                __unpack_d
 .text          0x00000000000100c4       0xd0 c:/develop/altera/14.0/nios2eds/bin/gnu/h-x86_64-mingw32/bin/../lib/gcc/nios2-elf/4.7.3/mhw-mulx\libgcc.a(_fpcmp_parts_df.o)
                0x00000000000100c4                __fpcmp_parts_d
 .text          0x0000000000010194       0x44 c:/develop/altera/14.0/nios2eds/bin/gnu/h-x86_64-mingw32/bin/../lib/gcc/nios2-elf/4.7.3/mhw-mulx\libgcc.a(_lshrdi3.o)
                0x0000000000010194                __lshrdi3
 .text          0x00000000000101d8       0x44 c:/develop/altera/14.0/nios2eds/bin/gnu/h-x86_64-mingw32/bin/../lib/gcc/nios2-elf/4.7.3/mhw-mulx\libgcc.a(_ashldi3.o)
                0x00000000000101d8                __ashldi3
 .text          0x000000000001021c       0xe0 ../sodalite_ckplay_bsp/\libhal_bsp.a(alt_close.o)
                0x000000000001021c                close
 .text          0x00000000000102fc       0x40 ../sodalite_ckplay_bsp/\libhal_bsp.a(alt_dcache_flush.o)
                0x00000000000102fc                alt_dcache_flush
 .text          0x000000000001033c        0x8 ../sodalite_ckplay_bsp/\libhal_bsp.a(alt_dev.o)
 .text          0x0000000000010344        0x0 ../sodalite_ckplay_bsp/\libhal_bsp.a(alt_errno.o)
 .text          0x0000000000010344       0x38 ../sodalite_ckplay_bsp/\libhal_bsp.a(alt_fs_reg.o)
                0x0000000000010344                alt_fs_reg
 .text          0x000000000001037c       0x7c ../sodalite_ckplay_bsp/\libhal_bsp.a(alt_fstat.o)
                0x000000000001037c                fstat
 .text          0x00000000000103f8       0x8c ../sodalite_ckplay_bsp/\libhal_bsp.a(alt_isatty.o)
                0x00000000000103f8                isatty
 .text          0x0000000000010484      0x114 ../sodalite_ckplay_bsp/\libhal_bsp.a(alt_load.o)
                0x0000000000010484                alt_load
 .text          0x0000000000010598       0x84 ../sodalite_ckplay_bsp/\libhal_bsp.a(alt_lseek.o)
                0x0000000000010598                lseek
 .text          0x000000000001061c       0x60 ../sodalite_ckplay_bsp/\libhal_bsp.a(alt_main.o)
                0x000000000001061c                alt_main
 .text          0x000000000001067c        0x8 ../sodalite_ckplay_bsp/\libhal_bsp.a(alt_malloc_lock.o)
                0x000000000001067c                __malloc_lock
                0x0000000000010680                __malloc_unlock
 .text          0x0000000000010684       0xec ../sodalite_ckplay_bsp/\libhal_bsp.a(alt_read.o)
                0x0000000000010684                read
 .text          0x0000000000010770       0x24 ../sodalite_ckplay_bsp/\libhal_bsp.a(alt_release_fd.o)
                0x0000000000010770                alt_release_fd
 .text          0x0000000000010794       0x4c ../sodalite_ckplay_bsp/\libhal_bsp.a(alt_sbrk.o)
                0x0000000000010794                sbrk
 .text          0x00000000000107e0       0x10 ../sodalite_ckplay_bsp/\libhal_bsp.a(alt_uncached_free.o)
                0x00000000000107e0                alt_uncached_free
 .text          0x00000000000107f0       0x5c ../sodalite_ckplay_bsp/\libhal_bsp.a(alt_uncached_malloc.o)
                0x00000000000107f0                alt_uncached_malloc
 .text          0x000000000001084c       0xe8 ../sodalite_ckplay_bsp/\libhal_bsp.a(alt_write.o)
                0x000000000001084c                write
 .text          0x0000000000010934       0x90 ../sodalite_ckplay_bsp/\libhal_bsp.a(alt_sys_init.o)
                0x0000000000010934                alt_irq_init
                0x0000000000010954                alt_sys_init
 .text          0x00000000000109c4       0x3c ../sodalite_ckplay_bsp/\libhal_bsp.a(altera_avalon_jtag_uart_fd.o)
                0x00000000000109c4                altera_avalon_jtag_uart_read_fd
                0x00000000000109d4                altera_avalon_jtag_uart_write_fd
                0x00000000000109e4                altera_avalon_jtag_uart_close_fd
                0x00000000000109f4                altera_avalon_jtag_uart_ioctl_fd
 .text          0x0000000000010a00      0x214 ../sodalite_ckplay_bsp/\libhal_bsp.a(altera_avalon_jtag_uart_init.o)
                0x0000000000010b60                altera_avalon_jtag_uart_init
                0x0000000000010be0                altera_avalon_jtag_uart_close
 .text          0x0000000000010c14       0x74 ../sodalite_ckplay_bsp/\libhal_bsp.a(altera_avalon_jtag_uart_ioctl.o)
                0x0000000000010c14                altera_avalon_jtag_uart_ioctl
 .text          0x0000000000010c88      0x134 ../sodalite_ckplay_bsp/\libhal_bsp.a(altera_avalon_jtag_uart_read.o)
                0x0000000000010c88                altera_avalon_jtag_uart_read
 .text          0x0000000000010dbc      0x184 ../sodalite_ckplay_bsp/\libhal_bsp.a(altera_avalon_jtag_uart_write.o)
                0x0000000000010dbc                altera_avalon_jtag_uart_write
 .text          0x0000000000010f40       0x8c ../sodalite_ckplay_bsp/\libhal_bsp.a(altera_avalon_timer_sc.o)
                0x0000000000010f7c                alt_avalon_timer_sc_init
 .text          0x0000000000010fcc       0x10 ../sodalite_ckplay_bsp/\libhal_bsp.a(altera_modular_adc.o)
                0x0000000000010fcc                altera_modular_adc_init
                0x0000000000010fd4                altera_modular_adc_open
 .text          0x0000000000010fdc      0x94c ../sodalite_ckplay_bsp/\libhal_bsp.a(altera_onchip_flash.o)
                0x0000000000010fdc                alt_onchip_flash_read
                0x0000000000011060                alt_onchip_flash_get_info
                0x00000000000110a8                alt_onchip_flash_erase_block
                0x00000000000111e8                alt_onchip_flash_write_block
                0x00000000000113f8                alt_onchip_flash_write
                0x00000000000115cc                altera_onchip_flash_init
                0x000000000001188c                alt_onchip_flash_poll_for_status_to_go_idle
                0x00000000000118c0                alt_onchip_flash_poll_for_status_erase_passed
                0x00000000000118f4                alt_onchip_flash_poll_for_status_write_passed
 .text          0x0000000000011928       0x94 ../sodalite_ckplay_bsp/\libhal_bsp.a(alt_alarm_start.o)
                0x0000000000011928                alt_alarm_start
 .text          0x00000000000119bc       0x18 ../sodalite_ckplay_bsp/\libhal_bsp.a(alt_dcache_flush_all.o)
                0x00000000000119bc                alt_dcache_flush_all
 .text          0x00000000000119d4       0x6c ../sodalite_ckplay_bsp/\libhal_bsp.a(alt_dev_llist_insert.o)
                0x00000000000119d4                alt_dev_llist_insert
 .text          0x0000000000011a40       0x64 ../sodalite_ckplay_bsp/\libhal_bsp.a(alt_do_ctors.o)
                0x0000000000011a40                _do_ctors
 .text          0x0000000000011aa4       0x64 ../sodalite_ckplay_bsp/\libhal_bsp.a(alt_do_dtors.o)
                0x0000000000011aa4                _do_dtors
 .text          0x0000000000011b08       0x94 ../sodalite_ckplay_bsp/\libhal_bsp.a(alt_find_dev.o)
                0x0000000000011b08                alt_find_dev
 .text          0x0000000000011b9c       0x60 ../sodalite_ckplay_bsp/\libhal_bsp.a(alt_flash_dev.o)
                0x0000000000011b9c                alt_flash_open_dev
                0x0000000000011be8                alt_flash_close_dev
 .text          0x0000000000011bfc        0xc ../sodalite_ckplay_bsp/\libhal_bsp.a(alt_icache_flush_all.o)
                0x0000000000011bfc                alt_icache_flush_all
 .text          0x0000000000011c08       0x9c ../sodalite_ckplay_bsp/\libhal_bsp.a(alt_iic.o)
                0x0000000000011c08                alt_ic_isr_register
                0x0000000000011c0c                alt_ic_irq_enable
                0x0000000000011c4c                alt_ic_irq_disable
                0x0000000000011c8c                alt_ic_irq_enabled
 .text          0x0000000000011ca4       0x68 ../sodalite_ckplay_bsp/\libhal_bsp.a(alt_iic_isr_register.o)
                0x0000000000011ca4                alt_iic_isr_register
 .text          0x0000000000011d0c       0xe8 ../sodalite_ckplay_bsp/\libhal_bsp.a(alt_io_redirect.o)
                0x0000000000011d7c                alt_io_redirect
 .text          0x0000000000011df4        0x0 ../sodalite_ckplay_bsp/\libhal_bsp.a(alt_irq_entry.o)
 .text          0x0000000000011df4        0x0 ../sodalite_ckplay_bsp/\libhal_bsp.a(alt_irq_handler.o)
 .text          0x0000000000011df4        0x0 ../sodalite_ckplay_bsp/\libhal_bsp.a(alt_irq_vars.o)
 .text          0x0000000000011df4      0x17c ../sodalite_ckplay_bsp/\libhal_bsp.a(alt_open.o)
                0x0000000000011df4                open
 .text          0x0000000000011f70      0x128 ../sodalite_ckplay_bsp/\libhal_bsp.a(alt_tick.o)
                0x0000000000011f70                alt_alarm_stop
                0x0000000000011fa4                alt_tick
 .text          0x0000000000012098        0x8 ../sodalite_ckplay_bsp/\libhal_bsp.a(altera_nios2_gen2_irq.o)
                0x0000000000012098                altera_nios2_gen2_irq_init
 .text          0x00000000000120a0        0x0 ../sodalite_ckplay_bsp/\libhal_bsp.a(alt_exception_entry.o)
 .text          0x00000000000120a0       0xac ../sodalite_ckplay_bsp/\libhal_bsp.a(alt_find_file.o)
                0x00000000000120a0                alt_find_file
 .text          0x000000000001214c       0x58 ../sodalite_ckplay_bsp/\libhal_bsp.a(alt_get_fd.o)
                0x000000000001214c                alt_get_fd
 .text          0x00000000000121a4       0x50 ../sodalite_ckplay_bsp/\libhal_bsp.a(alt_icache_flush.o)
                0x00000000000121a4                alt_icache_flush
 .text          0x00000000000121f4       0x30 ../sodalite_ckplay_bsp/\libhal_bsp.a(alt_instruction_exception_entry.o)
                0x00000000000121f4                alt_exception_cause_generated_bad_addr
 .text          0x0000000000012224       0x14 c:/develop/altera/14.0/nios2eds/bin/gnu/h-x86_64-mingw32/bin/../lib/gcc/nios2-elf/4.7.3/../../../../../H-x86_64-mingw32/nios2-elf/lib/mhw-mulx\libc.a(lib_a-atexit.o)
                0x0000000000012224                atexit
 .text          0x0000000000012238       0x38 c:/develop/altera/14.0/nios2eds/bin/gnu/h-x86_64-mingw32/bin/../lib/gcc/nios2-elf/4.7.3/../../../../../H-x86_64-mingw32/nios2-elf/lib/mhw-mulx\libc.a(lib_a-exit.o)
                0x0000000000012238                exit
 .text          0x0000000000012270       0x1c c:/develop/altera/14.0/nios2eds/bin/gnu/h-x86_64-mingw32/bin/../lib/gcc/nios2-elf/4.7.3/../../../../../H-x86_64-mingw32/nios2-elf/lib/mhw-mulx\libc.a(lib_a-malign.o)
                0x0000000000012270                memalign
 .text          0x000000000001228c      0x1cc c:/develop/altera/14.0/nios2eds/bin/gnu/h-x86_64-mingw32/bin/../lib/gcc/nios2-elf/4.7.3/../../../../../H-x86_64-mingw32/nios2-elf/lib/mhw-mulx\libc.a(lib_a-malignr.o)
                0x000000000001228c                _memalign_r
 .text          0x0000000000012458       0x7c c:/develop/altera/14.0/nios2eds/bin/gnu/h-x86_64-mingw32/bin/../lib/gcc/nios2-elf/4.7.3/../../../../../H-x86_64-mingw32/nios2-elf/lib/mhw-mulx\libc.a(lib_a-memcmp.o)
                0x0000000000012458                memcmp
 .text          0x00000000000124d4      0x130 c:/develop/altera/14.0/nios2eds/bin/gnu/h-x86_64-mingw32/bin/../lib/gcc/nios2-elf/4.7.3/../../../../../H-x86_64-mingw32/nios2-elf/lib/mhw-mulx\libc.a(lib_a-__atexit.o)
                0x00000000000124d4                __register_exitproc
 .text          0x0000000000012604      0x1a0 c:/develop/altera/14.0/nios2eds/bin/gnu/h-x86_64-mingw32/bin/../lib/gcc/nios2-elf/4.7.3/../../../../../H-x86_64-mingw32/nios2-elf/lib/mhw-mulx\libc.a(lib_a-__call_atexit.o)
                0x0000000000012604                __call_exitprocs
 .text          0x00000000000127a4       0x14 ../sodalite_ckplay_bsp/\libhal_bsp.a(alt_exit.o)
                0x00000000000127a4                _exit
 *(.gnu.warning.*)
 *(.fini)
                0x00000000000127b8                PROVIDE (__etext, ABSOLUTE (.))
                0x00000000000127b8                PROVIDE (_etext, ABSOLUTE (.))
                0x00000000000127b8                PROVIDE (etext, ABSOLUTE (.))
 *(.eh_frame_hdr)
                0x00000000000127b8                . = ALIGN (0x4)
                0x00000000000127b8                PROVIDE (__preinit_array_start, ABSOLUTE (.))
 *(.preinit_array)
                0x00000000000127b8                PROVIDE (__preinit_array_end, ABSOLUTE (.))
                0x00000000000127b8                PROVIDE (__init_array_start, ABSOLUTE (.))
 *(.init_array)
                0x00000000000127b8                PROVIDE (__init_array_end, ABSOLUTE (.))
                0x00000000000127b8                PROVIDE (__fini_array_start, ABSOLUTE (.))
 *(.fini_array)
                0x00000000000127b8                PROVIDE (__fini_array_end, ABSOLUTE (.))
 *(.eh_frame)
 *(.gcc_except_table .gcc_except_table.*)
 *(.dynamic)
                0x00000000000127b8                PROVIDE (__CTOR_LIST__, ABSOLUTE (.))
 *(.ctors)
 *(SORT(.ctors.*))
                0x00000000000127b8                PROVIDE (__CTOR_END__, ABSOLUTE (.))
                0x00000000000127b8                PROVIDE (__DTOR_LIST__, ABSOLUTE (.))
 *(.dtors)
 *(SORT(.dtors.*))
                0x00000000000127b8                PROVIDE (__DTOR_END__, ABSOLUTE (.))
 *(.jcr)
                0x00000000000127b8                . = ALIGN (0x4)

.rodata         0x00000000000127b8     0xf40c
                0x00000000000127b8                PROVIDE (__ram_rodata_start, ABSOLUTE (.))
                0x00000000000127b8                . = ALIGN (0x4)
 *(.rodata .rodata.* .gnu.linkonce.r.*)
 .rodata.str1.4
                0x00000000000127b8       0xf8 obj/default/ckplay_peridot.o
 .rodata.str1.4
                0x00000000000128b0       0x13 obj/default/mmcfs/fatfs/ff.o
                                         0x14 (size before relaxing)
 .rodata        0x00000000000128c3        0xd obj/default/mmcfs/fatfs/ff.o
 .rodata        0x00000000000128d0     0xeab0 obj/default/mmcfs/fatfs/option/cc932.o
 .rodata.str1.4
                0x0000000000021380        0x7 obj/default/mmcfs/mmcfs.o
                                          0x8 (size before relaxing)
 *fill*         0x0000000000021387        0x1 
 .rodata.str1.4
                0x0000000000021388       0x73 obj/default/nd_lib/nd_acm.o
                                         0x74 (size before relaxing)
 *fill*         0x00000000000213fb        0x1 
 .rodata        0x00000000000213fc       0x40 obj/default/nd_lib/nd_acm.o
 .rodata        0x000000000002143c      0x400 obj/default/nd_lib/nd_egl.o
                0x000000000002143c                nd_GsEglRomFont
 .rodata.str1.4
                0x0000000000000000       0x73 c:/develop/altera/14.0/nios2eds/bin/gnu/h-x86_64-mingw32/bin/../lib/gcc/nios2-elf/4.7.3/../../../../../H-x86_64-mingw32/nios2-elf/lib/mhw-mulx\libc.a(lib_a-puts.o)
                                          0x4 (size before relaxing)
 .rodata.str1.4
                0x000000000002183c       0x42 c:/develop/altera/14.0/nios2eds/bin/gnu/h-x86_64-mingw32/bin/../lib/gcc/nios2-elf/4.7.3/../../../../../H-x86_64-mingw32/nios2-elf/lib/mhw-mulx\libc.a(lib_a-vfprintf.o)
                                         0x44 (size before relaxing)
 .rodata        0x000000000002187e       0x20 c:/develop/altera/14.0/nios2eds/bin/gnu/h-x86_64-mingw32/bin/../lib/gcc/nios2-elf/4.7.3/../../../../../H-x86_64-mingw32/nios2-elf/lib/mhw-mulx\libc.a(lib_a-vfprintf.o)
 *fill*         0x000000000002189e        0x2 
 .rodata.str1.4
                0x00000000000218a0       0x10 c:/develop/altera/14.0/nios2eds/bin/gnu/h-x86_64-mingw32/bin/../lib/gcc/nios2-elf/4.7.3/../../../../../H-x86_64-mingw32/nios2-elf/lib/mhw-mulx\libc.a(lib_a-dtoa.o)
                                         0x14 (size before relaxing)
 .rodata.str1.4
                0x00000000000218b0        0x2 c:/develop/altera/14.0/nios2eds/bin/gnu/h-x86_64-mingw32/bin/../lib/gcc/nios2-elf/4.7.3/../../../../../H-x86_64-mingw32/nios2-elf/lib/mhw-mulx\libc.a(lib_a-impure.o)
                                          0x4 (size before relaxing)
 *fill*         0x00000000000218b2        0x2 
 .rodata.str1.4
                0x00000000000218b4        0xb c:/develop/altera/14.0/nios2eds/bin/gnu/h-x86_64-mingw32/bin/../lib/gcc/nios2-elf/4.7.3/../../../../../H-x86_64-mingw32/nios2-elf/lib/mhw-mulx\libc.a(lib_a-locale.o)
                                         0x18 (size before relaxing)
 *fill*         0x00000000000218bf        0x1 
 .rodata        0x00000000000218c0       0x30 c:/develop/altera/14.0/nios2eds/bin/gnu/h-x86_64-mingw32/bin/../lib/gcc/nios2-elf/4.7.3/../../../../../H-x86_64-mingw32/nios2-elf/lib/mhw-mulx\libc.a(lib_a-locale.o)
 .rodata        0x00000000000218f0      0x124 c:/develop/altera/14.0/nios2eds/bin/gnu/h-x86_64-mingw32/bin/../lib/gcc/nios2-elf/4.7.3/../../../../../H-x86_64-mingw32/nios2-elf/lib/mhw-mulx\libc.a(lib_a-mprec.o)
                0x00000000000218f0                __mprec_tinytens
                0x0000000000021918                __mprec_bigtens
                0x0000000000021940                __mprec_tens
 .rodata        0x0000000000021a14       0x14 c:/develop/altera/14.0/nios2eds/bin/gnu/h-x86_64-mingw32/bin/../lib/gcc/nios2-elf/4.7.3/mhw-mulx\libgcc.a(_thenan_df.o)
                0x0000000000021a14                __thenan_df
 .rodata        0x0000000000021a28      0x100 c:/develop/altera/14.0/nios2eds/bin/gnu/h-x86_64-mingw32/bin/../lib/gcc/nios2-elf/4.7.3/mhw-mulx\libgcc.a(_clz.o)
                0x0000000000021a28                __clz_tab
 .rodata.str1.4
                0x0000000000021b28        0xa ../sodalite_ckplay_bsp/\libhal_bsp.a(alt_dev.o)
                                          0xc (size before relaxing)
 *fill*         0x0000000000021b32        0x2 
 .rodata.str1.4
                0x0000000000021b34        0xf ../sodalite_ckplay_bsp/\libhal_bsp.a(alt_main.o)
                                         0x10 (size before relaxing)
 *fill*         0x0000000000021b43        0x1 
 .rodata.str1.4
                0x0000000000021b44       0x40 ../sodalite_ckplay_bsp/\libhal_bsp.a(alt_sys_init.o)
                                         0x50 (size before relaxing)
 .rodata        0x0000000000021b84       0x40 ../sodalite_ckplay_bsp/\libhal_bsp.a(alt_instruction_exception_entry.o)
 *(.rodata1)
                0x0000000000021bc4                . = ALIGN (0x4)
                0x0000000000021bc4                PROVIDE (__ram_rodata_end, ABSOLUTE (.))
                0x00000000000127b8                PROVIDE (__flash_rodata_start, LOADADDR (.rodata))

.onchip_memory.rwdata
                0x0000000000021bc4      0x200
 .onchip_memory.rwdata
                0x0000000000021bc4      0x200 obj/default/nd_lib/nd_acm.o

.rwdata         0x0000000000021bc4     0x1bc0 load address 0x0000000000023784
                0x0000000000021bc4                PROVIDE (__ram_rwdata_start, ABSOLUTE (.))
                0x0000000000021bc4                . = ALIGN (0x4)
 *(.got.plt)
 *(.got)
 *(.data1)
 *(.data .data.* .gnu.linkonce.d.*)
 .data          0x0000000000021bc4        0x0 ../sodalite_ckplay_bsp//obj/HAL/src/crt0.o
 .data          0x0000000000021bc4        0x0 obj/default/ckplay_peridot.o
 .data          0x0000000000021bc4        0x0 obj/default/mmcfs/fatfs/ff.o
 .data          0x0000000000021bc4        0x0 obj/default/mmcfs/fatfs/mmcbb.o
 .data          0x0000000000021bc4        0x0 obj/default/mmcfs/fatfs/option/cc932.o
 .data          0x0000000000021bc4        0x0 obj/default/mmcfs/gettime.o
 .data          0x0000000000021bc4        0x0 obj/default/mmcfs/mmc_spi.o
 .data          0x0000000000021bc4       0x28 obj/default/mmcfs/mmcfs.o
 .data          0x0000000000021bec        0x0 obj/default/nd_lib/nd_acm.o
 .data          0x0000000000021bec        0x0 obj/default/nd_lib/nd_egl.o
 .data          0x0000000000021bec        0x0 obj/default/nd_lib/nd_acm_mcudecode.o
 .data          0x0000000000021bec        0x0 c:/develop/altera/14.0/nios2eds/bin/gnu/h-x86_64-mingw32/bin/../lib/gcc/nios2-elf/4.7.3/mhw-mulx\libgcc.a(lib2-divmod.o)
 .data          0x0000000000021bec        0x0 c:/develop/altera/14.0/nios2eds/bin/gnu/h-x86_64-mingw32/bin/../lib/gcc/nios2-elf/4.7.3/../../../../../H-x86_64-mingw32/nios2-elf/lib/mhw-mulx\libc.a(lib_a-malloc.o)
 .data          0x0000000000021bec      0x408 c:/develop/altera/14.0/nios2eds/bin/gnu/h-x86_64-mingw32/bin/../lib/gcc/nios2-elf/4.7.3/../../../../../H-x86_64-mingw32/nios2-elf/lib/mhw-mulx\libc.a(lib_a-mallocr.o)
                0x0000000000021bec                __malloc_av_
 .data          0x0000000000021ff4        0x0 c:/develop/altera/14.0/nios2eds/bin/gnu/h-x86_64-mingw32/bin/../lib/gcc/nios2-elf/4.7.3/../../../../../H-x86_64-mingw32/nios2-elf/lib/mhw-mulx\libc.a(lib_a-memcpy.o)
 .data          0x0000000000021ff4        0x0 c:/develop/altera/14.0/nios2eds/bin/gnu/h-x86_64-mingw32/bin/../lib/gcc/nios2-elf/4.7.3/../../../../../H-x86_64-mingw32/nios2-elf/lib/mhw-mulx\libc.a(lib_a-memset.o)
 .data          0x0000000000021ff4        0x0 c:/develop/altera/14.0/nios2eds/bin/gnu/h-x86_64-mingw32/bin/../lib/gcc/nios2-elf/4.7.3/../../../../../H-x86_64-mingw32/nios2-elf/lib/mhw-mulx\libc.a(lib_a-printf.o)
 .data          0x0000000000021ff4        0x0 c:/develop/altera/14.0/nios2eds/bin/gnu/h-x86_64-mingw32/bin/../lib/gcc/nios2-elf/4.7.3/../../../../../H-x86_64-mingw32/nios2-elf/lib/mhw-mulx\libc.a(lib_a-puts.o)
 .data          0x0000000000021ff4        0x0 c:/develop/altera/14.0/nios2eds/bin/gnu/h-x86_64-mingw32/bin/../lib/gcc/nios2-elf/4.7.3/../../../../../H-x86_64-mingw32/nios2-elf/lib/mhw-mulx\libc.a(lib_a-sbrkr.o)
 .data          0x0000000000021ff4        0x0 c:/develop/altera/14.0/nios2eds/bin/gnu/h-x86_64-mingw32/bin/../lib/gcc/nios2-elf/4.7.3/../../../../../H-x86_64-mingw32/nios2-elf/lib/mhw-mulx\libc.a(lib_a-strcpy.o)
 .data          0x0000000000021ff4        0x0 c:/develop/altera/14.0/nios2eds/bin/gnu/h-x86_64-mingw32/bin/../lib/gcc/nios2-elf/4.7.3/../../../../../H-x86_64-mingw32/nios2-elf/lib/mhw-mulx\libc.a(lib_a-strlen.o)
 .data          0x0000000000021ff4        0x0 c:/develop/altera/14.0/nios2eds/bin/gnu/h-x86_64-mingw32/bin/../lib/gcc/nios2-elf/4.7.3/../../../../../H-x86_64-mingw32/nios2-elf/lib/mhw-mulx\libc.a(lib_a-vfprintf.o)
 .data          0x0000000000021ff4        0x0 c:/develop/altera/14.0/nios2eds/bin/gnu/h-x86_64-mingw32/bin/../lib/gcc/nios2-elf/4.7.3/../../../../../H-x86_64-mingw32/nios2-elf/lib/mhw-mulx\libc.a(lib_a-wsetup.o)
 .data          0x0000000000021ff4        0x0 c:/develop/altera/14.0/nios2eds/bin/gnu/h-x86_64-mingw32/bin/../lib/gcc/nios2-elf/4.7.3/../../../../../H-x86_64-mingw32/nios2-elf/lib/mhw-mulx\libc.a(lib_a-dtoa.o)
 .data          0x0000000000021ff4        0x0 c:/develop/altera/14.0/nios2eds/bin/gnu/h-x86_64-mingw32/bin/../lib/gcc/nios2-elf/4.7.3/../../../../../H-x86_64-mingw32/nios2-elf/lib/mhw-mulx\libc.a(lib_a-fflush.o)
 .data          0x0000000000021ff4        0x0 c:/develop/altera/14.0/nios2eds/bin/gnu/h-x86_64-mingw32/bin/../lib/gcc/nios2-elf/4.7.3/../../../../../H-x86_64-mingw32/nios2-elf/lib/mhw-mulx\libc.a(lib_a-findfp.o)
 .data          0x0000000000021ff4        0x0 c:/develop/altera/14.0/nios2eds/bin/gnu/h-x86_64-mingw32/bin/../lib/gcc/nios2-elf/4.7.3/../../../../../H-x86_64-mingw32/nios2-elf/lib/mhw-mulx\libc.a(lib_a-freer.o)
 .data          0x0000000000021ff4        0x0 c:/develop/altera/14.0/nios2eds/bin/gnu/h-x86_64-mingw32/bin/../lib/gcc/nios2-elf/4.7.3/../../../../../H-x86_64-mingw32/nios2-elf/lib/mhw-mulx\libc.a(lib_a-fvwrite.o)
 .data          0x0000000000021ff4        0x0 c:/develop/altera/14.0/nios2eds/bin/gnu/h-x86_64-mingw32/bin/../lib/gcc/nios2-elf/4.7.3/../../../../../H-x86_64-mingw32/nios2-elf/lib/mhw-mulx\libc.a(lib_a-fwalk.o)
 .data          0x0000000000021ff4      0x400 c:/develop/altera/14.0/nios2eds/bin/gnu/h-x86_64-mingw32/bin/../lib/gcc/nios2-elf/4.7.3/../../../../../H-x86_64-mingw32/nios2-elf/lib/mhw-mulx\libc.a(lib_a-impure.o)
 .data          0x00000000000223f4        0x0 c:/develop/altera/14.0/nios2eds/bin/gnu/h-x86_64-mingw32/bin/../lib/gcc/nios2-elf/4.7.3/../../../../../H-x86_64-mingw32/nios2-elf/lib/mhw-mulx\libc.a(lib_a-int_errno.o)
 .data          0x00000000000223f4        0xc c:/develop/altera/14.0/nios2eds/bin/gnu/h-x86_64-mingw32/bin/../lib/gcc/nios2-elf/4.7.3/../../../../../H-x86_64-mingw32/nios2-elf/lib/mhw-mulx\libc.a(lib_a-locale.o)
                0x00000000000223f4                __lc_ctype
 .data          0x0000000000022400        0x0 c:/develop/altera/14.0/nios2eds/bin/gnu/h-x86_64-mingw32/bin/../lib/gcc/nios2-elf/4.7.3/../../../../../H-x86_64-mingw32/nios2-elf/lib/mhw-mulx\libc.a(lib_a-makebuf.o)
 .data          0x0000000000022400        0x0 c:/develop/altera/14.0/nios2eds/bin/gnu/h-x86_64-mingw32/bin/../lib/gcc/nios2-elf/4.7.3/../../../../../H-x86_64-mingw32/nios2-elf/lib/mhw-mulx\libc.a(lib_a-memchr.o)
 .data          0x0000000000022400        0x0 c:/develop/altera/14.0/nios2eds/bin/gnu/h-x86_64-mingw32/bin/../lib/gcc/nios2-elf/4.7.3/../../../../../H-x86_64-mingw32/nios2-elf/lib/mhw-mulx\libc.a(lib_a-memmove.o)
 .data          0x0000000000022400        0x0 c:/develop/altera/14.0/nios2eds/bin/gnu/h-x86_64-mingw32/bin/../lib/gcc/nios2-elf/4.7.3/../../../../../H-x86_64-mingw32/nios2-elf/lib/mhw-mulx\libc.a(lib_a-mprec.o)
 .data          0x0000000000022400        0x0 c:/develop/altera/14.0/nios2eds/bin/gnu/h-x86_64-mingw32/bin/../lib/gcc/nios2-elf/4.7.3/../../../../../H-x86_64-mingw32/nios2-elf/lib/mhw-mulx\libc.a(lib_a-reallocr.o)
 .data          0x0000000000022400        0x0 c:/develop/altera/14.0/nios2eds/bin/gnu/h-x86_64-mingw32/bin/../lib/gcc/nios2-elf/4.7.3/../../../../../H-x86_64-mingw32/nios2-elf/lib/mhw-mulx\libc.a(lib_a-s_isinfd.o)
 .data          0x0000000000022400        0x0 c:/develop/altera/14.0/nios2eds/bin/gnu/h-x86_64-mingw32/bin/../lib/gcc/nios2-elf/4.7.3/../../../../../H-x86_64-mingw32/nios2-elf/lib/mhw-mulx\libc.a(lib_a-s_isnand.o)
 .data          0x0000000000022400        0x0 c:/develop/altera/14.0/nios2eds/bin/gnu/h-x86_64-mingw32/bin/../lib/gcc/nios2-elf/4.7.3/../../../../../H-x86_64-mingw32/nios2-elf/lib/mhw-mulx\libc.a(lib_a-stdio.o)
 .data          0x0000000000022400        0x0 c:/develop/altera/14.0/nios2eds/bin/gnu/h-x86_64-mingw32/bin/../lib/gcc/nios2-elf/4.7.3/../../../../../H-x86_64-mingw32/nios2-elf/lib/mhw-mulx\libc.a(lib_a-strcmp.o)
 .data          0x0000000000022400        0x0 c:/develop/altera/14.0/nios2eds/bin/gnu/h-x86_64-mingw32/bin/../lib/gcc/nios2-elf/4.7.3/../../../../../H-x86_64-mingw32/nios2-elf/lib/mhw-mulx\libc.a(lib_a-writer.o)
 .data          0x0000000000022400        0x0 c:/develop/altera/14.0/nios2eds/bin/gnu/h-x86_64-mingw32/bin/../lib/gcc/nios2-elf/4.7.3/../../../../../H-x86_64-mingw32/nios2-elf/lib/mhw-mulx\libc.a(lib_a-callocr.o)
 .data          0x0000000000022400        0x0 c:/develop/altera/14.0/nios2eds/bin/gnu/h-x86_64-mingw32/bin/../lib/gcc/nios2-elf/4.7.3/../../../../../H-x86_64-mingw32/nios2-elf/lib/mhw-mulx\libc.a(lib_a-closer.o)
 .data          0x0000000000022400        0x0 c:/develop/altera/14.0/nios2eds/bin/gnu/h-x86_64-mingw32/bin/../lib/gcc/nios2-elf/4.7.3/../../../../../H-x86_64-mingw32/nios2-elf/lib/mhw-mulx\libc.a(lib_a-fclose.o)
 .data          0x0000000000022400        0x0 c:/develop/altera/14.0/nios2eds/bin/gnu/h-x86_64-mingw32/bin/../lib/gcc/nios2-elf/4.7.3/../../../../../H-x86_64-mingw32/nios2-elf/lib/mhw-mulx\libc.a(lib_a-fstatr.o)
 .data          0x0000000000022400        0x0 c:/develop/altera/14.0/nios2eds/bin/gnu/h-x86_64-mingw32/bin/../lib/gcc/nios2-elf/4.7.3/../../../../../H-x86_64-mingw32/nios2-elf/lib/mhw-mulx\libc.a(lib_a-isattyr.o)
 .data          0x0000000000022400        0x0 c:/develop/altera/14.0/nios2eds/bin/gnu/h-x86_64-mingw32/bin/../lib/gcc/nios2-elf/4.7.3/../../../../../H-x86_64-mingw32/nios2-elf/lib/mhw-mulx\libc.a(lib_a-lseekr.o)
 .data          0x0000000000022400        0x0 c:/develop/altera/14.0/nios2eds/bin/gnu/h-x86_64-mingw32/bin/../lib/gcc/nios2-elf/4.7.3/../../../../../H-x86_64-mingw32/nios2-elf/lib/mhw-mulx\libc.a(lib_a-readr.o)
 .data          0x0000000000022400        0x0 c:/develop/altera/14.0/nios2eds/bin/gnu/h-x86_64-mingw32/bin/../lib/gcc/nios2-elf/4.7.3/mhw-mulx\libgcc.a(_udivdi3.o)
 .data          0x0000000000022400        0x0 c:/develop/altera/14.0/nios2eds/bin/gnu/h-x86_64-mingw32/bin/../lib/gcc/nios2-elf/4.7.3/mhw-mulx\libgcc.a(_umoddi3.o)
 .data          0x0000000000022400        0x0 c:/develop/altera/14.0/nios2eds/bin/gnu/h-x86_64-mingw32/bin/../lib/gcc/nios2-elf/4.7.3/mhw-mulx\libgcc.a(_addsub_df.o)
 .data          0x0000000000022400        0x0 c:/develop/altera/14.0/nios2eds/bin/gnu/h-x86_64-mingw32/bin/../lib/gcc/nios2-elf/4.7.3/mhw-mulx\libgcc.a(_mul_df.o)
 .data          0x0000000000022400        0x0 c:/develop/altera/14.0/nios2eds/bin/gnu/h-x86_64-mingw32/bin/../lib/gcc/nios2-elf/4.7.3/mhw-mulx\libgcc.a(_div_df.o)
 .data          0x0000000000022400        0x0 c:/develop/altera/14.0/nios2eds/bin/gnu/h-x86_64-mingw32/bin/../lib/gcc/nios2-elf/4.7.3/mhw-mulx\libgcc.a(_eq_df.o)
 .data          0x0000000000022400        0x0 c:/develop/altera/14.0/nios2eds/bin/gnu/h-x86_64-mingw32/bin/../lib/gcc/nios2-elf/4.7.3/mhw-mulx\libgcc.a(_ne_df.o)
 .data          0x0000000000022400        0x0 c:/develop/altera/14.0/nios2eds/bin/gnu/h-x86_64-mingw32/bin/../lib/gcc/nios2-elf/4.7.3/mhw-mulx\libgcc.a(_gt_df.o)
 .data          0x0000000000022400        0x0 c:/develop/altera/14.0/nios2eds/bin/gnu/h-x86_64-mingw32/bin/../lib/gcc/nios2-elf/4.7.3/mhw-mulx\libgcc.a(_ge_df.o)
 .data          0x0000000000022400        0x0 c:/develop/altera/14.0/nios2eds/bin/gnu/h-x86_64-mingw32/bin/../lib/gcc/nios2-elf/4.7.3/mhw-mulx\libgcc.a(_lt_df.o)
 .data          0x0000000000022400        0x0 c:/develop/altera/14.0/nios2eds/bin/gnu/h-x86_64-mingw32/bin/../lib/gcc/nios2-elf/4.7.3/mhw-mulx\libgcc.a(_si_to_df.o)
 .data          0x0000000000022400        0x0 c:/develop/altera/14.0/nios2eds/bin/gnu/h-x86_64-mingw32/bin/../lib/gcc/nios2-elf/4.7.3/mhw-mulx\libgcc.a(_df_to_si.o)
 .data          0x0000000000022400        0x0 c:/develop/altera/14.0/nios2eds/bin/gnu/h-x86_64-mingw32/bin/../lib/gcc/nios2-elf/4.7.3/mhw-mulx\libgcc.a(_thenan_df.o)
 .data          0x0000000000022400        0x0 c:/develop/altera/14.0/nios2eds/bin/gnu/h-x86_64-mingw32/bin/../lib/gcc/nios2-elf/4.7.3/mhw-mulx\libgcc.a(_usi_to_df.o)
 .data          0x0000000000022400        0x0 c:/develop/altera/14.0/nios2eds/bin/gnu/h-x86_64-mingw32/bin/../lib/gcc/nios2-elf/4.7.3/mhw-mulx\libgcc.a(_clz.o)
 .data          0x0000000000022400        0x0 c:/develop/altera/14.0/nios2eds/bin/gnu/h-x86_64-mingw32/bin/../lib/gcc/nios2-elf/4.7.3/mhw-mulx\libgcc.a(_clzsi2.o)
 .data          0x0000000000022400        0x0 c:/develop/altera/14.0/nios2eds/bin/gnu/h-x86_64-mingw32/bin/../lib/gcc/nios2-elf/4.7.3/mhw-mulx\libgcc.a(_pack_df.o)
 .data          0x0000000000022400        0x0 c:/develop/altera/14.0/nios2eds/bin/gnu/h-x86_64-mingw32/bin/../lib/gcc/nios2-elf/4.7.3/mhw-mulx\libgcc.a(_unpack_df.o)
 .data          0x0000000000022400        0x0 c:/develop/altera/14.0/nios2eds/bin/gnu/h-x86_64-mingw32/bin/../lib/gcc/nios2-elf/4.7.3/mhw-mulx\libgcc.a(_fpcmp_parts_df.o)
 .data          0x0000000000022400        0x0 c:/develop/altera/14.0/nios2eds/bin/gnu/h-x86_64-mingw32/bin/../lib/gcc/nios2-elf/4.7.3/mhw-mulx\libgcc.a(_lshrdi3.o)
 .data          0x0000000000022400        0x0 c:/develop/altera/14.0/nios2eds/bin/gnu/h-x86_64-mingw32/bin/../lib/gcc/nios2-elf/4.7.3/mhw-mulx\libgcc.a(_ashldi3.o)
 .data          0x0000000000022400        0x0 ../sodalite_ckplay_bsp/\libhal_bsp.a(alt_close.o)
 .data          0x0000000000022400        0x0 ../sodalite_ckplay_bsp/\libhal_bsp.a(alt_dcache_flush.o)
 .data          0x0000000000022400      0x1a8 ../sodalite_ckplay_bsp/\libhal_bsp.a(alt_dev.o)
                0x0000000000022400                alt_fd_list
                0x0000000000022580                alt_dev_null
 .data          0x00000000000225a8        0x0 ../sodalite_ckplay_bsp/\libhal_bsp.a(alt_errno.o)
 .data          0x00000000000225a8        0x0 ../sodalite_ckplay_bsp/\libhal_bsp.a(alt_fs_reg.o)
 .data          0x00000000000225a8        0x0 ../sodalite_ckplay_bsp/\libhal_bsp.a(alt_fstat.o)
 .data          0x00000000000225a8        0x0 ../sodalite_ckplay_bsp/\libhal_bsp.a(alt_isatty.o)
 .data          0x00000000000225a8        0x0 ../sodalite_ckplay_bsp/\libhal_bsp.a(alt_load.o)
 .data          0x00000000000225a8        0x0 ../sodalite_ckplay_bsp/\libhal_bsp.a(alt_lseek.o)
 .data          0x00000000000225a8        0x0 ../sodalite_ckplay_bsp/\libhal_bsp.a(alt_main.o)
 .data          0x00000000000225a8        0x0 ../sodalite_ckplay_bsp/\libhal_bsp.a(alt_malloc_lock.o)
 .data          0x00000000000225a8        0x0 ../sodalite_ckplay_bsp/\libhal_bsp.a(alt_read.o)
 .data          0x00000000000225a8        0x0 ../sodalite_ckplay_bsp/\libhal_bsp.a(alt_release_fd.o)
 .data          0x00000000000225a8        0x0 ../sodalite_ckplay_bsp/\libhal_bsp.a(alt_sbrk.o)
 .data          0x00000000000225a8        0x0 ../sodalite_ckplay_bsp/\libhal_bsp.a(alt_uncached_free.o)
 .data          0x00000000000225a8        0x0 ../sodalite_ckplay_bsp/\libhal_bsp.a(alt_uncached_malloc.o)
 .data          0x00000000000225a8        0x0 ../sodalite_ckplay_bsp/\libhal_bsp.a(alt_write.o)
 .data          0x00000000000225a8     0x1184 ../sodalite_ckplay_bsp/\libhal_bsp.a(alt_sys_init.o)
 .data          0x000000000002372c        0x0 ../sodalite_ckplay_bsp/\libhal_bsp.a(altera_avalon_jtag_uart_fd.o)
 .data          0x000000000002372c        0x0 ../sodalite_ckplay_bsp/\libhal_bsp.a(altera_avalon_jtag_uart_init.o)
 .data          0x000000000002372c        0x0 ../sodalite_ckplay_bsp/\libhal_bsp.a(altera_avalon_jtag_uart_ioctl.o)
 .data          0x000000000002372c        0x0 ../sodalite_ckplay_bsp/\libhal_bsp.a(altera_avalon_jtag_uart_read.o)
 .data          0x000000000002372c        0x0 ../sodalite_ckplay_bsp/\libhal_bsp.a(altera_avalon_jtag_uart_write.o)
 .data          0x000000000002372c        0x0 ../sodalite_ckplay_bsp/\libhal_bsp.a(altera_avalon_timer_sc.o)
 .data          0x000000000002372c        0x0 ../sodalite_ckplay_bsp/\libhal_bsp.a(altera_modular_adc.o)
 .data          0x000000000002372c        0x0 ../sodalite_ckplay_bsp/\libhal_bsp.a(altera_onchip_flash.o)
 .data          0x000000000002372c        0x0 ../sodalite_ckplay_bsp/\libhal_bsp.a(alt_alarm_start.o)
 .data          0x000000000002372c        0x0 ../sodalite_ckplay_bsp/\libhal_bsp.a(alt_dcache_flush_all.o)
 .data          0x000000000002372c        0x0 ../sodalite_ckplay_bsp/\libhal_bsp.a(alt_dev_llist_insert.o)
 .data          0x000000000002372c        0x0 ../sodalite_ckplay_bsp/\libhal_bsp.a(alt_do_ctors.o)
 .data          0x000000000002372c        0x0 ../sodalite_ckplay_bsp/\libhal_bsp.a(alt_do_dtors.o)
 .data          0x000000000002372c        0x0 ../sodalite_ckplay_bsp/\libhal_bsp.a(alt_find_dev.o)
 .data          0x000000000002372c        0x0 ../sodalite_ckplay_bsp/\libhal_bsp.a(alt_flash_dev.o)
 .data          0x000000000002372c        0x0 ../sodalite_ckplay_bsp/\libhal_bsp.a(alt_icache_flush_all.o)
 .data          0x000000000002372c        0x0 ../sodalite_ckplay_bsp/\libhal_bsp.a(alt_iic.o)
 .data          0x000000000002372c        0x0 ../sodalite_ckplay_bsp/\libhal_bsp.a(alt_iic_isr_register.o)
 .data          0x000000000002372c        0x0 ../sodalite_ckplay_bsp/\libhal_bsp.a(alt_io_redirect.o)
 .data          0x000000000002372c        0x0 ../sodalite_ckplay_bsp/\libhal_bsp.a(alt_irq_entry.o)
 .data          0x000000000002372c        0x0 ../sodalite_ckplay_bsp/\libhal_bsp.a(alt_irq_handler.o)
 .data          0x000000000002372c        0x0 ../sodalite_ckplay_bsp/\libhal_bsp.a(alt_irq_vars.o)
 .data          0x000000000002372c        0x0 ../sodalite_ckplay_bsp/\libhal_bsp.a(alt_open.o)
 .data          0x000000000002372c        0x0 ../sodalite_ckplay_bsp/\libhal_bsp.a(alt_tick.o)
 .data          0x000000000002372c        0x0 ../sodalite_ckplay_bsp/\libhal_bsp.a(altera_nios2_gen2_irq.o)
 .data          0x000000000002372c        0x0 ../sodalite_ckplay_bsp/\libhal_bsp.a(alt_exception_entry.o)
 .data          0x000000000002372c        0x0 ../sodalite_ckplay_bsp/\libhal_bsp.a(alt_find_file.o)
 .data          0x000000000002372c        0x0 ../sodalite_ckplay_bsp/\libhal_bsp.a(alt_get_fd.o)
 .data          0x000000000002372c        0x0 ../sodalite_ckplay_bsp/\libhal_bsp.a(alt_icache_flush.o)
 .data          0x000000000002372c        0x0 ../sodalite_ckplay_bsp/\libhal_bsp.a(alt_instruction_exception_entry.o)
 .data          0x000000000002372c        0x0 c:/develop/altera/14.0/nios2eds/bin/gnu/h-x86_64-mingw32/bin/../lib/gcc/nios2-elf/4.7.3/../../../../../H-x86_64-mingw32/nios2-elf/lib/mhw-mulx\libc.a(lib_a-atexit.o)
 .data          0x000000000002372c        0x0 c:/develop/altera/14.0/nios2eds/bin/gnu/h-x86_64-mingw32/bin/../lib/gcc/nios2-elf/4.7.3/../../../../../H-x86_64-mingw32/nios2-elf/lib/mhw-mulx\libc.a(lib_a-exit.o)
 .data          0x000000000002372c        0x0 c:/develop/altera/14.0/nios2eds/bin/gnu/h-x86_64-mingw32/bin/../lib/gcc/nios2-elf/4.7.3/../../../../../H-x86_64-mingw32/nios2-elf/lib/mhw-mulx\libc.a(lib_a-malign.o)
 .data          0x000000000002372c        0x0 c:/develop/altera/14.0/nios2eds/bin/gnu/h-x86_64-mingw32/bin/../lib/gcc/nios2-elf/4.7.3/../../../../../H-x86_64-mingw32/nios2-elf/lib/mhw-mulx\libc.a(lib_a-malignr.o)
 .data          0x000000000002372c        0x0 c:/develop/altera/14.0/nios2eds/bin/gnu/h-x86_64-mingw32/bin/../lib/gcc/nios2-elf/4.7.3/../../../../../H-x86_64-mingw32/nios2-elf/lib/mhw-mulx\libc.a(lib_a-memcmp.o)
 .data          0x000000000002372c        0x0 c:/develop/altera/14.0/nios2eds/bin/gnu/h-x86_64-mingw32/bin/../lib/gcc/nios2-elf/4.7.3/../../../../../H-x86_64-mingw32/nios2-elf/lib/mhw-mulx\libc.a(lib_a-__atexit.o)
 .data          0x000000000002372c        0x0 c:/develop/altera/14.0/nios2eds/bin/gnu/h-x86_64-mingw32/bin/../lib/gcc/nios2-elf/4.7.3/../../../../../H-x86_64-mingw32/nios2-elf/lib/mhw-mulx\libc.a(lib_a-__call_atexit.o)
 .data          0x000000000002372c        0x0 ../sodalite_ckplay_bsp/\libhal_bsp.a(alt_exit.o)
                0x000000000002b72c                _gp = ABSOLUTE ((. + 0x8000))
                0x000000000002b72c                PROVIDE (gp, _gp)
 *(.rwdata .rwdata.*)
 *(.sdata .sdata.* .gnu.linkonce.s.*)
 .sdata         0x000000000002372c        0x1 obj/default/mmcfs/fatfs/mmcbb.o
 *fill*         0x000000000002372d        0x3 
 .sdata         0x0000000000023730        0x8 c:/develop/altera/14.0/nios2eds/bin/gnu/h-x86_64-mingw32/bin/../lib/gcc/nios2-elf/4.7.3/../../../../../H-x86_64-mingw32/nios2-elf/lib/mhw-mulx\libc.a(lib_a-mallocr.o)
                0x0000000000023730                __malloc_sbrk_base
                0x0000000000023734                __malloc_trim_threshold
 .sdata         0x0000000000023738        0x8 c:/develop/altera/14.0/nios2eds/bin/gnu/h-x86_64-mingw32/bin/../lib/gcc/nios2-elf/4.7.3/../../../../../H-x86_64-mingw32/nios2-elf/lib/mhw-mulx\libc.a(lib_a-impure.o)
                0x0000000000023738                _global_impure_ptr
                0x000000000002373c                _impure_ptr
 .sdata         0x0000000000023740        0x4 c:/develop/altera/14.0/nios2eds/bin/gnu/h-x86_64-mingw32/bin/../lib/gcc/nios2-elf/4.7.3/../../../../../H-x86_64-mingw32/nios2-elf/lib/mhw-mulx\libc.a(lib_a-locale.o)
                0x0000000000023740                __mb_cur_max
 .sdata         0x0000000000023744       0x14 ../sodalite_ckplay_bsp/\libhal_bsp.a(alt_dev.o)
                0x0000000000023744                alt_max_fd
                0x0000000000023748                alt_dev_list
                0x0000000000023750                alt_fs_list
 .sdata         0x0000000000023758        0x4 ../sodalite_ckplay_bsp/\libhal_bsp.a(alt_errno.o)
                0x0000000000023758                alt_errno
 .sdata         0x000000000002375c        0x4 ../sodalite_ckplay_bsp/\libhal_bsp.a(alt_sbrk.o)
 .sdata         0x0000000000023760        0x8 ../sodalite_ckplay_bsp/\libhal_bsp.a(altera_modular_adc.o)
                0x0000000000023760                altera_modular_adc_list
 .sdata         0x0000000000023768        0x8 ../sodalite_ckplay_bsp/\libhal_bsp.a(altera_onchip_flash.o)
                0x0000000000023768                altera_onchip_flash_list
 .sdata         0x0000000000023770        0x8 ../sodalite_ckplay_bsp/\libhal_bsp.a(alt_flash_dev.o)
                0x0000000000023770                alt_flash_dev_list
 .sdata         0x0000000000023778        0x4 ../sodalite_ckplay_bsp/\libhal_bsp.a(alt_irq_vars.o)
                0x0000000000023778                alt_priority_mask
 .sdata         0x000000000002377c        0x8 ../sodalite_ckplay_bsp/\libhal_bsp.a(alt_tick.o)
                0x000000000002377c                alt_alarm_list
 *(.sdata2 .sdata2.* .gnu.linkonce.s2.*)
                0x0000000000023784                . = ALIGN (0x4)
                0x0000000000023784                _edata = ABSOLUTE (.)
                0x0000000000023784                PROVIDE (edata, ABSOLUTE (.))
                0x0000000000023784                PROVIDE (__ram_rwdata_end, ABSOLUTE (.))
                0x0000000000023784                PROVIDE (__flash_rwdata_start, LOADADDR (.rwdata))

.bss            0x0000000000025344      0xe1c
                0x0000000000025344                __bss_start = ABSOLUTE (.)
                0x0000000000025344                PROVIDE (__sbss_start, ABSOLUTE (.))
                0x0000000000025344                PROVIDE (___sbss_start, ABSOLUTE (.))
 *(.dynsbss)
 *(.sbss .sbss.* .gnu.linkonce.sb.*)
 .sbss          0x0000000000025344        0x8 obj/default/mmcfs/fatfs/ff.o
 .sbss          0x000000000002534c        0x1 obj/default/mmcfs/fatfs/mmcbb.o
 *fill*         0x000000000002534d        0x3 
 .sbss          0x0000000000025350        0x8 obj/default/mmcfs/mmc_spi.o
 .sbss          0x0000000000025358        0xc obj/default/mmcfs/mmcfs.o
 .sbss          0x0000000000025364       0x14 obj/default/nd_lib/nd_egl.o
 .sbss          0x0000000000025378        0xc obj/default/nd_lib/nd_egl.o
                0x0000000000025378                nd_GsVgaVsyncCount
                0x000000000002537c                nd_GsEglDrawBuffer
                0x0000000000025380                nd_GsVgaVsyncFlag
 .sbss          0x0000000000025384        0xc c:/develop/altera/14.0/nios2eds/bin/gnu/h-x86_64-mingw32/bin/../lib/gcc/nios2-elf/4.7.3/../../../../../H-x86_64-mingw32/nios2-elf/lib/mhw-mulx\libc.a(lib_a-mallocr.o)
                0x0000000000025384                __malloc_max_total_mem
                0x0000000000025388                __malloc_max_sbrked_mem
                0x000000000002538c                __malloc_top_pad
 .sbss          0x0000000000025390        0x4 c:/develop/altera/14.0/nios2eds/bin/gnu/h-x86_64-mingw32/bin/../lib/gcc/nios2-elf/4.7.3/../../../../../H-x86_64-mingw32/nios2-elf/lib/mhw-mulx\libc.a(lib_a-int_errno.o)
                0x0000000000025390                errno
 .sbss          0x0000000000025394        0xc c:/develop/altera/14.0/nios2eds/bin/gnu/h-x86_64-mingw32/bin/../lib/gcc/nios2-elf/4.7.3/../../../../../H-x86_64-mingw32/nios2-elf/lib/mhw-mulx\libc.a(lib_a-locale.o)
                0x0000000000025394                _PathLocale
                0x0000000000025398                __mlocale_changed
                0x000000000002539c                __nlocale_changed
 .sbss          0x00000000000253a0        0xc ../sodalite_ckplay_bsp/\libhal_bsp.a(alt_main.o)
                0x00000000000253a0                alt_envp
                0x00000000000253a4                alt_argv
                0x00000000000253a8                alt_argc
 .sbss          0x00000000000253ac        0x4 ../sodalite_ckplay_bsp/\libhal_bsp.a(alt_irq_vars.o)
                0x00000000000253ac                alt_irq_active
 .sbss          0x00000000000253b0        0x8 ../sodalite_ckplay_bsp/\libhal_bsp.a(alt_tick.o)
                0x00000000000253b0                _alt_nticks
                0x00000000000253b4                _alt_tick_rate
 .sbss          0x00000000000253b8        0x4 ../sodalite_ckplay_bsp/\libhal_bsp.a(alt_instruction_exception_entry.o)
                0x00000000000253b8                alt_instruction_exception_handler
 *(.sbss2 .sbss2.* .gnu.linkonce.sb2.*)
 *(.scommon)
                0x00000000000253bc                PROVIDE (__sbss_end, ABSOLUTE (.))
                0x00000000000253bc                PROVIDE (___sbss_end, ABSOLUTE (.))
 *(.dynbss)
 *(.bss .bss.* .gnu.linkonce.b.*)
 .bss           0x00000000000253bc        0x0 ../sodalite_ckplay_bsp//obj/HAL/src/crt0.o
 .bss           0x00000000000253bc      0x274 obj/default/ckplay_peridot.o
 .bss           0x0000000000025630      0x200 obj/default/mmcfs/fatfs/ff.o
 .bss           0x0000000000025830        0x0 obj/default/mmcfs/fatfs/mmcbb.o
 .bss           0x0000000000025830        0x0 obj/default/mmcfs/fatfs/option/cc932.o
 .bss           0x0000000000025830        0x0 obj/default/mmcfs/gettime.o
 .bss           0x0000000000025830        0x0 obj/default/mmcfs/mmc_spi.o
 .bss           0x0000000000025830      0x678 obj/default/mmcfs/mmcfs.o
 .bss           0x0000000000025ea8        0x0 obj/default/nd_lib/nd_acm.o
 .bss           0x0000000000025ea8        0x0 obj/default/nd_lib/nd_egl.o
 .bss           0x0000000000025ea8        0x0 obj/default/nd_lib/nd_acm_mcudecode.o
 .bss           0x0000000000025ea8        0x0 c:/develop/altera/14.0/nios2eds/bin/gnu/h-x86_64-mingw32/bin/../lib/gcc/nios2-elf/4.7.3/mhw-mulx\libgcc.a(lib2-divmod.o)
 .bss           0x0000000000025ea8        0x0 c:/develop/altera/14.0/nios2eds/bin/gnu/h-x86_64-mingw32/bin/../lib/gcc/nios2-elf/4.7.3/../../../../../H-x86_64-mingw32/nios2-elf/lib/mhw-mulx\libc.a(lib_a-malloc.o)
 .bss           0x0000000000025ea8       0x28 c:/develop/altera/14.0/nios2eds/bin/gnu/h-x86_64-mingw32/bin/../lib/gcc/nios2-elf/4.7.3/../../../../../H-x86_64-mingw32/nios2-elf/lib/mhw-mulx\libc.a(lib_a-mallocr.o)
                0x0000000000025ea8                __malloc_current_mallinfo
 .bss           0x0000000000025ed0        0x0 c:/develop/altera/14.0/nios2eds/bin/gnu/h-x86_64-mingw32/bin/../lib/gcc/nios2-elf/4.7.3/../../../../../H-x86_64-mingw32/nios2-elf/lib/mhw-mulx\libc.a(lib_a-memcpy.o)
 .bss           0x0000000000025ed0        0x0 c:/develop/altera/14.0/nios2eds/bin/gnu/h-x86_64-mingw32/bin/../lib/gcc/nios2-elf/4.7.3/../../../../../H-x86_64-mingw32/nios2-elf/lib/mhw-mulx\libc.a(lib_a-memset.o)
 .bss           0x0000000000025ed0        0x0 c:/develop/altera/14.0/nios2eds/bin/gnu/h-x86_64-mingw32/bin/../lib/gcc/nios2-elf/4.7.3/../../../../../H-x86_64-mingw32/nios2-elf/lib/mhw-mulx\libc.a(lib_a-printf.o)
 .bss           0x0000000000025ed0        0x0 c:/develop/altera/14.0/nios2eds/bin/gnu/h-x86_64-mingw32/bin/../lib/gcc/nios2-elf/4.7.3/../../../../../H-x86_64-mingw32/nios2-elf/lib/mhw-mulx\libc.a(lib_a-puts.o)
 .bss           0x0000000000025ed0        0x0 c:/develop/altera/14.0/nios2eds/bin/gnu/h-x86_64-mingw32/bin/../lib/gcc/nios2-elf/4.7.3/../../../../../H-x86_64-mingw32/nios2-elf/lib/mhw-mulx\libc.a(lib_a-sbrkr.o)
 .bss           0x0000000000025ed0        0x0 c:/develop/altera/14.0/nios2eds/bin/gnu/h-x86_64-mingw32/bin/../lib/gcc/nios2-elf/4.7.3/../../../../../H-x86_64-mingw32/nios2-elf/lib/mhw-mulx\libc.a(lib_a-strcpy.o)
 .bss           0x0000000000025ed0        0x0 c:/develop/altera/14.0/nios2eds/bin/gnu/h-x86_64-mingw32/bin/../lib/gcc/nios2-elf/4.7.3/../../../../../H-x86_64-mingw32/nios2-elf/lib/mhw-mulx\libc.a(lib_a-strlen.o)
 .bss           0x0000000000025ed0        0x0 c:/develop/altera/14.0/nios2eds/bin/gnu/h-x86_64-mingw32/bin/../lib/gcc/nios2-elf/4.7.3/../../../../../H-x86_64-mingw32/nios2-elf/lib/mhw-mulx\libc.a(lib_a-vfprintf.o)
 .bss           0x0000000000025ed0        0x0 c:/develop/altera/14.0/nios2eds/bin/gnu/h-x86_64-mingw32/bin/../lib/gcc/nios2-elf/4.7.3/../../../../../H-x86_64-mingw32/nios2-elf/lib/mhw-mulx\libc.a(lib_a-wsetup.o)
 .bss           0x0000000000025ed0        0x0 c:/develop/altera/14.0/nios2eds/bin/gnu/h-x86_64-mingw32/bin/../lib/gcc/nios2-elf/4.7.3/../../../../../H-x86_64-mingw32/nios2-elf/lib/mhw-mulx\libc.a(lib_a-dtoa.o)
 .bss           0x0000000000025ed0        0x0 c:/develop/altera/14.0/nios2eds/bin/gnu/h-x86_64-mingw32/bin/../lib/gcc/nios2-elf/4.7.3/../../../../../H-x86_64-mingw32/nios2-elf/lib/mhw-mulx\libc.a(lib_a-fflush.o)
 .bss           0x0000000000025ed0        0x0 c:/develop/altera/14.0/nios2eds/bin/gnu/h-x86_64-mingw32/bin/../lib/gcc/nios2-elf/4.7.3/../../../../../H-x86_64-mingw32/nios2-elf/lib/mhw-mulx\libc.a(lib_a-findfp.o)
 .bss           0x0000000000025ed0        0x0 c:/develop/altera/14.0/nios2eds/bin/gnu/h-x86_64-mingw32/bin/../lib/gcc/nios2-elf/4.7.3/../../../../../H-x86_64-mingw32/nios2-elf/lib/mhw-mulx\libc.a(lib_a-freer.o)
 .bss           0x0000000000025ed0        0x0 c:/develop/altera/14.0/nios2eds/bin/gnu/h-x86_64-mingw32/bin/../lib/gcc/nios2-elf/4.7.3/../../../../../H-x86_64-mingw32/nios2-elf/lib/mhw-mulx\libc.a(lib_a-fvwrite.o)
 .bss           0x0000000000025ed0        0x0 c:/develop/altera/14.0/nios2eds/bin/gnu/h-x86_64-mingw32/bin/../lib/gcc/nios2-elf/4.7.3/../../../../../H-x86_64-mingw32/nios2-elf/lib/mhw-mulx\libc.a(lib_a-fwalk.o)
 .bss           0x0000000000025ed0        0x0 c:/develop/altera/14.0/nios2eds/bin/gnu/h-x86_64-mingw32/bin/../lib/gcc/nios2-elf/4.7.3/../../../../../H-x86_64-mingw32/nios2-elf/lib/mhw-mulx\libc.a(lib_a-impure.o)
 .bss           0x0000000000025ed0        0x0 c:/develop/altera/14.0/nios2eds/bin/gnu/h-x86_64-mingw32/bin/../lib/gcc/nios2-elf/4.7.3/../../../../../H-x86_64-mingw32/nios2-elf/lib/mhw-mulx\libc.a(lib_a-int_errno.o)
 .bss           0x0000000000025ed0        0x0 c:/develop/altera/14.0/nios2eds/bin/gnu/h-x86_64-mingw32/bin/../lib/gcc/nios2-elf/4.7.3/../../../../../H-x86_64-mingw32/nios2-elf/lib/mhw-mulx\libc.a(lib_a-locale.o)
 .bss           0x0000000000025ed0        0x0 c:/develop/altera/14.0/nios2eds/bin/gnu/h-x86_64-mingw32/bin/../lib/gcc/nios2-elf/4.7.3/../../../../../H-x86_64-mingw32/nios2-elf/lib/mhw-mulx\libc.a(lib_a-makebuf.o)
 .bss           0x0000000000025ed0        0x0 c:/develop/altera/14.0/nios2eds/bin/gnu/h-x86_64-mingw32/bin/../lib/gcc/nios2-elf/4.7.3/../../../../../H-x86_64-mingw32/nios2-elf/lib/mhw-mulx\libc.a(lib_a-memchr.o)
 .bss           0x0000000000025ed0        0x0 c:/develop/altera/14.0/nios2eds/bin/gnu/h-x86_64-mingw32/bin/../lib/gcc/nios2-elf/4.7.3/../../../../../H-x86_64-mingw32/nios2-elf/lib/mhw-mulx\libc.a(lib_a-memmove.o)
 .bss           0x0000000000025ed0        0x0 c:/develop/altera/14.0/nios2eds/bin/gnu/h-x86_64-mingw32/bin/../lib/gcc/nios2-elf/4.7.3/../../../../../H-x86_64-mingw32/nios2-elf/lib/mhw-mulx\libc.a(lib_a-mprec.o)
 .bss           0x0000000000025ed0        0x0 c:/develop/altera/14.0/nios2eds/bin/gnu/h-x86_64-mingw32/bin/../lib/gcc/nios2-elf/4.7.3/../../../../../H-x86_64-mingw32/nios2-elf/lib/mhw-mulx\libc.a(lib_a-reallocr.o)
 .bss           0x0000000000025ed0        0x0 c:/develop/altera/14.0/nios2eds/bin/gnu/h-x86_64-mingw32/bin/../lib/gcc/nios2-elf/4.7.3/../../../../../H-x86_64-mingw32/nios2-elf/lib/mhw-mulx\libc.a(lib_a-s_isinfd.o)
 .bss           0x0000000000025ed0        0x0 c:/develop/altera/14.0/nios2eds/bin/gnu/h-x86_64-mingw32/bin/../lib/gcc/nios2-elf/4.7.3/../../../../../H-x86_64-mingw32/nios2-elf/lib/mhw-mulx\libc.a(lib_a-s_isnand.o)
 .bss           0x0000000000025ed0        0x0 c:/develop/altera/14.0/nios2eds/bin/gnu/h-x86_64-mingw32/bin/../lib/gcc/nios2-elf/4.7.3/../../../../../H-x86_64-mingw32/nios2-elf/lib/mhw-mulx\libc.a(lib_a-stdio.o)
 .bss           0x0000000000025ed0        0x0 c:/develop/altera/14.0/nios2eds/bin/gnu/h-x86_64-mingw32/bin/../lib/gcc/nios2-elf/4.7.3/../../../../../H-x86_64-mingw32/nios2-elf/lib/mhw-mulx\libc.a(lib_a-strcmp.o)
 .bss           0x0000000000025ed0        0x0 c:/develop/altera/14.0/nios2eds/bin/gnu/h-x86_64-mingw32/bin/../lib/gcc/nios2-elf/4.7.3/../../../../../H-x86_64-mingw32/nios2-elf/lib/mhw-mulx\libc.a(lib_a-writer.o)
 .bss           0x0000000000025ed0        0x0 c:/develop/altera/14.0/nios2eds/bin/gnu/h-x86_64-mingw32/bin/../lib/gcc/nios2-elf/4.7.3/../../../../../H-x86_64-mingw32/nios2-elf/lib/mhw-mulx\libc.a(lib_a-callocr.o)
 .bss           0x0000000000025ed0        0x0 c:/develop/altera/14.0/nios2eds/bin/gnu/h-x86_64-mingw32/bin/../lib/gcc/nios2-elf/4.7.3/../../../../../H-x86_64-mingw32/nios2-elf/lib/mhw-mulx\libc.a(lib_a-closer.o)
 .bss           0x0000000000025ed0        0x0 c:/develop/altera/14.0/nios2eds/bin/gnu/h-x86_64-mingw32/bin/../lib/gcc/nios2-elf/4.7.3/../../../../../H-x86_64-mingw32/nios2-elf/lib/mhw-mulx\libc.a(lib_a-fclose.o)
 .bss           0x0000000000025ed0        0x0 c:/develop/altera/14.0/nios2eds/bin/gnu/h-x86_64-mingw32/bin/../lib/gcc/nios2-elf/4.7.3/../../../../../H-x86_64-mingw32/nios2-elf/lib/mhw-mulx\libc.a(lib_a-fstatr.o)
 .bss           0x0000000000025ed0        0x0 c:/develop/altera/14.0/nios2eds/bin/gnu/h-x86_64-mingw32/bin/../lib/gcc/nios2-elf/4.7.3/../../../../../H-x86_64-mingw32/nios2-elf/lib/mhw-mulx\libc.a(lib_a-isattyr.o)
 .bss           0x0000000000025ed0        0x0 c:/develop/altera/14.0/nios2eds/bin/gnu/h-x86_64-mingw32/bin/../lib/gcc/nios2-elf/4.7.3/../../../../../H-x86_64-mingw32/nios2-elf/lib/mhw-mulx\libc.a(lib_a-lseekr.o)
 .bss           0x0000000000025ed0        0x0 c:/develop/altera/14.0/nios2eds/bin/gnu/h-x86_64-mingw32/bin/../lib/gcc/nios2-elf/4.7.3/../../../../../H-x86_64-mingw32/nios2-elf/lib/mhw-mulx\libc.a(lib_a-readr.o)
 .bss           0x0000000000025ed0        0x0 c:/develop/altera/14.0/nios2eds/bin/gnu/h-x86_64-mingw32/bin/../lib/gcc/nios2-elf/4.7.3/mhw-mulx\libgcc.a(_udivdi3.o)
 .bss           0x0000000000025ed0        0x0 c:/develop/altera/14.0/nios2eds/bin/gnu/h-x86_64-mingw32/bin/../lib/gcc/nios2-elf/4.7.3/mhw-mulx\libgcc.a(_umoddi3.o)
 .bss           0x0000000000025ed0        0x0 c:/develop/altera/14.0/nios2eds/bin/gnu/h-x86_64-mingw32/bin/../lib/gcc/nios2-elf/4.7.3/mhw-mulx\libgcc.a(_addsub_df.o)
 .bss           0x0000000000025ed0        0x0 c:/develop/altera/14.0/nios2eds/bin/gnu/h-x86_64-mingw32/bin/../lib/gcc/nios2-elf/4.7.3/mhw-mulx\libgcc.a(_mul_df.o)
 .bss           0x0000000000025ed0        0x0 c:/develop/altera/14.0/nios2eds/bin/gnu/h-x86_64-mingw32/bin/../lib/gcc/nios2-elf/4.7.3/mhw-mulx\libgcc.a(_div_df.o)
 .bss           0x0000000000025ed0        0x0 c:/develop/altera/14.0/nios2eds/bin/gnu/h-x86_64-mingw32/bin/../lib/gcc/nios2-elf/4.7.3/mhw-mulx\libgcc.a(_eq_df.o)
 .bss           0x0000000000025ed0        0x0 c:/develop/altera/14.0/nios2eds/bin/gnu/h-x86_64-mingw32/bin/../lib/gcc/nios2-elf/4.7.3/mhw-mulx\libgcc.a(_ne_df.o)
 .bss           0x0000000000025ed0        0x0 c:/develop/altera/14.0/nios2eds/bin/gnu/h-x86_64-mingw32/bin/../lib/gcc/nios2-elf/4.7.3/mhw-mulx\libgcc.a(_gt_df.o)
 .bss           0x0000000000025ed0        0x0 c:/develop/altera/14.0/nios2eds/bin/gnu/h-x86_64-mingw32/bin/../lib/gcc/nios2-elf/4.7.3/mhw-mulx\libgcc.a(_ge_df.o)
 .bss           0x0000000000025ed0        0x0 c:/develop/altera/14.0/nios2eds/bin/gnu/h-x86_64-mingw32/bin/../lib/gcc/nios2-elf/4.7.3/mhw-mulx\libgcc.a(_lt_df.o)
 .bss           0x0000000000025ed0        0x0 c:/develop/altera/14.0/nios2eds/bin/gnu/h-x86_64-mingw32/bin/../lib/gcc/nios2-elf/4.7.3/mhw-mulx\libgcc.a(_si_to_df.o)
 .bss           0x0000000000025ed0        0x0 c:/develop/altera/14.0/nios2eds/bin/gnu/h-x86_64-mingw32/bin/../lib/gcc/nios2-elf/4.7.3/mhw-mulx\libgcc.a(_df_to_si.o)
 .bss           0x0000000000025ed0        0x0 c:/develop/altera/14.0/nios2eds/bin/gnu/h-x86_64-mingw32/bin/../lib/gcc/nios2-elf/4.7.3/mhw-mulx\libgcc.a(_thenan_df.o)
 .bss           0x0000000000025ed0        0x0 c:/develop/altera/14.0/nios2eds/bin/gnu/h-x86_64-mingw32/bin/../lib/gcc/nios2-elf/4.7.3/mhw-mulx\libgcc.a(_usi_to_df.o)
 .bss           0x0000000000025ed0        0x0 c:/develop/altera/14.0/nios2eds/bin/gnu/h-x86_64-mingw32/bin/../lib/gcc/nios2-elf/4.7.3/mhw-mulx\libgcc.a(_clz.o)
 .bss           0x0000000000025ed0        0x0 c:/develop/altera/14.0/nios2eds/bin/gnu/h-x86_64-mingw32/bin/../lib/gcc/nios2-elf/4.7.3/mhw-mulx\libgcc.a(_clzsi2.o)
 .bss           0x0000000000025ed0        0x0 c:/develop/altera/14.0/nios2eds/bin/gnu/h-x86_64-mingw32/bin/../lib/gcc/nios2-elf/4.7.3/mhw-mulx\libgcc.a(_pack_df.o)
 .bss           0x0000000000025ed0        0x0 c:/develop/altera/14.0/nios2eds/bin/gnu/h-x86_64-mingw32/bin/../lib/gcc/nios2-elf/4.7.3/mhw-mulx\libgcc.a(_unpack_df.o)
 .bss           0x0000000000025ed0        0x0 c:/develop/altera/14.0/nios2eds/bin/gnu/h-x86_64-mingw32/bin/../lib/gcc/nios2-elf/4.7.3/mhw-mulx\libgcc.a(_fpcmp_parts_df.o)
 .bss           0x0000000000025ed0        0x0 c:/develop/altera/14.0/nios2eds/bin/gnu/h-x86_64-mingw32/bin/../lib/gcc/nios2-elf/4.7.3/mhw-mulx\libgcc.a(_lshrdi3.o)
 .bss           0x0000000000025ed0        0x0 c:/develop/altera/14.0/nios2eds/bin/gnu/h-x86_64-mingw32/bin/../lib/gcc/nios2-elf/4.7.3/mhw-mulx\libgcc.a(_ashldi3.o)
 .bss           0x0000000000025ed0        0x0 ../sodalite_ckplay_bsp/\libhal_bsp.a(alt_close.o)
 .bss           0x0000000000025ed0        0x0 ../sodalite_ckplay_bsp/\libhal_bsp.a(alt_dcache_flush.o)
 .bss           0x0000000000025ed0        0x0 ../sodalite_ckplay_bsp/\libhal_bsp.a(alt_dev.o)
 .bss           0x0000000000025ed0        0x0 ../sodalite_ckplay_bsp/\libhal_bsp.a(alt_errno.o)
 .bss           0x0000000000025ed0        0x0 ../sodalite_ckplay_bsp/\libhal_bsp.a(alt_fs_reg.o)
 .bss           0x0000000000025ed0        0x0 ../sodalite_ckplay_bsp/\libhal_bsp.a(alt_fstat.o)
 .bss           0x0000000000025ed0        0x0 ../sodalite_ckplay_bsp/\libhal_bsp.a(alt_isatty.o)
 .bss           0x0000000000025ed0        0x0 ../sodalite_ckplay_bsp/\libhal_bsp.a(alt_load.o)
 .bss           0x0000000000025ed0        0x0 ../sodalite_ckplay_bsp/\libhal_bsp.a(alt_lseek.o)
 .bss           0x0000000000025ed0        0x0 ../sodalite_ckplay_bsp/\libhal_bsp.a(alt_main.o)
 .bss           0x0000000000025ed0        0x0 ../sodalite_ckplay_bsp/\libhal_bsp.a(alt_malloc_lock.o)
 .bss           0x0000000000025ed0        0x0 ../sodalite_ckplay_bsp/\libhal_bsp.a(alt_read.o)
 .bss           0x0000000000025ed0        0x0 ../sodalite_ckplay_bsp/\libhal_bsp.a(alt_release_fd.o)
 .bss           0x0000000000025ed0        0x0 ../sodalite_ckplay_bsp/\libhal_bsp.a(alt_sbrk.o)
 .bss           0x0000000000025ed0        0x0 ../sodalite_ckplay_bsp/\libhal_bsp.a(alt_uncached_free.o)
 .bss           0x0000000000025ed0        0x0 ../sodalite_ckplay_bsp/\libhal_bsp.a(alt_uncached_malloc.o)
 .bss           0x0000000000025ed0        0x0 ../sodalite_ckplay_bsp/\libhal_bsp.a(alt_write.o)
 .bss           0x0000000000025ed0        0x0 ../sodalite_ckplay_bsp/\libhal_bsp.a(alt_sys_init.o)
 .bss           0x0000000000025ed0        0x0 ../sodalite_ckplay_bsp/\libhal_bsp.a(altera_avalon_jtag_uart_fd.o)
 .bss           0x0000000000025ed0        0x0 ../sodalite_ckplay_bsp/\libhal_bsp.a(altera_avalon_jtag_uart_init.o)
 .bss           0x0000000000025ed0        0x0 ../sodalite_ckplay_bsp/\libhal_bsp.a(altera_avalon_jtag_uart_ioctl.o)
 .bss           0x0000000000025ed0        0x0 ../sodalite_ckplay_bsp/\libhal_bsp.a(altera_avalon_jtag_uart_read.o)
 .bss           0x0000000000025ed0        0x0 ../sodalite_ckplay_bsp/\libhal_bsp.a(altera_avalon_jtag_uart_write.o)
 .bss           0x0000000000025ed0        0x0 ../sodalite_ckplay_bsp/\libhal_bsp.a(altera_avalon_timer_sc.o)
 .bss           0x0000000000025ed0        0x0 ../sodalite_ckplay_bsp/\libhal_bsp.a(altera_modular_adc.o)
 .bss           0x0000000000025ed0        0x0 ../sodalite_ckplay_bsp/\libhal_bsp.a(altera_onchip_flash.o)
 .bss           0x0000000000025ed0        0x0 ../sodalite_ckplay_bsp/\libhal_bsp.a(alt_alarm_start.o)
 .bss           0x0000000000025ed0        0x0 ../sodalite_ckplay_bsp/\libhal_bsp.a(alt_dcache_flush_all.o)
 .bss           0x0000000000025ed0        0x0 ../sodalite_ckplay_bsp/\libhal_bsp.a(alt_dev_llist_insert.o)
 .bss           0x0000000000025ed0        0x0 ../sodalite_ckplay_bsp/\libhal_bsp.a(alt_do_ctors.o)
 .bss           0x0000000000025ed0        0x0 ../sodalite_ckplay_bsp/\libhal_bsp.a(alt_do_dtors.o)
 .bss           0x0000000000025ed0        0x0 ../sodalite_ckplay_bsp/\libhal_bsp.a(alt_find_dev.o)
 .bss           0x0000000000025ed0        0x0 ../sodalite_ckplay_bsp/\libhal_bsp.a(alt_flash_dev.o)
 .bss           0x0000000000025ed0        0x0 ../sodalite_ckplay_bsp/\libhal_bsp.a(alt_icache_flush_all.o)
 .bss           0x0000000000025ed0        0x0 ../sodalite_ckplay_bsp/\libhal_bsp.a(alt_iic.o)
 .bss           0x0000000000025ed0        0x0 ../sodalite_ckplay_bsp/\libhal_bsp.a(alt_iic_isr_register.o)
 .bss           0x0000000000025ed0        0x0 ../sodalite_ckplay_bsp/\libhal_bsp.a(alt_io_redirect.o)
 .bss           0x0000000000025ed0        0x0 ../sodalite_ckplay_bsp/\libhal_bsp.a(alt_irq_entry.o)
 .bss           0x0000000000025ed0        0x0 ../sodalite_ckplay_bsp/\libhal_bsp.a(alt_irq_handler.o)
 .bss           0x0000000000025ed0        0x0 ../sodalite_ckplay_bsp/\libhal_bsp.a(alt_irq_vars.o)
 .bss           0x0000000000025ed0        0x0 ../sodalite_ckplay_bsp/\libhal_bsp.a(alt_open.o)
 .bss           0x0000000000025ed0        0x0 ../sodalite_ckplay_bsp/\libhal_bsp.a(alt_tick.o)
 .bss           0x0000000000025ed0        0x0 ../sodalite_ckplay_bsp/\libhal_bsp.a(altera_nios2_gen2_irq.o)
 .bss           0x0000000000025ed0        0x0 ../sodalite_ckplay_bsp/\libhal_bsp.a(alt_exception_entry.o)
 .bss           0x0000000000025ed0        0x0 ../sodalite_ckplay_bsp/\libhal_bsp.a(alt_find_file.o)
 .bss           0x0000000000025ed0        0x0 ../sodalite_ckplay_bsp/\libhal_bsp.a(alt_get_fd.o)
 .bss           0x0000000000025ed0        0x0 ../sodalite_ckplay_bsp/\libhal_bsp.a(alt_icache_flush.o)
 .bss           0x0000000000025ed0        0x0 ../sodalite_ckplay_bsp/\libhal_bsp.a(alt_instruction_exception_entry.o)
 .bss           0x0000000000025ed0        0x0 c:/develop/altera/14.0/nios2eds/bin/gnu/h-x86_64-mingw32/bin/../lib/gcc/nios2-elf/4.7.3/../../../../../H-x86_64-mingw32/nios2-elf/lib/mhw-mulx\libc.a(lib_a-atexit.o)
 .bss           0x0000000000025ed0        0x0 c:/develop/altera/14.0/nios2eds/bin/gnu/h-x86_64-mingw32/bin/../lib/gcc/nios2-elf/4.7.3/../../../../../H-x86_64-mingw32/nios2-elf/lib/mhw-mulx\libc.a(lib_a-exit.o)
 .bss           0x0000000000025ed0        0x0 c:/develop/altera/14.0/nios2eds/bin/gnu/h-x86_64-mingw32/bin/../lib/gcc/nios2-elf/4.7.3/../../../../../H-x86_64-mingw32/nios2-elf/lib/mhw-mulx\libc.a(lib_a-malign.o)
 .bss           0x0000000000025ed0        0x0 c:/develop/altera/14.0/nios2eds/bin/gnu/h-x86_64-mingw32/bin/../lib/gcc/nios2-elf/4.7.3/../../../../../H-x86_64-mingw32/nios2-elf/lib/mhw-mulx\libc.a(lib_a-malignr.o)
 .bss           0x0000000000025ed0        0x0 c:/develop/altera/14.0/nios2eds/bin/gnu/h-x86_64-mingw32/bin/../lib/gcc/nios2-elf/4.7.3/../../../../../H-x86_64-mingw32/nios2-elf/lib/mhw-mulx\libc.a(lib_a-memcmp.o)
 .bss           0x0000000000025ed0        0x0 c:/develop/altera/14.0/nios2eds/bin/gnu/h-x86_64-mingw32/bin/../lib/gcc/nios2-elf/4.7.3/../../../../../H-x86_64-mingw32/nios2-elf/lib/mhw-mulx\libc.a(lib_a-__atexit.o)
 .bss           0x0000000000025ed0        0x0 c:/develop/altera/14.0/nios2eds/bin/gnu/h-x86_64-mingw32/bin/../lib/gcc/nios2-elf/4.7.3/../../../../../H-x86_64-mingw32/nios2-elf/lib/mhw-mulx\libc.a(lib_a-__call_atexit.o)
 .bss           0x0000000000025ed0        0x0 ../sodalite_ckplay_bsp/\libhal_bsp.a(alt_exit.o)
 *(COMMON)
 COMMON         0x0000000000025ed0      0x100 ../sodalite_ckplay_bsp/\libhal_bsp.a(alt_irq_handler.o)
                0x0000000000025ed0                alt_irq
 COMMON         0x0000000000025fd0      0x190 c:/develop/altera/14.0/nios2eds/bin/gnu/h-x86_64-mingw32/bin/../lib/gcc/nios2-elf/4.7.3/../../../../../H-x86_64-mingw32/nios2-elf/lib/mhw-mulx\libc.a(lib_a-atexit.o)
                0x0000000000025fd0                _atexit0
                0x0000000000026160                . = ALIGN (0x4)
                0x0000000000026160                __bss_end = ABSOLUTE (.)

.sdram          0x0000000000026160        0x0
                0x0000000000026160                PROVIDE (_alt_partition_sdram_start, ABSOLUTE (.))
 *(.sdram .sdram. sdram.*)
                0x0000000000026160                . = ALIGN (0x4)
                0x0000000000026160                PROVIDE (_alt_partition_sdram_end, ABSOLUTE (.))
                0x0000000000026160                _end = ABSOLUTE (.)
                0x0000000000026160                end = ABSOLUTE (.)
                0x0000000000026160                __alt_stack_base = ABSOLUTE (.)
                0x0000000000026160                PROVIDE (_alt_partition_sdram_load_addr, LOADADDR (.sdram))

.ipl_memory     0x000000000f000020        0x0 load address 0x0000000000026160
                0x000000000f000020                PROVIDE (_alt_partition_ipl_memory_start, ABSOLUTE (.))
 *(.ipl_memory .ipl_memory. ipl_memory.*)
                0x000000000f000020                . = ALIGN (0x4)
                0x000000000f000020                PROVIDE (_alt_partition_ipl_memory_end, ABSOLUTE (.))
                0x0000000000026160                PROVIDE (_alt_partition_ipl_memory_load_addr, LOADADDR (.ipl_memory))

.onchip_flash_0_data
                0x000000000f100000        0x0 load address 0x0000000000026160
                0x000000000f100000                PROVIDE (_alt_partition_onchip_flash_0_data_start, ABSOLUTE (.))
 *(.onchip_flash_0_data .onchip_flash_0_data. onchip_flash_0_data.*)
                0x000000000f100000                . = ALIGN (0x4)
                0x000000000f100000                PROVIDE (_alt_partition_onchip_flash_0_data_end, ABSOLUTE (.))
                0x0000000000026160                PROVIDE (_alt_partition_onchip_flash_0_data_load_addr, LOADADDR (.onchip_flash_0_data))

.stab
 *(.stab)

.stabstr
 *(.stabstr)

.stab.excl
 *(.stab.excl)

.stab.exclstr
 *(.stab.exclstr)

.stab.index
 *(.stab.index)

.stab.indexstr
 *(.stab.indexstr)

.comment        0x0000000000000000       0x23
 *(.comment)
 .comment       0x0000000000000000       0x23 obj/default/ckplay_peridot.o
                                         0x24 (size before relaxing)
 .comment       0x0000000000000000       0x24 obj/default/mmcfs/fatfs/ff.o
 .comment       0x0000000000000000       0x24 obj/default/mmcfs/fatfs/mmcbb.o
 .comment       0x0000000000000000       0x24 obj/default/mmcfs/fatfs/option/cc932.o
 .comment       0x0000000000000000       0x24 obj/default/mmcfs/gettime.o
 .comment       0x0000000000000000       0x24 obj/default/mmcfs/mmc_spi.o
 .comment       0x0000000000000000       0x24 obj/default/mmcfs/mmcfs.o
 .comment       0x0000000000000000       0x24 obj/default/nd_lib/nd_acm.o
 .comment       0x0000000000000000       0x24 obj/default/nd_lib/nd_egl.o
 .comment       0x0000000000000000       0x24 c:/develop/altera/14.0/nios2eds/bin/gnu/h-x86_64-mingw32/bin/../lib/gcc/nios2-elf/4.7.3/mhw-mulx\libgcc.a(lib2-divmod.o)
 .comment       0x0000000000000000       0x24 c:/develop/altera/14.0/nios2eds/bin/gnu/h-x86_64-mingw32/bin/../lib/gcc/nios2-elf/4.7.3/../../../../../H-x86_64-mingw32/nios2-elf/lib/mhw-mulx\libc.a(lib_a-malloc.o)
 .comment       0x0000000000000000       0x24 c:/develop/altera/14.0/nios2eds/bin/gnu/h-x86_64-mingw32/bin/../lib/gcc/nios2-elf/4.7.3/../../../../../H-x86_64-mingw32/nios2-elf/lib/mhw-mulx\libc.a(lib_a-mallocr.o)
 .comment       0x0000000000000000       0x24 c:/develop/altera/14.0/nios2eds/bin/gnu/h-x86_64-mingw32/bin/../lib/gcc/nios2-elf/4.7.3/../../../../../H-x86_64-mingw32/nios2-elf/lib/mhw-mulx\libc.a(lib_a-memcpy.o)
 .comment       0x0000000000000000       0x24 c:/develop/altera/14.0/nios2eds/bin/gnu/h-x86_64-mingw32/bin/../lib/gcc/nios2-elf/4.7.3/../../../../../H-x86_64-mingw32/nios2-elf/lib/mhw-mulx\libc.a(lib_a-memset.o)
 .comment       0x0000000000000000       0x24 c:/develop/altera/14.0/nios2eds/bin/gnu/h-x86_64-mingw32/bin/../lib/gcc/nios2-elf/4.7.3/../../../../../H-x86_64-mingw32/nios2-elf/lib/mhw-mulx\libc.a(lib_a-printf.o)
 .comment       0x0000000000000000       0x24 c:/develop/altera/14.0/nios2eds/bin/gnu/h-x86_64-mingw32/bin/../lib/gcc/nios2-elf/4.7.3/../../../../../H-x86_64-mingw32/nios2-elf/lib/mhw-mulx\libc.a(lib_a-puts.o)
 .comment       0x0000000000000000       0x24 c:/develop/altera/14.0/nios2eds/bin/gnu/h-x86_64-mingw32/bin/../lib/gcc/nios2-elf/4.7.3/../../../../../H-x86_64-mingw32/nios2-elf/lib/mhw-mulx\libc.a(lib_a-sbrkr.o)
 .comment       0x0000000000000000       0x24 c:/develop/altera/14.0/nios2eds/bin/gnu/h-x86_64-mingw32/bin/../lib/gcc/nios2-elf/4.7.3/../../../../../H-x86_64-mingw32/nios2-elf/lib/mhw-mulx\libc.a(lib_a-strcpy.o)
 .comment       0x0000000000000000       0x24 c:/develop/altera/14.0/nios2eds/bin/gnu/h-x86_64-mingw32/bin/../lib/gcc/nios2-elf/4.7.3/../../../../../H-x86_64-mingw32/nios2-elf/lib/mhw-mulx\libc.a(lib_a-strlen.o)
 .comment       0x0000000000000000       0x24 c:/develop/altera/14.0/nios2eds/bin/gnu/h-x86_64-mingw32/bin/../lib/gcc/nios2-elf/4.7.3/../../../../../H-x86_64-mingw32/nios2-elf/lib/mhw-mulx\libc.a(lib_a-vfprintf.o)
 .comment       0x0000000000000000       0x24 c:/develop/altera/14.0/nios2eds/bin/gnu/h-x86_64-mingw32/bin/../lib/gcc/nios2-elf/4.7.3/../../../../../H-x86_64-mingw32/nios2-elf/lib/mhw-mulx\libc.a(lib_a-wsetup.o)
 .comment       0x0000000000000000       0x24 c:/develop/altera/14.0/nios2eds/bin/gnu/h-x86_64-mingw32/bin/../lib/gcc/nios2-elf/4.7.3/../../../../../H-x86_64-mingw32/nios2-elf/lib/mhw-mulx\libc.a(lib_a-dtoa.o)
 .comment       0x0000000000000000       0x24 c:/develop/altera/14.0/nios2eds/bin/gnu/h-x86_64-mingw32/bin/../lib/gcc/nios2-elf/4.7.3/../../../../../H-x86_64-mingw32/nios2-elf/lib/mhw-mulx\libc.a(lib_a-fflush.o)
 .comment       0x0000000000000000       0x24 c:/develop/altera/14.0/nios2eds/bin/gnu/h-x86_64-mingw32/bin/../lib/gcc/nios2-elf/4.7.3/../../../../../H-x86_64-mingw32/nios2-elf/lib/mhw-mulx\libc.a(lib_a-findfp.o)
 .comment       0x0000000000000000       0x24 c:/develop/altera/14.0/nios2eds/bin/gnu/h-x86_64-mingw32/bin/../lib/gcc/nios2-elf/4.7.3/../../../../../H-x86_64-mingw32/nios2-elf/lib/mhw-mulx\libc.a(lib_a-freer.o)
 .comment       0x0000000000000000       0x24 c:/develop/altera/14.0/nios2eds/bin/gnu/h-x86_64-mingw32/bin/../lib/gcc/nios2-elf/4.7.3/../../../../../H-x86_64-mingw32/nios2-elf/lib/mhw-mulx\libc.a(lib_a-fvwrite.o)
 .comment       0x0000000000000000       0x24 c:/develop/altera/14.0/nios2eds/bin/gnu/h-x86_64-mingw32/bin/../lib/gcc/nios2-elf/4.7.3/../../../../../H-x86_64-mingw32/nios2-elf/lib/mhw-mulx\libc.a(lib_a-fwalk.o)
 .comment       0x0000000000000000       0x24 c:/develop/altera/14.0/nios2eds/bin/gnu/h-x86_64-mingw32/bin/../lib/gcc/nios2-elf/4.7.3/../../../../../H-x86_64-mingw32/nios2-elf/lib/mhw-mulx\libc.a(lib_a-impure.o)
 .comment       0x0000000000000000       0x24 c:/develop/altera/14.0/nios2eds/bin/gnu/h-x86_64-mingw32/bin/../lib/gcc/nios2-elf/4.7.3/../../../../../H-x86_64-mingw32/nios2-elf/lib/mhw-mulx\libc.a(lib_a-int_errno.o)
 .comment       0x0000000000000000       0x24 c:/develop/altera/14.0/nios2eds/bin/gnu/h-x86_64-mingw32/bin/../lib/gcc/nios2-elf/4.7.3/../../../../../H-x86_64-mingw32/nios2-elf/lib/mhw-mulx\libc.a(lib_a-locale.o)
 .comment       0x0000000000000000       0x24 c:/develop/altera/14.0/nios2eds/bin/gnu/h-x86_64-mingw32/bin/../lib/gcc/nios2-elf/4.7.3/../../../../../H-x86_64-mingw32/nios2-elf/lib/mhw-mulx\libc.a(lib_a-makebuf.o)
 .comment       0x0000000000000000       0x24 c:/develop/altera/14.0/nios2eds/bin/gnu/h-x86_64-mingw32/bin/../lib/gcc/nios2-elf/4.7.3/../../../../../H-x86_64-mingw32/nios2-elf/lib/mhw-mulx\libc.a(lib_a-memchr.o)
 .comment       0x0000000000000000       0x24 c:/develop/altera/14.0/nios2eds/bin/gnu/h-x86_64-mingw32/bin/../lib/gcc/nios2-elf/4.7.3/../../../../../H-x86_64-mingw32/nios2-elf/lib/mhw-mulx\libc.a(lib_a-memmove.o)
 .comment       0x0000000000000000       0x24 c:/develop/altera/14.0/nios2eds/bin/gnu/h-x86_64-mingw32/bin/../lib/gcc/nios2-elf/4.7.3/../../../../../H-x86_64-mingw32/nios2-elf/lib/mhw-mulx\libc.a(lib_a-mprec.o)
 .comment       0x0000000000000000       0x24 c:/develop/altera/14.0/nios2eds/bin/gnu/h-x86_64-mingw32/bin/../lib/gcc/nios2-elf/4.7.3/../../../../../H-x86_64-mingw32/nios2-elf/lib/mhw-mulx\libc.a(lib_a-reallocr.o)
 .comment       0x0000000000000000       0x24 c:/develop/altera/14.0/nios2eds/bin/gnu/h-x86_64-mingw32/bin/../lib/gcc/nios2-elf/4.7.3/../../../../../H-x86_64-mingw32/nios2-elf/lib/mhw-mulx\libc.a(lib_a-s_isinfd.o)
 .comment       0x0000000000000000       0x24 c:/develop/altera/14.0/nios2eds/bin/gnu/h-x86_64-mingw32/bin/../lib/gcc/nios2-elf/4.7.3/../../../../../H-x86_64-mingw32/nios2-elf/lib/mhw-mulx\libc.a(lib_a-s_isnand.o)
 .comment       0x0000000000000000       0x24 c:/develop/altera/14.0/nios2eds/bin/gnu/h-x86_64-mingw32/bin/../lib/gcc/nios2-elf/4.7.3/../../../../../H-x86_64-mingw32/nios2-elf/lib/mhw-mulx\libc.a(lib_a-stdio.o)
 .comment       0x0000000000000000       0x24 c:/develop/altera/14.0/nios2eds/bin/gnu/h-x86_64-mingw32/bin/../lib/gcc/nios2-elf/4.7.3/../../../../../H-x86_64-mingw32/nios2-elf/lib/mhw-mulx\libc.a(lib_a-strcmp.o)
 .comment       0x0000000000000000       0x24 c:/develop/altera/14.0/nios2eds/bin/gnu/h-x86_64-mingw32/bin/../lib/gcc/nios2-elf/4.7.3/../../../../../H-x86_64-mingw32/nios2-elf/lib/mhw-mulx\libc.a(lib_a-writer.o)
 .comment       0x0000000000000000       0x24 c:/develop/altera/14.0/nios2eds/bin/gnu/h-x86_64-mingw32/bin/../lib/gcc/nios2-elf/4.7.3/../../../../../H-x86_64-mingw32/nios2-elf/lib/mhw-mulx\libc.a(lib_a-callocr.o)
 .comment       0x0000000000000000       0x24 c:/develop/altera/14.0/nios2eds/bin/gnu/h-x86_64-mingw32/bin/../lib/gcc/nios2-elf/4.7.3/../../../../../H-x86_64-mingw32/nios2-elf/lib/mhw-mulx\libc.a(lib_a-closer.o)
 .comment       0x0000000000000000       0x24 c:/develop/altera/14.0/nios2eds/bin/gnu/h-x86_64-mingw32/bin/../lib/gcc/nios2-elf/4.7.3/../../../../../H-x86_64-mingw32/nios2-elf/lib/mhw-mulx\libc.a(lib_a-fclose.o)
 .comment       0x0000000000000000       0x24 c:/develop/altera/14.0/nios2eds/bin/gnu/h-x86_64-mingw32/bin/../lib/gcc/nios2-elf/4.7.3/../../../../../H-x86_64-mingw32/nios2-elf/lib/mhw-mulx\libc.a(lib_a-fstatr.o)
 .comment       0x0000000000000000       0x24 c:/develop/altera/14.0/nios2eds/bin/gnu/h-x86_64-mingw32/bin/../lib/gcc/nios2-elf/4.7.3/../../../../../H-x86_64-mingw32/nios2-elf/lib/mhw-mulx\libc.a(lib_a-isattyr.o)
 .comment       0x0000000000000000       0x24 c:/develop/altera/14.0/nios2eds/bin/gnu/h-x86_64-mingw32/bin/../lib/gcc/nios2-elf/4.7.3/../../../../../H-x86_64-mingw32/nios2-elf/lib/mhw-mulx\libc.a(lib_a-lseekr.o)
 .comment       0x0000000000000000       0x24 c:/develop/altera/14.0/nios2eds/bin/gnu/h-x86_64-mingw32/bin/../lib/gcc/nios2-elf/4.7.3/../../../../../H-x86_64-mingw32/nios2-elf/lib/mhw-mulx\libc.a(lib_a-readr.o)
 .comment       0x0000000000000000       0x24 c:/develop/altera/14.0/nios2eds/bin/gnu/h-x86_64-mingw32/bin/../lib/gcc/nios2-elf/4.7.3/mhw-mulx\libgcc.a(_udivdi3.o)
 .comment       0x0000000000000000       0x24 c:/develop/altera/14.0/nios2eds/bin/gnu/h-x86_64-mingw32/bin/../lib/gcc/nios2-elf/4.7.3/mhw-mulx\libgcc.a(_umoddi3.o)
 .comment       0x0000000000000000       0x24 c:/develop/altera/14.0/nios2eds/bin/gnu/h-x86_64-mingw32/bin/../lib/gcc/nios2-elf/4.7.3/mhw-mulx\libgcc.a(_addsub_df.o)
 .comment       0x0000000000000000       0x24 c:/develop/altera/14.0/nios2eds/bin/gnu/h-x86_64-mingw32/bin/../lib/gcc/nios2-elf/4.7.3/mhw-mulx\libgcc.a(_mul_df.o)
 .comment       0x0000000000000000       0x24 c:/develop/altera/14.0/nios2eds/bin/gnu/h-x86_64-mingw32/bin/../lib/gcc/nios2-elf/4.7.3/mhw-mulx\libgcc.a(_div_df.o)
 .comment       0x0000000000000000       0x24 c:/develop/altera/14.0/nios2eds/bin/gnu/h-x86_64-mingw32/bin/../lib/gcc/nios2-elf/4.7.3/mhw-mulx\libgcc.a(_eq_df.o)
 .comment       0x0000000000000000       0x24 c:/develop/altera/14.0/nios2eds/bin/gnu/h-x86_64-mingw32/bin/../lib/gcc/nios2-elf/4.7.3/mhw-mulx\libgcc.a(_ne_df.o)
 .comment       0x0000000000000000       0x24 c:/develop/altera/14.0/nios2eds/bin/gnu/h-x86_64-mingw32/bin/../lib/gcc/nios2-elf/4.7.3/mhw-mulx\libgcc.a(_gt_df.o)
 .comment       0x0000000000000000       0x24 c:/develop/altera/14.0/nios2eds/bin/gnu/h-x86_64-mingw32/bin/../lib/gcc/nios2-elf/4.7.3/mhw-mulx\libgcc.a(_ge_df.o)
 .comment       0x0000000000000000       0x24 c:/develop/altera/14.0/nios2eds/bin/gnu/h-x86_64-mingw32/bin/../lib/gcc/nios2-elf/4.7.3/mhw-mulx\libgcc.a(_lt_df.o)
 .comment       0x0000000000000000       0x24 c:/develop/altera/14.0/nios2eds/bin/gnu/h-x86_64-mingw32/bin/../lib/gcc/nios2-elf/4.7.3/mhw-mulx\libgcc.a(_si_to_df.o)
 .comment       0x0000000000000000       0x24 c:/develop/altera/14.0/nios2eds/bin/gnu/h-x86_64-mingw32/bin/../lib/gcc/nios2-elf/4.7.3/mhw-mulx\libgcc.a(_df_to_si.o)
 .comment       0x0000000000000000       0x24 c:/develop/altera/14.0/nios2eds/bin/gnu/h-x86_64-mingw32/bin/../lib/gcc/nios2-elf/4.7.3/mhw-mulx\libgcc.a(_thenan_df.o)
 .comment       0x0000000000000000       0x24 c:/develop/altera/14.0/nios2eds/bin/gnu/h-x86_64-mingw32/bin/../lib/gcc/nios2-elf/4.7.3/mhw-mulx\libgcc.a(_usi_to_df.o)
 .comment       0x0000000000000000       0x24 c:/develop/altera/14.0/nios2eds/bin/gnu/h-x86_64-mingw32/bin/../lib/gcc/nios2-elf/4.7.3/mhw-mulx\libgcc.a(_clz.o)
 .comment       0x0000000000000000       0x24 c:/develop/altera/14.0/nios2eds/bin/gnu/h-x86_64-mingw32/bin/../lib/gcc/nios2-elf/4.7.3/mhw-mulx\libgcc.a(_clzsi2.o)
 .comment       0x0000000000000000       0x24 c:/develop/altera/14.0/nios2eds/bin/gnu/h-x86_64-mingw32/bin/../lib/gcc/nios2-elf/4.7.3/mhw-mulx\libgcc.a(_pack_df.o)
 .comment       0x0000000000000000       0x24 c:/develop/altera/14.0/nios2eds/bin/gnu/h-x86_64-mingw32/bin/../lib/gcc/nios2-elf/4.7.3/mhw-mulx\libgcc.a(_unpack_df.o)
 .comment       0x0000000000000000       0x24 c:/develop/altera/14.0/nios2eds/bin/gnu/h-x86_64-mingw32/bin/../lib/gcc/nios2-elf/4.7.3/mhw-mulx\libgcc.a(_fpcmp_parts_df.o)
 .comment       0x0000000000000000       0x24 c:/develop/altera/14.0/nios2eds/bin/gnu/h-x86_64-mingw32/bin/../lib/gcc/nios2-elf/4.7.3/mhw-mulx\libgcc.a(_lshrdi3.o)
 .comment       0x0000000000000000       0x24 c:/develop/altera/14.0/nios2eds/bin/gnu/h-x86_64-mingw32/bin/../lib/gcc/nios2-elf/4.7.3/mhw-mulx\libgcc.a(_ashldi3.o)
 .comment       0x0000000000000000       0x24 ../sodalite_ckplay_bsp/\libhal_bsp.a(alt_close.o)
 .comment       0x0000000000000000       0x24 ../sodalite_ckplay_bsp/\libhal_bsp.a(alt_dcache_flush.o)
 .comment       0x0000000000000000       0x24 ../sodalite_ckplay_bsp/\libhal_bsp.a(alt_dev.o)
 .comment       0x0000000000000000       0x24 ../sodalite_ckplay_bsp/\libhal_bsp.a(alt_errno.o)
 .comment       0x0000000000000000       0x24 ../sodalite_ckplay_bsp/\libhal_bsp.a(alt_fs_reg.o)
 .comment       0x0000000000000000       0x24 ../sodalite_ckplay_bsp/\libhal_bsp.a(alt_fstat.o)
 .comment       0x0000000000000000       0x24 ../sodalite_ckplay_bsp/\libhal_bsp.a(alt_isatty.o)
 .comment       0x0000000000000000       0x24 ../sodalite_ckplay_bsp/\libhal_bsp.a(alt_load.o)
 .comment       0x0000000000000000       0x24 ../sodalite_ckplay_bsp/\libhal_bsp.a(alt_lseek.o)
 .comment       0x0000000000000000       0x24 ../sodalite_ckplay_bsp/\libhal_bsp.a(alt_main.o)
 .comment       0x0000000000000000       0x24 ../sodalite_ckplay_bsp/\libhal_bsp.a(alt_malloc_lock.o)
 .comment       0x0000000000000000       0x24 ../sodalite_ckplay_bsp/\libhal_bsp.a(alt_read.o)
 .comment       0x0000000000000000       0x24 ../sodalite_ckplay_bsp/\libhal_bsp.a(alt_release_fd.o)
 .comment       0x0000000000000000       0x24 ../sodalite_ckplay_bsp/\libhal_bsp.a(alt_sbrk.o)
 .comment       0x0000000000000000       0x24 ../sodalite_ckplay_bsp/\libhal_bsp.a(alt_uncached_free.o)
 .comment       0x0000000000000000       0x24 ../sodalite_ckplay_bsp/\libhal_bsp.a(alt_uncached_malloc.o)
 .comment       0x0000000000000000       0x24 ../sodalite_ckplay_bsp/\libhal_bsp.a(alt_write.o)
 .comment       0x0000000000000000       0x24 ../sodalite_ckplay_bsp/\libhal_bsp.a(alt_sys_init.o)
 .comment       0x0000000000000000       0x24 ../sodalite_ckplay_bsp/\libhal_bsp.a(altera_avalon_jtag_uart_fd.o)
 .comment       0x0000000000000000       0x24 ../sodalite_ckplay_bsp/\libhal_bsp.a(altera_avalon_jtag_uart_init.o)
 .comment       0x0000000000000000       0x24 ../sodalite_ckplay_bsp/\libhal_bsp.a(altera_avalon_jtag_uart_ioctl.o)
 .comment       0x0000000000000000       0x24 ../sodalite_ckplay_bsp/\libhal_bsp.a(altera_avalon_jtag_uart_read.o)
 .comment       0x0000000000000000       0x24 ../sodalite_ckplay_bsp/\libhal_bsp.a(altera_avalon_jtag_uart_write.o)
 .comment       0x0000000000000000       0x24 ../sodalite_ckplay_bsp/\libhal_bsp.a(altera_avalon_timer_sc.o)
 .comment       0x0000000000000000       0x24 ../sodalite_ckplay_bsp/\libhal_bsp.a(altera_modular_adc.o)
 .comment       0x0000000000000000       0x24 ../sodalite_ckplay_bsp/\libhal_bsp.a(altera_onchip_flash.o)
 .comment       0x0000000000000000       0x24 ../sodalite_ckplay_bsp/\libhal_bsp.a(alt_alarm_start.o)
 .comment       0x0000000000000000       0x24 ../sodalite_ckplay_bsp/\libhal_bsp.a(alt_dcache_flush_all.o)
 .comment       0x0000000000000000       0x24 ../sodalite_ckplay_bsp/\libhal_bsp.a(alt_dev_llist_insert.o)
 .comment       0x0000000000000000       0x24 ../sodalite_ckplay_bsp/\libhal_bsp.a(alt_do_ctors.o)
 .comment       0x0000000000000000       0x24 ../sodalite_ckplay_bsp/\libhal_bsp.a(alt_do_dtors.o)
 .comment       0x0000000000000000       0x24 ../sodalite_ckplay_bsp/\libhal_bsp.a(alt_find_dev.o)
 .comment       0x0000000000000000       0x24 ../sodalite_ckplay_bsp/\libhal_bsp.a(alt_flash_dev.o)
 .comment       0x0000000000000000       0x24 ../sodalite_ckplay_bsp/\libhal_bsp.a(alt_icache_flush_all.o)
 .comment       0x0000000000000000       0x24 ../sodalite_ckplay_bsp/\libhal_bsp.a(alt_iic.o)
 .comment       0x0000000000000000       0x24 ../sodalite_ckplay_bsp/\libhal_bsp.a(alt_iic_isr_register.o)
 .comment       0x0000000000000000       0x24 ../sodalite_ckplay_bsp/\libhal_bsp.a(alt_io_redirect.o)
 .comment       0x0000000000000000       0x24 ../sodalite_ckplay_bsp/\libhal_bsp.a(alt_irq_handler.o)
 .comment       0x0000000000000000       0x24 ../sodalite_ckplay_bsp/\libhal_bsp.a(alt_irq_vars.o)
 .comment       0x0000000000000000       0x24 ../sodalite_ckplay_bsp/\libhal_bsp.a(alt_open.o)
 .comment       0x0000000000000000       0x24 ../sodalite_ckplay_bsp/\libhal_bsp.a(alt_tick.o)
 .comment       0x0000000000000000       0x24 ../sodalite_ckplay_bsp/\libhal_bsp.a(altera_nios2_gen2_irq.o)
 .comment       0x0000000000000000       0x24 ../sodalite_ckplay_bsp/\libhal_bsp.a(alt_find_file.o)
 .comment       0x0000000000000000       0x24 ../sodalite_ckplay_bsp/\libhal_bsp.a(alt_get_fd.o)
 .comment       0x0000000000000000       0x24 ../sodalite_ckplay_bsp/\libhal_bsp.a(alt_icache_flush.o)
 .comment       0x0000000000000000       0x24 ../sodalite_ckplay_bsp/\libhal_bsp.a(alt_instruction_exception_entry.o)
 .comment       0x0000000000000000       0x24 c:/develop/altera/14.0/nios2eds/bin/gnu/h-x86_64-mingw32/bin/../lib/gcc/nios2-elf/4.7.3/../../../../../H-x86_64-mingw32/nios2-elf/lib/mhw-mulx\libc.a(lib_a-atexit.o)
 .comment       0x0000000000000000       0x24 c:/develop/altera/14.0/nios2eds/bin/gnu/h-x86_64-mingw32/bin/../lib/gcc/nios2-elf/4.7.3/../../../../../H-x86_64-mingw32/nios2-elf/lib/mhw-mulx\libc.a(lib_a-exit.o)
 .comment       0x0000000000000000       0x24 c:/develop/altera/14.0/nios2eds/bin/gnu/h-x86_64-mingw32/bin/../lib/gcc/nios2-elf/4.7.3/../../../../../H-x86_64-mingw32/nios2-elf/lib/mhw-mulx\libc.a(lib_a-malign.o)
 .comment       0x0000000000000000       0x24 c:/develop/altera/14.0/nios2eds/bin/gnu/h-x86_64-mingw32/bin/../lib/gcc/nios2-elf/4.7.3/../../../../../H-x86_64-mingw32/nios2-elf/lib/mhw-mulx\libc.a(lib_a-malignr.o)
 .comment       0x0000000000000000       0x24 c:/develop/altera/14.0/nios2eds/bin/gnu/h-x86_64-mingw32/bin/../lib/gcc/nios2-elf/4.7.3/../../../../../H-x86_64-mingw32/nios2-elf/lib/mhw-mulx\libc.a(lib_a-memcmp.o)
 .comment       0x0000000000000000       0x24 c:/develop/altera/14.0/nios2eds/bin/gnu/h-x86_64-mingw32/bin/../lib/gcc/nios2-elf/4.7.3/../../../../../H-x86_64-mingw32/nios2-elf/lib/mhw-mulx\libc.a(lib_a-__atexit.o)
 .comment       0x0000000000000000       0x24 c:/develop/altera/14.0/nios2eds/bin/gnu/h-x86_64-mingw32/bin/../lib/gcc/nios2-elf/4.7.3/../../../../../H-x86_64-mingw32/nios2-elf/lib/mhw-mulx\libc.a(lib_a-__call_atexit.o)
 .comment       0x0000000000000000       0x24 ../sodalite_ckplay_bsp/\libhal_bsp.a(alt_exit.o)

.debug
 *(.debug)

.line
 *(.line)

.debug_srcinfo
 *(.debug_srcinfo)

.debug_sfnames
 *(.debug_sfnames)

.debug_aranges  0x0000000000000000      0xfd0
 *(.debug_aranges)
 .debug_aranges
                0x0000000000000000       0x28 ../sodalite_ckplay_bsp//obj/HAL/src/crt0.o
 .debug_aranges
                0x0000000000000028       0x28 obj/default/ckplay_peridot.o
 .debug_aranges
                0x0000000000000050       0x20 obj/default/mmcfs/fatfs/ff.o
 .debug_aranges
                0x0000000000000070       0x20 obj/default/mmcfs/fatfs/mmcbb.o
 .debug_aranges
                0x0000000000000090       0x20 obj/default/mmcfs/fatfs/option/cc932.o
 .debug_aranges
                0x00000000000000b0       0x20 obj/default/mmcfs/gettime.o
 .debug_aranges
                0x00000000000000d0       0x20 obj/default/mmcfs/mmc_spi.o
 .debug_aranges
                0x00000000000000f0       0x20 obj/default/mmcfs/mmcfs.o
 .debug_aranges
                0x0000000000000110       0x20 obj/default/nd_lib/nd_acm.o
 .debug_aranges
                0x0000000000000130       0x20 obj/default/nd_lib/nd_egl.o
 .debug_aranges
                0x0000000000000150       0x20 obj/default/nd_lib/nd_acm_mcudecode.o
 .debug_aranges
                0x0000000000000170       0x20 c:/develop/altera/14.0/nios2eds/bin/gnu/h-x86_64-mingw32/bin/../lib/gcc/nios2-elf/4.7.3/mhw-mulx\libgcc.a(lib2-divmod.o)
 .debug_aranges
                0x0000000000000190       0x20 c:/develop/altera/14.0/nios2eds/bin/gnu/h-x86_64-mingw32/bin/../lib/gcc/nios2-elf/4.7.3/../../../../../H-x86_64-mingw32/nios2-elf/lib/mhw-mulx\libc.a(lib_a-malloc.o)
 .debug_aranges
                0x00000000000001b0       0x20 c:/develop/altera/14.0/nios2eds/bin/gnu/h-x86_64-mingw32/bin/../lib/gcc/nios2-elf/4.7.3/../../../../../H-x86_64-mingw32/nios2-elf/lib/mhw-mulx\libc.a(lib_a-mallocr.o)
 .debug_aranges
                0x00000000000001d0       0x20 c:/develop/altera/14.0/nios2eds/bin/gnu/h-x86_64-mingw32/bin/../lib/gcc/nios2-elf/4.7.3/../../../../../H-x86_64-mingw32/nios2-elf/lib/mhw-mulx\libc.a(lib_a-memcpy.o)
 .debug_aranges
                0x00000000000001f0       0x20 c:/develop/altera/14.0/nios2eds/bin/gnu/h-x86_64-mingw32/bin/../lib/gcc/nios2-elf/4.7.3/../../../../../H-x86_64-mingw32/nios2-elf/lib/mhw-mulx\libc.a(lib_a-memset.o)
 .debug_aranges
                0x0000000000000210       0x20 c:/develop/altera/14.0/nios2eds/bin/gnu/h-x86_64-mingw32/bin/../lib/gcc/nios2-elf/4.7.3/../../../../../H-x86_64-mingw32/nios2-elf/lib/mhw-mulx\libc.a(lib_a-printf.o)
 .debug_aranges
                0x0000000000000230       0x20 c:/develop/altera/14.0/nios2eds/bin/gnu/h-x86_64-mingw32/bin/../lib/gcc/nios2-elf/4.7.3/../../../../../H-x86_64-mingw32/nios2-elf/lib/mhw-mulx\libc.a(lib_a-puts.o)
 .debug_aranges
                0x0000000000000250       0x20 c:/develop/altera/14.0/nios2eds/bin/gnu/h-x86_64-mingw32/bin/../lib/gcc/nios2-elf/4.7.3/../../../../../H-x86_64-mingw32/nios2-elf/lib/mhw-mulx\libc.a(lib_a-sbrkr.o)
 .debug_aranges
                0x0000000000000270       0x20 c:/develop/altera/14.0/nios2eds/bin/gnu/h-x86_64-mingw32/bin/../lib/gcc/nios2-elf/4.7.3/../../../../../H-x86_64-mingw32/nios2-elf/lib/mhw-mulx\libc.a(lib_a-strcpy.o)
 .debug_aranges
                0x0000000000000290       0x20 c:/develop/altera/14.0/nios2eds/bin/gnu/h-x86_64-mingw32/bin/../lib/gcc/nios2-elf/4.7.3/../../../../../H-x86_64-mingw32/nios2-elf/lib/mhw-mulx\libc.a(lib_a-strlen.o)
 .debug_aranges
                0x00000000000002b0       0x20 c:/develop/altera/14.0/nios2eds/bin/gnu/h-x86_64-mingw32/bin/../lib/gcc/nios2-elf/4.7.3/../../../../../H-x86_64-mingw32/nios2-elf/lib/mhw-mulx\libc.a(lib_a-vfprintf.o)
 .debug_aranges
                0x00000000000002d0       0x20 c:/develop/altera/14.0/nios2eds/bin/gnu/h-x86_64-mingw32/bin/../lib/gcc/nios2-elf/4.7.3/../../../../../H-x86_64-mingw32/nios2-elf/lib/mhw-mulx\libc.a(lib_a-wsetup.o)
 .debug_aranges
                0x00000000000002f0       0x20 c:/develop/altera/14.0/nios2eds/bin/gnu/h-x86_64-mingw32/bin/../lib/gcc/nios2-elf/4.7.3/../../../../../H-x86_64-mingw32/nios2-elf/lib/mhw-mulx\libc.a(lib_a-dtoa.o)
 .debug_aranges
                0x0000000000000310       0x20 c:/develop/altera/14.0/nios2eds/bin/gnu/h-x86_64-mingw32/bin/../lib/gcc/nios2-elf/4.7.3/../../../../../H-x86_64-mingw32/nios2-elf/lib/mhw-mulx\libc.a(lib_a-fflush.o)
 .debug_aranges
                0x0000000000000330       0x20 c:/develop/altera/14.0/nios2eds/bin/gnu/h-x86_64-mingw32/bin/../lib/gcc/nios2-elf/4.7.3/../../../../../H-x86_64-mingw32/nios2-elf/lib/mhw-mulx\libc.a(lib_a-findfp.o)
 .debug_aranges
                0x0000000000000350       0x20 c:/develop/altera/14.0/nios2eds/bin/gnu/h-x86_64-mingw32/bin/../lib/gcc/nios2-elf/4.7.3/../../../../../H-x86_64-mingw32/nios2-elf/lib/mhw-mulx\libc.a(lib_a-freer.o)
 .debug_aranges
                0x0000000000000370       0x20 c:/develop/altera/14.0/nios2eds/bin/gnu/h-x86_64-mingw32/bin/../lib/gcc/nios2-elf/4.7.3/../../../../../H-x86_64-mingw32/nios2-elf/lib/mhw-mulx\libc.a(lib_a-fvwrite.o)
 .debug_aranges
                0x0000000000000390       0x20 c:/develop/altera/14.0/nios2eds/bin/gnu/h-x86_64-mingw32/bin/../lib/gcc/nios2-elf/4.7.3/../../../../../H-x86_64-mingw32/nios2-elf/lib/mhw-mulx\libc.a(lib_a-fwalk.o)
 .debug_aranges
                0x00000000000003b0       0x18 c:/develop/altera/14.0/nios2eds/bin/gnu/h-x86_64-mingw32/bin/../lib/gcc/nios2-elf/4.7.3/../../../../../H-x86_64-mingw32/nios2-elf/lib/mhw-mulx\libc.a(lib_a-impure.o)
 .debug_aranges
                0x00000000000003c8       0x18 c:/develop/altera/14.0/nios2eds/bin/gnu/h-x86_64-mingw32/bin/../lib/gcc/nios2-elf/4.7.3/../../../../../H-x86_64-mingw32/nios2-elf/lib/mhw-mulx\libc.a(lib_a-int_errno.o)
 .debug_aranges
                0x00000000000003e0       0x20 c:/develop/altera/14.0/nios2eds/bin/gnu/h-x86_64-mingw32/bin/../lib/gcc/nios2-elf/4.7.3/../../../../../H-x86_64-mingw32/nios2-elf/lib/mhw-mulx\libc.a(lib_a-locale.o)
 .debug_aranges
                0x0000000000000400       0x20 c:/develop/altera/14.0/nios2eds/bin/gnu/h-x86_64-mingw32/bin/../lib/gcc/nios2-elf/4.7.3/../../../../../H-x86_64-mingw32/nios2-elf/lib/mhw-mulx\libc.a(lib_a-makebuf.o)
 .debug_aranges
                0x0000000000000420       0x20 c:/develop/altera/14.0/nios2eds/bin/gnu/h-x86_64-mingw32/bin/../lib/gcc/nios2-elf/4.7.3/../../../../../H-x86_64-mingw32/nios2-elf/lib/mhw-mulx\libc.a(lib_a-memchr.o)
 .debug_aranges
                0x0000000000000440       0x20 c:/develop/altera/14.0/nios2eds/bin/gnu/h-x86_64-mingw32/bin/../lib/gcc/nios2-elf/4.7.3/../../../../../H-x86_64-mingw32/nios2-elf/lib/mhw-mulx\libc.a(lib_a-memmove.o)
 .debug_aranges
                0x0000000000000460       0x20 c:/develop/altera/14.0/nios2eds/bin/gnu/h-x86_64-mingw32/bin/../lib/gcc/nios2-elf/4.7.3/../../../../../H-x86_64-mingw32/nios2-elf/lib/mhw-mulx\libc.a(lib_a-mprec.o)
 .debug_aranges
                0x0000000000000480       0x20 c:/develop/altera/14.0/nios2eds/bin/gnu/h-x86_64-mingw32/bin/../lib/gcc/nios2-elf/4.7.3/../../../../../H-x86_64-mingw32/nios2-elf/lib/mhw-mulx\libc.a(lib_a-reallocr.o)
 .debug_aranges
                0x00000000000004a0       0x20 c:/develop/altera/14.0/nios2eds/bin/gnu/h-x86_64-mingw32/bin/../lib/gcc/nios2-elf/4.7.3/../../../../../H-x86_64-mingw32/nios2-elf/lib/mhw-mulx\libc.a(lib_a-s_isinfd.o)
 .debug_aranges
                0x00000000000004c0       0x20 c:/develop/altera/14.0/nios2eds/bin/gnu/h-x86_64-mingw32/bin/../lib/gcc/nios2-elf/4.7.3/../../../../../H-x86_64-mingw32/nios2-elf/lib/mhw-mulx\libc.a(lib_a-s_isnand.o)
 .debug_aranges
                0x00000000000004e0       0x20 c:/develop/altera/14.0/nios2eds/bin/gnu/h-x86_64-mingw32/bin/../lib/gcc/nios2-elf/4.7.3/../../../../../H-x86_64-mingw32/nios2-elf/lib/mhw-mulx\libc.a(lib_a-stdio.o)
 .debug_aranges
                0x0000000000000500       0x20 c:/develop/altera/14.0/nios2eds/bin/gnu/h-x86_64-mingw32/bin/../lib/gcc/nios2-elf/4.7.3/../../../../../H-x86_64-mingw32/nios2-elf/lib/mhw-mulx\libc.a(lib_a-strcmp.o)
 .debug_aranges
                0x0000000000000520       0x20 c:/develop/altera/14.0/nios2eds/bin/gnu/h-x86_64-mingw32/bin/../lib/gcc/nios2-elf/4.7.3/../../../../../H-x86_64-mingw32/nios2-elf/lib/mhw-mulx\libc.a(lib_a-writer.o)
 .debug_aranges
                0x0000000000000540       0x20 c:/develop/altera/14.0/nios2eds/bin/gnu/h-x86_64-mingw32/bin/../lib/gcc/nios2-elf/4.7.3/../../../../../H-x86_64-mingw32/nios2-elf/lib/mhw-mulx\libc.a(lib_a-callocr.o)
 .debug_aranges
                0x0000000000000560       0x20 c:/develop/altera/14.0/nios2eds/bin/gnu/h-x86_64-mingw32/bin/../lib/gcc/nios2-elf/4.7.3/../../../../../H-x86_64-mingw32/nios2-elf/lib/mhw-mulx\libc.a(lib_a-closer.o)
 .debug_aranges
                0x0000000000000580       0x20 c:/develop/altera/14.0/nios2eds/bin/gnu/h-x86_64-mingw32/bin/../lib/gcc/nios2-elf/4.7.3/../../../../../H-x86_64-mingw32/nios2-elf/lib/mhw-mulx\libc.a(lib_a-fclose.o)
 .debug_aranges
                0x00000000000005a0       0x20 c:/develop/altera/14.0/nios2eds/bin/gnu/h-x86_64-mingw32/bin/../lib/gcc/nios2-elf/4.7.3/../../../../../H-x86_64-mingw32/nios2-elf/lib/mhw-mulx\libc.a(lib_a-fstatr.o)
 .debug_aranges
                0x00000000000005c0       0x20 c:/develop/altera/14.0/nios2eds/bin/gnu/h-x86_64-mingw32/bin/../lib/gcc/nios2-elf/4.7.3/../../../../../H-x86_64-mingw32/nios2-elf/lib/mhw-mulx\libc.a(lib_a-isattyr.o)
 .debug_aranges
                0x00000000000005e0       0x20 c:/develop/altera/14.0/nios2eds/bin/gnu/h-x86_64-mingw32/bin/../lib/gcc/nios2-elf/4.7.3/../../../../../H-x86_64-mingw32/nios2-elf/lib/mhw-mulx\libc.a(lib_a-lseekr.o)
 .debug_aranges
                0x0000000000000600       0x20 c:/develop/altera/14.0/nios2eds/bin/gnu/h-x86_64-mingw32/bin/../lib/gcc/nios2-elf/4.7.3/../../../../../H-x86_64-mingw32/nios2-elf/lib/mhw-mulx\libc.a(lib_a-readr.o)
 .debug_aranges
                0x0000000000000620       0x20 c:/develop/altera/14.0/nios2eds/bin/gnu/h-x86_64-mingw32/bin/../lib/gcc/nios2-elf/4.7.3/mhw-mulx\libgcc.a(_udivdi3.o)
 .debug_aranges
                0x0000000000000640       0x20 c:/develop/altera/14.0/nios2eds/bin/gnu/h-x86_64-mingw32/bin/../lib/gcc/nios2-elf/4.7.3/mhw-mulx\libgcc.a(_umoddi3.o)
 .debug_aranges
                0x0000000000000660       0x20 c:/develop/altera/14.0/nios2eds/bin/gnu/h-x86_64-mingw32/bin/../lib/gcc/nios2-elf/4.7.3/mhw-mulx\libgcc.a(_addsub_df.o)
 .debug_aranges
                0x0000000000000680       0x20 c:/develop/altera/14.0/nios2eds/bin/gnu/h-x86_64-mingw32/bin/../lib/gcc/nios2-elf/4.7.3/mhw-mulx\libgcc.a(_mul_df.o)
 .debug_aranges
                0x00000000000006a0       0x20 c:/develop/altera/14.0/nios2eds/bin/gnu/h-x86_64-mingw32/bin/../lib/gcc/nios2-elf/4.7.3/mhw-mulx\libgcc.a(_div_df.o)
 .debug_aranges
                0x00000000000006c0       0x20 c:/develop/altera/14.0/nios2eds/bin/gnu/h-x86_64-mingw32/bin/../lib/gcc/nios2-elf/4.7.3/mhw-mulx\libgcc.a(_eq_df.o)
 .debug_aranges
                0x00000000000006e0       0x20 c:/develop/altera/14.0/nios2eds/bin/gnu/h-x86_64-mingw32/bin/../lib/gcc/nios2-elf/4.7.3/mhw-mulx\libgcc.a(_ne_df.o)
 .debug_aranges
                0x0000000000000700       0x20 c:/develop/altera/14.0/nios2eds/bin/gnu/h-x86_64-mingw32/bin/../lib/gcc/nios2-elf/4.7.3/mhw-mulx\libgcc.a(_gt_df.o)
 .debug_aranges
                0x0000000000000720       0x20 c:/develop/altera/14.0/nios2eds/bin/gnu/h-x86_64-mingw32/bin/../lib/gcc/nios2-elf/4.7.3/mhw-mulx\libgcc.a(_ge_df.o)
 .debug_aranges
                0x0000000000000740       0x20 c:/develop/altera/14.0/nios2eds/bin/gnu/h-x86_64-mingw32/bin/../lib/gcc/nios2-elf/4.7.3/mhw-mulx\libgcc.a(_lt_df.o)
 .debug_aranges
                0x0000000000000760       0x20 c:/develop/altera/14.0/nios2eds/bin/gnu/h-x86_64-mingw32/bin/../lib/gcc/nios2-elf/4.7.3/mhw-mulx\libgcc.a(_si_to_df.o)
 .debug_aranges
                0x0000000000000780       0x20 c:/develop/altera/14.0/nios2eds/bin/gnu/h-x86_64-mingw32/bin/../lib/gcc/nios2-elf/4.7.3/mhw-mulx\libgcc.a(_df_to_si.o)
 .debug_aranges
                0x00000000000007a0       0x18 c:/develop/altera/14.0/nios2eds/bin/gnu/h-x86_64-mingw32/bin/../lib/gcc/nios2-elf/4.7.3/mhw-mulx\libgcc.a(_thenan_df.o)
 .debug_aranges
                0x00000000000007b8       0x20 c:/develop/altera/14.0/nios2eds/bin/gnu/h-x86_64-mingw32/bin/../lib/gcc/nios2-elf/4.7.3/mhw-mulx\libgcc.a(_usi_to_df.o)
 .debug_aranges
                0x00000000000007d8       0x18 c:/develop/altera/14.0/nios2eds/bin/gnu/h-x86_64-mingw32/bin/../lib/gcc/nios2-elf/4.7.3/mhw-mulx\libgcc.a(_clz.o)
 .debug_aranges
                0x00000000000007f0       0x20 c:/develop/altera/14.0/nios2eds/bin/gnu/h-x86_64-mingw32/bin/../lib/gcc/nios2-elf/4.7.3/mhw-mulx\libgcc.a(_clzsi2.o)
 .debug_aranges
                0x0000000000000810       0x20 c:/develop/altera/14.0/nios2eds/bin/gnu/h-x86_64-mingw32/bin/../lib/gcc/nios2-elf/4.7.3/mhw-mulx\libgcc.a(_pack_df.o)
 .debug_aranges
                0x0000000000000830       0x20 c:/develop/altera/14.0/nios2eds/bin/gnu/h-x86_64-mingw32/bin/../lib/gcc/nios2-elf/4.7.3/mhw-mulx\libgcc.a(_unpack_df.o)
 .debug_aranges
                0x0000000000000850       0x20 c:/develop/altera/14.0/nios2eds/bin/gnu/h-x86_64-mingw32/bin/../lib/gcc/nios2-elf/4.7.3/mhw-mulx\libgcc.a(_fpcmp_parts_df.o)
 .debug_aranges
                0x0000000000000870       0x20 c:/develop/altera/14.0/nios2eds/bin/gnu/h-x86_64-mingw32/bin/../lib/gcc/nios2-elf/4.7.3/mhw-mulx\libgcc.a(_lshrdi3.o)
 .debug_aranges
                0x0000000000000890       0x20 c:/develop/altera/14.0/nios2eds/bin/gnu/h-x86_64-mingw32/bin/../lib/gcc/nios2-elf/4.7.3/mhw-mulx\libgcc.a(_ashldi3.o)
 .debug_aranges
                0x00000000000008b0       0x20 ../sodalite_ckplay_bsp/\libhal_bsp.a(alt_close.o)
 .debug_aranges
                0x00000000000008d0       0x20 ../sodalite_ckplay_bsp/\libhal_bsp.a(alt_dcache_flush.o)
 .debug_aranges
                0x00000000000008f0       0x20 ../sodalite_ckplay_bsp/\libhal_bsp.a(alt_dev.o)
 .debug_aranges
                0x0000000000000910       0x18 ../sodalite_ckplay_bsp/\libhal_bsp.a(alt_errno.o)
 .debug_aranges
                0x0000000000000928       0x20 ../sodalite_ckplay_bsp/\libhal_bsp.a(alt_fs_reg.o)
 .debug_aranges
                0x0000000000000948       0x20 ../sodalite_ckplay_bsp/\libhal_bsp.a(alt_fstat.o)
 .debug_aranges
                0x0000000000000968       0x20 ../sodalite_ckplay_bsp/\libhal_bsp.a(alt_isatty.o)
 .debug_aranges
                0x0000000000000988       0x20 ../sodalite_ckplay_bsp/\libhal_bsp.a(alt_load.o)
 .debug_aranges
                0x00000000000009a8       0x20 ../sodalite_ckplay_bsp/\libhal_bsp.a(alt_lseek.o)
 .debug_aranges
                0x00000000000009c8       0x20 ../sodalite_ckplay_bsp/\libhal_bsp.a(alt_main.o)
 .debug_aranges
                0x00000000000009e8       0x20 ../sodalite_ckplay_bsp/\libhal_bsp.a(alt_malloc_lock.o)
 .debug_aranges
                0x0000000000000a08       0x20 ../sodalite_ckplay_bsp/\libhal_bsp.a(alt_read.o)
 .debug_aranges
                0x0000000000000a28       0x20 ../sodalite_ckplay_bsp/\libhal_bsp.a(alt_release_fd.o)
 .debug_aranges
                0x0000000000000a48       0x20 ../sodalite_ckplay_bsp/\libhal_bsp.a(alt_sbrk.o)
 .debug_aranges
                0x0000000000000a68       0x20 ../sodalite_ckplay_bsp/\libhal_bsp.a(alt_uncached_free.o)
 .debug_aranges
                0x0000000000000a88       0x20 ../sodalite_ckplay_bsp/\libhal_bsp.a(alt_uncached_malloc.o)
 .debug_aranges
                0x0000000000000aa8       0x20 ../sodalite_ckplay_bsp/\libhal_bsp.a(alt_write.o)
 .debug_aranges
                0x0000000000000ac8       0x20 ../sodalite_ckplay_bsp/\libhal_bsp.a(alt_sys_init.o)
 .debug_aranges
                0x0000000000000ae8       0x20 ../sodalite_ckplay_bsp/\libhal_bsp.a(altera_avalon_jtag_uart_fd.o)
 .debug_aranges
                0x0000000000000b08       0x20 ../sodalite_ckplay_bsp/\libhal_bsp.a(altera_avalon_jtag_uart_init.o)
 .debug_aranges
                0x0000000000000b28       0x20 ../sodalite_ckplay_bsp/\libhal_bsp.a(altera_avalon_jtag_uart_ioctl.o)
 .debug_aranges
                0x0000000000000b48       0x20 ../sodalite_ckplay_bsp/\libhal_bsp.a(altera_avalon_jtag_uart_read.o)
 .debug_aranges
                0x0000000000000b68       0x20 ../sodalite_ckplay_bsp/\libhal_bsp.a(altera_avalon_jtag_uart_write.o)
 .debug_aranges
                0x0000000000000b88       0x20 ../sodalite_ckplay_bsp/\libhal_bsp.a(altera_avalon_timer_sc.o)
 .debug_aranges
                0x0000000000000ba8       0x20 ../sodalite_ckplay_bsp/\libhal_bsp.a(altera_modular_adc.o)
 .debug_aranges
                0x0000000000000bc8       0x20 ../sodalite_ckplay_bsp/\libhal_bsp.a(altera_onchip_flash.o)
 .debug_aranges
                0x0000000000000be8       0x20 ../sodalite_ckplay_bsp/\libhal_bsp.a(alt_alarm_start.o)
 .debug_aranges
                0x0000000000000c08       0x20 ../sodalite_ckplay_bsp/\libhal_bsp.a(alt_dcache_flush_all.o)
 .debug_aranges
                0x0000000000000c28       0x20 ../sodalite_ckplay_bsp/\libhal_bsp.a(alt_dev_llist_insert.o)
 .debug_aranges
                0x0000000000000c48       0x20 ../sodalite_ckplay_bsp/\libhal_bsp.a(alt_do_ctors.o)
 .debug_aranges
                0x0000000000000c68       0x20 ../sodalite_ckplay_bsp/\libhal_bsp.a(alt_do_dtors.o)
 .debug_aranges
                0x0000000000000c88       0x20 ../sodalite_ckplay_bsp/\libhal_bsp.a(alt_find_dev.o)
 .debug_aranges
                0x0000000000000ca8       0x20 ../sodalite_ckplay_bsp/\libhal_bsp.a(alt_flash_dev.o)
 .debug_aranges
                0x0000000000000cc8       0x20 ../sodalite_ckplay_bsp/\libhal_bsp.a(alt_icache_flush_all.o)
 .debug_aranges
                0x0000000000000ce8       0x20 ../sodalite_ckplay_bsp/\libhal_bsp.a(alt_iic.o)
 .debug_aranges
                0x0000000000000d08       0x20 ../sodalite_ckplay_bsp/\libhal_bsp.a(alt_iic_isr_register.o)
 .debug_aranges
                0x0000000000000d28       0x20 ../sodalite_ckplay_bsp/\libhal_bsp.a(alt_io_redirect.o)
 .debug_aranges
                0x0000000000000d48       0x30 ../sodalite_ckplay_bsp/\libhal_bsp.a(alt_irq_entry.o)
 .debug_aranges
                0x0000000000000d78       0x20 ../sodalite_ckplay_bsp/\libhal_bsp.a(alt_irq_handler.o)
 .debug_aranges
                0x0000000000000d98       0x18 ../sodalite_ckplay_bsp/\libhal_bsp.a(alt_irq_vars.o)
 .debug_aranges
                0x0000000000000db0       0x20 ../sodalite_ckplay_bsp/\libhal_bsp.a(alt_open.o)
 .debug_aranges
                0x0000000000000dd0       0x20 ../sodalite_ckplay_bsp/\libhal_bsp.a(alt_tick.o)
 .debug_aranges
                0x0000000000000df0       0x20 ../sodalite_ckplay_bsp/\libhal_bsp.a(altera_nios2_gen2_irq.o)
 .debug_aranges
                0x0000000000000e10       0x38 ../sodalite_ckplay_bsp/\libhal_bsp.a(alt_exception_entry.o)
 .debug_aranges
                0x0000000000000e48       0x20 ../sodalite_ckplay_bsp/\libhal_bsp.a(alt_find_file.o)
 .debug_aranges
                0x0000000000000e68       0x20 ../sodalite_ckplay_bsp/\libhal_bsp.a(alt_get_fd.o)
 .debug_aranges
                0x0000000000000e88       0x20 ../sodalite_ckplay_bsp/\libhal_bsp.a(alt_icache_flush.o)
 .debug_aranges
                0x0000000000000ea8       0x28 ../sodalite_ckplay_bsp/\libhal_bsp.a(alt_instruction_exception_entry.o)
 .debug_aranges
                0x0000000000000ed0       0x20 c:/develop/altera/14.0/nios2eds/bin/gnu/h-x86_64-mingw32/bin/../lib/gcc/nios2-elf/4.7.3/../../../../../H-x86_64-mingw32/nios2-elf/lib/mhw-mulx\libc.a(lib_a-atexit.o)
 .debug_aranges
                0x0000000000000ef0       0x20 c:/develop/altera/14.0/nios2eds/bin/gnu/h-x86_64-mingw32/bin/../lib/gcc/nios2-elf/4.7.3/../../../../../H-x86_64-mingw32/nios2-elf/lib/mhw-mulx\libc.a(lib_a-exit.o)
 .debug_aranges
                0x0000000000000f10       0x20 c:/develop/altera/14.0/nios2eds/bin/gnu/h-x86_64-mingw32/bin/../lib/gcc/nios2-elf/4.7.3/../../../../../H-x86_64-mingw32/nios2-elf/lib/mhw-mulx\libc.a(lib_a-malign.o)
 .debug_aranges
                0x0000000000000f30       0x20 c:/develop/altera/14.0/nios2eds/bin/gnu/h-x86_64-mingw32/bin/../lib/gcc/nios2-elf/4.7.3/../../../../../H-x86_64-mingw32/nios2-elf/lib/mhw-mulx\libc.a(lib_a-malignr.o)
 .debug_aranges
                0x0000000000000f50       0x20 c:/develop/altera/14.0/nios2eds/bin/gnu/h-x86_64-mingw32/bin/../lib/gcc/nios2-elf/4.7.3/../../../../../H-x86_64-mingw32/nios2-elf/lib/mhw-mulx\libc.a(lib_a-memcmp.o)
 .debug_aranges
                0x0000000000000f70       0x20 c:/develop/altera/14.0/nios2eds/bin/gnu/h-x86_64-mingw32/bin/../lib/gcc/nios2-elf/4.7.3/../../../../../H-x86_64-mingw32/nios2-elf/lib/mhw-mulx\libc.a(lib_a-__atexit.o)
 .debug_aranges
                0x0000000000000f90       0x20 c:/develop/altera/14.0/nios2eds/bin/gnu/h-x86_64-mingw32/bin/../lib/gcc/nios2-elf/4.7.3/../../../../../H-x86_64-mingw32/nios2-elf/lib/mhw-mulx\libc.a(lib_a-__call_atexit.o)
 .debug_aranges
                0x0000000000000fb0       0x20 ../sodalite_ckplay_bsp/\libhal_bsp.a(alt_exit.o)

.debug_pubnames
 *(.debug_pubnames)

.debug_info     0x0000000000000000    0x2ebca
 *(.debug_info .gnu.linkonce.wi.*)
 .debug_info    0x0000000000000000       0x7e ../sodalite_ckplay_bsp//obj/HAL/src/crt0.o
 .debug_info    0x000000000000007e      0xa44 obj/default/ckplay_peridot.o
 .debug_info    0x0000000000000ac2     0x30c9 obj/default/mmcfs/fatfs/ff.o
 .debug_info    0x0000000000003b8b      0xc3c obj/default/mmcfs/fatfs/mmcbb.o
 .debug_info    0x00000000000047c7      0x1d0 obj/default/mmcfs/fatfs/option/cc932.o
 .debug_info    0x0000000000004997       0x9e obj/default/mmcfs/gettime.o
 .debug_info    0x0000000000004a35      0x2dd obj/default/mmcfs/mmc_spi.o
 .debug_info    0x0000000000004d12      0xc65 obj/default/mmcfs/mmcfs.o
 .debug_info    0x0000000000005977      0xda3 obj/default/nd_lib/nd_acm.o
 .debug_info    0x000000000000671a      0xfe6 obj/default/nd_lib/nd_egl.o
 .debug_info    0x0000000000007700       0x89 obj/default/nd_lib/nd_acm_mcudecode.o
 .debug_info    0x0000000000007789      0x289 c:/develop/altera/14.0/nios2eds/bin/gnu/h-x86_64-mingw32/bin/../lib/gcc/nios2-elf/4.7.3/mhw-mulx\libgcc.a(lib2-divmod.o)
 .debug_info    0x0000000000007a12      0x9c9 c:/develop/altera/14.0/nios2eds/bin/gnu/h-x86_64-mingw32/bin/../lib/gcc/nios2-elf/4.7.3/../../../../../H-x86_64-mingw32/nios2-elf/lib/mhw-mulx\libc.a(lib_a-malloc.o)
 .debug_info    0x00000000000083db      0xe44 c:/develop/altera/14.0/nios2eds/bin/gnu/h-x86_64-mingw32/bin/../lib/gcc/nios2-elf/4.7.3/../../../../../H-x86_64-mingw32/nios2-elf/lib/mhw-mulx\libc.a(lib_a-mallocr.o)
 .debug_info    0x000000000000921f      0x10e c:/develop/altera/14.0/nios2eds/bin/gnu/h-x86_64-mingw32/bin/../lib/gcc/nios2-elf/4.7.3/../../../../../H-x86_64-mingw32/nios2-elf/lib/mhw-mulx\libc.a(lib_a-memcpy.o)
 .debug_info    0x000000000000932d      0x117 c:/develop/altera/14.0/nios2eds/bin/gnu/h-x86_64-mingw32/bin/../lib/gcc/nios2-elf/4.7.3/../../../../../H-x86_64-mingw32/nios2-elf/lib/mhw-mulx\libc.a(lib_a-memset.o)
 .debug_info    0x0000000000009444      0xa6c c:/develop/altera/14.0/nios2eds/bin/gnu/h-x86_64-mingw32/bin/../lib/gcc/nios2-elf/4.7.3/../../../../../H-x86_64-mingw32/nios2-elf/lib/mhw-mulx\libc.a(lib_a-printf.o)
 .debug_info    0x0000000000009eb0      0xab7 c:/develop/altera/14.0/nios2eds/bin/gnu/h-x86_64-mingw32/bin/../lib/gcc/nios2-elf/4.7.3/../../../../../H-x86_64-mingw32/nios2-elf/lib/mhw-mulx\libc.a(lib_a-puts.o)
 .debug_info    0x000000000000a967      0x9a3 c:/develop/altera/14.0/nios2eds/bin/gnu/h-x86_64-mingw32/bin/../lib/gcc/nios2-elf/4.7.3/../../../../../H-x86_64-mingw32/nios2-elf/lib/mhw-mulx\libc.a(lib_a-sbrkr.o)
 .debug_info    0x000000000000b30a      0x114 c:/develop/altera/14.0/nios2eds/bin/gnu/h-x86_64-mingw32/bin/../lib/gcc/nios2-elf/4.7.3/../../../../../H-x86_64-mingw32/nios2-elf/lib/mhw-mulx\libc.a(lib_a-strcpy.o)
 .debug_info    0x000000000000b41e       0xdf c:/develop/altera/14.0/nios2eds/bin/gnu/h-x86_64-mingw32/bin/../lib/gcc/nios2-elf/4.7.3/../../../../../H-x86_64-mingw32/nios2-elf/lib/mhw-mulx\libc.a(lib_a-strlen.o)
 .debug_info    0x000000000000b4fd     0x195a c:/develop/altera/14.0/nios2eds/bin/gnu/h-x86_64-mingw32/bin/../lib/gcc/nios2-elf/4.7.3/../../../../../H-x86_64-mingw32/nios2-elf/lib/mhw-mulx\libc.a(lib_a-vfprintf.o)
 .debug_info    0x000000000000ce57      0x9d4 c:/develop/altera/14.0/nios2eds/bin/gnu/h-x86_64-mingw32/bin/../lib/gcc/nios2-elf/4.7.3/../../../../../H-x86_64-mingw32/nios2-elf/lib/mhw-mulx\libc.a(lib_a-wsetup.o)
 .debug_info    0x000000000000d82b     0x1408 c:/develop/altera/14.0/nios2eds/bin/gnu/h-x86_64-mingw32/bin/../lib/gcc/nios2-elf/4.7.3/../../../../../H-x86_64-mingw32/nios2-elf/lib/mhw-mulx\libc.a(lib_a-dtoa.o)
 .debug_info    0x000000000000ec33      0xad0 c:/develop/altera/14.0/nios2eds/bin/gnu/h-x86_64-mingw32/bin/../lib/gcc/nios2-elf/4.7.3/../../../../../H-x86_64-mingw32/nios2-elf/lib/mhw-mulx\libc.a(lib_a-fflush.o)
 .debug_info    0x000000000000f703      0xd6f c:/develop/altera/14.0/nios2eds/bin/gnu/h-x86_64-mingw32/bin/../lib/gcc/nios2-elf/4.7.3/../../../../../H-x86_64-mingw32/nios2-elf/lib/mhw-mulx\libc.a(lib_a-findfp.o)
 .debug_info    0x0000000000010472      0xcf9 c:/develop/altera/14.0/nios2eds/bin/gnu/h-x86_64-mingw32/bin/../lib/gcc/nios2-elf/4.7.3/../../../../../H-x86_64-mingw32/nios2-elf/lib/mhw-mulx\libc.a(lib_a-freer.o)
 .debug_info    0x000000000001116b      0xd05 c:/develop/altera/14.0/nios2eds/bin/gnu/h-x86_64-mingw32/bin/../lib/gcc/nios2-elf/4.7.3/../../../../../H-x86_64-mingw32/nios2-elf/lib/mhw-mulx\libc.a(lib_a-fvwrite.o)
 .debug_info    0x0000000000011e70      0xb72 c:/develop/altera/14.0/nios2eds/bin/gnu/h-x86_64-mingw32/bin/../lib/gcc/nios2-elf/4.7.3/../../../../../H-x86_64-mingw32/nios2-elf/lib/mhw-mulx\libc.a(lib_a-fwalk.o)
 .debug_info    0x00000000000129e2      0x938 c:/develop/altera/14.0/nios2eds/bin/gnu/h-x86_64-mingw32/bin/../lib/gcc/nios2-elf/4.7.3/../../../../../H-x86_64-mingw32/nios2-elf/lib/mhw-mulx\libc.a(lib_a-impure.o)
 .debug_info    0x000000000001331a       0x84 c:/develop/altera/14.0/nios2eds/bin/gnu/h-x86_64-mingw32/bin/../lib/gcc/nios2-elf/4.7.3/../../../../../H-x86_64-mingw32/nios2-elf/lib/mhw-mulx\libc.a(lib_a-int_errno.o)
 .debug_info    0x000000000001339e      0xc10 c:/develop/altera/14.0/nios2eds/bin/gnu/h-x86_64-mingw32/bin/../lib/gcc/nios2-elf/4.7.3/../../../../../H-x86_64-mingw32/nios2-elf/lib/mhw-mulx\libc.a(lib_a-locale.o)
 .debug_info    0x0000000000013fae      0xbc2 c:/develop/altera/14.0/nios2eds/bin/gnu/h-x86_64-mingw32/bin/../lib/gcc/nios2-elf/4.7.3/../../../../../H-x86_64-mingw32/nios2-elf/lib/mhw-mulx\libc.a(lib_a-makebuf.o)
 .debug_info    0x0000000000014b70      0x13e c:/develop/altera/14.0/nios2eds/bin/gnu/h-x86_64-mingw32/bin/../lib/gcc/nios2-elf/4.7.3/../../../../../H-x86_64-mingw32/nios2-elf/lib/mhw-mulx\libc.a(lib_a-memchr.o)
 .debug_info    0x0000000000014cae      0x146 c:/develop/altera/14.0/nios2eds/bin/gnu/h-x86_64-mingw32/bin/../lib/gcc/nios2-elf/4.7.3/../../../../../H-x86_64-mingw32/nios2-elf/lib/mhw-mulx\libc.a(lib_a-memmove.o)
 .debug_info    0x0000000000014df4     0x172a c:/develop/altera/14.0/nios2eds/bin/gnu/h-x86_64-mingw32/bin/../lib/gcc/nios2-elf/4.7.3/../../../../../H-x86_64-mingw32/nios2-elf/lib/mhw-mulx\libc.a(lib_a-mprec.o)
 .debug_info    0x000000000001651e      0xd8e c:/develop/altera/14.0/nios2eds/bin/gnu/h-x86_64-mingw32/bin/../lib/gcc/nios2-elf/4.7.3/../../../../../H-x86_64-mingw32/nios2-elf/lib/mhw-mulx\libc.a(lib_a-reallocr.o)
 .debug_info    0x00000000000172ac       0xe8 c:/develop/altera/14.0/nios2eds/bin/gnu/h-x86_64-mingw32/bin/../lib/gcc/nios2-elf/4.7.3/../../../../../H-x86_64-mingw32/nios2-elf/lib/mhw-mulx\libc.a(lib_a-s_isinfd.o)
 .debug_info    0x0000000000017394       0xe8 c:/develop/altera/14.0/nios2eds/bin/gnu/h-x86_64-mingw32/bin/../lib/gcc/nios2-elf/4.7.3/../../../../../H-x86_64-mingw32/nios2-elf/lib/mhw-mulx\libc.a(lib_a-s_isnand.o)
 .debug_info    0x000000000001747c      0xbfd c:/develop/altera/14.0/nios2eds/bin/gnu/h-x86_64-mingw32/bin/../lib/gcc/nios2-elf/4.7.3/../../../../../H-x86_64-mingw32/nios2-elf/lib/mhw-mulx\libc.a(lib_a-stdio.o)
 .debug_info    0x0000000000018079       0xe1 c:/develop/altera/14.0/nios2eds/bin/gnu/h-x86_64-mingw32/bin/../lib/gcc/nios2-elf/4.7.3/../../../../../H-x86_64-mingw32/nios2-elf/lib/mhw-mulx\libc.a(lib_a-strcmp.o)
 .debug_info    0x000000000001815a      0x9d2 c:/develop/altera/14.0/nios2eds/bin/gnu/h-x86_64-mingw32/bin/../lib/gcc/nios2-elf/4.7.3/../../../../../H-x86_64-mingw32/nios2-elf/lib/mhw-mulx\libc.a(lib_a-writer.o)
 .debug_info    0x0000000000018b2c      0xa9b c:/develop/altera/14.0/nios2eds/bin/gnu/h-x86_64-mingw32/bin/../lib/gcc/nios2-elf/4.7.3/../../../../../H-x86_64-mingw32/nios2-elf/lib/mhw-mulx\libc.a(lib_a-callocr.o)
 .debug_info    0x00000000000195c7      0x97f c:/develop/altera/14.0/nios2eds/bin/gnu/h-x86_64-mingw32/bin/../lib/gcc/nios2-elf/4.7.3/../../../../../H-x86_64-mingw32/nios2-elf/lib/mhw-mulx\libc.a(lib_a-closer.o)
 .debug_info    0x0000000000019f46      0xa97 c:/develop/altera/14.0/nios2eds/bin/gnu/h-x86_64-mingw32/bin/../lib/gcc/nios2-elf/4.7.3/../../../../../H-x86_64-mingw32/nios2-elf/lib/mhw-mulx\libc.a(lib_a-fclose.o)
 .debug_info    0x000000000001a9dd      0xb2f c:/develop/altera/14.0/nios2eds/bin/gnu/h-x86_64-mingw32/bin/../lib/gcc/nios2-elf/4.7.3/../../../../../H-x86_64-mingw32/nios2-elf/lib/mhw-mulx\libc.a(lib_a-fstatr.o)
 .debug_info    0x000000000001b50c      0x97f c:/develop/altera/14.0/nios2eds/bin/gnu/h-x86_64-mingw32/bin/../lib/gcc/nios2-elf/4.7.3/../../../../../H-x86_64-mingw32/nios2-elf/lib/mhw-mulx\libc.a(lib_a-isattyr.o)
 .debug_info    0x000000000001be8b      0x9cb c:/develop/altera/14.0/nios2eds/bin/gnu/h-x86_64-mingw32/bin/../lib/gcc/nios2-elf/4.7.3/../../../../../H-x86_64-mingw32/nios2-elf/lib/mhw-mulx\libc.a(lib_a-lseekr.o)
 .debug_info    0x000000000001c856      0x9cb c:/develop/altera/14.0/nios2eds/bin/gnu/h-x86_64-mingw32/bin/../lib/gcc/nios2-elf/4.7.3/../../../../../H-x86_64-mingw32/nios2-elf/lib/mhw-mulx\libc.a(lib_a-readr.o)
 .debug_info    0x000000000001d221      0x718 c:/develop/altera/14.0/nios2eds/bin/gnu/h-x86_64-mingw32/bin/../lib/gcc/nios2-elf/4.7.3/mhw-mulx\libgcc.a(_udivdi3.o)
 .debug_info    0x000000000001d939      0x771 c:/develop/altera/14.0/nios2eds/bin/gnu/h-x86_64-mingw32/bin/../lib/gcc/nios2-elf/4.7.3/mhw-mulx\libgcc.a(_umoddi3.o)
 .debug_info    0x000000000001e0aa      0x588 c:/develop/altera/14.0/nios2eds/bin/gnu/h-x86_64-mingw32/bin/../lib/gcc/nios2-elf/4.7.3/mhw-mulx\libgcc.a(_addsub_df.o)
 .debug_info    0x000000000001e632      0x529 c:/develop/altera/14.0/nios2eds/bin/gnu/h-x86_64-mingw32/bin/../lib/gcc/nios2-elf/4.7.3/mhw-mulx\libgcc.a(_mul_df.o)
 .debug_info    0x000000000001eb5b      0x443 c:/develop/altera/14.0/nios2eds/bin/gnu/h-x86_64-mingw32/bin/../lib/gcc/nios2-elf/4.7.3/mhw-mulx\libgcc.a(_div_df.o)
 .debug_info    0x000000000001ef9e      0x320 c:/develop/altera/14.0/nios2eds/bin/gnu/h-x86_64-mingw32/bin/../lib/gcc/nios2-elf/4.7.3/mhw-mulx\libgcc.a(_eq_df.o)
 .debug_info    0x000000000001f2be      0x320 c:/develop/altera/14.0/nios2eds/bin/gnu/h-x86_64-mingw32/bin/../lib/gcc/nios2-elf/4.7.3/mhw-mulx\libgcc.a(_ne_df.o)
 .debug_info    0x000000000001f5de      0x320 c:/develop/altera/14.0/nios2eds/bin/gnu/h-x86_64-mingw32/bin/../lib/gcc/nios2-elf/4.7.3/mhw-mulx\libgcc.a(_gt_df.o)
 .debug_info    0x000000000001f8fe      0x320 c:/develop/altera/14.0/nios2eds/bin/gnu/h-x86_64-mingw32/bin/../lib/gcc/nios2-elf/4.7.3/mhw-mulx\libgcc.a(_ge_df.o)
 .debug_info    0x000000000001fc1e      0x320 c:/develop/altera/14.0/nios2eds/bin/gnu/h-x86_64-mingw32/bin/../lib/gcc/nios2-elf/4.7.3/mhw-mulx\libgcc.a(_lt_df.o)
 .debug_info    0x000000000001ff3e      0x261 c:/develop/altera/14.0/nios2eds/bin/gnu/h-x86_64-mingw32/bin/../lib/gcc/nios2-elf/4.7.3/mhw-mulx\libgcc.a(_si_to_df.o)
 .debug_info    0x000000000002019f      0x30b c:/develop/altera/14.0/nios2eds/bin/gnu/h-x86_64-mingw32/bin/../lib/gcc/nios2-elf/4.7.3/mhw-mulx\libgcc.a(_df_to_si.o)
 .debug_info    0x00000000000204aa      0x155 c:/develop/altera/14.0/nios2eds/bin/gnu/h-x86_64-mingw32/bin/../lib/gcc/nios2-elf/4.7.3/mhw-mulx\libgcc.a(_thenan_df.o)
 .debug_info    0x00000000000205ff      0x284 c:/develop/altera/14.0/nios2eds/bin/gnu/h-x86_64-mingw32/bin/../lib/gcc/nios2-elf/4.7.3/mhw-mulx\libgcc.a(_usi_to_df.o)
 .debug_info    0x0000000000020883       0xac c:/develop/altera/14.0/nios2eds/bin/gnu/h-x86_64-mingw32/bin/../lib/gcc/nios2-elf/4.7.3/mhw-mulx\libgcc.a(_clz.o)
 .debug_info    0x000000000002092f      0x123 c:/develop/altera/14.0/nios2eds/bin/gnu/h-x86_64-mingw32/bin/../lib/gcc/nios2-elf/4.7.3/mhw-mulx\libgcc.a(_clzsi2.o)
 .debug_info    0x0000000000020a52      0x2f7 c:/develop/altera/14.0/nios2eds/bin/gnu/h-x86_64-mingw32/bin/../lib/gcc/nios2-elf/4.7.3/mhw-mulx\libgcc.a(_pack_df.o)
 .debug_info    0x0000000000020d49      0x265 c:/develop/altera/14.0/nios2eds/bin/gnu/h-x86_64-mingw32/bin/../lib/gcc/nios2-elf/4.7.3/mhw-mulx\libgcc.a(_unpack_df.o)
 .debug_info    0x0000000000020fae      0x226 c:/develop/altera/14.0/nios2eds/bin/gnu/h-x86_64-mingw32/bin/../lib/gcc/nios2-elf/4.7.3/mhw-mulx\libgcc.a(_fpcmp_parts_df.o)
 .debug_info    0x00000000000211d4      0x185 c:/develop/altera/14.0/nios2eds/bin/gnu/h-x86_64-mingw32/bin/../lib/gcc/nios2-elf/4.7.3/mhw-mulx\libgcc.a(_lshrdi3.o)
 .debug_info    0x0000000000021359      0x185 c:/develop/altera/14.0/nios2eds/bin/gnu/h-x86_64-mingw32/bin/../lib/gcc/nios2-elf/4.7.3/mhw-mulx\libgcc.a(_ashldi3.o)
 .debug_info    0x00000000000214de      0x3a4 ../sodalite_ckplay_bsp/\libhal_bsp.a(alt_close.o)
 .debug_info    0x0000000000021882       0xdb ../sodalite_ckplay_bsp/\libhal_bsp.a(alt_dcache_flush.o)
 .debug_info    0x000000000002195d      0x4df ../sodalite_ckplay_bsp/\libhal_bsp.a(alt_dev.o)
 .debug_info    0x0000000000021e3c       0xa3 ../sodalite_ckplay_bsp/\libhal_bsp.a(alt_errno.o)
 .debug_info    0x0000000000021edf      0x325 ../sodalite_ckplay_bsp/\libhal_bsp.a(alt_fs_reg.o)
 .debug_info    0x0000000000022204      0x4f5 ../sodalite_ckplay_bsp/\libhal_bsp.a(alt_fstat.o)
 .debug_info    0x00000000000226f9      0x50e ../sodalite_ckplay_bsp/\libhal_bsp.a(alt_isatty.o)
 .debug_info    0x0000000000022c07      0x1d9 ../sodalite_ckplay_bsp/\libhal_bsp.a(alt_load.o)
 .debug_info    0x0000000000022de0      0x3a6 ../sodalite_ckplay_bsp/\libhal_bsp.a(alt_lseek.o)
 .debug_info    0x0000000000023186      0x27f ../sodalite_ckplay_bsp/\libhal_bsp.a(alt_main.o)
 .debug_info    0x0000000000023405      0x94c ../sodalite_ckplay_bsp/\libhal_bsp.a(alt_malloc_lock.o)
 .debug_info    0x0000000000023d51      0x543 ../sodalite_ckplay_bsp/\libhal_bsp.a(alt_read.o)
 .debug_info    0x0000000000024294      0x2dd ../sodalite_ckplay_bsp/\libhal_bsp.a(alt_release_fd.o)
 .debug_info    0x0000000000024571      0x1b1 ../sodalite_ckplay_bsp/\libhal_bsp.a(alt_sbrk.o)
 .debug_info    0x0000000000024722       0xdf ../sodalite_ckplay_bsp/\libhal_bsp.a(alt_uncached_free.o)
 .debug_info    0x0000000000024801      0x164 ../sodalite_ckplay_bsp/\libhal_bsp.a(alt_uncached_malloc.o)
 .debug_info    0x0000000000024965      0x54a ../sodalite_ckplay_bsp/\libhal_bsp.a(alt_write.o)
 .debug_info    0x0000000000024eaf      0xa8e ../sodalite_ckplay_bsp/\libhal_bsp.a(alt_sys_init.o)
 .debug_info    0x000000000002593d      0x678 ../sodalite_ckplay_bsp/\libhal_bsp.a(altera_avalon_jtag_uart_fd.o)
 .debug_info    0x0000000000025fb5      0x47e ../sodalite_ckplay_bsp/\libhal_bsp.a(altera_avalon_jtag_uart_init.o)
 .debug_info    0x0000000000026433      0x2ab ../sodalite_ckplay_bsp/\libhal_bsp.a(altera_avalon_jtag_uart_ioctl.o)
 .debug_info    0x00000000000266de      0x3b2 ../sodalite_ckplay_bsp/\libhal_bsp.a(altera_avalon_jtag_uart_read.o)
 .debug_info    0x0000000000026a90      0x3b1 ../sodalite_ckplay_bsp/\libhal_bsp.a(altera_avalon_jtag_uart_write.o)
 .debug_info    0x0000000000026e41      0x2bc ../sodalite_ckplay_bsp/\libhal_bsp.a(altera_avalon_timer_sc.o)
 .debug_info    0x00000000000270fd      0x582 ../sodalite_ckplay_bsp/\libhal_bsp.a(altera_modular_adc.o)
 .debug_info    0x000000000002767f      0xd30 ../sodalite_ckplay_bsp/\libhal_bsp.a(altera_onchip_flash.o)
 .debug_info    0x00000000000283af      0x2d4 ../sodalite_ckplay_bsp/\libhal_bsp.a(alt_alarm_start.o)
 .debug_info    0x0000000000028683       0xa3 ../sodalite_ckplay_bsp/\libhal_bsp.a(alt_dcache_flush_all.o)
 .debug_info    0x0000000000028726      0x1c4 ../sodalite_ckplay_bsp/\libhal_bsp.a(alt_dev_llist_insert.o)
 .debug_info    0x00000000000288ea       0x8e ../sodalite_ckplay_bsp/\libhal_bsp.a(alt_do_ctors.o)
 .debug_info    0x0000000000028978       0x8e ../sodalite_ckplay_bsp/\libhal_bsp.a(alt_do_dtors.o)
 .debug_info    0x0000000000028a06      0x387 ../sodalite_ckplay_bsp/\libhal_bsp.a(alt_find_dev.o)
 .debug_info    0x0000000000028d8d      0x5ff ../sodalite_ckplay_bsp/\libhal_bsp.a(alt_flash_dev.o)
 .debug_info    0x000000000002938c       0xcd ../sodalite_ckplay_bsp/\libhal_bsp.a(alt_icache_flush_all.o)
 .debug_info    0x0000000000029459      0x3c4 ../sodalite_ckplay_bsp/\libhal_bsp.a(alt_iic.o)
 .debug_info    0x000000000002981d      0x25c ../sodalite_ckplay_bsp/\libhal_bsp.a(alt_iic_isr_register.o)
 .debug_info    0x0000000000029a79      0x5cc ../sodalite_ckplay_bsp/\libhal_bsp.a(alt_io_redirect.o)
 .debug_info    0x000000000002a045       0x87 ../sodalite_ckplay_bsp/\libhal_bsp.a(alt_irq_entry.o)
 .debug_info    0x000000000002a0cc      0x193 ../sodalite_ckplay_bsp/\libhal_bsp.a(alt_irq_handler.o)
 .debug_info    0x000000000002a25f       0x8a ../sodalite_ckplay_bsp/\libhal_bsp.a(alt_irq_vars.o)
 .debug_info    0x000000000002a2e9      0x4de ../sodalite_ckplay_bsp/\libhal_bsp.a(alt_open.o)
 .debug_info    0x000000000002a7c7      0x33a ../sodalite_ckplay_bsp/\libhal_bsp.a(alt_tick.o)
 .debug_info    0x000000000002ab01       0x8f ../sodalite_ckplay_bsp/\libhal_bsp.a(altera_nios2_gen2_irq.o)
 .debug_info    0x000000000002ab90       0x8d ../sodalite_ckplay_bsp/\libhal_bsp.a(alt_exception_entry.o)
 .debug_info    0x000000000002ac1d      0x370 ../sodalite_ckplay_bsp/\libhal_bsp.a(alt_find_file.o)
 .debug_info    0x000000000002af8d      0x339 ../sodalite_ckplay_bsp/\libhal_bsp.a(alt_get_fd.o)
 .debug_info    0x000000000002b2c6       0xdb ../sodalite_ckplay_bsp/\libhal_bsp.a(alt_icache_flush.o)
 .debug_info    0x000000000002b3a1      0x1f8 ../sodalite_ckplay_bsp/\libhal_bsp.a(alt_instruction_exception_entry.o)
 .debug_info    0x000000000002b599      0x1e6 c:/develop/altera/14.0/nios2eds/bin/gnu/h-x86_64-mingw32/bin/../lib/gcc/nios2-elf/4.7.3/../../../../../H-x86_64-mingw32/nios2-elf/lib/mhw-mulx\libc.a(lib_a-atexit.o)
 .debug_info    0x000000000002b77f      0x993 c:/develop/altera/14.0/nios2eds/bin/gnu/h-x86_64-mingw32/bin/../lib/gcc/nios2-elf/4.7.3/../../../../../H-x86_64-mingw32/nios2-elf/lib/mhw-mulx\libc.a(lib_a-exit.o)
 .debug_info    0x000000000002c112      0x990 c:/develop/altera/14.0/nios2eds/bin/gnu/h-x86_64-mingw32/bin/../lib/gcc/nios2-elf/4.7.3/../../../../../H-x86_64-mingw32/nios2-elf/lib/mhw-mulx\libc.a(lib_a-malign.o)
 .debug_info    0x000000000002caa2      0xb29 c:/develop/altera/14.0/nios2eds/bin/gnu/h-x86_64-mingw32/bin/../lib/gcc/nios2-elf/4.7.3/../../../../../H-x86_64-mingw32/nios2-elf/lib/mhw-mulx\libc.a(lib_a-malignr.o)
 .debug_info    0x000000000002d5cb      0x117 c:/develop/altera/14.0/nios2eds/bin/gnu/h-x86_64-mingw32/bin/../lib/gcc/nios2-elf/4.7.3/../../../../../H-x86_64-mingw32/nios2-elf/lib/mhw-mulx\libc.a(lib_a-memcmp.o)
 .debug_info    0x000000000002d6e2      0x9f9 c:/develop/altera/14.0/nios2eds/bin/gnu/h-x86_64-mingw32/bin/../lib/gcc/nios2-elf/4.7.3/../../../../../H-x86_64-mingw32/nios2-elf/lib/mhw-mulx\libc.a(lib_a-__atexit.o)
 .debug_info    0x000000000002e0db      0xa07 c:/develop/altera/14.0/nios2eds/bin/gnu/h-x86_64-mingw32/bin/../lib/gcc/nios2-elf/4.7.3/../../../../../H-x86_64-mingw32/nios2-elf/lib/mhw-mulx\libc.a(lib_a-__call_atexit.o)
 .debug_info    0x000000000002eae2       0xe8 ../sodalite_ckplay_bsp/\libhal_bsp.a(alt_exit.o)

.debug_abbrev   0x0000000000000000     0xb6d9
 *(.debug_abbrev)
 .debug_abbrev  0x0000000000000000       0x12 ../sodalite_ckplay_bsp//obj/HAL/src/crt0.o
 .debug_abbrev  0x0000000000000012      0x1df obj/default/ckplay_peridot.o
 .debug_abbrev  0x00000000000001f1      0x387 obj/default/mmcfs/fatfs/ff.o
 .debug_abbrev  0x0000000000000578      0x2b2 obj/default/mmcfs/fatfs/mmcbb.o
 .debug_abbrev  0x000000000000082a       0xd8 obj/default/mmcfs/fatfs/option/cc932.o
 .debug_abbrev  0x0000000000000902       0x51 obj/default/mmcfs/gettime.o
 .debug_abbrev  0x0000000000000953      0x187 obj/default/mmcfs/mmc_spi.o
 .debug_abbrev  0x0000000000000ada      0x205 obj/default/mmcfs/mmcfs.o
 .debug_abbrev  0x0000000000000cdf      0x2af obj/default/nd_lib/nd_acm.o
 .debug_abbrev  0x0000000000000f8e      0x339 obj/default/nd_lib/nd_egl.o
 .debug_abbrev  0x00000000000012c7       0x14 obj/default/nd_lib/nd_acm_mcudecode.o
 .debug_abbrev  0x00000000000012db      0x112 c:/develop/altera/14.0/nios2eds/bin/gnu/h-x86_64-mingw32/bin/../lib/gcc/nios2-elf/4.7.3/mhw-mulx\libgcc.a(lib2-divmod.o)
 .debug_abbrev  0x00000000000013ed      0x1dc c:/develop/altera/14.0/nios2eds/bin/gnu/h-x86_64-mingw32/bin/../lib/gcc/nios2-elf/4.7.3/../../../../../H-x86_64-mingw32/nios2-elf/lib/mhw-mulx\libc.a(lib_a-malloc.o)
 .debug_abbrev  0x00000000000015c9      0x284 c:/develop/altera/14.0/nios2eds/bin/gnu/h-x86_64-mingw32/bin/../lib/gcc/nios2-elf/4.7.3/../../../../../H-x86_64-mingw32/nios2-elf/lib/mhw-mulx\libc.a(lib_a-mallocr.o)
 .debug_abbrev  0x000000000000184d       0x9c c:/develop/altera/14.0/nios2eds/bin/gnu/h-x86_64-mingw32/bin/../lib/gcc/nios2-elf/4.7.3/../../../../../H-x86_64-mingw32/nios2-elf/lib/mhw-mulx\libc.a(lib_a-memcpy.o)
 .debug_abbrev  0x00000000000018e9       0xac c:/develop/altera/14.0/nios2eds/bin/gnu/h-x86_64-mingw32/bin/../lib/gcc/nios2-elf/4.7.3/../../../../../H-x86_64-mingw32/nios2-elf/lib/mhw-mulx\libc.a(lib_a-memset.o)
 .debug_abbrev  0x0000000000001995      0x209 c:/develop/altera/14.0/nios2eds/bin/gnu/h-x86_64-mingw32/bin/../lib/gcc/nios2-elf/4.7.3/../../../../../H-x86_64-mingw32/nios2-elf/lib/mhw-mulx\libc.a(lib_a-printf.o)
 .debug_abbrev  0x0000000000001b9e      0x208 c:/develop/altera/14.0/nios2eds/bin/gnu/h-x86_64-mingw32/bin/../lib/gcc/nios2-elf/4.7.3/../../../../../H-x86_64-mingw32/nios2-elf/lib/mhw-mulx\libc.a(lib_a-puts.o)
 .debug_abbrev  0x0000000000001da6      0x1df c:/develop/altera/14.0/nios2eds/bin/gnu/h-x86_64-mingw32/bin/../lib/gcc/nios2-elf/4.7.3/../../../../../H-x86_64-mingw32/nios2-elf/lib/mhw-mulx\libc.a(lib_a-sbrkr.o)
 .debug_abbrev  0x0000000000001f85       0x83 c:/develop/altera/14.0/nios2eds/bin/gnu/h-x86_64-mingw32/bin/../lib/gcc/nios2-elf/4.7.3/../../../../../H-x86_64-mingw32/nios2-elf/lib/mhw-mulx\libc.a(lib_a-strcpy.o)
 .debug_abbrev  0x0000000000002008       0x90 c:/develop/altera/14.0/nios2eds/bin/gnu/h-x86_64-mingw32/bin/../lib/gcc/nios2-elf/4.7.3/../../../../../H-x86_64-mingw32/nios2-elf/lib/mhw-mulx\libc.a(lib_a-strlen.o)
 .debug_abbrev  0x0000000000002098      0x3d9 c:/develop/altera/14.0/nios2eds/bin/gnu/h-x86_64-mingw32/bin/../lib/gcc/nios2-elf/4.7.3/../../../../../H-x86_64-mingw32/nios2-elf/lib/mhw-mulx\libc.a(lib_a-vfprintf.o)
 .debug_abbrev  0x0000000000002471      0x1d5 c:/develop/altera/14.0/nios2eds/bin/gnu/h-x86_64-mingw32/bin/../lib/gcc/nios2-elf/4.7.3/../../../../../H-x86_64-mingw32/nios2-elf/lib/mhw-mulx\libc.a(lib_a-wsetup.o)
 .debug_abbrev  0x0000000000002646      0x2ab c:/develop/altera/14.0/nios2eds/bin/gnu/h-x86_64-mingw32/bin/../lib/gcc/nios2-elf/4.7.3/../../../../../H-x86_64-mingw32/nios2-elf/lib/mhw-mulx\libc.a(lib_a-dtoa.o)
 .debug_abbrev  0x00000000000028f1      0x259 c:/develop/altera/14.0/nios2eds/bin/gnu/h-x86_64-mingw32/bin/../lib/gcc/nios2-elf/4.7.3/../../../../../H-x86_64-mingw32/nios2-elf/lib/mhw-mulx\libc.a(lib_a-fflush.o)
 .debug_abbrev  0x0000000000002b4a      0x317 c:/develop/altera/14.0/nios2eds/bin/gnu/h-x86_64-mingw32/bin/../lib/gcc/nios2-elf/4.7.3/../../../../../H-x86_64-mingw32/nios2-elf/lib/mhw-mulx\libc.a(lib_a-findfp.o)
 .debug_abbrev  0x0000000000002e61      0x25d c:/develop/altera/14.0/nios2eds/bin/gnu/h-x86_64-mingw32/bin/../lib/gcc/nios2-elf/4.7.3/../../../../../H-x86_64-mingw32/nios2-elf/lib/mhw-mulx\libc.a(lib_a-freer.o)
 .debug_abbrev  0x00000000000030be      0x234 c:/develop/altera/14.0/nios2eds/bin/gnu/h-x86_64-mingw32/bin/../lib/gcc/nios2-elf/4.7.3/../../../../../H-x86_64-mingw32/nios2-elf/lib/mhw-mulx\libc.a(lib_a-fvwrite.o)
 .debug_abbrev  0x00000000000032f2      0x224 c:/develop/altera/14.0/nios2eds/bin/gnu/h-x86_64-mingw32/bin/../lib/gcc/nios2-elf/4.7.3/../../../../../H-x86_64-mingw32/nios2-elf/lib/mhw-mulx\libc.a(lib_a-fwalk.o)
 .debug_abbrev  0x0000000000003516      0x162 c:/develop/altera/14.0/nios2eds/bin/gnu/h-x86_64-mingw32/bin/../lib/gcc/nios2-elf/4.7.3/../../../../../H-x86_64-mingw32/nios2-elf/lib/mhw-mulx\libc.a(lib_a-impure.o)
 .debug_abbrev  0x0000000000003678       0x37 c:/develop/altera/14.0/nios2eds/bin/gnu/h-x86_64-mingw32/bin/../lib/gcc/nios2-elf/4.7.3/../../../../../H-x86_64-mingw32/nios2-elf/lib/mhw-mulx\libc.a(lib_a-int_errno.o)
 .debug_abbrev  0x00000000000036af      0x29f c:/develop/altera/14.0/nios2eds/bin/gnu/h-x86_64-mingw32/bin/../lib/gcc/nios2-elf/4.7.3/../../../../../H-x86_64-mingw32/nios2-elf/lib/mhw-mulx\libc.a(lib_a-locale.o)
 .debug_abbrev  0x000000000000394e      0x1e8 c:/develop/altera/14.0/nios2eds/bin/gnu/h-x86_64-mingw32/bin/../lib/gcc/nios2-elf/4.7.3/../../../../../H-x86_64-mingw32/nios2-elf/lib/mhw-mulx\libc.a(lib_a-makebuf.o)
 .debug_abbrev  0x0000000000003b36       0xab c:/develop/altera/14.0/nios2eds/bin/gnu/h-x86_64-mingw32/bin/../lib/gcc/nios2-elf/4.7.3/../../../../../H-x86_64-mingw32/nios2-elf/lib/mhw-mulx\libc.a(lib_a-memchr.o)
 .debug_abbrev  0x0000000000003be1       0x9c c:/develop/altera/14.0/nios2eds/bin/gnu/h-x86_64-mingw32/bin/../lib/gcc/nios2-elf/4.7.3/../../../../../H-x86_64-mingw32/nios2-elf/lib/mhw-mulx\libc.a(lib_a-memmove.o)
 .debug_abbrev  0x0000000000003c7d      0x394 c:/develop/altera/14.0/nios2eds/bin/gnu/h-x86_64-mingw32/bin/../lib/gcc/nios2-elf/4.7.3/../../../../../H-x86_64-mingw32/nios2-elf/lib/mhw-mulx\libc.a(lib_a-mprec.o)
 .debug_abbrev  0x0000000000004011      0x242 c:/develop/altera/14.0/nios2eds/bin/gnu/h-x86_64-mingw32/bin/../lib/gcc/nios2-elf/4.7.3/../../../../../H-x86_64-mingw32/nios2-elf/lib/mhw-mulx\libc.a(lib_a-reallocr.o)
 .debug_abbrev  0x0000000000004253       0x6f c:/develop/altera/14.0/nios2eds/bin/gnu/h-x86_64-mingw32/bin/../lib/gcc/nios2-elf/4.7.3/../../../../../H-x86_64-mingw32/nios2-elf/lib/mhw-mulx\libc.a(lib_a-s_isinfd.o)
 .debug_abbrev  0x00000000000042c2       0x6f c:/develop/altera/14.0/nios2eds/bin/gnu/h-x86_64-mingw32/bin/../lib/gcc/nios2-elf/4.7.3/../../../../../H-x86_64-mingw32/nios2-elf/lib/mhw-mulx\libc.a(lib_a-s_isnand.o)
 .debug_abbrev  0x0000000000004331      0x226 c:/develop/altera/14.0/nios2eds/bin/gnu/h-x86_64-mingw32/bin/../lib/gcc/nios2-elf/4.7.3/../../../../../H-x86_64-mingw32/nios2-elf/lib/mhw-mulx\libc.a(lib_a-stdio.o)
 .debug_abbrev  0x0000000000004557       0x74 c:/develop/altera/14.0/nios2eds/bin/gnu/h-x86_64-mingw32/bin/../lib/gcc/nios2-elf/4.7.3/../../../../../H-x86_64-mingw32/nios2-elf/lib/mhw-mulx\libc.a(lib_a-strcmp.o)
 .debug_abbrev  0x00000000000045cb      0x1c0 c:/develop/altera/14.0/nios2eds/bin/gnu/h-x86_64-mingw32/bin/../lib/gcc/nios2-elf/4.7.3/../../../../../H-x86_64-mingw32/nios2-elf/lib/mhw-mulx\libc.a(lib_a-writer.o)
 .debug_abbrev  0x000000000000478b      0x1f5 c:/develop/altera/14.0/nios2eds/bin/gnu/h-x86_64-mingw32/bin/../lib/gcc/nios2-elf/4.7.3/../../../../../H-x86_64-mingw32/nios2-elf/lib/mhw-mulx\libc.a(lib_a-callocr.o)
 .debug_abbrev  0x0000000000004980      0x1bb c:/develop/altera/14.0/nios2eds/bin/gnu/h-x86_64-mingw32/bin/../lib/gcc/nios2-elf/4.7.3/../../../../../H-x86_64-mingw32/nios2-elf/lib/mhw-mulx\libc.a(lib_a-closer.o)
 .debug_abbrev  0x0000000000004b3b      0x24e c:/develop/altera/14.0/nios2eds/bin/gnu/h-x86_64-mingw32/bin/../lib/gcc/nios2-elf/4.7.3/../../../../../H-x86_64-mingw32/nios2-elf/lib/mhw-mulx\libc.a(lib_a-fclose.o)
 .debug_abbrev  0x0000000000004d89      0x1ca c:/develop/altera/14.0/nios2eds/bin/gnu/h-x86_64-mingw32/bin/../lib/gcc/nios2-elf/4.7.3/../../../../../H-x86_64-mingw32/nios2-elf/lib/mhw-mulx\libc.a(lib_a-fstatr.o)
 .debug_abbrev  0x0000000000004f53      0x1bb c:/develop/altera/14.0/nios2eds/bin/gnu/h-x86_64-mingw32/bin/../lib/gcc/nios2-elf/4.7.3/../../../../../H-x86_64-mingw32/nios2-elf/lib/mhw-mulx\libc.a(lib_a-isattyr.o)
 .debug_abbrev  0x000000000000510e      0x1ca c:/develop/altera/14.0/nios2eds/bin/gnu/h-x86_64-mingw32/bin/../lib/gcc/nios2-elf/4.7.3/../../../../../H-x86_64-mingw32/nios2-elf/lib/mhw-mulx\libc.a(lib_a-lseekr.o)
 .debug_abbrev  0x00000000000052d8      0x1bb c:/develop/altera/14.0/nios2eds/bin/gnu/h-x86_64-mingw32/bin/../lib/gcc/nios2-elf/4.7.3/../../../../../H-x86_64-mingw32/nios2-elf/lib/mhw-mulx\libc.a(lib_a-readr.o)
 .debug_abbrev  0x0000000000005493      0x170 c:/develop/altera/14.0/nios2eds/bin/gnu/h-x86_64-mingw32/bin/../lib/gcc/nios2-elf/4.7.3/mhw-mulx\libgcc.a(_udivdi3.o)
 .debug_abbrev  0x0000000000005603      0x193 c:/develop/altera/14.0/nios2eds/bin/gnu/h-x86_64-mingw32/bin/../lib/gcc/nios2-elf/4.7.3/mhw-mulx\libgcc.a(_umoddi3.o)
 .debug_abbrev  0x0000000000005796      0x22d c:/develop/altera/14.0/nios2eds/bin/gnu/h-x86_64-mingw32/bin/../lib/gcc/nios2-elf/4.7.3/mhw-mulx\libgcc.a(_addsub_df.o)
 .debug_abbrev  0x00000000000059c3      0x242 c:/develop/altera/14.0/nios2eds/bin/gnu/h-x86_64-mingw32/bin/../lib/gcc/nios2-elf/4.7.3/mhw-mulx\libgcc.a(_mul_df.o)
 .debug_abbrev  0x0000000000005c05      0x245 c:/develop/altera/14.0/nios2eds/bin/gnu/h-x86_64-mingw32/bin/../lib/gcc/nios2-elf/4.7.3/mhw-mulx\libgcc.a(_div_df.o)
 .debug_abbrev  0x0000000000005e4a      0x1a5 c:/develop/altera/14.0/nios2eds/bin/gnu/h-x86_64-mingw32/bin/../lib/gcc/nios2-elf/4.7.3/mhw-mulx\libgcc.a(_eq_df.o)
 .debug_abbrev  0x0000000000005fef      0x1a5 c:/develop/altera/14.0/nios2eds/bin/gnu/h-x86_64-mingw32/bin/../lib/gcc/nios2-elf/4.7.3/mhw-mulx\libgcc.a(_ne_df.o)
 .debug_abbrev  0x0000000000006194      0x1a5 c:/develop/altera/14.0/nios2eds/bin/gnu/h-x86_64-mingw32/bin/../lib/gcc/nios2-elf/4.7.3/mhw-mulx\libgcc.a(_gt_df.o)
 .debug_abbrev  0x0000000000006339      0x1a5 c:/develop/altera/14.0/nios2eds/bin/gnu/h-x86_64-mingw32/bin/../lib/gcc/nios2-elf/4.7.3/mhw-mulx\libgcc.a(_ge_df.o)
 .debug_abbrev  0x00000000000064de      0x1a5 c:/develop/altera/14.0/nios2eds/bin/gnu/h-x86_64-mingw32/bin/../lib/gcc/nios2-elf/4.7.3/mhw-mulx\libgcc.a(_lt_df.o)
 .debug_abbrev  0x0000000000006683      0x19c c:/develop/altera/14.0/nios2eds/bin/gnu/h-x86_64-mingw32/bin/../lib/gcc/nios2-elf/4.7.3/mhw-mulx\libgcc.a(_si_to_df.o)
 .debug_abbrev  0x000000000000681f      0x1ae c:/develop/altera/14.0/nios2eds/bin/gnu/h-x86_64-mingw32/bin/../lib/gcc/nios2-elf/4.7.3/mhw-mulx\libgcc.a(_df_to_si.o)
 .debug_abbrev  0x00000000000069cd       0xb6 c:/develop/altera/14.0/nios2eds/bin/gnu/h-x86_64-mingw32/bin/../lib/gcc/nios2-elf/4.7.3/mhw-mulx\libgcc.a(_thenan_df.o)
 .debug_abbrev  0x0000000000006a83      0x1bf c:/develop/altera/14.0/nios2eds/bin/gnu/h-x86_64-mingw32/bin/../lib/gcc/nios2-elf/4.7.3/mhw-mulx\libgcc.a(_usi_to_df.o)
 .debug_abbrev  0x0000000000006c42       0x5d c:/develop/altera/14.0/nios2eds/bin/gnu/h-x86_64-mingw32/bin/../lib/gcc/nios2-elf/4.7.3/mhw-mulx\libgcc.a(_clz.o)
 .debug_abbrev  0x0000000000006c9f       0xbe c:/develop/altera/14.0/nios2eds/bin/gnu/h-x86_64-mingw32/bin/../lib/gcc/nios2-elf/4.7.3/mhw-mulx\libgcc.a(_clzsi2.o)
 .debug_abbrev  0x0000000000006d5d      0x1b6 c:/develop/altera/14.0/nios2eds/bin/gnu/h-x86_64-mingw32/bin/../lib/gcc/nios2-elf/4.7.3/mhw-mulx\libgcc.a(_pack_df.o)
 .debug_abbrev  0x0000000000006f13      0x15d c:/develop/altera/14.0/nios2eds/bin/gnu/h-x86_64-mingw32/bin/../lib/gcc/nios2-elf/4.7.3/mhw-mulx\libgcc.a(_unpack_df.o)
 .debug_abbrev  0x0000000000007070      0x146 c:/develop/altera/14.0/nios2eds/bin/gnu/h-x86_64-mingw32/bin/../lib/gcc/nios2-elf/4.7.3/mhw-mulx\libgcc.a(_fpcmp_parts_df.o)
 .debug_abbrev  0x00000000000071b6       0xf1 c:/develop/altera/14.0/nios2eds/bin/gnu/h-x86_64-mingw32/bin/../lib/gcc/nios2-elf/4.7.3/mhw-mulx\libgcc.a(_lshrdi3.o)
 .debug_abbrev  0x00000000000072a7       0xf1 c:/develop/altera/14.0/nios2eds/bin/gnu/h-x86_64-mingw32/bin/../lib/gcc/nios2-elf/4.7.3/mhw-mulx\libgcc.a(_ashldi3.o)
 .debug_abbrev  0x0000000000007398      0x176 ../sodalite_ckplay_bsp/\libhal_bsp.a(alt_close.o)
 .debug_abbrev  0x000000000000750e       0x9b ../sodalite_ckplay_bsp/\libhal_bsp.a(alt_dcache_flush.o)
 .debug_abbrev  0x00000000000075a9       0xd9 ../sodalite_ckplay_bsp/\libhal_bsp.a(alt_dev.o)
 .debug_abbrev  0x0000000000007682       0x5a ../sodalite_ckplay_bsp/\libhal_bsp.a(alt_errno.o)
 .debug_abbrev  0x00000000000076dc      0x10f ../sodalite_ckplay_bsp/\libhal_bsp.a(alt_fs_reg.o)
 .debug_abbrev  0x00000000000077eb      0x13f ../sodalite_ckplay_bsp/\libhal_bsp.a(alt_fstat.o)
 .debug_abbrev  0x000000000000792a      0x151 ../sodalite_ckplay_bsp/\libhal_bsp.a(alt_isatty.o)
 .debug_abbrev  0x0000000000007a7b       0xd8 ../sodalite_ckplay_bsp/\libhal_bsp.a(alt_load.o)
 .debug_abbrev  0x0000000000007b53      0x13c ../sodalite_ckplay_bsp/\libhal_bsp.a(alt_lseek.o)
 .debug_abbrev  0x0000000000007c8f      0x14d ../sodalite_ckplay_bsp/\libhal_bsp.a(alt_main.o)
 .debug_abbrev  0x0000000000007ddc      0x187 ../sodalite_ckplay_bsp/\libhal_bsp.a(alt_malloc_lock.o)
 .debug_abbrev  0x0000000000007f63      0x15a ../sodalite_ckplay_bsp/\libhal_bsp.a(alt_read.o)
 .debug_abbrev  0x00000000000080bd       0xde ../sodalite_ckplay_bsp/\libhal_bsp.a(alt_release_fd.o)
 .debug_abbrev  0x000000000000819b      0x12a ../sodalite_ckplay_bsp/\libhal_bsp.a(alt_sbrk.o)
 .debug_abbrev  0x00000000000082c5       0xa7 ../sodalite_ckplay_bsp/\libhal_bsp.a(alt_uncached_free.o)
 .debug_abbrev  0x000000000000836c       0xf0 ../sodalite_ckplay_bsp/\libhal_bsp.a(alt_uncached_malloc.o)
 .debug_abbrev  0x000000000000845c      0x15f ../sodalite_ckplay_bsp/\libhal_bsp.a(alt_write.o)
 .debug_abbrev  0x00000000000085bb      0x200 ../sodalite_ckplay_bsp/\libhal_bsp.a(alt_sys_init.o)
 .debug_abbrev  0x00000000000087bb      0x168 ../sodalite_ckplay_bsp/\libhal_bsp.a(altera_avalon_jtag_uart_fd.o)
 .debug_abbrev  0x0000000000008923      0x1ed ../sodalite_ckplay_bsp/\libhal_bsp.a(altera_avalon_jtag_uart_init.o)
 .debug_abbrev  0x0000000000008b10      0x111 ../sodalite_ckplay_bsp/\libhal_bsp.a(altera_avalon_jtag_uart_ioctl.o)
 .debug_abbrev  0x0000000000008c21      0x1ca ../sodalite_ckplay_bsp/\libhal_bsp.a(altera_avalon_jtag_uart_read.o)
 .debug_abbrev  0x0000000000008deb      0x1b7 ../sodalite_ckplay_bsp/\libhal_bsp.a(altera_avalon_jtag_uart_write.o)
 .debug_abbrev  0x0000000000008fa2      0x1ad ../sodalite_ckplay_bsp/\libhal_bsp.a(altera_avalon_timer_sc.o)
 .debug_abbrev  0x000000000000914f      0x171 ../sodalite_ckplay_bsp/\libhal_bsp.a(altera_modular_adc.o)
 .debug_abbrev  0x00000000000092c0      0x371 ../sodalite_ckplay_bsp/\libhal_bsp.a(altera_onchip_flash.o)
 .debug_abbrev  0x0000000000009631      0x187 ../sodalite_ckplay_bsp/\libhal_bsp.a(alt_alarm_start.o)
 .debug_abbrev  0x00000000000097b8       0x5a ../sodalite_ckplay_bsp/\libhal_bsp.a(alt_dcache_flush_all.o)
 .debug_abbrev  0x0000000000009812      0x11e ../sodalite_ckplay_bsp/\libhal_bsp.a(alt_dev_llist_insert.o)
 .debug_abbrev  0x0000000000009930       0x79 ../sodalite_ckplay_bsp/\libhal_bsp.a(alt_do_ctors.o)
 .debug_abbrev  0x00000000000099a9       0x79 ../sodalite_ckplay_bsp/\libhal_bsp.a(alt_do_dtors.o)
 .debug_abbrev  0x0000000000009a22      0x12e ../sodalite_ckplay_bsp/\libhal_bsp.a(alt_find_dev.o)
 .debug_abbrev  0x0000000000009b50      0x16a ../sodalite_ckplay_bsp/\libhal_bsp.a(alt_flash_dev.o)
 .debug_abbrev  0x0000000000009cba       0x8a ../sodalite_ckplay_bsp/\libhal_bsp.a(alt_icache_flush_all.o)
 .debug_abbrev  0x0000000000009d44      0x18c ../sodalite_ckplay_bsp/\libhal_bsp.a(alt_iic.o)
 .debug_abbrev  0x0000000000009ed0      0x1b5 ../sodalite_ckplay_bsp/\libhal_bsp.a(alt_iic_isr_register.o)
 .debug_abbrev  0x000000000000a085      0x1a3 ../sodalite_ckplay_bsp/\libhal_bsp.a(alt_io_redirect.o)
 .debug_abbrev  0x000000000000a228       0x12 ../sodalite_ckplay_bsp/\libhal_bsp.a(alt_irq_entry.o)
 .debug_abbrev  0x000000000000a23a      0x12d ../sodalite_ckplay_bsp/\libhal_bsp.a(alt_irq_handler.o)
 .debug_abbrev  0x000000000000a367       0x40 ../sodalite_ckplay_bsp/\libhal_bsp.a(alt_irq_vars.o)
 .debug_abbrev  0x000000000000a3a7      0x1ea ../sodalite_ckplay_bsp/\libhal_bsp.a(alt_open.o)
 .debug_abbrev  0x000000000000a591      0x17d ../sodalite_ckplay_bsp/\libhal_bsp.a(alt_tick.o)
 .debug_abbrev  0x000000000000a70e       0x42 ../sodalite_ckplay_bsp/\libhal_bsp.a(altera_nios2_gen2_irq.o)
 .debug_abbrev  0x000000000000a750       0x12 ../sodalite_ckplay_bsp/\libhal_bsp.a(alt_exception_entry.o)
 .debug_abbrev  0x000000000000a762      0x13f ../sodalite_ckplay_bsp/\libhal_bsp.a(alt_find_file.o)
 .debug_abbrev  0x000000000000a8a1      0x10d ../sodalite_ckplay_bsp/\libhal_bsp.a(alt_get_fd.o)
 .debug_abbrev  0x000000000000a9ae       0x9b ../sodalite_ckplay_bsp/\libhal_bsp.a(alt_icache_flush.o)
 .debug_abbrev  0x000000000000aa49       0xcf ../sodalite_ckplay_bsp/\libhal_bsp.a(alt_instruction_exception_entry.o)
 .debug_abbrev  0x000000000000ab18      0x106 c:/develop/altera/14.0/nios2eds/bin/gnu/h-x86_64-mingw32/bin/../lib/gcc/nios2-elf/4.7.3/../../../../../H-x86_64-mingw32/nios2-elf/lib/mhw-mulx\libc.a(lib_a-atexit.o)
 .debug_abbrev  0x000000000000ac1e      0x1c8 c:/develop/altera/14.0/nios2eds/bin/gnu/h-x86_64-mingw32/bin/../lib/gcc/nios2-elf/4.7.3/../../../../../H-x86_64-mingw32/nios2-elf/lib/mhw-mulx\libc.a(lib_a-exit.o)
 .debug_abbrev  0x000000000000ade6      0x1af c:/develop/altera/14.0/nios2eds/bin/gnu/h-x86_64-mingw32/bin/../lib/gcc/nios2-elf/4.7.3/../../../../../H-x86_64-mingw32/nios2-elf/lib/mhw-mulx\libc.a(lib_a-malign.o)
 .debug_abbrev  0x000000000000af95      0x20b c:/develop/altera/14.0/nios2eds/bin/gnu/h-x86_64-mingw32/bin/../lib/gcc/nios2-elf/4.7.3/../../../../../H-x86_64-mingw32/nios2-elf/lib/mhw-mulx\libc.a(lib_a-malignr.o)
 .debug_abbrev  0x000000000000b1a0       0x7f c:/develop/altera/14.0/nios2eds/bin/gnu/h-x86_64-mingw32/bin/../lib/gcc/nios2-elf/4.7.3/../../../../../H-x86_64-mingw32/nios2-elf/lib/mhw-mulx\libc.a(lib_a-memcmp.o)
 .debug_abbrev  0x000000000000b21f      0x211 c:/develop/altera/14.0/nios2eds/bin/gnu/h-x86_64-mingw32/bin/../lib/gcc/nios2-elf/4.7.3/../../../../../H-x86_64-mingw32/nios2-elf/lib/mhw-mulx\libc.a(lib_a-__atexit.o)
 .debug_abbrev  0x000000000000b430      0x203 c:/develop/altera/14.0/nios2eds/bin/gnu/h-x86_64-mingw32/bin/../lib/gcc/nios2-elf/4.7.3/../../../../../H-x86_64-mingw32/nios2-elf/lib/mhw-mulx\libc.a(lib_a-__call_atexit.o)
 .debug_abbrev  0x000000000000b633       0xa6 ../sodalite_ckplay_bsp/\libhal_bsp.a(alt_exit.o)

.debug_line     0x0000000000000000     0xd64d
 *(.debug_line)
 .debug_line    0x0000000000000000       0x72 ../sodalite_ckplay_bsp//obj/HAL/src/crt0.o
 .debug_line    0x0000000000000072      0x275 obj/default/ckplay_peridot.o
 .debug_line    0x00000000000002e7      0xdef obj/default/mmcfs/fatfs/ff.o
 .debug_line    0x00000000000010d6      0x2aa obj/default/mmcfs/fatfs/mmcbb.o
 .debug_line    0x0000000000001380       0xa0 obj/default/mmcfs/fatfs/option/cc932.o
 .debug_line    0x0000000000001420       0x5b obj/default/mmcfs/gettime.o
 .debug_line    0x000000000000147b      0x114 obj/default/mmcfs/mmc_spi.o
 .debug_line    0x000000000000158f      0x2ef obj/default/mmcfs/mmcfs.o
 .debug_line    0x000000000000187e      0x4f3 obj/default/nd_lib/nd_acm.o
 .debug_line    0x0000000000001d71      0x33a obj/default/nd_lib/nd_egl.o
 .debug_line    0x00000000000020ab      0x17f obj/default/nd_lib/nd_acm_mcudecode.o
 .debug_line    0x000000000000222a       0xd6 c:/develop/altera/14.0/nios2eds/bin/gnu/h-x86_64-mingw32/bin/../lib/gcc/nios2-elf/4.7.3/mhw-mulx\libgcc.a(lib2-divmod.o)
 .debug_line    0x0000000000002300      0x206 c:/develop/altera/14.0/nios2eds/bin/gnu/h-x86_64-mingw32/bin/../lib/gcc/nios2-elf/4.7.3/../../../../../H-x86_64-mingw32/nios2-elf/lib/mhw-mulx\libc.a(lib_a-malloc.o)
 .debug_line    0x0000000000002506      0x420 c:/develop/altera/14.0/nios2eds/bin/gnu/h-x86_64-mingw32/bin/../lib/gcc/nios2-elf/4.7.3/../../../../../H-x86_64-mingw32/nios2-elf/lib/mhw-mulx\libc.a(lib_a-mallocr.o)
 .debug_line    0x0000000000002926      0x140 c:/develop/altera/14.0/nios2eds/bin/gnu/h-x86_64-mingw32/bin/../lib/gcc/nios2-elf/4.7.3/../../../../../H-x86_64-mingw32/nios2-elf/lib/mhw-mulx\libc.a(lib_a-memcpy.o)
 .debug_line    0x0000000000002a66      0x1f2 c:/develop/altera/14.0/nios2eds/bin/gnu/h-x86_64-mingw32/bin/../lib/gcc/nios2-elf/4.7.3/../../../../../H-x86_64-mingw32/nios2-elf/lib/mhw-mulx\libc.a(lib_a-memset.o)
 .debug_line    0x0000000000002c58      0x217 c:/develop/altera/14.0/nios2eds/bin/gnu/h-x86_64-mingw32/bin/../lib/gcc/nios2-elf/4.7.3/../../../../../H-x86_64-mingw32/nios2-elf/lib/mhw-mulx\libc.a(lib_a-printf.o)
 .debug_line    0x0000000000002e6f      0x234 c:/develop/altera/14.0/nios2eds/bin/gnu/h-x86_64-mingw32/bin/../lib/gcc/nios2-elf/4.7.3/../../../../../H-x86_64-mingw32/nios2-elf/lib/mhw-mulx\libc.a(lib_a-puts.o)
 .debug_line    0x00000000000030a3      0x211 c:/develop/altera/14.0/nios2eds/bin/gnu/h-x86_64-mingw32/bin/../lib/gcc/nios2-elf/4.7.3/../../../../../H-x86_64-mingw32/nios2-elf/lib/mhw-mulx\libc.a(lib_a-sbrkr.o)
 .debug_line    0x00000000000032b4      0x10c c:/develop/altera/14.0/nios2eds/bin/gnu/h-x86_64-mingw32/bin/../lib/gcc/nios2-elf/4.7.3/../../../../../H-x86_64-mingw32/nios2-elf/lib/mhw-mulx\libc.a(lib_a-strcpy.o)
 .debug_line    0x00000000000033c0      0x183 c:/develop/altera/14.0/nios2eds/bin/gnu/h-x86_64-mingw32/bin/../lib/gcc/nios2-elf/4.7.3/../../../../../H-x86_64-mingw32/nios2-elf/lib/mhw-mulx\libc.a(lib_a-strlen.o)
 .debug_line    0x0000000000003543      0xaf6 c:/develop/altera/14.0/nios2eds/bin/gnu/h-x86_64-mingw32/bin/../lib/gcc/nios2-elf/4.7.3/../../../../../H-x86_64-mingw32/nios2-elf/lib/mhw-mulx\libc.a(lib_a-vfprintf.o)
 .debug_line    0x0000000000004039      0x26a c:/develop/altera/14.0/nios2eds/bin/gnu/h-x86_64-mingw32/bin/../lib/gcc/nios2-elf/4.7.3/../../../../../H-x86_64-mingw32/nios2-elf/lib/mhw-mulx\libc.a(lib_a-wsetup.o)
 .debug_line    0x00000000000042a3      0x873 c:/develop/altera/14.0/nios2eds/bin/gnu/h-x86_64-mingw32/bin/../lib/gcc/nios2-elf/4.7.3/../../../../../H-x86_64-mingw32/nios2-elf/lib/mhw-mulx\libc.a(lib_a-dtoa.o)
 .debug_line    0x0000000000004b16      0x29b c:/develop/altera/14.0/nios2eds/bin/gnu/h-x86_64-mingw32/bin/../lib/gcc/nios2-elf/4.7.3/../../../../../H-x86_64-mingw32/nios2-elf/lib/mhw-mulx\libc.a(lib_a-fflush.o)
 .debug_line    0x0000000000004db1      0x2e5 c:/develop/altera/14.0/nios2eds/bin/gnu/h-x86_64-mingw32/bin/../lib/gcc/nios2-elf/4.7.3/../../../../../H-x86_64-mingw32/nios2-elf/lib/mhw-mulx\libc.a(lib_a-findfp.o)
 .debug_line    0x0000000000005096      0x310 c:/develop/altera/14.0/nios2eds/bin/gnu/h-x86_64-mingw32/bin/../lib/gcc/nios2-elf/4.7.3/../../../../../H-x86_64-mingw32/nios2-elf/lib/mhw-mulx\libc.a(lib_a-freer.o)
 .debug_line    0x00000000000053a6      0x35f c:/develop/altera/14.0/nios2eds/bin/gnu/h-x86_64-mingw32/bin/../lib/gcc/nios2-elf/4.7.3/../../../../../H-x86_64-mingw32/nios2-elf/lib/mhw-mulx\libc.a(lib_a-fvwrite.o)
 .debug_line    0x0000000000005705      0x258 c:/develop/altera/14.0/nios2eds/bin/gnu/h-x86_64-mingw32/bin/../lib/gcc/nios2-elf/4.7.3/../../../../../H-x86_64-mingw32/nios2-elf/lib/mhw-mulx\libc.a(lib_a-fwalk.o)
 .debug_line    0x000000000000595d      0x174 c:/develop/altera/14.0/nios2eds/bin/gnu/h-x86_64-mingw32/bin/../lib/gcc/nios2-elf/4.7.3/../../../../../H-x86_64-mingw32/nios2-elf/lib/mhw-mulx\libc.a(lib_a-impure.o)
 .debug_line    0x0000000000005ad1       0x60 c:/develop/altera/14.0/nios2eds/bin/gnu/h-x86_64-mingw32/bin/../lib/gcc/nios2-elf/4.7.3/../../../../../H-x86_64-mingw32/nios2-elf/lib/mhw-mulx\libc.a(lib_a-int_errno.o)
 .debug_line    0x0000000000005b31      0x230 c:/develop/altera/14.0/nios2eds/bin/gnu/h-x86_64-mingw32/bin/../lib/gcc/nios2-elf/4.7.3/../../../../../H-x86_64-mingw32/nios2-elf/lib/mhw-mulx\libc.a(lib_a-locale.o)
 .debug_line    0x0000000000005d61      0x292 c:/develop/altera/14.0/nios2eds/bin/gnu/h-x86_64-mingw32/bin/../lib/gcc/nios2-elf/4.7.3/../../../../../H-x86_64-mingw32/nios2-elf/lib/mhw-mulx\libc.a(lib_a-makebuf.o)
 .debug_line    0x0000000000005ff3      0x1f2 c:/develop/altera/14.0/nios2eds/bin/gnu/h-x86_64-mingw32/bin/../lib/gcc/nios2-elf/4.7.3/../../../../../H-x86_64-mingw32/nios2-elf/lib/mhw-mulx\libc.a(lib_a-memchr.o)
 .debug_line    0x00000000000061e5      0x1ee c:/develop/altera/14.0/nios2eds/bin/gnu/h-x86_64-mingw32/bin/../lib/gcc/nios2-elf/4.7.3/../../../../../H-x86_64-mingw32/nios2-elf/lib/mhw-mulx\libc.a(lib_a-memmove.o)
 .debug_line    0x00000000000063d3      0x722 c:/develop/altera/14.0/nios2eds/bin/gnu/h-x86_64-mingw32/bin/../lib/gcc/nios2-elf/4.7.3/../../../../../H-x86_64-mingw32/nios2-elf/lib/mhw-mulx\libc.a(lib_a-mprec.o)
 .debug_line    0x0000000000006af5      0x331 c:/develop/altera/14.0/nios2eds/bin/gnu/h-x86_64-mingw32/bin/../lib/gcc/nios2-elf/4.7.3/../../../../../H-x86_64-mingw32/nios2-elf/lib/mhw-mulx\libc.a(lib_a-reallocr.o)
 .debug_line    0x0000000000006e26      0x16f c:/develop/altera/14.0/nios2eds/bin/gnu/h-x86_64-mingw32/bin/../lib/gcc/nios2-elf/4.7.3/../../../../../H-x86_64-mingw32/nios2-elf/lib/mhw-mulx\libc.a(lib_a-s_isinfd.o)
 .debug_line    0x0000000000006f95      0x16f c:/develop/altera/14.0/nios2eds/bin/gnu/h-x86_64-mingw32/bin/../lib/gcc/nios2-elf/4.7.3/../../../../../H-x86_64-mingw32/nios2-elf/lib/mhw-mulx\libc.a(lib_a-s_isnand.o)
 .debug_line    0x0000000000007104      0x244 c:/develop/altera/14.0/nios2eds/bin/gnu/h-x86_64-mingw32/bin/../lib/gcc/nios2-elf/4.7.3/../../../../../H-x86_64-mingw32/nios2-elf/lib/mhw-mulx\libc.a(lib_a-stdio.o)
 .debug_line    0x0000000000007348      0x111 c:/develop/altera/14.0/nios2eds/bin/gnu/h-x86_64-mingw32/bin/../lib/gcc/nios2-elf/4.7.3/../../../../../H-x86_64-mingw32/nios2-elf/lib/mhw-mulx\libc.a(lib_a-strcmp.o)
 .debug_line    0x0000000000007459      0x212 c:/develop/altera/14.0/nios2eds/bin/gnu/h-x86_64-mingw32/bin/../lib/gcc/nios2-elf/4.7.3/../../../../../H-x86_64-mingw32/nios2-elf/lib/mhw-mulx\libc.a(lib_a-writer.o)
 .debug_line    0x000000000000766b      0x1ca c:/develop/altera/14.0/nios2eds/bin/gnu/h-x86_64-mingw32/bin/../lib/gcc/nios2-elf/4.7.3/../../../../../H-x86_64-mingw32/nios2-elf/lib/mhw-mulx\libc.a(lib_a-callocr.o)
 .debug_line    0x0000000000007835      0x212 c:/develop/altera/14.0/nios2eds/bin/gnu/h-x86_64-mingw32/bin/../lib/gcc/nios2-elf/4.7.3/../../../../../H-x86_64-mingw32/nios2-elf/lib/mhw-mulx\libc.a(lib_a-closer.o)
 .debug_line    0x0000000000007a47      0x265 c:/develop/altera/14.0/nios2eds/bin/gnu/h-x86_64-mingw32/bin/../lib/gcc/nios2-elf/4.7.3/../../../../../H-x86_64-mingw32/nios2-elf/lib/mhw-mulx\libc.a(lib_a-fclose.o)
 .debug_line    0x0000000000007cac      0x21b c:/develop/altera/14.0/nios2eds/bin/gnu/h-x86_64-mingw32/bin/../lib/gcc/nios2-elf/4.7.3/../../../../../H-x86_64-mingw32/nios2-elf/lib/mhw-mulx\libc.a(lib_a-fstatr.o)
 .debug_line    0x0000000000007ec7      0x213 c:/develop/altera/14.0/nios2eds/bin/gnu/h-x86_64-mingw32/bin/../lib/gcc/nios2-elf/4.7.3/../../../../../H-x86_64-mingw32/nios2-elf/lib/mhw-mulx\libc.a(lib_a-isattyr.o)
 .debug_line    0x00000000000080da      0x21d c:/develop/altera/14.0/nios2eds/bin/gnu/h-x86_64-mingw32/bin/../lib/gcc/nios2-elf/4.7.3/../../../../../H-x86_64-mingw32/nios2-elf/lib/mhw-mulx\libc.a(lib_a-lseekr.o)
 .debug_line    0x00000000000082f7      0x211 c:/develop/altera/14.0/nios2eds/bin/gnu/h-x86_64-mingw32/bin/../lib/gcc/nios2-elf/4.7.3/../../../../../H-x86_64-mingw32/nios2-elf/lib/mhw-mulx\libc.a(lib_a-readr.o)
 .debug_line    0x0000000000008508      0x11c c:/develop/altera/14.0/nios2eds/bin/gnu/h-x86_64-mingw32/bin/../lib/gcc/nios2-elf/4.7.3/mhw-mulx\libgcc.a(_udivdi3.o)
 .debug_line    0x0000000000008624      0x124 c:/develop/altera/14.0/nios2eds/bin/gnu/h-x86_64-mingw32/bin/../lib/gcc/nios2-elf/4.7.3/mhw-mulx\libgcc.a(_umoddi3.o)
 .debug_line    0x0000000000008748      0x134 c:/develop/altera/14.0/nios2eds/bin/gnu/h-x86_64-mingw32/bin/../lib/gcc/nios2-elf/4.7.3/mhw-mulx\libgcc.a(_addsub_df.o)
 .debug_line    0x000000000000887c      0x104 c:/develop/altera/14.0/nios2eds/bin/gnu/h-x86_64-mingw32/bin/../lib/gcc/nios2-elf/4.7.3/mhw-mulx\libgcc.a(_mul_df.o)
 .debug_line    0x0000000000008980       0xd1 c:/develop/altera/14.0/nios2eds/bin/gnu/h-x86_64-mingw32/bin/../lib/gcc/nios2-elf/4.7.3/mhw-mulx\libgcc.a(_div_df.o)
 .debug_line    0x0000000000008a51       0x70 c:/develop/altera/14.0/nios2eds/bin/gnu/h-x86_64-mingw32/bin/../lib/gcc/nios2-elf/4.7.3/mhw-mulx\libgcc.a(_eq_df.o)
 .debug_line    0x0000000000008ac1       0x70 c:/develop/altera/14.0/nios2eds/bin/gnu/h-x86_64-mingw32/bin/../lib/gcc/nios2-elf/4.7.3/mhw-mulx\libgcc.a(_ne_df.o)
 .debug_line    0x0000000000008b31       0x71 c:/develop/altera/14.0/nios2eds/bin/gnu/h-x86_64-mingw32/bin/../lib/gcc/nios2-elf/4.7.3/mhw-mulx\libgcc.a(_gt_df.o)
 .debug_line    0x0000000000008ba2       0x71 c:/develop/altera/14.0/nios2eds/bin/gnu/h-x86_64-mingw32/bin/../lib/gcc/nios2-elf/4.7.3/mhw-mulx\libgcc.a(_ge_df.o)
 .debug_line    0x0000000000008c13       0x70 c:/develop/altera/14.0/nios2eds/bin/gnu/h-x86_64-mingw32/bin/../lib/gcc/nios2-elf/4.7.3/mhw-mulx\libgcc.a(_lt_df.o)
 .debug_line    0x0000000000008c83       0x97 c:/develop/altera/14.0/nios2eds/bin/gnu/h-x86_64-mingw32/bin/../lib/gcc/nios2-elf/4.7.3/mhw-mulx\libgcc.a(_si_to_df.o)
 .debug_line    0x0000000000008d1a       0x90 c:/develop/altera/14.0/nios2eds/bin/gnu/h-x86_64-mingw32/bin/../lib/gcc/nios2-elf/4.7.3/mhw-mulx\libgcc.a(_df_to_si.o)
 .debug_line    0x0000000000008daa       0x54 c:/develop/altera/14.0/nios2eds/bin/gnu/h-x86_64-mingw32/bin/../lib/gcc/nios2-elf/4.7.3/mhw-mulx\libgcc.a(_thenan_df.o)
 .debug_line    0x0000000000008dfe       0xa1 c:/develop/altera/14.0/nios2eds/bin/gnu/h-x86_64-mingw32/bin/../lib/gcc/nios2-elf/4.7.3/mhw-mulx\libgcc.a(_usi_to_df.o)
 .debug_line    0x0000000000008e9f       0x56 c:/develop/altera/14.0/nios2eds/bin/gnu/h-x86_64-mingw32/bin/../lib/gcc/nios2-elf/4.7.3/mhw-mulx\libgcc.a(_clz.o)
 .debug_line    0x0000000000008ef5       0x8f c:/develop/altera/14.0/nios2eds/bin/gnu/h-x86_64-mingw32/bin/../lib/gcc/nios2-elf/4.7.3/mhw-mulx\libgcc.a(_clzsi2.o)
 .debug_line    0x0000000000008f84       0xca c:/develop/altera/14.0/nios2eds/bin/gnu/h-x86_64-mingw32/bin/../lib/gcc/nios2-elf/4.7.3/mhw-mulx\libgcc.a(_pack_df.o)
 .debug_line    0x000000000000904e       0xa5 c:/develop/altera/14.0/nios2eds/bin/gnu/h-x86_64-mingw32/bin/../lib/gcc/nios2-elf/4.7.3/mhw-mulx\libgcc.a(_unpack_df.o)
 .debug_line    0x00000000000090f3       0x99 c:/develop/altera/14.0/nios2eds/bin/gnu/h-x86_64-mingw32/bin/../lib/gcc/nios2-elf/4.7.3/mhw-mulx\libgcc.a(_fpcmp_parts_df.o)
 .debug_line    0x000000000000918c       0x7a c:/develop/altera/14.0/nios2eds/bin/gnu/h-x86_64-mingw32/bin/../lib/gcc/nios2-elf/4.7.3/mhw-mulx\libgcc.a(_lshrdi3.o)
 .debug_line    0x0000000000009206       0x78 c:/develop/altera/14.0/nios2eds/bin/gnu/h-x86_64-mingw32/bin/../lib/gcc/nios2-elf/4.7.3/mhw-mulx\libgcc.a(_ashldi3.o)
 .debug_line    0x000000000000927e      0x18c ../sodalite_ckplay_bsp/\libhal_bsp.a(alt_close.o)
 .debug_line    0x000000000000940a       0x77 ../sodalite_ckplay_bsp/\libhal_bsp.a(alt_dcache_flush.o)
 .debug_line    0x0000000000009481      0x121 ../sodalite_ckplay_bsp/\libhal_bsp.a(alt_dev.o)
 .debug_line    0x00000000000095a2       0x51 ../sodalite_ckplay_bsp/\libhal_bsp.a(alt_errno.o)
 .debug_line    0x00000000000095f3       0xc4 ../sodalite_ckplay_bsp/\libhal_bsp.a(alt_fs_reg.o)
 .debug_line    0x00000000000096b7      0x174 ../sodalite_ckplay_bsp/\libhal_bsp.a(alt_fstat.o)
 .debug_line    0x000000000000982b      0x17e ../sodalite_ckplay_bsp/\libhal_bsp.a(alt_isatty.o)
 .debug_line    0x00000000000099a9       0xdc ../sodalite_ckplay_bsp/\libhal_bsp.a(alt_load.o)
 .debug_line    0x0000000000009a85      0x17b ../sodalite_ckplay_bsp/\libhal_bsp.a(alt_lseek.o)
 .debug_line    0x0000000000009c00      0x1cf ../sodalite_ckplay_bsp/\libhal_bsp.a(alt_main.o)
 .debug_line    0x0000000000009dcf      0x151 ../sodalite_ckplay_bsp/\libhal_bsp.a(alt_malloc_lock.o)
 .debug_line    0x0000000000009f20      0x20e ../sodalite_ckplay_bsp/\libhal_bsp.a(alt_read.o)
 .debug_line    0x000000000000a12e       0xac ../sodalite_ckplay_bsp/\libhal_bsp.a(alt_release_fd.o)
 .debug_line    0x000000000000a1da      0x117 ../sodalite_ckplay_bsp/\libhal_bsp.a(alt_sbrk.o)
 .debug_line    0x000000000000a2f1       0xed ../sodalite_ckplay_bsp/\libhal_bsp.a(alt_uncached_free.o)
 .debug_line    0x000000000000a3de      0x10b ../sodalite_ckplay_bsp/\libhal_bsp.a(alt_uncached_malloc.o)
 .debug_line    0x000000000000a4e9      0x206 ../sodalite_ckplay_bsp/\libhal_bsp.a(alt_write.o)
 .debug_line    0x000000000000a6ef      0x1c4 ../sodalite_ckplay_bsp/\libhal_bsp.a(alt_sys_init.o)
 .debug_line    0x000000000000a8b3      0x122 ../sodalite_ckplay_bsp/\libhal_bsp.a(altera_avalon_jtag_uart_fd.o)
 .debug_line    0x000000000000a9d5      0x19f ../sodalite_ckplay_bsp/\libhal_bsp.a(altera_avalon_jtag_uart_init.o)
 .debug_line    0x000000000000ab74      0x110 ../sodalite_ckplay_bsp/\libhal_bsp.a(altera_avalon_jtag_uart_ioctl.o)
 .debug_line    0x000000000000ac84      0x171 ../sodalite_ckplay_bsp/\libhal_bsp.a(altera_avalon_jtag_uart_read.o)
 .debug_line    0x000000000000adf5      0x196 ../sodalite_ckplay_bsp/\libhal_bsp.a(altera_avalon_jtag_uart_write.o)
 .debug_line    0x000000000000af8b       0xfe ../sodalite_ckplay_bsp/\libhal_bsp.a(altera_avalon_timer_sc.o)
 .debug_line    0x000000000000b089      0x18b ../sodalite_ckplay_bsp/\libhal_bsp.a(altera_modular_adc.o)
 .debug_line    0x000000000000b214      0x493 ../sodalite_ckplay_bsp/\libhal_bsp.a(altera_onchip_flash.o)
 .debug_line    0x000000000000b6a7       0xeb ../sodalite_ckplay_bsp/\libhal_bsp.a(alt_alarm_start.o)
 .debug_line    0x000000000000b792       0x5a ../sodalite_ckplay_bsp/\libhal_bsp.a(alt_dcache_flush_all.o)
 .debug_line    0x000000000000b7ec       0xcd ../sodalite_ckplay_bsp/\libhal_bsp.a(alt_dev_llist_insert.o)
 .debug_line    0x000000000000b8b9       0x5f ../sodalite_ckplay_bsp/\libhal_bsp.a(alt_do_ctors.o)
 .debug_line    0x000000000000b918       0x5f ../sodalite_ckplay_bsp/\libhal_bsp.a(alt_do_dtors.o)
 .debug_line    0x000000000000b977      0x1a7 ../sodalite_ckplay_bsp/\libhal_bsp.a(alt_find_dev.o)
 .debug_line    0x000000000000bb1e       0xea ../sodalite_ckplay_bsp/\libhal_bsp.a(alt_flash_dev.o)
 .debug_line    0x000000000000bc08       0x87 ../sodalite_ckplay_bsp/\libhal_bsp.a(alt_icache_flush_all.o)
 .debug_line    0x000000000000bc8f       0xf1 ../sodalite_ckplay_bsp/\libhal_bsp.a(alt_iic.o)
 .debug_line    0x000000000000bd80       0xd3 ../sodalite_ckplay_bsp/\libhal_bsp.a(alt_iic_isr_register.o)
 .debug_line    0x000000000000be53      0x174 ../sodalite_ckplay_bsp/\libhal_bsp.a(alt_io_redirect.o)
 .debug_line    0x000000000000bfc7       0x6b ../sodalite_ckplay_bsp/\libhal_bsp.a(alt_irq_entry.o)
 .debug_line    0x000000000000c032       0xab ../sodalite_ckplay_bsp/\libhal_bsp.a(alt_irq_handler.o)
 .debug_line    0x000000000000c0dd       0x50 ../sodalite_ckplay_bsp/\libhal_bsp.a(alt_irq_vars.o)
 .debug_line    0x000000000000c12d      0x112 ../sodalite_ckplay_bsp/\libhal_bsp.a(alt_open.o)
 .debug_line    0x000000000000c23f      0x12a ../sodalite_ckplay_bsp/\libhal_bsp.a(alt_tick.o)
 .debug_line    0x000000000000c369       0x50 ../sodalite_ckplay_bsp/\libhal_bsp.a(altera_nios2_gen2_irq.o)
 .debug_line    0x000000000000c3b9       0xb1 ../sodalite_ckplay_bsp/\libhal_bsp.a(alt_exception_entry.o)
 .debug_line    0x000000000000c46a      0x1c1 ../sodalite_ckplay_bsp/\libhal_bsp.a(alt_find_file.o)
 .debug_line    0x000000000000c62b       0xc6 ../sodalite_ckplay_bsp/\libhal_bsp.a(alt_get_fd.o)
 .debug_line    0x000000000000c6f1       0x7a ../sodalite_ckplay_bsp/\libhal_bsp.a(alt_icache_flush.o)
 .debug_line    0x000000000000c76b       0xc3 ../sodalite_ckplay_bsp/\libhal_bsp.a(alt_instruction_exception_entry.o)
 .debug_line    0x000000000000c82e      0x16c c:/develop/altera/14.0/nios2eds/bin/gnu/h-x86_64-mingw32/bin/../lib/gcc/nios2-elf/4.7.3/../../../../../H-x86_64-mingw32/nios2-elf/lib/mhw-mulx\libc.a(lib_a-atexit.o)
 .debug_line    0x000000000000c99a      0x218 c:/develop/altera/14.0/nios2eds/bin/gnu/h-x86_64-mingw32/bin/../lib/gcc/nios2-elf/4.7.3/../../../../../H-x86_64-mingw32/nios2-elf/lib/mhw-mulx\libc.a(lib_a-exit.o)
 .debug_line    0x000000000000cbb2      0x1ff c:/develop/altera/14.0/nios2eds/bin/gnu/h-x86_64-mingw32/bin/../lib/gcc/nios2-elf/4.7.3/../../../../../H-x86_64-mingw32/nios2-elf/lib/mhw-mulx\libc.a(lib_a-malign.o)
 .debug_line    0x000000000000cdb1      0x1f8 c:/develop/altera/14.0/nios2eds/bin/gnu/h-x86_64-mingw32/bin/../lib/gcc/nios2-elf/4.7.3/../../../../../H-x86_64-mingw32/nios2-elf/lib/mhw-mulx\libc.a(lib_a-malignr.o)
 .debug_line    0x000000000000cfa9      0x18e c:/develop/altera/14.0/nios2eds/bin/gnu/h-x86_64-mingw32/bin/../lib/gcc/nios2-elf/4.7.3/../../../../../H-x86_64-mingw32/nios2-elf/lib/mhw-mulx\libc.a(lib_a-memcmp.o)
 .debug_line    0x000000000000d137      0x24f c:/develop/altera/14.0/nios2eds/bin/gnu/h-x86_64-mingw32/bin/../lib/gcc/nios2-elf/4.7.3/../../../../../H-x86_64-mingw32/nios2-elf/lib/mhw-mulx\libc.a(lib_a-__atexit.o)
 .debug_line    0x000000000000d386      0x263 c:/develop/altera/14.0/nios2eds/bin/gnu/h-x86_64-mingw32/bin/../lib/gcc/nios2-elf/4.7.3/../../../../../H-x86_64-mingw32/nios2-elf/lib/mhw-mulx\libc.a(lib_a-__call_atexit.o)
 .debug_line    0x000000000000d5e9       0x64 ../sodalite_ckplay_bsp/\libhal_bsp.a(alt_exit.o)

.debug_frame    0x0000000000000000     0x2314
 *(.debug_frame)
 .debug_frame   0x0000000000000000       0x7c obj/default/ckplay_peridot.o
 .debug_frame   0x000000000000007c      0x49c obj/default/mmcfs/fatfs/ff.o
 .debug_frame   0x0000000000000518      0x178 obj/default/mmcfs/fatfs/mmcbb.o
 .debug_frame   0x0000000000000690       0x30 obj/default/mmcfs/fatfs/option/cc932.o
 .debug_frame   0x00000000000006c0       0x20 obj/default/mmcfs/gettime.o
 .debug_frame   0x00000000000006e0       0xe0 obj/default/mmcfs/mmc_spi.o
 .debug_frame   0x00000000000007c0       0xc0 obj/default/mmcfs/mmcfs.o
 .debug_frame   0x0000000000000880       0x9c obj/default/nd_lib/nd_acm.o
 .debug_frame   0x000000000000091c      0x280 obj/default/nd_lib/nd_egl.o
 .debug_frame   0x0000000000000b9c       0x70 c:/develop/altera/14.0/nios2eds/bin/gnu/h-x86_64-mingw32/bin/../lib/gcc/nios2-elf/4.7.3/mhw-mulx\libgcc.a(lib2-divmod.o)
 .debug_frame   0x0000000000000c0c       0x30 c:/develop/altera/14.0/nios2eds/bin/gnu/h-x86_64-mingw32/bin/../lib/gcc/nios2-elf/4.7.3/../../../../../H-x86_64-mingw32/nios2-elf/lib/mhw-mulx\libc.a(lib_a-malloc.o)
 .debug_frame   0x0000000000000c3c       0x38 c:/develop/altera/14.0/nios2eds/bin/gnu/h-x86_64-mingw32/bin/../lib/gcc/nios2-elf/4.7.3/../../../../../H-x86_64-mingw32/nios2-elf/lib/mhw-mulx\libc.a(lib_a-mallocr.o)
 .debug_frame   0x0000000000000c74       0x20 c:/develop/altera/14.0/nios2eds/bin/gnu/h-x86_64-mingw32/bin/../lib/gcc/nios2-elf/4.7.3/../../../../../H-x86_64-mingw32/nios2-elf/lib/mhw-mulx\libc.a(lib_a-memcpy.o)
 .debug_frame   0x0000000000000c94       0x20 c:/develop/altera/14.0/nios2eds/bin/gnu/h-x86_64-mingw32/bin/../lib/gcc/nios2-elf/4.7.3/../../../../../H-x86_64-mingw32/nios2-elf/lib/mhw-mulx\libc.a(lib_a-memset.o)
 .debug_frame   0x0000000000000cb4       0x40 c:/develop/altera/14.0/nios2eds/bin/gnu/h-x86_64-mingw32/bin/../lib/gcc/nios2-elf/4.7.3/../../../../../H-x86_64-mingw32/nios2-elf/lib/mhw-mulx\libc.a(lib_a-printf.o)
 .debug_frame   0x0000000000000cf4       0x3c c:/develop/altera/14.0/nios2eds/bin/gnu/h-x86_64-mingw32/bin/../lib/gcc/nios2-elf/4.7.3/../../../../../H-x86_64-mingw32/nios2-elf/lib/mhw-mulx\libc.a(lib_a-puts.o)
 .debug_frame   0x0000000000000d30       0x2c c:/develop/altera/14.0/nios2eds/bin/gnu/h-x86_64-mingw32/bin/../lib/gcc/nios2-elf/4.7.3/../../../../../H-x86_64-mingw32/nios2-elf/lib/mhw-mulx\libc.a(lib_a-sbrkr.o)
 .debug_frame   0x0000000000000d5c       0x20 c:/develop/altera/14.0/nios2eds/bin/gnu/h-x86_64-mingw32/bin/../lib/gcc/nios2-elf/4.7.3/../../../../../H-x86_64-mingw32/nios2-elf/lib/mhw-mulx\libc.a(lib_a-strcpy.o)
 .debug_frame   0x0000000000000d7c       0x20 c:/develop/altera/14.0/nios2eds/bin/gnu/h-x86_64-mingw32/bin/../lib/gcc/nios2-elf/4.7.3/../../../../../H-x86_64-mingw32/nios2-elf/lib/mhw-mulx\libc.a(lib_a-strlen.o)
 .debug_frame   0x0000000000000d9c       0x64 c:/develop/altera/14.0/nios2eds/bin/gnu/h-x86_64-mingw32/bin/../lib/gcc/nios2-elf/4.7.3/../../../../../H-x86_64-mingw32/nios2-elf/lib/mhw-mulx\libc.a(lib_a-vfprintf.o)
 .debug_frame   0x0000000000000e00       0x2c c:/develop/altera/14.0/nios2eds/bin/gnu/h-x86_64-mingw32/bin/../lib/gcc/nios2-elf/4.7.3/../../../../../H-x86_64-mingw32/nios2-elf/lib/mhw-mulx\libc.a(lib_a-wsetup.o)
 .debug_frame   0x0000000000000e2c       0x64 c:/develop/altera/14.0/nios2eds/bin/gnu/h-x86_64-mingw32/bin/../lib/gcc/nios2-elf/4.7.3/../../../../../H-x86_64-mingw32/nios2-elf/lib/mhw-mulx\libc.a(lib_a-dtoa.o)
 .debug_frame   0x0000000000000e90       0x40 c:/develop/altera/14.0/nios2eds/bin/gnu/h-x86_64-mingw32/bin/../lib/gcc/nios2-elf/4.7.3/../../../../../H-x86_64-mingw32/nios2-elf/lib/mhw-mulx\libc.a(lib_a-fflush.o)
 .debug_frame   0x0000000000000ed0      0x100 c:/develop/altera/14.0/nios2eds/bin/gnu/h-x86_64-mingw32/bin/../lib/gcc/nios2-elf/4.7.3/../../../../../H-x86_64-mingw32/nios2-elf/lib/mhw-mulx\libc.a(lib_a-findfp.o)
 .debug_frame   0x0000000000000fd0       0x4c c:/develop/altera/14.0/nios2eds/bin/gnu/h-x86_64-mingw32/bin/../lib/gcc/nios2-elf/4.7.3/../../../../../H-x86_64-mingw32/nios2-elf/lib/mhw-mulx\libc.a(lib_a-freer.o)
 .debug_frame   0x000000000000101c       0x38 c:/develop/altera/14.0/nios2eds/bin/gnu/h-x86_64-mingw32/bin/../lib/gcc/nios2-elf/4.7.3/../../../../../H-x86_64-mingw32/nios2-elf/lib/mhw-mulx\libc.a(lib_a-fvwrite.o)
 .debug_frame   0x0000000000001054       0x5c c:/develop/altera/14.0/nios2eds/bin/gnu/h-x86_64-mingw32/bin/../lib/gcc/nios2-elf/4.7.3/../../../../../H-x86_64-mingw32/nios2-elf/lib/mhw-mulx\libc.a(lib_a-fwalk.o)
 .debug_frame   0x00000000000010b0       0x6c c:/develop/altera/14.0/nios2eds/bin/gnu/h-x86_64-mingw32/bin/../lib/gcc/nios2-elf/4.7.3/../../../../../H-x86_64-mingw32/nios2-elf/lib/mhw-mulx\libc.a(lib_a-locale.o)
 .debug_frame   0x000000000000111c       0x2c c:/develop/altera/14.0/nios2eds/bin/gnu/h-x86_64-mingw32/bin/../lib/gcc/nios2-elf/4.7.3/../../../../../H-x86_64-mingw32/nios2-elf/lib/mhw-mulx\libc.a(lib_a-makebuf.o)
 .debug_frame   0x0000000000001148       0x20 c:/develop/altera/14.0/nios2eds/bin/gnu/h-x86_64-mingw32/bin/../lib/gcc/nios2-elf/4.7.3/../../../../../H-x86_64-mingw32/nios2-elf/lib/mhw-mulx\libc.a(lib_a-memchr.o)
 .debug_frame   0x0000000000001168       0x20 c:/develop/altera/14.0/nios2eds/bin/gnu/h-x86_64-mingw32/bin/../lib/gcc/nios2-elf/4.7.3/../../../../../H-x86_64-mingw32/nios2-elf/lib/mhw-mulx\libc.a(lib_a-memmove.o)
 .debug_frame   0x0000000000001188      0x204 c:/develop/altera/14.0/nios2eds/bin/gnu/h-x86_64-mingw32/bin/../lib/gcc/nios2-elf/4.7.3/../../../../../H-x86_64-mingw32/nios2-elf/lib/mhw-mulx\libc.a(lib_a-mprec.o)
 .debug_frame   0x000000000000138c       0x38 c:/develop/altera/14.0/nios2eds/bin/gnu/h-x86_64-mingw32/bin/../lib/gcc/nios2-elf/4.7.3/../../../../../H-x86_64-mingw32/nios2-elf/lib/mhw-mulx\libc.a(lib_a-reallocr.o)
 .debug_frame   0x00000000000013c4       0x20 c:/develop/altera/14.0/nios2eds/bin/gnu/h-x86_64-mingw32/bin/../lib/gcc/nios2-elf/4.7.3/../../../../../H-x86_64-mingw32/nios2-elf/lib/mhw-mulx\libc.a(lib_a-s_isinfd.o)
 .debug_frame   0x00000000000013e4       0x20 c:/develop/altera/14.0/nios2eds/bin/gnu/h-x86_64-mingw32/bin/../lib/gcc/nios2-elf/4.7.3/../../../../../H-x86_64-mingw32/nios2-elf/lib/mhw-mulx\libc.a(lib_a-s_isnand.o)
 .debug_frame   0x0000000000001404       0x78 c:/develop/altera/14.0/nios2eds/bin/gnu/h-x86_64-mingw32/bin/../lib/gcc/nios2-elf/4.7.3/../../../../../H-x86_64-mingw32/nios2-elf/lib/mhw-mulx\libc.a(lib_a-stdio.o)
 .debug_frame   0x000000000000147c       0x20 c:/develop/altera/14.0/nios2eds/bin/gnu/h-x86_64-mingw32/bin/../lib/gcc/nios2-elf/4.7.3/../../../../../H-x86_64-mingw32/nios2-elf/lib/mhw-mulx\libc.a(lib_a-strcmp.o)
 .debug_frame   0x000000000000149c       0x2c c:/develop/altera/14.0/nios2eds/bin/gnu/h-x86_64-mingw32/bin/../lib/gcc/nios2-elf/4.7.3/../../../../../H-x86_64-mingw32/nios2-elf/lib/mhw-mulx\libc.a(lib_a-writer.o)
 .debug_frame   0x00000000000014c8       0x28 c:/develop/altera/14.0/nios2eds/bin/gnu/h-x86_64-mingw32/bin/../lib/gcc/nios2-elf/4.7.3/../../../../../H-x86_64-mingw32/nios2-elf/lib/mhw-mulx\libc.a(lib_a-callocr.o)
 .debug_frame   0x00000000000014f0       0x2c c:/develop/altera/14.0/nios2eds/bin/gnu/h-x86_64-mingw32/bin/../lib/gcc/nios2-elf/4.7.3/../../../../../H-x86_64-mingw32/nios2-elf/lib/mhw-mulx\libc.a(lib_a-closer.o)
 .debug_frame   0x000000000000151c       0x3c c:/develop/altera/14.0/nios2eds/bin/gnu/h-x86_64-mingw32/bin/../lib/gcc/nios2-elf/4.7.3/../../../../../H-x86_64-mingw32/nios2-elf/lib/mhw-mulx\libc.a(lib_a-fclose.o)
 .debug_frame   0x0000000000001558       0x2c c:/develop/altera/14.0/nios2eds/bin/gnu/h-x86_64-mingw32/bin/../lib/gcc/nios2-elf/4.7.3/../../../../../H-x86_64-mingw32/nios2-elf/lib/mhw-mulx\libc.a(lib_a-fstatr.o)
 .debug_frame   0x0000000000001584       0x2c c:/develop/altera/14.0/nios2eds/bin/gnu/h-x86_64-mingw32/bin/../lib/gcc/nios2-elf/4.7.3/../../../../../H-x86_64-mingw32/nios2-elf/lib/mhw-mulx\libc.a(lib_a-isattyr.o)
 .debug_frame   0x00000000000015b0       0x2c c:/develop/altera/14.0/nios2eds/bin/gnu/h-x86_64-mingw32/bin/../lib/gcc/nios2-elf/4.7.3/../../../../../H-x86_64-mingw32/nios2-elf/lib/mhw-mulx\libc.a(lib_a-lseekr.o)
 .debug_frame   0x00000000000015dc       0x2c c:/develop/altera/14.0/nios2eds/bin/gnu/h-x86_64-mingw32/bin/../lib/gcc/nios2-elf/4.7.3/../../../../../H-x86_64-mingw32/nios2-elf/lib/mhw-mulx\libc.a(lib_a-readr.o)
 .debug_frame   0x0000000000001608       0x38 c:/develop/altera/14.0/nios2eds/bin/gnu/h-x86_64-mingw32/bin/../lib/gcc/nios2-elf/4.7.3/mhw-mulx\libgcc.a(_udivdi3.o)
 .debug_frame   0x0000000000001640       0x38 c:/develop/altera/14.0/nios2eds/bin/gnu/h-x86_64-mingw32/bin/../lib/gcc/nios2-elf/4.7.3/mhw-mulx\libgcc.a(_umoddi3.o)
 .debug_frame   0x0000000000001678       0x50 c:/develop/altera/14.0/nios2eds/bin/gnu/h-x86_64-mingw32/bin/../lib/gcc/nios2-elf/4.7.3/mhw-mulx\libgcc.a(_addsub_df.o)
 .debug_frame   0x00000000000016c8       0x28 c:/develop/altera/14.0/nios2eds/bin/gnu/h-x86_64-mingw32/bin/../lib/gcc/nios2-elf/4.7.3/mhw-mulx\libgcc.a(_mul_df.o)
 .debug_frame   0x00000000000016f0       0x28 c:/develop/altera/14.0/nios2eds/bin/gnu/h-x86_64-mingw32/bin/../lib/gcc/nios2-elf/4.7.3/mhw-mulx\libgcc.a(_div_df.o)
 .debug_frame   0x0000000000001718       0x28 c:/develop/altera/14.0/nios2eds/bin/gnu/h-x86_64-mingw32/bin/../lib/gcc/nios2-elf/4.7.3/mhw-mulx\libgcc.a(_eq_df.o)
 .debug_frame   0x0000000000001740       0x28 c:/develop/altera/14.0/nios2eds/bin/gnu/h-x86_64-mingw32/bin/../lib/gcc/nios2-elf/4.7.3/mhw-mulx\libgcc.a(_ne_df.o)
 .debug_frame   0x0000000000001768       0x28 c:/develop/altera/14.0/nios2eds/bin/gnu/h-x86_64-mingw32/bin/../lib/gcc/nios2-elf/4.7.3/mhw-mulx\libgcc.a(_gt_df.o)
 .debug_frame   0x0000000000001790       0x28 c:/develop/altera/14.0/nios2eds/bin/gnu/h-x86_64-mingw32/bin/../lib/gcc/nios2-elf/4.7.3/mhw-mulx\libgcc.a(_ge_df.o)
 .debug_frame   0x00000000000017b8       0x28 c:/develop/altera/14.0/nios2eds/bin/gnu/h-x86_64-mingw32/bin/../lib/gcc/nios2-elf/4.7.3/mhw-mulx\libgcc.a(_lt_df.o)
 .debug_frame   0x00000000000017e0       0x28 c:/develop/altera/14.0/nios2eds/bin/gnu/h-x86_64-mingw32/bin/../lib/gcc/nios2-elf/4.7.3/mhw-mulx\libgcc.a(_si_to_df.o)
 .debug_frame   0x0000000000001808       0x28 c:/develop/altera/14.0/nios2eds/bin/gnu/h-x86_64-mingw32/bin/../lib/gcc/nios2-elf/4.7.3/mhw-mulx\libgcc.a(_df_to_si.o)
 .debug_frame   0x0000000000001830       0x28 c:/develop/altera/14.0/nios2eds/bin/gnu/h-x86_64-mingw32/bin/../lib/gcc/nios2-elf/4.7.3/mhw-mulx\libgcc.a(_usi_to_df.o)
 .debug_frame   0x0000000000001858       0x20 c:/develop/altera/14.0/nios2eds/bin/gnu/h-x86_64-mingw32/bin/../lib/gcc/nios2-elf/4.7.3/mhw-mulx\libgcc.a(_clzsi2.o)
 .debug_frame   0x0000000000001878       0x34 c:/develop/altera/14.0/nios2eds/bin/gnu/h-x86_64-mingw32/bin/../lib/gcc/nios2-elf/4.7.3/mhw-mulx\libgcc.a(_pack_df.o)
 .debug_frame   0x00000000000018ac       0x20 c:/develop/altera/14.0/nios2eds/bin/gnu/h-x86_64-mingw32/bin/../lib/gcc/nios2-elf/4.7.3/mhw-mulx\libgcc.a(_unpack_df.o)
 .debug_frame   0x00000000000018cc       0x20 c:/develop/altera/14.0/nios2eds/bin/gnu/h-x86_64-mingw32/bin/../lib/gcc/nios2-elf/4.7.3/mhw-mulx\libgcc.a(_fpcmp_parts_df.o)
 .debug_frame   0x00000000000018ec       0x20 c:/develop/altera/14.0/nios2eds/bin/gnu/h-x86_64-mingw32/bin/../lib/gcc/nios2-elf/4.7.3/mhw-mulx\libgcc.a(_lshrdi3.o)
 .debug_frame   0x000000000000190c       0x20 c:/develop/altera/14.0/nios2eds/bin/gnu/h-x86_64-mingw32/bin/../lib/gcc/nios2-elf/4.7.3/mhw-mulx\libgcc.a(_ashldi3.o)
 .debug_frame   0x000000000000192c       0x2c ../sodalite_ckplay_bsp/\libhal_bsp.a(alt_close.o)
 .debug_frame   0x0000000000001958       0x20 ../sodalite_ckplay_bsp/\libhal_bsp.a(alt_dcache_flush.o)
 .debug_frame   0x0000000000001978       0x20 ../sodalite_ckplay_bsp/\libhal_bsp.a(alt_dev.o)
 .debug_frame   0x0000000000001998       0x20 ../sodalite_ckplay_bsp/\libhal_bsp.a(alt_fs_reg.o)
 .debug_frame   0x00000000000019b8       0x28 ../sodalite_ckplay_bsp/\libhal_bsp.a(alt_fstat.o)
 .debug_frame   0x00000000000019e0       0x28 ../sodalite_ckplay_bsp/\libhal_bsp.a(alt_isatty.o)
 .debug_frame   0x0000000000001a08       0x28 ../sodalite_ckplay_bsp/\libhal_bsp.a(alt_load.o)
 .debug_frame   0x0000000000001a30       0x28 ../sodalite_ckplay_bsp/\libhal_bsp.a(alt_lseek.o)
 .debug_frame   0x0000000000001a58       0x28 ../sodalite_ckplay_bsp/\libhal_bsp.a(alt_main.o)
 .debug_frame   0x0000000000001a80       0x30 ../sodalite_ckplay_bsp/\libhal_bsp.a(alt_malloc_lock.o)
 .debug_frame   0x0000000000001ab0       0x28 ../sodalite_ckplay_bsp/\libhal_bsp.a(alt_read.o)
 .debug_frame   0x0000000000001ad8       0x20 ../sodalite_ckplay_bsp/\libhal_bsp.a(alt_release_fd.o)
 .debug_frame   0x0000000000001af8       0x20 ../sodalite_ckplay_bsp/\libhal_bsp.a(alt_sbrk.o)
 .debug_frame   0x0000000000001b18       0x20 ../sodalite_ckplay_bsp/\libhal_bsp.a(alt_uncached_free.o)
 .debug_frame   0x0000000000001b38       0x2c ../sodalite_ckplay_bsp/\libhal_bsp.a(alt_uncached_malloc.o)
 .debug_frame   0x0000000000001b64       0x28 ../sodalite_ckplay_bsp/\libhal_bsp.a(alt_write.o)
 .debug_frame   0x0000000000001b8c       0x40 ../sodalite_ckplay_bsp/\libhal_bsp.a(alt_sys_init.o)
 .debug_frame   0x0000000000001bcc       0x50 ../sodalite_ckplay_bsp/\libhal_bsp.a(altera_avalon_jtag_uart_fd.o)
 .debug_frame   0x0000000000001c1c       0x58 ../sodalite_ckplay_bsp/\libhal_bsp.a(altera_avalon_jtag_uart_init.o)
 .debug_frame   0x0000000000001c74       0x20 ../sodalite_ckplay_bsp/\libhal_bsp.a(altera_avalon_jtag_uart_ioctl.o)
 .debug_frame   0x0000000000001c94       0x38 ../sodalite_ckplay_bsp/\libhal_bsp.a(altera_avalon_jtag_uart_read.o)
 .debug_frame   0x0000000000001ccc       0x38 ../sodalite_ckplay_bsp/\libhal_bsp.a(altera_avalon_jtag_uart_write.o)
 .debug_frame   0x0000000000001d04       0x40 ../sodalite_ckplay_bsp/\libhal_bsp.a(altera_avalon_timer_sc.o)
 .debug_frame   0x0000000000001d44       0x30 ../sodalite_ckplay_bsp/\libhal_bsp.a(altera_modular_adc.o)
 .debug_frame   0x0000000000001d74       0xf4 ../sodalite_ckplay_bsp/\libhal_bsp.a(altera_onchip_flash.o)
 .debug_frame   0x0000000000001e68       0x20 ../sodalite_ckplay_bsp/\libhal_bsp.a(alt_alarm_start.o)
 .debug_frame   0x0000000000001e88       0x20 ../sodalite_ckplay_bsp/\libhal_bsp.a(alt_dcache_flush_all.o)
 .debug_frame   0x0000000000001ea8       0x28 ../sodalite_ckplay_bsp/\libhal_bsp.a(alt_dev_llist_insert.o)
 .debug_frame   0x0000000000001ed0       0x2c ../sodalite_ckplay_bsp/\libhal_bsp.a(alt_do_ctors.o)
 .debug_frame   0x0000000000001efc       0x2c ../sodalite_ckplay_bsp/\libhal_bsp.a(alt_do_dtors.o)
 .debug_frame   0x0000000000001f28       0x30 ../sodalite_ckplay_bsp/\libhal_bsp.a(alt_find_dev.o)
 .debug_frame   0x0000000000001f58       0x38 ../sodalite_ckplay_bsp/\libhal_bsp.a(alt_flash_dev.o)
 .debug_frame   0x0000000000001f90       0x20 ../sodalite_ckplay_bsp/\libhal_bsp.a(alt_icache_flush_all.o)
 .debug_frame   0x0000000000001fb0       0x50 ../sodalite_ckplay_bsp/\libhal_bsp.a(alt_iic.o)
 .debug_frame   0x0000000000002000       0x28 ../sodalite_ckplay_bsp/\libhal_bsp.a(alt_iic_isr_register.o)
 .debug_frame   0x0000000000002028       0x4c ../sodalite_ckplay_bsp/\libhal_bsp.a(alt_io_redirect.o)
 .debug_frame   0x0000000000002074       0x28 ../sodalite_ckplay_bsp/\libhal_bsp.a(alt_irq_handler.o)
 .debug_frame   0x000000000000209c       0x34 ../sodalite_ckplay_bsp/\libhal_bsp.a(alt_open.o)
 .debug_frame   0x00000000000020d0       0x44 ../sodalite_ckplay_bsp/\libhal_bsp.a(alt_tick.o)
 .debug_frame   0x0000000000002114       0x20 ../sodalite_ckplay_bsp/\libhal_bsp.a(altera_nios2_gen2_irq.o)
 .debug_frame   0x0000000000002134       0x34 ../sodalite_ckplay_bsp/\libhal_bsp.a(alt_find_file.o)
 .debug_frame   0x0000000000002168       0x20 ../sodalite_ckplay_bsp/\libhal_bsp.a(alt_get_fd.o)
 .debug_frame   0x0000000000002188       0x20 ../sodalite_ckplay_bsp/\libhal_bsp.a(alt_icache_flush.o)
 .debug_frame   0x00000000000021a8       0x30 ../sodalite_ckplay_bsp/\libhal_bsp.a(alt_instruction_exception_entry.o)
 .debug_frame   0x00000000000021d8       0x20 c:/develop/altera/14.0/nios2eds/bin/gnu/h-x86_64-mingw32/bin/../lib/gcc/nios2-elf/4.7.3/../../../../../H-x86_64-mingw32/nios2-elf/lib/mhw-mulx\libc.a(lib_a-atexit.o)
 .debug_frame   0x00000000000021f8       0x28 c:/develop/altera/14.0/nios2eds/bin/gnu/h-x86_64-mingw32/bin/../lib/gcc/nios2-elf/4.7.3/../../../../../H-x86_64-mingw32/nios2-elf/lib/mhw-mulx\libc.a(lib_a-exit.o)
 .debug_frame   0x0000000000002220       0x20 c:/develop/altera/14.0/nios2eds/bin/gnu/h-x86_64-mingw32/bin/../lib/gcc/nios2-elf/4.7.3/../../../../../H-x86_64-mingw32/nios2-elf/lib/mhw-mulx\libc.a(lib_a-malign.o)
 .debug_frame   0x0000000000002240       0x30 c:/develop/altera/14.0/nios2eds/bin/gnu/h-x86_64-mingw32/bin/../lib/gcc/nios2-elf/4.7.3/../../../../../H-x86_64-mingw32/nios2-elf/lib/mhw-mulx\libc.a(lib_a-malignr.o)
 .debug_frame   0x0000000000002270       0x20 c:/develop/altera/14.0/nios2eds/bin/gnu/h-x86_64-mingw32/bin/../lib/gcc/nios2-elf/4.7.3/../../../../../H-x86_64-mingw32/nios2-elf/lib/mhw-mulx\libc.a(lib_a-memcmp.o)
 .debug_frame   0x0000000000002290       0x2c c:/develop/altera/14.0/nios2eds/bin/gnu/h-x86_64-mingw32/bin/../lib/gcc/nios2-elf/4.7.3/../../../../../H-x86_64-mingw32/nios2-elf/lib/mhw-mulx\libc.a(lib_a-__atexit.o)
 .debug_frame   0x00000000000022bc       0x38 c:/develop/altera/14.0/nios2eds/bin/gnu/h-x86_64-mingw32/bin/../lib/gcc/nios2-elf/4.7.3/../../../../../H-x86_64-mingw32/nios2-elf/lib/mhw-mulx\libc.a(lib_a-__call_atexit.o)
 .debug_frame   0x00000000000022f4       0x20 ../sodalite_ckplay_bsp/\libhal_bsp.a(alt_exit.o)

.debug_str      0x0000000000000000     0x45e9
 *(.debug_str)
 .debug_str     0x0000000000000000      0x3d5 obj/default/ckplay_peridot.o
                                        0x46b (size before relaxing)
 .debug_str     0x00000000000003d5      0x2c9 obj/default/mmcfs/fatfs/ff.o
                                        0x61e (size before relaxing)
 .debug_str     0x000000000000069e      0x17a obj/default/mmcfs/fatfs/mmcbb.o
                                        0x309 (size before relaxing)
 .debug_str     0x0000000000000818       0x41 obj/default/mmcfs/fatfs/option/cc932.o
                                        0x116 (size before relaxing)
 .debug_str     0x0000000000000859       0x10 obj/default/mmcfs/gettime.o
                                        0x106 (size before relaxing)
 .debug_str     0x0000000000000869       0x57 obj/default/mmcfs/mmc_spi.o
                                        0x232 (size before relaxing)
 .debug_str     0x00000000000008c0      0x245 obj/default/mmcfs/mmcfs.o
                                        0x5d8 (size before relaxing)
 .debug_str     0x0000000000000b05      0x1dc obj/default/nd_lib/nd_acm.o
                                        0x53d (size before relaxing)
 .debug_str     0x0000000000000ce1      0x283 obj/default/nd_lib/nd_egl.o
                                        0x44a (size before relaxing)
 .debug_str     0x0000000000000f64      0x10e c:/develop/altera/14.0/nios2eds/bin/gnu/h-x86_64-mingw32/bin/../lib/gcc/nios2-elf/4.7.3/mhw-mulx\libgcc.a(lib2-divmod.o)
                                        0x165 (size before relaxing)
 .debug_str     0x0000000000001072      0x40e c:/develop/altera/14.0/nios2eds/bin/gnu/h-x86_64-mingw32/bin/../lib/gcc/nios2-elf/4.7.3/../../../../../H-x86_64-mingw32/nios2-elf/lib/mhw-mulx\libc.a(lib_a-malloc.o)
                                        0x544 (size before relaxing)
 .debug_str     0x0000000000001480      0x22b c:/develop/altera/14.0/nios2eds/bin/gnu/h-x86_64-mingw32/bin/../lib/gcc/nios2-elf/4.7.3/../../../../../H-x86_64-mingw32/nios2-elf/lib/mhw-mulx\libc.a(lib_a-mallocr.o)
                                        0x73f (size before relaxing)
 .debug_str     0x00000000000016ab       0xfb c:/develop/altera/14.0/nios2eds/bin/gnu/h-x86_64-mingw32/bin/../lib/gcc/nios2-elf/4.7.3/../../../../../H-x86_64-mingw32/nios2-elf/lib/mhw-mulx\libc.a(lib_a-memcpy.o)
                                        0x130 (size before relaxing)
 .debug_str     0x00000000000017a6       0x52 c:/develop/altera/14.0/nios2eds/bin/gnu/h-x86_64-mingw32/bin/../lib/gcc/nios2-elf/4.7.3/../../../../../H-x86_64-mingw32/nios2-elf/lib/mhw-mulx\libc.a(lib_a-memset.o)
                                        0x194 (size before relaxing)
 .debug_str     0x00000000000017f8      0x128 c:/develop/altera/14.0/nios2eds/bin/gnu/h-x86_64-mingw32/bin/../lib/gcc/nios2-elf/4.7.3/../../../../../H-x86_64-mingw32/nios2-elf/lib/mhw-mulx\libc.a(lib_a-printf.o)
                                        0x57b (size before relaxing)
 .debug_str     0x0000000000001920       0x8c c:/develop/altera/14.0/nios2eds/bin/gnu/h-x86_64-mingw32/bin/../lib/gcc/nios2-elf/4.7.3/../../../../../H-x86_64-mingw32/nios2-elf/lib/mhw-mulx\libc.a(lib_a-puts.o)
                                        0x578 (size before relaxing)
 .debug_str     0x00000000000019ac       0xdb c:/develop/altera/14.0/nios2eds/bin/gnu/h-x86_64-mingw32/bin/../lib/gcc/nios2-elf/4.7.3/../../../../../H-x86_64-mingw32/nios2-elf/lib/mhw-mulx\libc.a(lib_a-sbrkr.o)
                                        0x526 (size before relaxing)
 .debug_str     0x0000000000001a87       0x3e c:/develop/altera/14.0/nios2eds/bin/gnu/h-x86_64-mingw32/bin/../lib/gcc/nios2-elf/4.7.3/../../../../../H-x86_64-mingw32/nios2-elf/lib/mhw-mulx\libc.a(lib_a-strcpy.o)
                                        0x19b (size before relaxing)
 .debug_str     0x0000000000001ac5       0x3e c:/develop/altera/14.0/nios2eds/bin/gnu/h-x86_64-mingw32/bin/../lib/gcc/nios2-elf/4.7.3/../../../../../H-x86_64-mingw32/nios2-elf/lib/mhw-mulx\libc.a(lib_a-strlen.o)
                                        0x193 (size before relaxing)
 .debug_str     0x0000000000001b03      0x285 c:/develop/altera/14.0/nios2eds/bin/gnu/h-x86_64-mingw32/bin/../lib/gcc/nios2-elf/4.7.3/../../../../../H-x86_64-mingw32/nios2-elf/lib/mhw-mulx\libc.a(lib_a-vfprintf.o)
                                        0x892 (size before relaxing)
 .debug_str     0x0000000000001d88       0x4a c:/develop/altera/14.0/nios2eds/bin/gnu/h-x86_64-mingw32/bin/../lib/gcc/nios2-elf/4.7.3/../../../../../H-x86_64-mingw32/nios2-elf/lib/mhw-mulx\libc.a(lib_a-wsetup.o)
                                        0x53f (size before relaxing)
 .debug_str     0x0000000000001dd2      0x15a c:/develop/altera/14.0/nios2eds/bin/gnu/h-x86_64-mingw32/bin/../lib/gcc/nios2-elf/4.7.3/../../../../../H-x86_64-mingw32/nios2-elf/lib/mhw-mulx\libc.a(lib_a-dtoa.o)
                                        0x682 (size before relaxing)
 .debug_str     0x0000000000001f2c       0x5e c:/develop/altera/14.0/nios2eds/bin/gnu/h-x86_64-mingw32/bin/../lib/gcc/nios2-elf/4.7.3/../../../../../H-x86_64-mingw32/nios2-elf/lib/mhw-mulx\libc.a(lib_a-fflush.o)
                                        0x55d (size before relaxing)
 .debug_str     0x0000000000001f8a       0xfd c:/develop/altera/14.0/nios2eds/bin/gnu/h-x86_64-mingw32/bin/../lib/gcc/nios2-elf/4.7.3/../../../../../H-x86_64-mingw32/nios2-elf/lib/mhw-mulx\libc.a(lib_a-findfp.o)
                                        0x629 (size before relaxing)
 .debug_str     0x0000000000002087       0x34 c:/develop/altera/14.0/nios2eds/bin/gnu/h-x86_64-mingw32/bin/../lib/gcc/nios2-elf/4.7.3/../../../../../H-x86_64-mingw32/nios2-elf/lib/mhw-mulx\libc.a(lib_a-freer.o)
                                        0x689 (size before relaxing)
 .debug_str     0x00000000000020bb       0x6f c:/develop/altera/14.0/nios2eds/bin/gnu/h-x86_64-mingw32/bin/../lib/gcc/nios2-elf/4.7.3/../../../../../H-x86_64-mingw32/nios2-elf/lib/mhw-mulx\libc.a(lib_a-fvwrite.o)
                                        0x5c2 (size before relaxing)
 .debug_str     0x000000000000212a       0x61 c:/develop/altera/14.0/nios2eds/bin/gnu/h-x86_64-mingw32/bin/../lib/gcc/nios2-elf/4.7.3/../../../../../H-x86_64-mingw32/nios2-elf/lib/mhw-mulx\libc.a(lib_a-fwalk.o)
                                        0x571 (size before relaxing)
 .debug_str     0x000000000000218b       0x49 c:/develop/altera/14.0/nios2eds/bin/gnu/h-x86_64-mingw32/bin/../lib/gcc/nios2-elf/4.7.3/../../../../../H-x86_64-mingw32/nios2-elf/lib/mhw-mulx\libc.a(lib_a-impure.o)
                                        0x530 (size before relaxing)
 .debug_str     0x00000000000021d4       0x40 c:/develop/altera/14.0/nios2eds/bin/gnu/h-x86_64-mingw32/bin/../lib/gcc/nios2-elf/4.7.3/../../../../../H-x86_64-mingw32/nios2-elf/lib/mhw-mulx\libc.a(lib_a-int_errno.o)
                                        0x179 (size before relaxing)
 .debug_str     0x0000000000002214      0x156 c:/develop/altera/14.0/nios2eds/bin/gnu/h-x86_64-mingw32/bin/../lib/gcc/nios2-elf/4.7.3/../../../../../H-x86_64-mingw32/nios2-elf/lib/mhw-mulx\libc.a(lib_a-locale.o)
                                        0x6c6 (size before relaxing)
 .debug_str     0x000000000000236a       0x5c c:/develop/altera/14.0/nios2eds/bin/gnu/h-x86_64-mingw32/bin/../lib/gcc/nios2-elf/4.7.3/../../../../../H-x86_64-mingw32/nios2-elf/lib/mhw-mulx\libc.a(lib_a-makebuf.o)
                                        0x639 (size before relaxing)
 .debug_str     0x00000000000023c6       0x4c c:/develop/altera/14.0/nios2eds/bin/gnu/h-x86_64-mingw32/bin/../lib/gcc/nios2-elf/4.7.3/../../../../../H-x86_64-mingw32/nios2-elf/lib/mhw-mulx\libc.a(lib_a-memchr.o)
                                        0x1a1 (size before relaxing)
 .debug_str     0x0000000000002412       0x48 c:/develop/altera/14.0/nios2eds/bin/gnu/h-x86_64-mingw32/bin/../lib/gcc/nios2-elf/4.7.3/../../../../../H-x86_64-mingw32/nios2-elf/lib/mhw-mulx\libc.a(lib_a-memmove.o)
                                        0x1b3 (size before relaxing)
 .debug_str     0x000000000000245a       0xa8 c:/develop/altera/14.0/nios2eds/bin/gnu/h-x86_64-mingw32/bin/../lib/gcc/nios2-elf/4.7.3/../../../../../H-x86_64-mingw32/nios2-elf/lib/mhw-mulx\libc.a(lib_a-mprec.o)
                                        0x63c (size before relaxing)
 .debug_str     0x0000000000002502       0x4e c:/develop/altera/14.0/nios2eds/bin/gnu/h-x86_64-mingw32/bin/../lib/gcc/nios2-elf/4.7.3/../../../../../H-x86_64-mingw32/nios2-elf/lib/mhw-mulx\libc.a(lib_a-reallocr.o)
                                        0x611 (size before relaxing)
 .debug_str     0x0000000000002550       0xe0 c:/develop/altera/14.0/nios2eds/bin/gnu/h-x86_64-mingw32/bin/../lib/gcc/nios2-elf/4.7.3/../../../../../H-x86_64-mingw32/nios2-elf/lib/mhw-mulx\libc.a(lib_a-s_isinfd.o)
                                        0x1ab (size before relaxing)
 .debug_str     0x0000000000002630       0x40 c:/develop/altera/14.0/nios2eds/bin/gnu/h-x86_64-mingw32/bin/../lib/gcc/nios2-elf/4.7.3/../../../../../H-x86_64-mingw32/nios2-elf/lib/mhw-mulx\libc.a(lib_a-s_isnand.o)
                                        0x1ab (size before relaxing)
 .debug_str     0x0000000000002670       0x91 c:/develop/altera/14.0/nios2eds/bin/gnu/h-x86_64-mingw32/bin/../lib/gcc/nios2-elf/4.7.3/../../../../../H-x86_64-mingw32/nios2-elf/lib/mhw-mulx\libc.a(lib_a-stdio.o)
                                        0x57a (size before relaxing)
 .debug_str     0x0000000000002701       0x3e c:/develop/altera/14.0/nios2eds/bin/gnu/h-x86_64-mingw32/bin/../lib/gcc/nios2-elf/4.7.3/../../../../../H-x86_64-mingw32/nios2-elf/lib/mhw-mulx\libc.a(lib_a-strcmp.o)
                                        0x179 (size before relaxing)
 .debug_str     0x000000000000273f       0x3d c:/develop/altera/14.0/nios2eds/bin/gnu/h-x86_64-mingw32/bin/../lib/gcc/nios2-elf/4.7.3/../../../../../H-x86_64-mingw32/nios2-elf/lib/mhw-mulx\libc.a(lib_a-writer.o)
                                        0x52a (size before relaxing)
 .debug_str     0x000000000000277c        0xf c:/develop/altera/14.0/nios2eds/bin/gnu/h-x86_64-mingw32/bin/../lib/gcc/nios2-elf/4.7.3/../../../../../H-x86_64-mingw32/nios2-elf/lib/mhw-mulx\libc.a(lib_a-callocr.o)
                                        0x569 (size before relaxing)
 .debug_str     0x000000000000278b       0x3d c:/develop/altera/14.0/nios2eds/bin/gnu/h-x86_64-mingw32/bin/../lib/gcc/nios2-elf/4.7.3/../../../../../H-x86_64-mingw32/nios2-elf/lib/mhw-mulx\libc.a(lib_a-closer.o)
                                        0x51a (size before relaxing)
 .debug_str     0x00000000000027c8       0x4e c:/develop/altera/14.0/nios2eds/bin/gnu/h-x86_64-mingw32/bin/../lib/gcc/nios2-elf/4.7.3/../../../../../H-x86_64-mingw32/nios2-elf/lib/mhw-mulx\libc.a(lib_a-fclose.o)
                                        0x56c (size before relaxing)
 .debug_str     0x0000000000002816       0x43 c:/develop/altera/14.0/nios2eds/bin/gnu/h-x86_64-mingw32/bin/../lib/gcc/nios2-elf/4.7.3/../../../../../H-x86_64-mingw32/nios2-elf/lib/mhw-mulx\libc.a(lib_a-fstatr.o)
                                        0x60d (size before relaxing)
 .debug_str     0x0000000000002859       0x45 c:/develop/altera/14.0/nios2eds/bin/gnu/h-x86_64-mingw32/bin/../lib/gcc/nios2-elf/4.7.3/../../../../../H-x86_64-mingw32/nios2-elf/lib/mhw-mulx\libc.a(lib_a-isattyr.o)
                                        0x51d (size before relaxing)
 .debug_str     0x000000000000289e       0x3d c:/develop/altera/14.0/nios2eds/bin/gnu/h-x86_64-mingw32/bin/../lib/gcc/nios2-elf/4.7.3/../../../../../H-x86_64-mingw32/nios2-elf/lib/mhw-mulx\libc.a(lib_a-lseekr.o)
                                        0x52e (size before relaxing)
 .debug_str     0x00000000000028db       0x3c c:/develop/altera/14.0/nios2eds/bin/gnu/h-x86_64-mingw32/bin/../lib/gcc/nios2-elf/4.7.3/../../../../../H-x86_64-mingw32/nios2-elf/lib/mhw-mulx\libc.a(lib_a-readr.o)
                                        0x527 (size before relaxing)
 .debug_str     0x0000000000002917       0xd8 c:/develop/altera/14.0/nios2eds/bin/gnu/h-x86_64-mingw32/bin/../lib/gcc/nios2-elf/4.7.3/mhw-mulx\libgcc.a(_udivdi3.o)
                                        0x200 (size before relaxing)
 .debug_str     0x00000000000029ef        0xa c:/develop/altera/14.0/nios2eds/bin/gnu/h-x86_64-mingw32/bin/../lib/gcc/nios2-elf/4.7.3/mhw-mulx\libgcc.a(_umoddi3.o)
                                        0x200 (size before relaxing)
 .debug_str     0x00000000000029f9      0x172 c:/develop/altera/14.0/nios2eds/bin/gnu/h-x86_64-mingw32/bin/../lib/gcc/nios2-elf/4.7.3/mhw-mulx\libgcc.a(_addsub_df.o)
                                        0x2b3 (size before relaxing)
 .debug_str     0x0000000000002b6b       0x40 c:/develop/altera/14.0/nios2eds/bin/gnu/h-x86_64-mingw32/bin/../lib/gcc/nios2-elf/4.7.3/mhw-mulx\libgcc.a(_mul_df.o)
                                        0x285 (size before relaxing)
 .debug_str     0x0000000000002bab       0x35 c:/develop/altera/14.0/nios2eds/bin/gnu/h-x86_64-mingw32/bin/../lib/gcc/nios2-elf/4.7.3/mhw-mulx\libgcc.a(_div_df.o)
                                        0x275 (size before relaxing)
 .debug_str     0x0000000000002be0       0x20 c:/develop/altera/14.0/nios2eds/bin/gnu/h-x86_64-mingw32/bin/../lib/gcc/nios2-elf/4.7.3/mhw-mulx\libgcc.a(_eq_df.o)
                                        0x242 (size before relaxing)
 .debug_str     0x0000000000002c00        0x8 c:/develop/altera/14.0/nios2eds/bin/gnu/h-x86_64-mingw32/bin/../lib/gcc/nios2-elf/4.7.3/mhw-mulx\libgcc.a(_ne_df.o)
                                        0x242 (size before relaxing)
 .debug_str     0x0000000000002c08        0x8 c:/develop/altera/14.0/nios2eds/bin/gnu/h-x86_64-mingw32/bin/../lib/gcc/nios2-elf/4.7.3/mhw-mulx\libgcc.a(_gt_df.o)
                                        0x242 (size before relaxing)
 .debug_str     0x0000000000002c10        0x8 c:/develop/altera/14.0/nios2eds/bin/gnu/h-x86_64-mingw32/bin/../lib/gcc/nios2-elf/4.7.3/mhw-mulx\libgcc.a(_ge_df.o)
                                        0x242 (size before relaxing)
 .debug_str     0x0000000000002c18        0x8 c:/develop/altera/14.0/nios2eds/bin/gnu/h-x86_64-mingw32/bin/../lib/gcc/nios2-elf/4.7.3/mhw-mulx\libgcc.a(_lt_df.o)
                                        0x242 (size before relaxing)
 .debug_str     0x0000000000002c20       0x21 c:/develop/altera/14.0/nios2eds/bin/gnu/h-x86_64-mingw32/bin/../lib/gcc/nios2-elf/4.7.3/mhw-mulx\libgcc.a(_si_to_df.o)
                                        0x218 (size before relaxing)
 .debug_str     0x0000000000002c41        0xa c:/develop/altera/14.0/nios2eds/bin/gnu/h-x86_64-mingw32/bin/../lib/gcc/nios2-elf/4.7.3/mhw-mulx\libgcc.a(_df_to_si.o)
                                        0x23a (size before relaxing)
 .debug_str     0x0000000000000000      0x1cb c:/develop/altera/14.0/nios2eds/bin/gnu/h-x86_64-mingw32/bin/../lib/gcc/nios2-elf/4.7.3/mhw-mulx\libgcc.a(_thenan_df.o)
 .debug_str     0x0000000000002c4b       0x14 c:/develop/altera/14.0/nios2eds/bin/gnu/h-x86_64-mingw32/bin/../lib/gcc/nios2-elf/4.7.3/mhw-mulx\libgcc.a(_usi_to_df.o)
                                        0x214 (size before relaxing)
 .debug_str     0x0000000000000000      0x16a c:/develop/altera/14.0/nios2eds/bin/gnu/h-x86_64-mingw32/bin/../lib/gcc/nios2-elf/4.7.3/mhw-mulx\libgcc.a(_clz.o)
 .debug_str     0x0000000000000000      0x187 c:/develop/altera/14.0/nios2eds/bin/gnu/h-x86_64-mingw32/bin/../lib/gcc/nios2-elf/4.7.3/mhw-mulx\libgcc.a(_clzsi2.o)
 .debug_str     0x0000000000002c5f        0x7 c:/develop/altera/14.0/nios2eds/bin/gnu/h-x86_64-mingw32/bin/../lib/gcc/nios2-elf/4.7.3/mhw-mulx\libgcc.a(_pack_df.o)
                                        0x22e (size before relaxing)
 .debug_str     0x0000000000000000      0x210 c:/develop/altera/14.0/nios2eds/bin/gnu/h-x86_64-mingw32/bin/../lib/gcc/nios2-elf/4.7.3/mhw-mulx\libgcc.a(_unpack_df.o)
 .debug_str     0x0000000000000000      0x1ee c:/develop/altera/14.0/nios2eds/bin/gnu/h-x86_64-mingw32/bin/../lib/gcc/nios2-elf/4.7.3/mhw-mulx\libgcc.a(_fpcmp_parts_df.o)
 .debug_str     0x0000000000002c66       0x23 c:/develop/altera/14.0/nios2eds/bin/gnu/h-x86_64-mingw32/bin/../lib/gcc/nios2-elf/4.7.3/mhw-mulx\libgcc.a(_lshrdi3.o)
                                        0x19e (size before relaxing)
 .debug_str     0x0000000000002c89        0xa c:/develop/altera/14.0/nios2eds/bin/gnu/h-x86_64-mingw32/bin/../lib/gcc/nios2-elf/4.7.3/mhw-mulx\libgcc.a(_ashldi3.o)
                                        0x19e (size before relaxing)
 .debug_str     0x0000000000002c93       0x9d ../sodalite_ckplay_bsp/\libhal_bsp.a(alt_close.o)
                                        0x1e1 (size before relaxing)
 .debug_str     0x0000000000002d30       0x1b ../sodalite_ckplay_bsp/\libhal_bsp.a(alt_dcache_flush.o)
                                        0x122 (size before relaxing)
 .debug_str     0x0000000000002d4b       0x50 ../sodalite_ckplay_bsp/\libhal_bsp.a(alt_dev.o)
                                        0x2cc (size before relaxing)
 .debug_str     0x0000000000002d9b       0x14 ../sodalite_ckplay_bsp/\libhal_bsp.a(alt_errno.o)
                                        0x10c (size before relaxing)
 .debug_str     0x0000000000002daf       0x26 ../sodalite_ckplay_bsp/\libhal_bsp.a(alt_fs_reg.o)
                                        0x1d0 (size before relaxing)
 .debug_str     0x0000000000002dd5       0x14 ../sodalite_ckplay_bsp/\libhal_bsp.a(alt_fstat.o)
                                        0x2b3 (size before relaxing)
 .debug_str     0x0000000000002de9       0x15 ../sodalite_ckplay_bsp/\libhal_bsp.a(alt_isatty.o)
                                        0x2bb (size before relaxing)
 .debug_str     0x0000000000002dfe      0x113 ../sodalite_ckplay_bsp/\libhal_bsp.a(alt_load.o)
                                        0x203 (size before relaxing)
 .debug_str     0x0000000000002f11       0x14 ../sodalite_ckplay_bsp/\libhal_bsp.a(alt_lseek.o)
                                        0x1d8 (size before relaxing)
 .debug_str     0x0000000000002f25       0x78 ../sodalite_ckplay_bsp/\libhal_bsp.a(alt_main.o)
                                        0x1af (size before relaxing)
 .debug_str     0x0000000000002f9d       0x1a ../sodalite_ckplay_bsp/\libhal_bsp.a(alt_malloc_lock.o)
                                        0x4b5 (size before relaxing)
 .debug_str     0x0000000000002fb7       0x13 ../sodalite_ckplay_bsp/\libhal_bsp.a(alt_read.o)
                                        0x2be (size before relaxing)
 .debug_str     0x0000000000002fca       0x19 ../sodalite_ckplay_bsp/\libhal_bsp.a(alt_release_fd.o)
                                        0x1a6 (size before relaxing)
 .debug_str     0x0000000000002fe3       0x98 ../sodalite_ckplay_bsp/\libhal_bsp.a(alt_sbrk.o)
                                        0x19b (size before relaxing)
 .debug_str     0x000000000000307b       0x1c ../sodalite_ckplay_bsp/\libhal_bsp.a(alt_uncached_free.o)
                                        0x123 (size before relaxing)
 .debug_str     0x0000000000003097       0x3e ../sodalite_ckplay_bsp/\libhal_bsp.a(alt_uncached_malloc.o)
                                        0x15f (size before relaxing)
 .debug_str     0x00000000000030d5       0x14 ../sodalite_ckplay_bsp/\libhal_bsp.a(alt_write.o)
                                        0x2bf (size before relaxing)
 .debug_str     0x00000000000030e9      0x473 ../sodalite_ckplay_bsp/\libhal_bsp.a(alt_sys_init.o)
                                        0x686 (size before relaxing)
 .debug_str     0x000000000000355c      0x123 ../sodalite_ckplay_bsp/\libhal_bsp.a(altera_avalon_jtag_uart_fd.o)
                                        0x3e2 (size before relaxing)
 .debug_str     0x000000000000367f       0xc7 ../sodalite_ckplay_bsp/\libhal_bsp.a(altera_avalon_jtag_uart_init.o)
                                        0x330 (size before relaxing)
 .debug_str     0x0000000000003746       0x2c ../sodalite_ckplay_bsp/\libhal_bsp.a(altera_avalon_jtag_uart_ioctl.o)
                                        0x25a (size before relaxing)
 .debug_str     0x0000000000003772       0x2b ../sodalite_ckplay_bsp/\libhal_bsp.a(altera_avalon_jtag_uart_read.o)
                                        0x2b6 (size before relaxing)
 .debug_str     0x000000000000379d       0x2c ../sodalite_ckplay_bsp/\libhal_bsp.a(altera_avalon_jtag_uart_write.o)
                                        0x2b7 (size before relaxing)
 .debug_str     0x00000000000037c9       0x5d ../sodalite_ckplay_bsp/\libhal_bsp.a(altera_avalon_timer_sc.o)
                                        0x23c (size before relaxing)
 .debug_str     0x0000000000003826       0x5e ../sodalite_ckplay_bsp/\libhal_bsp.a(altera_modular_adc.o)
                                        0x31d (size before relaxing)
 .debug_str     0x0000000000003884      0x2a7 ../sodalite_ckplay_bsp/\libhal_bsp.a(altera_onchip_flash.o)
                                        0x6d9 (size before relaxing)
 .debug_str     0x0000000000003b2b       0x38 ../sodalite_ckplay_bsp/\libhal_bsp.a(alt_alarm_start.o)
                                        0x245 (size before relaxing)
 .debug_str     0x0000000000003b63       0x1f ../sodalite_ckplay_bsp/\libhal_bsp.a(alt_dcache_flush_all.o)
                                        0x11c (size before relaxing)
 .debug_str     0x0000000000003b82       0x1f ../sodalite_ckplay_bsp/\libhal_bsp.a(alt_dev_llist_insert.o)
                                        0x193 (size before relaxing)
 .debug_str     0x0000000000003ba1       0x3e ../sodalite_ckplay_bsp/\libhal_bsp.a(alt_do_ctors.o)
                                         0xa3 (size before relaxing)
 .debug_str     0x0000000000003bdf       0x4c ../sodalite_ckplay_bsp/\libhal_bsp.a(alt_do_dtors.o)
                                         0xa2 (size before relaxing)
 .debug_str     0x0000000000003c2b       0x17 ../sodalite_ckplay_bsp/\libhal_bsp.a(alt_find_dev.o)
                                        0x1c8 (size before relaxing)
 .debug_str     0x0000000000003c42       0x3f ../sodalite_ckplay_bsp/\libhal_bsp.a(alt_flash_dev.o)
                                        0x311 (size before relaxing)
 .debug_str     0x0000000000003c81       0x30 ../sodalite_ckplay_bsp/\libhal_bsp.a(alt_icache_flush_all.o)
                                        0x135 (size before relaxing)
 .debug_str     0x0000000000003cb1       0xb1 ../sodalite_ckplay_bsp/\libhal_bsp.a(alt_iic.o)
                                        0x21a (size before relaxing)
 .debug_str     0x0000000000003d62       0x37 ../sodalite_ckplay_bsp/\libhal_bsp.a(alt_iic_isr_register.o)
                                        0x1d4 (size before relaxing)
 .debug_str     0x0000000000003d99       0x46 ../sodalite_ckplay_bsp/\libhal_bsp.a(alt_io_redirect.o)
                                        0x2ec (size before relaxing)
 .debug_str     0x0000000000003ddf       0x3a ../sodalite_ckplay_bsp/\libhal_bsp.a(alt_irq_handler.o)
                                        0x15e (size before relaxing)
 .debug_str     0x0000000000003e19       0x17 ../sodalite_ckplay_bsp/\libhal_bsp.a(alt_irq_vars.o)
                                        0x10d (size before relaxing)
 .debug_str     0x0000000000003e30       0x42 ../sodalite_ckplay_bsp/\libhal_bsp.a(alt_open.o)
                                        0x247 (size before relaxing)
 .debug_str     0x0000000000003e72       0x41 ../sodalite_ckplay_bsp/\libhal_bsp.a(alt_tick.o)
                                        0x219 (size before relaxing)
 .debug_str     0x0000000000003eb3       0x20 ../sodalite_ckplay_bsp/\libhal_bsp.a(altera_nios2_gen2_irq.o)
                                        0x123 (size before relaxing)
 .debug_str     0x0000000000003ed3       0x18 ../sodalite_ckplay_bsp/\libhal_bsp.a(alt_find_file.o)
                                        0x1d6 (size before relaxing)
 .debug_str     0x0000000000003eeb       0x25 ../sodalite_ckplay_bsp/\libhal_bsp.a(alt_get_fd.o)
                                        0x1e3 (size before relaxing)
 .debug_str     0x0000000000003f10       0x1b ../sodalite_ckplay_bsp/\libhal_bsp.a(alt_icache_flush.o)
                                        0x122 (size before relaxing)
 .debug_str     0x0000000000003f2b      0x48b ../sodalite_ckplay_bsp/\libhal_bsp.a(alt_instruction_exception_entry.o)
                                        0x566 (size before relaxing)
 .debug_str     0x00000000000043b6       0x82 c:/develop/altera/14.0/nios2eds/bin/gnu/h-x86_64-mingw32/bin/../lib/gcc/nios2-elf/4.7.3/../../../../../H-x86_64-mingw32/nios2-elf/lib/mhw-mulx\libc.a(lib_a-atexit.o)
                                        0x219 (size before relaxing)
 .debug_str     0x0000000000004438       0x4d c:/develop/altera/14.0/nios2eds/bin/gnu/h-x86_64-mingw32/bin/../lib/gcc/nios2-elf/4.7.3/../../../../../H-x86_64-mingw32/nios2-elf/lib/mhw-mulx\libc.a(lib_a-exit.o)
                                        0x539 (size before relaxing)
 .debug_str     0x0000000000004485       0x4a c:/develop/altera/14.0/nios2eds/bin/gnu/h-x86_64-mingw32/bin/../lib/gcc/nios2-elf/4.7.3/../../../../../H-x86_64-mingw32/nios2-elf/lib/mhw-mulx\libc.a(lib_a-malign.o)
                                        0x53c (size before relaxing)
 .debug_str     0x00000000000044cf       0x13 c:/develop/altera/14.0/nios2eds/bin/gnu/h-x86_64-mingw32/bin/../lib/gcc/nios2-elf/4.7.3/../../../../../H-x86_64-mingw32/nios2-elf/lib/mhw-mulx\libc.a(lib_a-malignr.o)
                                        0x5ba (size before relaxing)
 .debug_str     0x00000000000044e2       0x3e c:/develop/altera/14.0/nios2eds/bin/gnu/h-x86_64-mingw32/bin/../lib/gcc/nios2-elf/4.7.3/../../../../../H-x86_64-mingw32/nios2-elf/lib/mhw-mulx\libc.a(lib_a-memcmp.o)
                                        0x180 (size before relaxing)
 .debug_str     0x0000000000004520       0x40 c:/develop/altera/14.0/nios2eds/bin/gnu/h-x86_64-mingw32/bin/../lib/gcc/nios2-elf/4.7.3/../../../../../H-x86_64-mingw32/nios2-elf/lib/mhw-mulx\libc.a(lib_a-__atexit.o)
                                        0x57d (size before relaxing)
 .debug_str     0x0000000000004560       0x5f c:/develop/altera/14.0/nios2eds/bin/gnu/h-x86_64-mingw32/bin/../lib/gcc/nios2-elf/4.7.3/../../../../../H-x86_64-mingw32/nios2-elf/lib/mhw-mulx\libc.a(lib_a-__call_atexit.o)
                                        0x55b (size before relaxing)
 .debug_str     0x00000000000045bf       0x2a ../sodalite_ckplay_bsp/\libhal_bsp.a(alt_exit.o)
                                        0x118 (size before relaxing)

.debug_loc      0x0000000000000000    0x1b827
 *(.debug_loc)
 .debug_loc     0x0000000000000000      0x246 obj/default/ckplay_peridot.o
 .debug_loc     0x0000000000000246     0x5028 obj/default/mmcfs/fatfs/ff.o
 .debug_loc     0x000000000000526e      0xa1c obj/default/mmcfs/fatfs/mmcbb.o
 .debug_loc     0x0000000000005c8a      0x155 obj/default/mmcfs/fatfs/option/cc932.o
 .debug_loc     0x0000000000005ddf      0x161 obj/default/mmcfs/mmc_spi.o
 .debug_loc     0x0000000000005f40      0x5e3 obj/default/mmcfs/mmcfs.o
 .debug_loc     0x0000000000006523      0xe4f obj/default/nd_lib/nd_acm.o
 .debug_loc     0x0000000000007372     0x1603 obj/default/nd_lib/nd_egl.o
 .debug_loc     0x0000000000008975      0x338 c:/develop/altera/14.0/nios2eds/bin/gnu/h-x86_64-mingw32/bin/../lib/gcc/nios2-elf/4.7.3/mhw-mulx\libgcc.a(lib2-divmod.o)
 .debug_loc     0x0000000000008cad       0x58 c:/develop/altera/14.0/nios2eds/bin/gnu/h-x86_64-mingw32/bin/../lib/gcc/nios2-elf/4.7.3/../../../../../H-x86_64-mingw32/nios2-elf/lib/mhw-mulx\libc.a(lib_a-malloc.o)
 .debug_loc     0x0000000000008d05      0xb50 c:/develop/altera/14.0/nios2eds/bin/gnu/h-x86_64-mingw32/bin/../lib/gcc/nios2-elf/4.7.3/../../../../../H-x86_64-mingw32/nios2-elf/lib/mhw-mulx\libc.a(lib_a-mallocr.o)
 .debug_loc     0x0000000000009855      0x1f2 c:/develop/altera/14.0/nios2eds/bin/gnu/h-x86_64-mingw32/bin/../lib/gcc/nios2-elf/4.7.3/../../../../../H-x86_64-mingw32/nios2-elf/lib/mhw-mulx\libc.a(lib_a-memcpy.o)
 .debug_loc     0x0000000000009a47      0x1b7 c:/develop/altera/14.0/nios2eds/bin/gnu/h-x86_64-mingw32/bin/../lib/gcc/nios2-elf/4.7.3/../../../../../H-x86_64-mingw32/nios2-elf/lib/mhw-mulx\libc.a(lib_a-memset.o)
 .debug_loc     0x0000000000009bfe      0x132 c:/develop/altera/14.0/nios2eds/bin/gnu/h-x86_64-mingw32/bin/../lib/gcc/nios2-elf/4.7.3/../../../../../H-x86_64-mingw32/nios2-elf/lib/mhw-mulx\libc.a(lib_a-printf.o)
 .debug_loc     0x0000000000009d30       0xd9 c:/develop/altera/14.0/nios2eds/bin/gnu/h-x86_64-mingw32/bin/../lib/gcc/nios2-elf/4.7.3/../../../../../H-x86_64-mingw32/nios2-elf/lib/mhw-mulx\libc.a(lib_a-puts.o)
 .debug_loc     0x0000000000009e09       0x86 c:/develop/altera/14.0/nios2eds/bin/gnu/h-x86_64-mingw32/bin/../lib/gcc/nios2-elf/4.7.3/../../../../../H-x86_64-mingw32/nios2-elf/lib/mhw-mulx\libc.a(lib_a-sbrkr.o)
 .debug_loc     0x0000000000009e8f      0x191 c:/develop/altera/14.0/nios2eds/bin/gnu/h-x86_64-mingw32/bin/../lib/gcc/nios2-elf/4.7.3/../../../../../H-x86_64-mingw32/nios2-elf/lib/mhw-mulx\libc.a(lib_a-strcpy.o)
 .debug_loc     0x000000000000a020       0x52 c:/develop/altera/14.0/nios2eds/bin/gnu/h-x86_64-mingw32/bin/../lib/gcc/nios2-elf/4.7.3/../../../../../H-x86_64-mingw32/nios2-elf/lib/mhw-mulx\libc.a(lib_a-strlen.o)
 .debug_loc     0x000000000000a072     0x2b6b c:/develop/altera/14.0/nios2eds/bin/gnu/h-x86_64-mingw32/bin/../lib/gcc/nios2-elf/4.7.3/../../../../../H-x86_64-mingw32/nios2-elf/lib/mhw-mulx\libc.a(lib_a-vfprintf.o)
 .debug_loc     0x000000000000cbdd       0xba c:/develop/altera/14.0/nios2eds/bin/gnu/h-x86_64-mingw32/bin/../lib/gcc/nios2-elf/4.7.3/../../../../../H-x86_64-mingw32/nios2-elf/lib/mhw-mulx\libc.a(lib_a-wsetup.o)
 .debug_loc     0x000000000000cc97     0x2286 c:/develop/altera/14.0/nios2eds/bin/gnu/h-x86_64-mingw32/bin/../lib/gcc/nios2-elf/4.7.3/../../../../../H-x86_64-mingw32/nios2-elf/lib/mhw-mulx\libc.a(lib_a-dtoa.o)
 .debug_loc     0x000000000000ef1d      0x259 c:/develop/altera/14.0/nios2eds/bin/gnu/h-x86_64-mingw32/bin/../lib/gcc/nios2-elf/4.7.3/../../../../../H-x86_64-mingw32/nios2-elf/lib/mhw-mulx\libc.a(lib_a-fflush.o)
 .debug_loc     0x000000000000f176      0x29c c:/develop/altera/14.0/nios2eds/bin/gnu/h-x86_64-mingw32/bin/../lib/gcc/nios2-elf/4.7.3/../../../../../H-x86_64-mingw32/nios2-elf/lib/mhw-mulx\libc.a(lib_a-findfp.o)
 .debug_loc     0x000000000000f412      0x668 c:/develop/altera/14.0/nios2eds/bin/gnu/h-x86_64-mingw32/bin/../lib/gcc/nios2-elf/4.7.3/../../../../../H-x86_64-mingw32/nios2-elf/lib/mhw-mulx\libc.a(lib_a-freer.o)
 .debug_loc     0x000000000000fa7a      0x50c c:/develop/altera/14.0/nios2eds/bin/gnu/h-x86_64-mingw32/bin/../lib/gcc/nios2-elf/4.7.3/../../../../../H-x86_64-mingw32/nios2-elf/lib/mhw-mulx\libc.a(lib_a-fvwrite.o)
 .debug_loc     0x000000000000ff86      0x2ae c:/develop/altera/14.0/nios2eds/bin/gnu/h-x86_64-mingw32/bin/../lib/gcc/nios2-elf/4.7.3/../../../../../H-x86_64-mingw32/nios2-elf/lib/mhw-mulx\libc.a(lib_a-fwalk.o)
 .debug_loc     0x0000000000010234      0x13e c:/develop/altera/14.0/nios2eds/bin/gnu/h-x86_64-mingw32/bin/../lib/gcc/nios2-elf/4.7.3/../../../../../H-x86_64-mingw32/nios2-elf/lib/mhw-mulx\libc.a(lib_a-locale.o)
 .debug_loc     0x0000000000010372      0x16a c:/develop/altera/14.0/nios2eds/bin/gnu/h-x86_64-mingw32/bin/../lib/gcc/nios2-elf/4.7.3/../../../../../H-x86_64-mingw32/nios2-elf/lib/mhw-mulx\libc.a(lib_a-makebuf.o)
 .debug_loc     0x00000000000104dc      0x239 c:/develop/altera/14.0/nios2eds/bin/gnu/h-x86_64-mingw32/bin/../lib/gcc/nios2-elf/4.7.3/../../../../../H-x86_64-mingw32/nios2-elf/lib/mhw-mulx\libc.a(lib_a-memchr.o)
 .debug_loc     0x0000000000010715      0x240 c:/develop/altera/14.0/nios2eds/bin/gnu/h-x86_64-mingw32/bin/../lib/gcc/nios2-elf/4.7.3/../../../../../H-x86_64-mingw32/nios2-elf/lib/mhw-mulx\libc.a(lib_a-memmove.o)
 .debug_loc     0x0000000000010955     0x1b23 c:/develop/altera/14.0/nios2eds/bin/gnu/h-x86_64-mingw32/bin/../lib/gcc/nios2-elf/4.7.3/../../../../../H-x86_64-mingw32/nios2-elf/lib/mhw-mulx\libc.a(lib_a-mprec.o)
 .debug_loc     0x0000000000012478     0x1136 c:/develop/altera/14.0/nios2eds/bin/gnu/h-x86_64-mingw32/bin/../lib/gcc/nios2-elf/4.7.3/../../../../../H-x86_64-mingw32/nios2-elf/lib/mhw-mulx\libc.a(lib_a-reallocr.o)
 .debug_loc     0x00000000000135ae       0x88 c:/develop/altera/14.0/nios2eds/bin/gnu/h-x86_64-mingw32/bin/../lib/gcc/nios2-elf/4.7.3/../../../../../H-x86_64-mingw32/nios2-elf/lib/mhw-mulx\libc.a(lib_a-s_isinfd.o)
 .debug_loc     0x0000000000013636       0xa5 c:/develop/altera/14.0/nios2eds/bin/gnu/h-x86_64-mingw32/bin/../lib/gcc/nios2-elf/4.7.3/../../../../../H-x86_64-mingw32/nios2-elf/lib/mhw-mulx\libc.a(lib_a-s_isnand.o)
 .debug_loc     0x00000000000136db      0x379 c:/develop/altera/14.0/nios2eds/bin/gnu/h-x86_64-mingw32/bin/../lib/gcc/nios2-elf/4.7.3/../../../../../H-x86_64-mingw32/nios2-elf/lib/mhw-mulx\libc.a(lib_a-stdio.o)
 .debug_loc     0x0000000000013a54       0xb0 c:/develop/altera/14.0/nios2eds/bin/gnu/h-x86_64-mingw32/bin/../lib/gcc/nios2-elf/4.7.3/../../../../../H-x86_64-mingw32/nios2-elf/lib/mhw-mulx\libc.a(lib_a-strcmp.o)
 .debug_loc     0x0000000000013b04       0xde c:/develop/altera/14.0/nios2eds/bin/gnu/h-x86_64-mingw32/bin/../lib/gcc/nios2-elf/4.7.3/../../../../../H-x86_64-mingw32/nios2-elf/lib/mhw-mulx\libc.a(lib_a-writer.o)
 .debug_loc     0x0000000000013be2      0x283 c:/develop/altera/14.0/nios2eds/bin/gnu/h-x86_64-mingw32/bin/../lib/gcc/nios2-elf/4.7.3/../../../../../H-x86_64-mingw32/nios2-elf/lib/mhw-mulx\libc.a(lib_a-callocr.o)
 .debug_loc     0x0000000000013e65       0x86 c:/develop/altera/14.0/nios2eds/bin/gnu/h-x86_64-mingw32/bin/../lib/gcc/nios2-elf/4.7.3/../../../../../H-x86_64-mingw32/nios2-elf/lib/mhw-mulx\libc.a(lib_a-closer.o)
 .debug_loc     0x0000000000013eeb      0x136 c:/develop/altera/14.0/nios2eds/bin/gnu/h-x86_64-mingw32/bin/../lib/gcc/nios2-elf/4.7.3/../../../../../H-x86_64-mingw32/nios2-elf/lib/mhw-mulx\libc.a(lib_a-fclose.o)
 .debug_loc     0x0000000000014021       0xb2 c:/develop/altera/14.0/nios2eds/bin/gnu/h-x86_64-mingw32/bin/../lib/gcc/nios2-elf/4.7.3/../../../../../H-x86_64-mingw32/nios2-elf/lib/mhw-mulx\libc.a(lib_a-fstatr.o)
 .debug_loc     0x00000000000140d3       0x86 c:/develop/altera/14.0/nios2eds/bin/gnu/h-x86_64-mingw32/bin/../lib/gcc/nios2-elf/4.7.3/../../../../../H-x86_64-mingw32/nios2-elf/lib/mhw-mulx\libc.a(lib_a-isattyr.o)
 .debug_loc     0x0000000000014159       0xde c:/develop/altera/14.0/nios2eds/bin/gnu/h-x86_64-mingw32/bin/../lib/gcc/nios2-elf/4.7.3/../../../../../H-x86_64-mingw32/nios2-elf/lib/mhw-mulx\libc.a(lib_a-lseekr.o)
 .debug_loc     0x0000000000014237       0xde c:/develop/altera/14.0/nios2eds/bin/gnu/h-x86_64-mingw32/bin/../lib/gcc/nios2-elf/4.7.3/../../../../../H-x86_64-mingw32/nios2-elf/lib/mhw-mulx\libc.a(lib_a-readr.o)
 .debug_loc     0x0000000000014315     0x10da c:/develop/altera/14.0/nios2eds/bin/gnu/h-x86_64-mingw32/bin/../lib/gcc/nios2-elf/4.7.3/mhw-mulx\libgcc.a(_udivdi3.o)
 .debug_loc     0x00000000000153ef     0x1049 c:/develop/altera/14.0/nios2eds/bin/gnu/h-x86_64-mingw32/bin/../lib/gcc/nios2-elf/4.7.3/mhw-mulx\libgcc.a(_umoddi3.o)
 .debug_loc     0x0000000000016438      0x7a1 c:/develop/altera/14.0/nios2eds/bin/gnu/h-x86_64-mingw32/bin/../lib/gcc/nios2-elf/4.7.3/mhw-mulx\libgcc.a(_addsub_df.o)
 .debug_loc     0x0000000000016bd9      0x421 c:/develop/altera/14.0/nios2eds/bin/gnu/h-x86_64-mingw32/bin/../lib/gcc/nios2-elf/4.7.3/mhw-mulx\libgcc.a(_mul_df.o)
 .debug_loc     0x0000000000016ffa      0x25e c:/develop/altera/14.0/nios2eds/bin/gnu/h-x86_64-mingw32/bin/../lib/gcc/nios2-elf/4.7.3/mhw-mulx\libgcc.a(_div_df.o)
 .debug_loc     0x0000000000017258       0x70 c:/develop/altera/14.0/nios2eds/bin/gnu/h-x86_64-mingw32/bin/../lib/gcc/nios2-elf/4.7.3/mhw-mulx\libgcc.a(_eq_df.o)
 .debug_loc     0x00000000000172c8       0x70 c:/develop/altera/14.0/nios2eds/bin/gnu/h-x86_64-mingw32/bin/../lib/gcc/nios2-elf/4.7.3/mhw-mulx\libgcc.a(_ne_df.o)
 .debug_loc     0x0000000000017338       0x70 c:/develop/altera/14.0/nios2eds/bin/gnu/h-x86_64-mingw32/bin/../lib/gcc/nios2-elf/4.7.3/mhw-mulx\libgcc.a(_gt_df.o)
 .debug_loc     0x00000000000173a8       0x70 c:/develop/altera/14.0/nios2eds/bin/gnu/h-x86_64-mingw32/bin/../lib/gcc/nios2-elf/4.7.3/mhw-mulx\libgcc.a(_ge_df.o)
 .debug_loc     0x0000000000017418       0x70 c:/develop/altera/14.0/nios2eds/bin/gnu/h-x86_64-mingw32/bin/../lib/gcc/nios2-elf/4.7.3/mhw-mulx\libgcc.a(_lt_df.o)
 .debug_loc     0x0000000000017488       0xd3 c:/develop/altera/14.0/nios2eds/bin/gnu/h-x86_64-mingw32/bin/../lib/gcc/nios2-elf/4.7.3/mhw-mulx\libgcc.a(_si_to_df.o)
 .debug_loc     0x000000000001755b       0xc4 c:/develop/altera/14.0/nios2eds/bin/gnu/h-x86_64-mingw32/bin/../lib/gcc/nios2-elf/4.7.3/mhw-mulx\libgcc.a(_df_to_si.o)
 .debug_loc     0x000000000001761f      0x168 c:/develop/altera/14.0/nios2eds/bin/gnu/h-x86_64-mingw32/bin/../lib/gcc/nios2-elf/4.7.3/mhw-mulx\libgcc.a(_usi_to_df.o)
 .debug_loc     0x0000000000017787      0x19a c:/develop/altera/14.0/nios2eds/bin/gnu/h-x86_64-mingw32/bin/../lib/gcc/nios2-elf/4.7.3/mhw-mulx\libgcc.a(_clzsi2.o)
 .debug_loc     0x0000000000017921      0x2ae c:/develop/altera/14.0/nios2eds/bin/gnu/h-x86_64-mingw32/bin/../lib/gcc/nios2-elf/4.7.3/mhw-mulx\libgcc.a(_pack_df.o)
 .debug_loc     0x0000000000017bcf      0x179 c:/develop/altera/14.0/nios2eds/bin/gnu/h-x86_64-mingw32/bin/../lib/gcc/nios2-elf/4.7.3/mhw-mulx\libgcc.a(_unpack_df.o)
 .debug_loc     0x0000000000017d48       0x7c c:/develop/altera/14.0/nios2eds/bin/gnu/h-x86_64-mingw32/bin/../lib/gcc/nios2-elf/4.7.3/mhw-mulx\libgcc.a(_fpcmp_parts_df.o)
 .debug_loc     0x0000000000017dc4       0xc4 c:/develop/altera/14.0/nios2eds/bin/gnu/h-x86_64-mingw32/bin/../lib/gcc/nios2-elf/4.7.3/mhw-mulx\libgcc.a(_lshrdi3.o)
 .debug_loc     0x0000000000017e88       0xc4 c:/develop/altera/14.0/nios2eds/bin/gnu/h-x86_64-mingw32/bin/../lib/gcc/nios2-elf/4.7.3/mhw-mulx\libgcc.a(_ashldi3.o)
 .debug_loc     0x0000000000017f4c      0x151 ../sodalite_ckplay_bsp/\libhal_bsp.a(alt_close.o)
 .debug_loc     0x000000000001809d       0x60 ../sodalite_ckplay_bsp/\libhal_bsp.a(alt_dcache_flush.o)
 .debug_loc     0x00000000000180fd       0x13 ../sodalite_ckplay_bsp/\libhal_bsp.a(alt_fs_reg.o)
 .debug_loc     0x0000000000018110      0x119 ../sodalite_ckplay_bsp/\libhal_bsp.a(alt_fstat.o)
 .debug_loc     0x0000000000018229       0xce ../sodalite_ckplay_bsp/\libhal_bsp.a(alt_isatty.o)
 .debug_loc     0x00000000000182f7       0x20 ../sodalite_ckplay_bsp/\libhal_bsp.a(alt_load.o)
 .debug_loc     0x0000000000018317      0x198 ../sodalite_ckplay_bsp/\libhal_bsp.a(alt_lseek.o)
 .debug_loc     0x00000000000184af       0x3e ../sodalite_ckplay_bsp/\libhal_bsp.a(alt_main.o)
 .debug_loc     0x00000000000184ed      0x233 ../sodalite_ckplay_bsp/\libhal_bsp.a(alt_read.o)
 .debug_loc     0x0000000000018720       0x21 ../sodalite_ckplay_bsp/\libhal_bsp.a(alt_release_fd.o)
 .debug_loc     0x0000000000018741       0x47 ../sodalite_ckplay_bsp/\libhal_bsp.a(alt_sbrk.o)
 .debug_loc     0x0000000000018788       0x21 ../sodalite_ckplay_bsp/\libhal_bsp.a(alt_uncached_free.o)
 .debug_loc     0x00000000000187a9       0xf7 ../sodalite_ckplay_bsp/\libhal_bsp.a(alt_uncached_malloc.o)
 .debug_loc     0x00000000000188a0      0x233 ../sodalite_ckplay_bsp/\libhal_bsp.a(alt_write.o)
 .debug_loc     0x0000000000018ad3       0x61 ../sodalite_ckplay_bsp/\libhal_bsp.a(alt_sys_init.o)
 .debug_loc     0x0000000000018b34      0x1d3 ../sodalite_ckplay_bsp/\libhal_bsp.a(altera_avalon_jtag_uart_fd.o)
 .debug_loc     0x0000000000018d07      0x179 ../sodalite_ckplay_bsp/\libhal_bsp.a(altera_avalon_jtag_uart_init.o)
 .debug_loc     0x0000000000018e80       0xb3 ../sodalite_ckplay_bsp/\libhal_bsp.a(altera_avalon_jtag_uart_ioctl.o)
 .debug_loc     0x0000000000018f33      0x213 ../sodalite_ckplay_bsp/\libhal_bsp.a(altera_avalon_jtag_uart_read.o)
 .debug_loc     0x0000000000019146      0x248 ../sodalite_ckplay_bsp/\libhal_bsp.a(altera_avalon_jtag_uart_write.o)
 .debug_loc     0x000000000001938e      0x14d ../sodalite_ckplay_bsp/\libhal_bsp.a(altera_avalon_timer_sc.o)
 .debug_loc     0x00000000000194db       0x42 ../sodalite_ckplay_bsp/\libhal_bsp.a(altera_modular_adc.o)
 .debug_loc     0x000000000001951d      0xd8e ../sodalite_ckplay_bsp/\libhal_bsp.a(altera_onchip_flash.o)
 .debug_loc     0x000000000001a2ab       0xaf ../sodalite_ckplay_bsp/\libhal_bsp.a(alt_alarm_start.o)
 .debug_loc     0x000000000001a35a       0x1f ../sodalite_ckplay_bsp/\libhal_bsp.a(alt_dcache_flush_all.o)
 .debug_loc     0x000000000001a379       0xd0 ../sodalite_ckplay_bsp/\libhal_bsp.a(alt_dev_llist_insert.o)
 .debug_loc     0x000000000001a449       0x33 ../sodalite_ckplay_bsp/\libhal_bsp.a(alt_do_ctors.o)
 .debug_loc     0x000000000001a47c       0x33 ../sodalite_ckplay_bsp/\libhal_bsp.a(alt_do_dtors.o)
 .debug_loc     0x000000000001a4af       0xf1 ../sodalite_ckplay_bsp/\libhal_bsp.a(alt_find_dev.o)
 .debug_loc     0x000000000001a5a0       0xba ../sodalite_ckplay_bsp/\libhal_bsp.a(alt_flash_dev.o)
 .debug_loc     0x000000000001a65a      0x13c ../sodalite_ckplay_bsp/\libhal_bsp.a(alt_iic.o)
 .debug_loc     0x000000000001a796      0x192 ../sodalite_ckplay_bsp/\libhal_bsp.a(alt_iic_isr_register.o)
 .debug_loc     0x000000000001a928      0x195 ../sodalite_ckplay_bsp/\libhal_bsp.a(alt_io_redirect.o)
 .debug_loc     0x000000000001aabd       0x84 ../sodalite_ckplay_bsp/\libhal_bsp.a(alt_irq_handler.o)
 .debug_loc     0x000000000001ab41      0x2a6 ../sodalite_ckplay_bsp/\libhal_bsp.a(alt_open.o)
 .debug_loc     0x000000000001ade7       0xb1 ../sodalite_ckplay_bsp/\libhal_bsp.a(alt_tick.o)
 .debug_loc     0x000000000001ae98       0x9e ../sodalite_ckplay_bsp/\libhal_bsp.a(alt_find_file.o)
 .debug_loc     0x000000000001af36       0x4a ../sodalite_ckplay_bsp/\libhal_bsp.a(alt_get_fd.o)
 .debug_loc     0x000000000001af80       0x52 ../sodalite_ckplay_bsp/\libhal_bsp.a(alt_icache_flush.o)
 .debug_loc     0x000000000001afd2       0xbe ../sodalite_ckplay_bsp/\libhal_bsp.a(alt_instruction_exception_entry.o)
 .debug_loc     0x000000000001b090       0x2c c:/develop/altera/14.0/nios2eds/bin/gnu/h-x86_64-mingw32/bin/../lib/gcc/nios2-elf/4.7.3/../../../../../H-x86_64-mingw32/nios2-elf/lib/mhw-mulx\libc.a(lib_a-atexit.o)
 .debug_loc     0x000000000001b0bc       0x3e c:/develop/altera/14.0/nios2eds/bin/gnu/h-x86_64-mingw32/bin/../lib/gcc/nios2-elf/4.7.3/../../../../../H-x86_64-mingw32/nios2-elf/lib/mhw-mulx\libc.a(lib_a-exit.o)
 .debug_loc     0x000000000001b0fa       0x58 c:/develop/altera/14.0/nios2eds/bin/gnu/h-x86_64-mingw32/bin/../lib/gcc/nios2-elf/4.7.3/../../../../../H-x86_64-mingw32/nios2-elf/lib/mhw-mulx\libc.a(lib_a-malign.o)
 .debug_loc     0x000000000001b152      0x25d c:/develop/altera/14.0/nios2eds/bin/gnu/h-x86_64-mingw32/bin/../lib/gcc/nios2-elf/4.7.3/../../../../../H-x86_64-mingw32/nios2-elf/lib/mhw-mulx\libc.a(lib_a-malignr.o)
 .debug_loc     0x000000000001b3af      0x103 c:/develop/altera/14.0/nios2eds/bin/gnu/h-x86_64-mingw32/bin/../lib/gcc/nios2-elf/4.7.3/../../../../../H-x86_64-mingw32/nios2-elf/lib/mhw-mulx\libc.a(lib_a-memcmp.o)
 .debug_loc     0x000000000001b4b2      0x194 c:/develop/altera/14.0/nios2eds/bin/gnu/h-x86_64-mingw32/bin/../lib/gcc/nios2-elf/4.7.3/../../../../../H-x86_64-mingw32/nios2-elf/lib/mhw-mulx\libc.a(lib_a-__atexit.o)
 .debug_loc     0x000000000001b646      0x1e1 c:/develop/altera/14.0/nios2eds/bin/gnu/h-x86_64-mingw32/bin/../lib/gcc/nios2-elf/4.7.3/../../../../../H-x86_64-mingw32/nios2-elf/lib/mhw-mulx\libc.a(lib_a-__call_atexit.o)

.debug_macinfo
 *(.debug_macinfo)

.debug_weaknames
 *(.debug_weaknames)

.debug_funcnames
 *(.debug_funcnames)

.debug_typenames
 *(.debug_typenames)

.debug_varnames
 *(.debug_varnames)

.debug_alt_sim_info
                0x0000000000000000       0x30
 *(.debug_alt_sim_info)
 .debug_alt_sim_info
                0x0000000000000000       0x30 ../sodalite_ckplay_bsp//obj/HAL/src/crt0.o
                0x0000000002000000                __alt_data_end = 0x2000000
                0x0000000002000000                PROVIDE (__alt_stack_pointer, __alt_data_end)
                0x0000000000026160                PROVIDE (__alt_stack_limit, __alt_stack_base)
                0x0000000000026160                PROVIDE (__alt_heap_start, end)
                0x0000000002000000                PROVIDE (__alt_heap_limit, 0x2000000)
OUTPUT(sodalite_ckplay.elf elf32-littlenios2)

.debug_ranges   0x0000000000000000     0x11a8
 .debug_ranges  0x0000000000000000       0x20 ../sodalite_ckplay_bsp//obj/HAL/src/crt0.o
 .debug_ranges  0x0000000000000020       0x18 obj/default/ckplay_peridot.o
 .debug_ranges  0x0000000000000038      0x3a8 obj/default/mmcfs/fatfs/ff.o
 .debug_ranges  0x00000000000003e0       0x38 obj/default/mmcfs/fatfs/mmcbb.o
 .debug_ranges  0x0000000000000418       0x38 obj/default/nd_lib/nd_egl.o
 .debug_ranges  0x0000000000000450       0x70 c:/develop/altera/14.0/nios2eds/bin/gnu/h-x86_64-mingw32/bin/../lib/gcc/nios2-elf/4.7.3/../../../../../H-x86_64-mingw32/nios2-elf/lib/mhw-mulx\libc.a(lib_a-mallocr.o)
 .debug_ranges  0x00000000000004c0      0x150 c:/develop/altera/14.0/nios2eds/bin/gnu/h-x86_64-mingw32/bin/../lib/gcc/nios2-elf/4.7.3/../../../../../H-x86_64-mingw32/nios2-elf/lib/mhw-mulx\libc.a(lib_a-vfprintf.o)
 .debug_ranges  0x0000000000000610       0x20 c:/develop/altera/14.0/nios2eds/bin/gnu/h-x86_64-mingw32/bin/../lib/gcc/nios2-elf/4.7.3/../../../../../H-x86_64-mingw32/nios2-elf/lib/mhw-mulx\libc.a(lib_a-fflush.o)
 .debug_ranges  0x0000000000000630       0x18 c:/develop/altera/14.0/nios2eds/bin/gnu/h-x86_64-mingw32/bin/../lib/gcc/nios2-elf/4.7.3/../../../../../H-x86_64-mingw32/nios2-elf/lib/mhw-mulx\libc.a(lib_a-fvwrite.o)
 .debug_ranges  0x0000000000000648       0x80 c:/develop/altera/14.0/nios2eds/bin/gnu/h-x86_64-mingw32/bin/../lib/gcc/nios2-elf/4.7.3/../../../../../H-x86_64-mingw32/nios2-elf/lib/mhw-mulx\libc.a(lib_a-fwalk.o)
 .debug_ranges  0x00000000000006c8       0x40 c:/develop/altera/14.0/nios2eds/bin/gnu/h-x86_64-mingw32/bin/../lib/gcc/nios2-elf/4.7.3/../../../../../H-x86_64-mingw32/nios2-elf/lib/mhw-mulx\libc.a(lib_a-mprec.o)
 .debug_ranges  0x0000000000000708      0x158 c:/develop/altera/14.0/nios2eds/bin/gnu/h-x86_64-mingw32/bin/../lib/gcc/nios2-elf/4.7.3/../../../../../H-x86_64-mingw32/nios2-elf/lib/mhw-mulx\libc.a(lib_a-reallocr.o)
 .debug_ranges  0x0000000000000860       0x48 c:/develop/altera/14.0/nios2eds/bin/gnu/h-x86_64-mingw32/bin/../lib/gcc/nios2-elf/4.7.3/../../../../../H-x86_64-mingw32/nios2-elf/lib/mhw-mulx\libc.a(lib_a-callocr.o)
 .debug_ranges  0x00000000000008a8      0x1a0 c:/develop/altera/14.0/nios2eds/bin/gnu/h-x86_64-mingw32/bin/../lib/gcc/nios2-elf/4.7.3/mhw-mulx\libgcc.a(_udivdi3.o)
 .debug_ranges  0x0000000000000a48      0x160 c:/develop/altera/14.0/nios2eds/bin/gnu/h-x86_64-mingw32/bin/../lib/gcc/nios2-elf/4.7.3/mhw-mulx\libgcc.a(_umoddi3.o)
 .debug_ranges  0x0000000000000ba8       0x38 c:/develop/altera/14.0/nios2eds/bin/gnu/h-x86_64-mingw32/bin/../lib/gcc/nios2-elf/4.7.3/mhw-mulx\libgcc.a(_addsub_df.o)
 .debug_ranges  0x0000000000000be0       0x70 c:/develop/altera/14.0/nios2eds/bin/gnu/h-x86_64-mingw32/bin/../lib/gcc/nios2-elf/4.7.3/mhw-mulx\libgcc.a(_mul_df.o)
 .debug_ranges  0x0000000000000c50       0x50 c:/develop/altera/14.0/nios2eds/bin/gnu/h-x86_64-mingw32/bin/../lib/gcc/nios2-elf/4.7.3/mhw-mulx\libgcc.a(_div_df.o)
 .debug_ranges  0x0000000000000ca0       0x30 c:/develop/altera/14.0/nios2eds/bin/gnu/h-x86_64-mingw32/bin/../lib/gcc/nios2-elf/4.7.3/mhw-mulx\libgcc.a(_si_to_df.o)
 .debug_ranges  0x0000000000000cd0       0x48 c:/develop/altera/14.0/nios2eds/bin/gnu/h-x86_64-mingw32/bin/../lib/gcc/nios2-elf/4.7.3/mhw-mulx\libgcc.a(_usi_to_df.o)
 .debug_ranges  0x0000000000000d18       0x28 c:/develop/altera/14.0/nios2eds/bin/gnu/h-x86_64-mingw32/bin/../lib/gcc/nios2-elf/4.7.3/mhw-mulx\libgcc.a(_clzsi2.o)
 .debug_ranges  0x0000000000000d40       0x18 c:/develop/altera/14.0/nios2eds/bin/gnu/h-x86_64-mingw32/bin/../lib/gcc/nios2-elf/4.7.3/mhw-mulx\libgcc.a(_pack_df.o)
 .debug_ranges  0x0000000000000d58       0x18 ../sodalite_ckplay_bsp/\libhal_bsp.a(alt_close.o)
 .debug_ranges  0x0000000000000d70       0x18 ../sodalite_ckplay_bsp/\libhal_bsp.a(alt_fs_reg.o)
 .debug_ranges  0x0000000000000d88       0x18 ../sodalite_ckplay_bsp/\libhal_bsp.a(alt_isatty.o)
 .debug_ranges  0x0000000000000da0       0x48 ../sodalite_ckplay_bsp/\libhal_bsp.a(alt_load.o)
 .debug_ranges  0x0000000000000de8       0x18 ../sodalite_ckplay_bsp/\libhal_bsp.a(alt_lseek.o)
 .debug_ranges  0x0000000000000e00       0x30 ../sodalite_ckplay_bsp/\libhal_bsp.a(alt_read.o)
 .debug_ranges  0x0000000000000e30       0x30 ../sodalite_ckplay_bsp/\libhal_bsp.a(alt_write.o)
 .debug_ranges  0x0000000000000e60       0x38 ../sodalite_ckplay_bsp/\libhal_bsp.a(altera_avalon_jtag_uart_init.o)
 .debug_ranges  0x0000000000000e98       0x18 ../sodalite_ckplay_bsp/\libhal_bsp.a(altera_avalon_jtag_uart_read.o)
 .debug_ranges  0x0000000000000eb0       0x58 ../sodalite_ckplay_bsp/\libhal_bsp.a(altera_avalon_jtag_uart_write.o)
 .debug_ranges  0x0000000000000f08       0x18 ../sodalite_ckplay_bsp/\libhal_bsp.a(altera_avalon_timer_sc.o)
 .debug_ranges  0x0000000000000f20      0x148 ../sodalite_ckplay_bsp/\libhal_bsp.a(altera_onchip_flash.o)
 .debug_ranges  0x0000000000001068       0x30 ../sodalite_ckplay_bsp/\libhal_bsp.a(alt_dev_llist_insert.o)
 .debug_ranges  0x0000000000001098       0x28 ../sodalite_ckplay_bsp/\libhal_bsp.a(alt_irq_entry.o)
 .debug_ranges  0x00000000000010c0       0x10 ../sodalite_ckplay_bsp/\libhal_bsp.a(alt_irq_handler.o)
 .debug_ranges  0x00000000000010d0       0x18 ../sodalite_ckplay_bsp/\libhal_bsp.a(alt_open.o)
 .debug_ranges  0x00000000000010e8       0x60 ../sodalite_ckplay_bsp/\libhal_bsp.a(alt_tick.o)
 .debug_ranges  0x0000000000001148       0x30 ../sodalite_ckplay_bsp/\libhal_bsp.a(alt_exception_entry.o)
 .debug_ranges  0x0000000000001178       0x18 ../sodalite_ckplay_bsp/\libhal_bsp.a(alt_instruction_exception_entry.o)
 .debug_ranges  0x0000000000001190       0x18 c:/develop/altera/14.0/nios2eds/bin/gnu/h-x86_64-mingw32/bin/../lib/gcc/nios2-elf/4.7.3/../../../../../H-x86_64-mingw32/nios2-elf/lib/mhw-mulx\libc.a(lib_a-__call_atexit.o)
